L251 LINKER/LOCATER V4.66.93.0                                                          03/12/2024  22:14:56  PAGE 1


L251 LINKER/LOCATER V4.66.93.0, INVOKED BY:
D:\KEIL5\KEIL5_MDK\KEIL5_MDK_32\C251\BIN\L251.EXE .\Out_File\board.obj, .\Out_File\common.obj, .\Out_File\SEEKFREE_PRINT
>> F.obj, .\Out_File\zf_adc.obj, .\Out_File\zf_delay.obj, .\Out_File\zf_eeprom.obj, .\Out_File\zf_exti.obj, .\Out_File\z
>> f_gpio.obj, .\Out_File\zf_iic.obj, .\Out_File\zf_nvic.obj, .\Out_File\zf_pwm.obj, .\Out_File\zf_spi.obj, .\Out_File\z
>> f_tim.obj, .\Out_File\zf_uart.obj, .\Out_File\zf_fifo.obj, .\Out_File\SEEKFREE_18TFT.obj, .\Out_File\SEEKFREE_ABSOLUT
>> E_ENCODER.obj, .\Out_File\SEEKFREE_FONT.obj, .\Out_File\SEEKFREE_IIC.obj, .\Out_File\SEEKFREE_MPU6050.obj, .\Out_File
>> \SEEKFREE_OLED.obj, .\Out_File\SEEKFREE_AT24C02.obj, .\Out_File\SEEKFREE_BLUETOOTH_CH9141.obj, .\Out_File\SEEKFREE_IC
>> M20602.obj, .\Out_File\SEEKFREE_IPS114_SPI.obj, .\Out_File\SEEKFREE_TSL1401.obj, .\Out_File\SEEKFREE_VIRSCO.obj, .\Ou
>> t_File\SEEKFREE_WIRELESS.obj, .\Out_File\SEEKFREE_WIRELESS_CH573.obj, .\Out_File\isr.obj, .\Out_File\main.obj, .\Out_
>> File\motor.obj, .\Out_File\ADC.obj, .\Out_File\PID.obj, .\Out_File\MPU6050.obj, .\Out_File\TOF.obj, .\Out_File\Elemen
>> t.obj, .\Out_File\Buzzer.obj, .\Out_File\Key.obj, .\Out_File\UI.obj TO .\Out_File\SEEKFREE PRINT (.\Out_File\SEEKFREE
>> .map) CASE DISABLEWARNING (16, 57) REMOVEUNUSED CLASSES (EDATA (0X0-0XFFF), HDATA (0X0-0XFFF))


CPU MODE:     251 SOURCE MODE
INTR FRAME:   2 BYTES SAVED ON INTERRUPT
MEMORY MODEL: XSMALL WITH FLOATING POINT ARITHMETIC


INPUT MODULES INCLUDED:
  .\Out_File\board.obj (board)
         COMMENT TYPE 0: C251 V5.60.0
  .\Out_File\common.obj (common)
         COMMENT TYPE 0: C251 V5.60.0
  .\Out_File\SEEKFREE_PRINTF.obj (SEEKFREE_PRINTF)
         COMMENT TYPE 0: C251 V5.60.0
  .\Out_File\zf_adc.obj (zf_adc)
         COMMENT TYPE 0: C251 V5.60.0
  .\Out_File\zf_delay.obj (zf_delay)
         COMMENT TYPE 0: C251 V5.60.0
  .\Out_File\zf_eeprom.obj (zf_eeprom)
         COMMENT TYPE 0: C251 V5.60.0
  .\Out_File\zf_exti.obj (zf_exti)
         COMMENT TYPE 0: C251 V5.60.0
  .\Out_File\zf_gpio.obj (zf_gpio)
         COMMENT TYPE 0: C251 V5.60.0
  .\Out_File\zf_iic.obj (zf_iic)
         COMMENT TYPE 0: C251 V5.60.0
  .\Out_File\zf_nvic.obj (zf_nvic)
         COMMENT TYPE 0: C251 V5.60.0
  .\Out_File\zf_pwm.obj (zf_pwm)
         COMMENT TYPE 0: C251 V5.60.0
  .\Out_File\zf_spi.obj (zf_spi)
         COMMENT TYPE 0: C251 V5.60.0
  .\Out_File\zf_tim.obj (zf_tim)
         COMMENT TYPE 0: C251 V5.60.0
  .\Out_File\zf_uart.obj (zf_uart)
         COMMENT TYPE 0: C251 V5.60.0
  .\Out_File\zf_fifo.obj (zf_fifo)
         COMMENT TYPE 0: C251 V5.60.0
  .\Out_File\SEEKFREE_18TFT.obj (SEEKFREE_18TFT)
         COMMENT TYPE 0: C251 V5.60.0
  .\Out_File\SEEKFREE_ABSOLUTE_ENCODER.obj (SEEKFREE_ABSOLUTE_ENCODER)
         COMMENT TYPE 0: C251 V5.60.0
  .\Out_File\SEEKFREE_FONT.obj (SEEKFREE_FONT)
         COMMENT TYPE 0: C251 V5.60.0
  .\Out_File\SEEKFREE_IIC.obj (SEEKFREE_IIC)
         COMMENT TYPE 0: C251 V5.60.0
  .\Out_File\SEEKFREE_MPU6050.obj (SEEKFREE_MPU6050)
         COMMENT TYPE 0: C251 V5.60.0
  .\Out_File\SEEKFREE_OLED.obj (SEEKFREE_OLED)
         COMMENT TYPE 0: C251 V5.60.0
  .\Out_File\SEEKFREE_AT24C02.obj (SEEKFREE_AT24C02)
         COMMENT TYPE 0: C251 V5.60.0
  .\Out_File\SEEKFREE_BLUETOOTH_CH9141.obj (SEEKFREE_BLUETOOTH_CH9141)
         COMMENT TYPE 0: C251 V5.60.0
L251 LINKER/LOCATER V4.66.93.0                                                        03/12/2024  22:14:56  PAGE 2


  .\Out_File\SEEKFREE_ICM20602.obj (SEEKFREE_ICM20602)
         COMMENT TYPE 0: C251 V5.60.0
  .\Out_File\SEEKFREE_IPS114_SPI.obj (SEEKFREE_IPS114_SPI)
         COMMENT TYPE 0: C251 V5.60.0
  .\Out_File\SEEKFREE_TSL1401.obj (SEEKFREE_TSL1401)
         COMMENT TYPE 0: C251 V5.60.0
  .\Out_File\SEEKFREE_VIRSCO.obj (SEEKFREE_VIRSCO)
         COMMENT TYPE 0: C251 V5.60.0
  .\Out_File\SEEKFREE_WIRELESS.obj (SEEKFREE_WIRELESS)
         COMMENT TYPE 0: C251 V5.60.0
  .\Out_File\SEEKFREE_WIRELESS_CH573.obj (SEEKFREE_WIRELESS_CH573)
         COMMENT TYPE 0: C251 V5.60.0
  .\Out_File\isr.obj (isr)
         COMMENT TYPE 0: C251 V5.60.0
  .\Out_File\main.obj (main)
         COMMENT TYPE 0: C251 V5.60.0
  .\Out_File\motor.obj (motor)
         COMMENT TYPE 0: C251 V5.60.0
  .\Out_File\ADC.obj (ADC)
         COMMENT TYPE 0: C251 V5.60.0
  .\Out_File\PID.obj (PID)
         COMMENT TYPE 0: C251 V5.60.0
  .\Out_File\MPU6050.obj (MPU6050)
         COMMENT TYPE 0: C251 V5.60.0
  .\Out_File\TOF.obj (TOF)
         COMMENT TYPE 0: C251 V5.60.0
  .\Out_File\Element.obj (Element)
         COMMENT TYPE 0: C251 V5.60.0
  .\Out_File\Buzzer.obj (Buzzer)
         COMMENT TYPE 0: C251 V5.60.0
  .\Out_File\Key.obj (Key)
         COMMENT TYPE 0: C251 V5.60.0
  .\Out_File\UI.obj (UI)
         COMMENT TYPE 0: C251 V5.60.0
  D:\KEIL5\KEIL5_MDK\KEIL5_MDK_32\C251\LIB\C2SFPXS.LIB (?C?FPADD)
         COMMENT TYPE 0: A251 V4.69.6.0
  D:\KEIL5\KEIL5_MDK\KEIL5_MDK_32\C251\LIB\C2SFPXS.LIB (?C?FPMUL)
         COMMENT TYPE 0: A251 V4.69.6.0
  D:\KEIL5\KEIL5_MDK\KEIL5_MDK_32\C251\LIB\C2SFPXS.LIB (?C?FPDIV)
         COMMENT TYPE 0: A251 V4.69.6.0
  D:\KEIL5\KEIL5_MDK\KEIL5_MDK_32\C251\LIB\C2SFPXS.LIB (?C?FPCMP)
         COMMENT TYPE 0: A251 V4.69.6.0
  D:\KEIL5\KEIL5_MDK\KEIL5_MDK_32\C251\LIB\C2SFPXS.LIB (?C?FPNEG)
         COMMENT TYPE 0: A251 V4.69.6.0
  D:\KEIL5\KEIL5_MDK\KEIL5_MDK_32\C251\LIB\C2SFPXS.LIB (?C?FCAST)
         COMMENT TYPE 0: A251 V4.69.6.0
  D:\KEIL5\KEIL5_MDK\KEIL5_MDK_32\C251\LIB\C2SFPXS.LIB (?C?CASTF)
         COMMENT TYPE 0: A251 V4.69.6.0
  D:\KEIL5\KEIL5_MDK\KEIL5_MDK_32\C251\LIB\C2SFPXS.LIB (PRINTF)
         COMMENT TYPE 0: A251 V4.69.6.0
  D:\KEIL5\KEIL5_MDK\KEIL5_MDK_32\C251\LIB\C2SFPXS.LIB (SQRT?_)
         COMMENT TYPE 0: A251 V4.69.6.0
  D:\KEIL5\KEIL5_MDK\KEIL5_MDK_32\C251\LIB\C2SFPXS.LIB (ASIN?_)
         COMMENT TYPE 0: A251 V4.69.6.0
  D:\KEIL5\KEIL5_MDK\KEIL5_MDK_32\C251\LIB\C2SFPXS.LIB (atan2)
         COMMENT TYPE 0: C251 V5.58.7
  D:\KEIL5\KEIL5_MDK\KEIL5_MDK_32\C251\LIB\C2SFPXS.LIB (?C?FPGETOPN)
         COMMENT TYPE 0: A251 V4.69.6.0
  D:\KEIL5\KEIL5_MDK\KEIL5_MDK_32\C251\LIB\C2SFPXS.LIB (?C?PRNFMT)
         COMMENT TYPE 0: A251 V4.69.6.0
  D:\KEIL5\KEIL5_MDK\KEIL5_MDK_32\C251\LIB\C2SFPXS.LIB (ATAN?_)
         COMMENT TYPE 0: A251 V4.69.6.0
  D:\KEIL5\KEIL5_MDK\KEIL5_MDK_32\C251\LIB\C2SFPXS.LIB (?C?FPCONVERT)
         COMMENT TYPE 0: A251 V4.69.6.0
  D:\KEIL5\KEIL5_MDK\KEIL5_MDK_32\C251\LIB\C2SFPXS.LIB (?C?FPSERIES)
L251 LINKER/LOCATER V4.66.93.0                                                        03/12/2024  22:14:56  PAGE 3


         COMMENT TYPE 0: A251 V4.69.6.0
  D:\KEIL5\KEIL5_MDK\KEIL5_MDK_32\C251\LIB\C2SFPXS.LIB (?C?FTNPWR)
         COMMENT TYPE 0: A251 V4.69.6.0
  D:\KEIL5\KEIL5_MDK\KEIL5_MDK_32\C251\LIB\C2SXS.LIB (?C_START)
         COMMENT TYPE 0: A251 V4.69.6.0
  D:\KEIL5\KEIL5_MDK\KEIL5_MDK_32\C251\LIB\C2SXS.LIB (?C?INITEDATA)
         COMMENT TYPE 0: A251 V4.69.6.0
  D:\KEIL5\KEIL5_MDK\KEIL5_MDK_32\C251\LIB\C2SXS.LIB (?C?SIDIV)
         COMMENT TYPE 0: A251 V4.69.6.0
  D:\KEIL5\KEIL5_MDK\KEIL5_MDK_32\C251\LIB\C2SXS.LIB (?C?LMUL)
         COMMENT TYPE 0: A251 V4.69.6.0
  D:\KEIL5\KEIL5_MDK\KEIL5_MDK_32\C251\LIB\C2SXS.LIB (?C?LIMUL)
         COMMENT TYPE 0: A251 V4.69.6.0
  D:\KEIL5\KEIL5_MDK\KEIL5_MDK_32\C251\LIB\C2SXS.LIB (?C?ULDIV)
         COMMENT TYPE 0: A251 V4.69.6.0
  D:\KEIL5\KEIL5_MDK\KEIL5_MDK_32\C251\LIB\C2SXS.LIB (?C?SLDIV)
         COMMENT TYPE 0: A251 V4.69.6.0
  D:\KEIL5\KEIL5_MDK\KEIL5_MDK_32\C251\LIB\C2SXS.LIB (ABS)
         COMMENT TYPE 0: C251 V5.58.7
  D:\KEIL5\KEIL5_MDK\KEIL5_MDK_32\C251\LIB\C2SXS.LIB (STRCPY?_)
         COMMENT TYPE 0: A251 V4.69.6.0
  D:\KEIL5\KEIL5_MDK\KEIL5_MDK_32\C251\LIB\C2SXS.LIB (memcpy)
         COMMENT TYPE 0: C251 V5.58.7
  D:\KEIL5\KEIL5_MDK\KEIL5_MDK_32\C251\LIB\C2SXS.LIB (memset)
         COMMENT TYPE 0: C251 V5.58.7
  D:\KEIL5\KEIL5_MDK\KEIL5_MDK_32\C251\LIB\C2SXS.LIB (?C?INITEDATA_END)
         COMMENT TYPE 0: A251 V4.69.6.0


ACTIVE MEMORY CLASSES OF MODULE:  .\Out_File\SEEKFREE (board)

BASE        START       END         USED      MEMORY CLASS
==========================================================
000000H     000000H     000FFFH     000778H   EDATA
000000H     000000H     000FFFH               HDATA
FF0000H     FF0000H     FFFFFFH     0058F1H   CODE
000000H     FF0000H     FFFFFFH     00028EH   HCONST
FF0000H     FF0000H     FFFFFFH     000004H   CONST
000000H     000000H     00007FH     000008H   DATA


MEMORY MAP OF MODULE:  .\Out_File\SEEKFREE (board)


START     STOP      LENGTH    ALIGN  RELOC    MEMORY CLASS   SEGMENT NAME
=========================================================================
000000H   000007H   000008H   ---    AT..     DATA           "REG BANK 0"
000008H   00013CH   000135H   BYTE   UNIT     EDATA          ?ED?UI
00013DH   00023DH   000101H   BYTE   UNIT     EDATA          ?ED?SEEKFREE_TSL1401
00023EH   00030AH   0000CDH   BYTE   UNIT     EDATA          ?ED?ZF_UART
00030BH   0003A1H   000097H   BYTE   UNIT     EDATA          _EDATA_GROUP_
0003A2H   00041BH   00007AH   BYTE   UNIT     EDATA          ?ED?MOTOR
00041CH   000486H   00006BH   BYTE   UNIT     EDATA          ?ED?MPU6050
000487H   0004DBH   000055H   BYTE   UNIT     EDATA          ?ED?SEEKFREE_BLUETOOTH_CH9141
0004DCH   000530H   000055H   BYTE   UNIT     EDATA          ?ED?SEEKFREE_WIRELESS
000531H   000585H   000055H   BYTE   UNIT     EDATA          ?ED?SEEKFREE_WIRELESS_CH573
000586H   0005D5H   000050H   BYTE   UNIT     EDATA          ?ED?ADC
0005D6H   000611H   00003CH   BYTE   UNIT     EDATA          ?ED?MAIN
000612H   000642H   000031H   BYTE   UNIT     EDATA          ?ED?ELEMENT
000643H   00064EH   00000CH   BYTE   UNIT     EDATA          ?ED?SEEKFREE_MPU6050
00064FH   00065AH   00000CH   BYTE   UNIT     EDATA          ?ED?SEEKFREE_ICM20602
00065BH   000664H   00000AH   BYTE   UNIT     EDATA          ?ED?SEEKFREE_VIRSCO
000665H   00066BH   000007H   BYTE   UNIT     EDATA          ?ED?SEEKFREE_IIC
00066CH   00066FH   000004H   BYTE   UNIT     EDATA          ?ED?BOARD
000670H   000673H   000004H   BYTE   UNIT     EDATA          ?ED?ZF_DELAY
L251 LINKER/LOCATER V4.66.93.0                                                        03/12/2024  22:14:56  PAGE 4


000674H   000676H   000003H   BYTE   UNIT     EDATA          ?ED?TOF
000677H   000679H   000003H   BYTE   UNIT     EDATA          ?ED?KEY
00067AH   00067BH   000002H   BYTE   UNIT     EDATA          ?ED?COMMON
00067CH   00067DH   000002H   BYTE   UNIT     EDATA          ?ED?ISR
00067EH   00067FH   000002H   BYTE   UNIT     EDATA          ?ED?BUZZER
000680H   00077FH   000100H   BYTE   UNIT     EDATA          ?STACK
000780H   FEFFFFH   FEF880H   ---    ---      **GAP**
FF0000H   FF0002H   000003H   ---    OFFS..   CODE           ?CO?start251?4
FF0003H   FF0005H   000003H   ---    OFFS..   CODE           ?PR?IV?0
FF0006H   FF000AH   000005H   BYTE   INSEG    CODE           ?PR?I2C_SDA_READ?MPU6050
FF000BH   FF000DH   000003H   ---    OFFS..   CODE           ?PR?IV?1
FF000EH   FF0010H   000003H   BYTE   INSEG    CODE           ?PR?ENABLEGLOBALIRQ?BOARD
FF0011H   FF0011H   000001H   BYTE   INSEG    CODE           ?PR?INT1_ISR?ISR
FF0012H   FF0012H   000001H   BYTE   INSEG    CODE           ?PR?TM0_ISR?ISR
FF0013H   FF0015H   000003H   ---    OFFS..   CODE           ?PR?IV?2
FF0016H   FF0018H   000003H   BYTE   INSEG    CODE           ?PR?DISABLEGLOBALIRQ?BOARD
FF0019H   FF0019H   000001H   BYTE   INSEG    CODE           ?PR?TM1_ISR?ISR
FF001AH   FF001AH   000001H   ---    ---      **GAP**
FF001BH   FF001DH   000003H   ---    OFFS..   CODE           ?PR?IV?3
FF001EH   FF0020H   000003H   BYTE   INSEG    CODE           ?PR?I2C_SDA_H?MPU6050
FF0021H   FF0022H   000002H   ---    ---      **GAP**
FF0023H   FF0025H   000003H   ---    OFFS..   CODE           ?PR?IV?4
FF0026H   FF0042H   00001DH   BYTE   INSEG    CODE           ?PR?GETFIFOCOUNT?MPU6050
FF0043H   FF0045H   000003H   ---    OFFS..   CODE           ?PR?IV?8
FF0046H   FF0052H   00000DH   BYTE   INSEG    CODE           ?PR?MPU_READ_BITS?MPU6050
FF0053H   FF0055H   000003H   ---    OFFS..   CODE           ?PR?IV?10
FF0056H   FF0058H   000003H   BYTE   INSEG    CODE           ?PR?I2C_SDA_L?MPU6050
FF0059H   FF005AH   000002H   ---    ---      **GAP**
FF005BH   FF005DH   000003H   ---    OFFS..   CODE           ?PR?IV?11
FF005EH   FF0060H   000003H   BYTE   INSEG    CODE           ?PR?I2C_SCL_H?MPU6050
FF0061H   FF0062H   000002H   ---    ---      **GAP**
FF0063H   FF0065H   000003H   ---    OFFS..   CODE           ?PR?IV?12
FF0066H   FF007EH   000019H   BYTE   INSEG    CODE           ?PR?BLUETOOTH_CH9141_UART_CALLBACK?SEEKFREE_BLUETOOTH_CH91
                                                             -41
FF007FH   FF0081H   000003H   BYTE   INSEG    CODE           ?PR?I2C_SCL_L?MPU6050
FF0082H   FF0082H   000001H   ---    ---      **GAP**
FF0083H   FF0085H   000003H   ---    OFFS..   CODE           ?PR?IV?16
FF0086H   FF0089H   000004H   BYTE   UNIT     CONST          ?CO?PRINTF
FF008AH   FF008AH   000001H   ---    ---      **GAP**
FF008BH   FF008DH   000003H   ---    OFFS..   CODE           ?PR?IV?17
FF008EH   FF0092H   000005H   ---    ---      **GAP**
FF0093H   FF0095H   000003H   ---    OFFS..   CODE           ?PR?IV?18
FF0096H   FF009AH   000005H   ---    ---      **GAP**
FF009BH   FF009DH   000003H   ---    OFFS..   CODE           ?PR?IV?19
FF009EH   FF00A2H   000005H   ---    ---      **GAP**
FF00A3H   FF00A5H   000003H   ---    OFFS..   CODE           ?PR?IV?20
FF00A6H   FF0EADH   000E08H   BYTE   UNIT     CODE           ?CO?SEEKFREE_FONT
FF0EAEH   FF1A25H   000B78H   BYTE   UNIT     CODE           ?C?LIB_CODE
FF1A26H   FF229DH   000878H   BYTE   UNIT     CODE           ?CO?MPU6050
FF229EH   FF2797H   0004FAH   BYTE   INSEG    CODE           ?PR?ZF_SPRINTF?SEEKFREE_PRINTF
FF2798H   FF2B8EH   0003F7H   BYTE   INSEG    CODE           ?PR?GPIO_MODE?ZF_GPIO
FF2B8FH   FF2F2DH   00039FH   BYTE   INSEG    CODE           ?PR?MAIN?MAIN
FF2F2EH   FF3211H   0002E4H   BYTE   INSEG    CODE           ?PR?PWM_INIT?ZF_PWM
FF3212H   FF34B2H   0002A1H   BYTE   INSEG    CODE           ?PR?PWM_SET_GPIO?ZF_PWM
FF34B3H   FF374CH   00029AH   BYTE   INSEG    CODE           ?PR?MPU6050_REFRESH_DMP?MPU6050
FF374DH   FF3978H   00022CH   BYTE   INSEG    CODE           ?PR?DMPINITIALIZE?MPU6050
FF3979H   FF3B37H   0001BFH   BYTE   INSEG    CODE           ?PR?UART_INIT?ZF_UART
FF3B38H   FF3CA6H   00016FH   BYTE   INSEG    CODE           ?PR?ADC_GETVALUE?ADC
FF3CA7H   FF3DD2H   00012CH   BYTE   INSEG    CODE           ?PR?GET_RATIO?MAIN
FF3DD3H   FF3EDEH   00010CH   BYTE   INSEG    CODE           ?PR?ELEM_CIRCLE_L?ELEMENT
FF3EDFH   FF3FEAH   00010CH   BYTE   INSEG    CODE           ?PR?ELEM_CIRCLE_R?ELEMENT
FF3FEBH   FF40E2H   0000F8H   BYTE   INSEG    CODE           ?PR?OLED_PRINTF_FLOAT?SEEKFREE_OLED
FF40E3H   FF41D2H   0000F0H   BYTE   INSEG    CODE           ?PR?VALUE_NAME_INIT?UI
FF41D3H   FF42BAH   0000E8H   BYTE   INSEG    CODE           ?PR?OLED_P8X16STR?SEEKFREE_OLED
FF42BBH   FF439AH   0000E0H   BYTE   INSEG    CODE           ?PR?FIFO_WRITE_BUFFER?ZF_FIFO
L251 LINKER/LOCATER V4.66.93.0                                                        03/12/2024  22:14:56  PAGE 5


FF439BH   FF4471H   0000D7H   BYTE   INSEG    CODE           ?PR?INIT_ALL?MAIN
FF4472H   FF4538H   0000C7H   BYTE   INSEG    CODE           ?PR?PID_CALCULATE?PID
FF4539H   FF45F6H   0000BEH   BYTE   INSEG    CODE           ?PR?LEFT_SETSPEED?MOTOR
FF45F7H   FF46AEH   0000B8H   BYTE   INSEG    CODE           ?PR?PWM_DUTY?ZF_PWM
FF46AFH   FF475AH   0000ACH   BYTE   INSEG    CODE           ?PR?RIGHT_SETSPEED?MOTOR
FF475BH   FF4800H   0000A6H   BYTE   INSEG    CODE           ?PR?LOADCFGUPD?MPU6050
FF4801H   FF48A3H   0000A3H   BYTE   INSEG    CODE           ?PR?OLED_INIT?SEEKFREE_OLED
FF48A4H   FF4937H   000094H   BYTE   INSEG    CODE           ?PR?PIT_TIMER_MS?ZF_TIM
FF4938H   FF49C9H   000092H   BYTE   INSEG    CODE           ?PR?NUMBER_CONVERSION_ASCII?SEEKFREE_PRINTF
FF49CAH   FF4A54H   00008BH   BYTE   INSEG    CODE           ?PR?XDMPUPDATES?MPU6050
FF4A55H   FF4ADCH   000088H   BYTE   INSEG    CODE           ?PR?REFRESH_VALUE?UI
FF4ADDH   FF4B5DH   000081H   BYTE   INSEG    CODE           ?PR?BOARD_INIT?BOARD
FF4B5EH   FF4BDEH   000081H   BYTE   INSEG    CODE           ?PR?LOADFIRMWARE?MPU6050
FF4BDFH   FF4C5EH   000080H   BYTE   INSEG    CODE           ?PR?TM4_ISR?ISR
FF4C5FH   FF4CDBH   00007DH   BYTE   INSEG    CODE           ?PR?I2C_WRITE_BITS?MPU6050
FF4CDCH   FF4D55H   00007AH   BYTE   INSEG    CODE           ?PR?I2C_MEM_READ?MPU6050
FF4D56H   FF4DCBH   000076H   BYTE   INSEG    CODE           ?PR?GETKEY_VALUE?KEY
FF4DCCH   FF4E36H   00006BH   BYTE   INSEG    CODE           ?PR?I2C_READ_BITS?MPU6050
FF4E37H   FF4E9FH   000069H   BYTE   INSEG    CODE           ?PR?UART4_ISR?ISR
FF4EA0H   FF4F02H   000063H   BYTE   INSEG    CODE           ?PR?GET_SPEED?MOTOR
FF4F03H   FF4F61H   00005FH   BYTE   INSEG    CODE           ?PR?I2C_MEM_WRITE?MPU6050
FF4F62H   FF4FBFH   00005EH   BYTE   INSEG    CODE           ?PR?ADC_INIT?ZF_ADC
FF4FC0H   FF501BH   00005CH   BYTE   INSEG    CODE           ?PR?I2C_WRITE_BIT?MPU6050
FF501CH   FF5073H   000058H   BYTE   INSEG    CODE           ?PR?MPU_GET_GYROSCOPE?MPU6050
FF5074H   FF50C7H   000054H   BYTE   INSEG    CODE           ?PR?UART_PUTCHAR?ZF_UART
FF50C8H   FF511BH   000054H   BYTE   INSEG    CODE           ?PR?PID_INIT?PID
FF511CH   FF516CH   000051H   BYTE   INSEG    CODE           ?PR?CTIMER_COUNT_CLEAN?ZF_TIM
FF516DH   FF51B9H   00004DH   BYTE   INSEG    CODE           ?PR?CTIMER_COUNT_READ?ZF_TIM
FF51BAH   FF5203H   00004AH   BYTE   INSEG    CODE           ?PR?CTIMER_COUNT_INIT?ZF_TIM
FF5204H   FF5248H   000045H   BYTE   INSEG    CODE           ?PR?ATAN2?_?ATAN2
FF5249H   FF528CH   000044H   BYTE   INSEG    CODE           ?PR?MOTOR_INIT?MOTOR
FF528DH   FF52CEH   000042H   BYTE   INSEG    CODE           ?PR?FIFO_HEAD_OFFSET?ZF_FIFO
FF52CFH   FF530EH   000040H   BYTE   INSEG    CODE           ?PR?OLED_SHOW?UI
FF530FH   FF534DH   00003FH   BYTE   INSEG    CODE           ?PR?OLED_ALL_STATIC_STATE?UI
FF534EH   FF5360H   000013H   BYTE   UNIT     CODE           ?C_C51STARTUP
FF5361H   FF5389H   000029H   BYTE   UNIT     CODE           ?C_C51STARTUP?2
FF538AH   FF538CH   000003H   BYTE   UNIT     CODE           ?C_C51STARTUP?3
FF538DH   FF53CAH   00003EH   BYTE   INSEG    CODE           ?PR?PRINTF_REVERSE_ORDER?SEEKFREE_PRINTF
FF53CBH   FF5407H   00003DH   BYTE   INSEG    CODE           ?PR?UART1_ISR?ISR
FF5408H   FF5443H   00003CH   BYTE   INSEG    CODE           ?PR?ELEM_UP_DOWN?ELEMENT
FF5444H   FF547CH   000039H   BYTE   INSEG    CODE           ?PR?DELAY_INIT?ZF_DELAY
FF547DH   FF54B3H   000037H   BYTE   INSEG    CODE           ?PR?I2C_READ_BYTE?MPU6050
FF54B4H   FF54E6H   000033H   BYTE   INSEG    CODE           ?PR?OLED_FILL?SEEKFREE_OLED
FF54E7H   FF5519H   000033H   BYTE   INSEG    CODE           ?PR?I2C_READ_BIT?MPU6050
FF551AH   FF554CH   000033H   BYTE   INSEG    CODE           ?PR?I2C_WRITE_BYTE?MPU6050
FF554DH   FF557FH   000033H   BYTE   INSEG    CODE           ?PR?INITMPU6050?MPU6050
FF5580H   FF55ADH   00002EH   BYTE   INSEG    CODE           ?PR?ADC_ONCE?ZF_ADC
FF55AEH   FF55D8H   00002BH   BYTE   INSEG    CODE           ?PR?LIMIT_OUT?MOTOR
FF55D9H   FF5603H   00002BH   BYTE   INSEG    CODE           ?PR?ADC_INITALL?ADC
FF5604H   FF562DH   00002AH   BYTE   INSEG    CODE           ?PR?I2C_WAIT_ACK?MPU6050
FF562EH   FF5656H   000029H   BYTE   INSEG    CODE           ?PR?OLED_WRCMD?SEEKFREE_OLED
FF5657H   FF567FH   000029H   BYTE   INSEG    CODE           ?PR?OLED_WRDAT?SEEKFREE_OLED
FF5680H   FF56A4H   000025H   BYTE   INSEG    CODE           ?PR?MEMCPY?_?MEMCPY
FF56A5H   FF56C8H   000024H   BYTE   INSEG    CODE           ?PR?KEY_INIT?KEY
FF56C9H   FF56EBH   000023H   BYTE   INSEG    CODE           ?PR?OLED_SET_POS?SEEKFREE_OLED
FF56ECH   FF570EH   000023H   BYTE   INSEG    CODE           ?PR?MPU6050_DMP_INIT?MPU6050
FF570FH   FF572EH   000020H   BYTE   INSEG    CODE           ?PR?GETDEVICEID?MPU6050
FF572FH   FF574CH   00001EH   BYTE   INSEG    CODE           ?PR?UART2_ISR?ISR
FF574DH   FF576AH   00001EH   BYTE   INSEG    CODE           ?PR?UART3_ISR?ISR
FF576BH   FF5783H   000019H   BYTE   INSEG    CODE           ?PR?WIRELESS_UART_CALLBACK?SEEKFREE_WIRELESS
FF5784H   FF579CH   000019H   BYTE   INSEG    CODE           ?PR?WIRELESS_CH573_CALLBACK?SEEKFREE_WIRELESS_CH573
FF579DH   FF57B3H   000017H   BYTE   INSEG    CODE           ?PR?DELAY_MS?ZF_DELAY
FF57B4H   FF57C8H   000015H   BYTE   INSEG    CODE           ?PR?I2C_ACK?MPU6050
FF57C9H   FF57DDH   000015H   BYTE   INSEG    CODE           ?PR?MPU_WRITE_BYTE?MPU6050
FF57DEH   FF57F1H   000014H   BYTE   INSEG    CODE           ?PR?MPU_DELAY_MS?MPU6050
L251 LINKER/LOCATER V4.66.93.0                                                        03/12/2024  22:14:56  PAGE 6


FF57F2H   FF5804H   000013H   BYTE   UNIT     CODE           ?PR?STRCPY?_
FF5805H   FF5816H   000012H   BYTE   INSEG    CODE           ?PR?I2C_NACK?MPU6050
FF5817H   FF5828H   000012H   BYTE   INSEG    CODE           ?PR?I2C_START?MPU6050
FF5829H   FF5839H   000011H   BYTE   INSEG    CODE           ?PR?BUZZER_INIT?BUZZER
FF583AH   FF5849H   000010H   BYTE   INSEG    CODE           ?PR?ABS?_?ABS
FF584AH   FF5858H   00000FH   BYTE   INSEG    CODE           ?PR?I2C_STOP?MPU6050
FF5859H   FF5867H   00000FH   BYTE   INSEG    CODE           ?PR?READDMP?MPU6050
FF5868H   FF5875H   00000EH   BYTE   INSEG    CODE           ?PR?PUTCHAR?BOARD
FF5876H   FF5882H   00000DH   BYTE   INSEG    CODE           ?PR?MPU_WRITE_BITS?MPU6050
FF5883H   FF588FH   00000DH   BYTE   INSEG    CODE           ?PR?MPU_WRITE_BIT?MPU6050
FF5890H   FF589AH   00000BH   BYTE   INSEG    CODE           ?PR?MPU_READ_LEN?MPU6050
FF589BH   FF58A5H   00000BH   BYTE   INSEG    CODE           ?PR?I2C_TIMEOUT_DELAY?MPU6050
FF58A6H   FF58B0H   00000BH   BYTE   INSEG    CODE           ?PR?MPU_WRITE_LEN?MPU6050
FF58B1H   FF58BBH   00000BH   BYTE   INSEG    CODE           ?PR?I2C_DELAY?MPU6050
FF58BCH   FF58C5H   00000AH   BYTE   INSEG    CODE           ?PR?DELAY1MS?MPU6050
FF58C6H   FF58CEH   000009H   BYTE   INSEG    CODE           ?PR?MPU_READ_BIT?MPU6050
FF58CFH   FF58D7H   000009H   BYTE   INSEG    CODE           ?PR?UI_INIT?UI
FF58D8H   FF58DFH   000008H   BYTE   INSEG    CODE           ?PR?INT2_ISR?ISR
FF58E0H   FF58E7H   000008H   BYTE   INSEG    CODE           ?PR?INT3_ISR?ISR
FF58E8H   FF58EFH   000008H   BYTE   INSEG    CODE           ?PR?INT4_ISR?ISR
FF58F0H   FF58F7H   000008H   BYTE   INSEG    CODE           ?PR?TM2_ISR?ISR
FF58F8H   FF58FFH   000008H   BYTE   INSEG    CODE           ?PR?TM3_ISR?ISR
FF5900H   FF5906H   000007H   BYTE   INSEG    CODE           ?PR?INT0_ISR?ISR
FF5907H   FF590CH   000006H   BYTE   INSEG    CODE           ?PR?UI_SHOW?UI
FF590DH   FF5A7FH   000173H   BYTE   UNIT     HCONST         ?C_INITEDATA
FF5A80H   FF5AF1H   000072H   BYTE   UNIT     HCONST         ?HC?UI
FF5AF2H   FF5B49H   000058H   BYTE   UNIT     HCONST         ?HC?ZF_PWM
FF5B4AH   FF5B6EH   000025H   BYTE   UNIT     HCONST         ?HC?MAIN
FF5B6FH   FF5B84H   000016H   BYTE   UNIT     HCONST         ?HC?TOF
FF5B85H   FF5B8EH   00000AH   BYTE   UNIT     HCONST         ?HC?SEEKFREE_OLED
FF5B8FH   FF5B94H   000006H   BYTE   UNIT     HCONST         ?HC?SEEKFREE_18TFT
FF5B95H   FF5B9AH   000006H   BYTE   UNIT     HCONST         ?HC?SEEKFREE_IPS114_SPI

* * * * * * * * *   R E M O V E D     S E G M E N T S   * * * * * * * *
   *DEL*:           000019H   BYTE   INSEG    CODE           ?PR?DELAY_US?ZF_DELAY
   *DEL*:           000016H   BYTE   INSEG    CODE           ?PR?IAP_SET_TPS?ZF_EEPROM
   *DEL*:           000015H   BYTE   INSEG    CODE           ?PR?EEPROM_TRIG?ZF_EEPROM
   *DEL*:           00000EH   BYTE   INSEG    CODE           ?PR?IAP_ERASE_PAGE?ZF_EEPROM
   *DEL*:           000004H   BYTE   INSEG    CODE           ?PR?IAP_IDLE?ZF_EEPROM
   *DEL*:           000047H   BYTE   INSEG    CODE           ?PR?IAP_READ_BYTES?ZF_EEPROM
   *DEL*:           00006DH   BYTE   INSEG    CODE           ?PR?EXTERN_IAP_WRITE_BYTES?ZF_EEPROM
   *DEL*:           000006H   BYTE   INSEG    CODE           ?PR?IAP_INIT?ZF_EEPROM
   *DEL*:           000047H   BYTE   INSEG    CODE           ?PR?IAP_WRITE_BYTES?ZF_EEPROM
   *DEL*:           00000CH   BYTE   INSEG    CODE           ?PR?IAP_GET_CMD_STATE?ZF_EEPROM
   *DEL*:           000004H   BYTE   UNIT     EDATA          ?ED?IAP_READ_BYTES?ZF_EEPROM
   *DEL*:           000004H   BYTE   UNIT     EDATA          ?ED?IAP_WRITE_BYTES?ZF_EEPROM
   *DEL*:           000204H   BYTE   UNIT     EDATA          ?ED?EXTERN_IAP_WRITE_BYTES?ZF_EEPROM
   *DEL*:           00003EH   BYTE   INSEG    CODE           ?PR?EXIT_INIT?ZF_EXTI
   *DEL*:           00006EH   BYTE   INSEG    CODE           ?PR?GPIO_PULL_SET?ZF_GPIO
   *DEL*:           000017H   BYTE   INSEG    CODE           ?PR?SEND_DATA?ZF_IIC
   *DEL*:           00002FH   BYTE   INSEG    CODE           ?PR?IIC_CHANGE_PIN?ZF_IIC
   *DEL*:           00001CH   BYTE   INSEG    CODE           ?PR?RECV_DATA?ZF_IIC
   *DEL*:           000010H   BYTE   INSEG    CODE           ?PR?START?ZF_IIC
   *DEL*:           000045H   BYTE   INSEG    CODE           ?PR?WAIT?ZF_IIC
   *DEL*:           000018H   BYTE   INSEG    CODE           ?PR?SEND_ACK?ZF_IIC
   *DEL*:           000010H   BYTE   INSEG    CODE           ?PR?RECV_ACK?ZF_IIC
   *DEL*:           000010H   BYTE   INSEG    CODE           ?PR?STOP?ZF_IIC
   *DEL*:           000019H   BYTE   INSEG    CODE           ?PR?SEND_NAK?ZF_IIC
   *DEL*:           00005EH   BYTE   INSEG    CODE           ?PR?IIC_INIT?ZF_IIC
   *DEL*:           000075H   BYTE   INSEG    CODE           ?PR?IIC_READ_REG?ZF_IIC
   *DEL*:           00009CH   BYTE   INSEG    CODE           ?PR?IIC_READ_REG_BYTES?ZF_IIC
   *DEL*:           000060H   BYTE   INSEG    CODE           ?PR?IIC_WRITE_REG?ZF_IIC
   *DEL*:           000015H   BYTE   INSEG    CODE           ?PR?IIC_DELAY_US?ZF_IIC
   *DEL*:           000004H   BYTE   UNIT     EDATA          ?ED?IIC_INIT?ZF_IIC
   *DEL*:           000004H   BYTE   UNIT     EDATA          ?ED?IIC_READ_REG?ZF_IIC
L251 LINKER/LOCATER V4.66.93.0                                                        03/12/2024  22:14:56  PAGE 7


   *DEL*:           000003H   BYTE   UNIT     EDATA          ?ED?IIC_READ_REG_BYTES?ZF_IIC
   *DEL*:           00006CH   BYTE   INSEG    CODE           ?PR?NVIC_SETPRIORITY?ZF_NVIC
   *DEL*:           000121H   BYTE   INSEG    CODE           ?PR?PWM_FREQ?ZF_PWM
   *DEL*:           000004H   BYTE   UNIT     EDATA          ?ED?PWM_FREQ?ZF_PWM
   *DEL*:           00001DH   BYTE   INSEG    CODE           ?PR?SPI_CHANGE_MODE?ZF_SPI
   *DEL*:           0000AEH   BYTE   INSEG    CODE           ?PR?SPI_CHANGE_PIN?ZF_SPI
   *DEL*:           0000DFH   BYTE   INSEG    CODE           ?PR?SPI_INIT?ZF_SPI
   *DEL*:           00000EH   BYTE   INSEG    CODE           ?PR?SPI_MOSI?ZF_SPI
   *DEL*:           000004H   BYTE   UNIT     EDATA          ?ED?SPI_INIT?ZF_SPI
   *DEL*:           00002DH   BYTE   INSEG    CODE           ?PR?UART_PUTBUFF?ZF_UART
   *DEL*:           00001EH   BYTE   INSEG    CODE           ?PR?UART_PUTSTR?ZF_UART
   *DEL*:           000004H   BYTE   UNIT     EDATA          ?ED?UART_PUTBUFF?ZF_UART
   *DEL*:           000002H   BYTE   UNIT     EDATA          ?ED?UART_PUTSTR?ZF_UART
   *DEL*:           000113H   BYTE   INSEG    CODE           ?PR?FIFO_READ_BUFFER?ZF_FIFO
   *DEL*:           000025H   BYTE   INSEG    CODE           ?PR?FIFO_CLEAR?ZF_FIFO
   *DEL*:           000046H   BYTE   INSEG    CODE           ?PR?FIFO_END_OFFSET?ZF_FIFO
   *DEL*:           000015H   BYTE   INSEG    CODE           ?PR?FIFO_USED?ZF_FIFO
   *DEL*:           000043H   BYTE   INSEG    CODE           ?PR?FIFO_INIT?ZF_FIFO
   *DEL*:           000004H   BYTE   UNIT     EDATA          ?ED?FIFO_INIT?ZF_FIFO
   *DEL*:           00000FH   BYTE   UNIT     EDATA          ?ED?FIFO_READ_BUFFER?ZF_FIFO
   *DEL*:           00008BH   BYTE   INSEG    CODE           ?PR?LCD_SHOWUINT16?SEEKFREE_18TFT
   *DEL*:           000082H   BYTE   INSEG    CODE           ?PR?LCD_SHOWINT32_SIMSPI?SEEKFREE_18TFT
   *DEL*:           0000DDH   BYTE   INSEG    CODE           ?PR?LCD_SHOWINT16_SIMSPI?SEEKFREE_18TFT
   *DEL*:           000082H   BYTE   INSEG    CODE           ?PR?LCD_SHOWINT32?SEEKFREE_18TFT
   *DEL*:           0000DDH   BYTE   INSEG    CODE           ?PR?LCD_SHOWINT16?SEEKFREE_18TFT
   *DEL*:           00002BH   BYTE   INSEG    CODE           ?PR?LCD_CLEAR_SIMSPI?SEEKFREE_18TFT
   *DEL*:           00002BH   BYTE   INSEG    CODE           ?PR?LCD_CLEAR?SEEKFREE_18TFT
   *DEL*:           00004EH   BYTE   INSEG    CODE           ?PR?LCD_SHOWSTR_SIMSPI?SEEKFREE_18TFT
   *DEL*:           00004EH   BYTE   INSEG    CODE           ?PR?LCD_SHOWSTR?SEEKFREE_18TFT
   *DEL*:           000029H   BYTE   INSEG    CODE           ?PR?LCD_WRITEINDEX_SIMSPI?SEEKFREE_18TFT
   *DEL*:           000029H   BYTE   INSEG    CODE           ?PR?LCD_WRITEDATA_SIMSPI?SEEKFREE_18TFT
   *DEL*:           00000AH   BYTE   INSEG    CODE           ?PR?LCD_WRITEINDEX?SEEKFREE_18TFT
   *DEL*:           00000AH   BYTE   INSEG    CODE           ?PR?LCD_WRITEDATA?SEEKFREE_18TFT
   *DEL*:           00002CH   BYTE   INSEG    CODE           ?PR?LCD_WRITEDATA_16BIT_SIMSPI?SEEKFREE_18TFT
   *DEL*:           00004CH   BYTE   INSEG    CODE           ?PR?LCD_SET_REGION_SIMSPI?SEEKFREE_18TFT
   *DEL*:           0001F1H   BYTE   INSEG    CODE           ?PR?LCD_INIT_SIMSPI?SEEKFREE_18TFT
   *DEL*:           00009AH   BYTE   INSEG    CODE           ?PR?SHOWIMAGE?SEEKFREE_18TFT
   *DEL*:           000050H   BYTE   INSEG    CODE           ?PR?LCD_SET_REGION?SEEKFREE_18TFT
   *DEL*:           0001EEH   BYTE   INSEG    CODE           ?PR?LCD_INIT?SEEKFREE_18TFT
   *DEL*:           00007BH   BYTE   INSEG    CODE           ?PR?LCD_SHOWUINT8_SIMSPI?SEEKFREE_18TFT
   *DEL*:           00007BH   BYTE   INSEG    CODE           ?PR?LCD_SHOWUINT8?SEEKFREE_18TFT
   *DEL*:           0000B9H   BYTE   INSEG    CODE           ?PR?LCD_SHOWINT8_SIMSPI?SEEKFREE_18TFT
   *DEL*:           0000B9H   BYTE   INSEG    CODE           ?PR?LCD_SHOWINT8?SEEKFREE_18TFT
   *DEL*:           00001FH   BYTE   INSEG    CODE           ?PR?LCD_WRITEDATA_16BIT?SEEKFREE_18TFT
   *DEL*:           0000F8H   BYTE   INSEG    CODE           ?PR?LCD_SHOWFLOAT_SIMSPI?SEEKFREE_18TFT
   *DEL*:           000013H   BYTE   INSEG    CODE           ?PR?LCD_DRAWPOINT_SIMSPI?SEEKFREE_18TFT
   *DEL*:           0000F8H   BYTE   INSEG    CODE           ?PR?LCD_SHOWFLOAT?SEEKFREE_18TFT
   *DEL*:           000013H   BYTE   INSEG    CODE           ?PR?LCD_DRAWPOINT?SEEKFREE_18TFT
   *DEL*:           00008EH   BYTE   INSEG    CODE           ?PR?LCD_SHOWCHAR_SIMSPI?SEEKFREE_18TFT
   *DEL*:           00008EH   BYTE   INSEG    CODE           ?PR?LCD_SHOWCHAR?SEEKFREE_18TFT
   *DEL*:           00008BH   BYTE   INSEG    CODE           ?PR?LCD_SHOWUINT16_SIMSPI?SEEKFREE_18TFT
   *DEL*:           000004H   BYTE   UNIT     EDATA          ?ED?LCD_SET_REGION_SIMSPI?SEEKFREE_18TFT
   *DEL*:           000004H   BYTE   UNIT     EDATA          ?ED?LCD_SHOWCHAR_SIMSPI?SEEKFREE_18TFT
   *DEL*:           000006H   BYTE   UNIT     EDATA          ?ED?LCD_SHOWSTR_SIMSPI?SEEKFREE_18TFT
   *DEL*:           000005H   BYTE   UNIT     EDATA          ?ED?LCD_SHOWINT8_SIMSPI?SEEKFREE_18TFT
   *DEL*:           000004H   BYTE   UNIT     EDATA          ?ED?LCD_SHOWUINT8_SIMSPI?SEEKFREE_18TFT
   *DEL*:           000008H   BYTE   UNIT     EDATA          ?ED?LCD_SHOWINT16_SIMSPI?SEEKFREE_18TFT
   *DEL*:           000006H   BYTE   UNIT     EDATA          ?ED?LCD_SHOWUINT16_SIMSPI?SEEKFREE_18TFT
   *DEL*:           000028H   BYTE   UNIT     EDATA          ?ED?LCD_SHOWINT32_SIMSPI?SEEKFREE_18TFT
   *DEL*:           00002BH   BYTE   UNIT     EDATA          ?ED?LCD_SHOWFLOAT_SIMSPI?SEEKFREE_18TFT
   *DEL*:           000002H   BYTE   UNIT     EDATA          ?ED?LCD_WRITEDATA_16BIT?SEEKFREE_18TFT
   *DEL*:           000004H   BYTE   UNIT     EDATA          ?ED?LCD_SET_REGION?SEEKFREE_18TFT
   *DEL*:           000004H   BYTE   UNIT     EDATA          ?ED?LCD_SHOWCHAR?SEEKFREE_18TFT
   *DEL*:           000006H   BYTE   UNIT     EDATA          ?ED?LCD_SHOWSTR?SEEKFREE_18TFT
   *DEL*:           000005H   BYTE   UNIT     EDATA          ?ED?LCD_SHOWINT8?SEEKFREE_18TFT
L251 LINKER/LOCATER V4.66.93.0                                                        03/12/2024  22:14:56  PAGE 8


   *DEL*:           000004H   BYTE   UNIT     EDATA          ?ED?LCD_SHOWUINT8?SEEKFREE_18TFT
   *DEL*:           000008H   BYTE   UNIT     EDATA          ?ED?LCD_SHOWINT16?SEEKFREE_18TFT
   *DEL*:           000006H   BYTE   UNIT     EDATA          ?ED?LCD_SHOWUINT16?SEEKFREE_18TFT
   *DEL*:           000028H   BYTE   UNIT     EDATA          ?ED?LCD_SHOWINT32?SEEKFREE_18TFT
   *DEL*:           00002BH   BYTE   UNIT     EDATA          ?ED?LCD_SHOWFLOAT?SEEKFREE_18TFT
   *DEL*:           000008H   BYTE   UNIT     EDATA          ?ED?SHOWIMAGE?SEEKFREE_18TFT
   *DEL*:           000011H   BYTE   INSEG    CODE           ?PR?ENCODER_SELF4_CHECK?SEEKFREE_ABSOLUTE_ENCODER
   *DEL*:           000011H   BYTE   INSEG    CODE           ?PR?ENCODER_SELF5_CHECK?SEEKFREE_ABSOLUTE_ENCODER
   *DEL*:           00002FH   BYTE   INSEG    CODE           ?PR?ENCODER_SPI_R_REG_BYTE?SEEKFREE_ABSOLUTE_ENCODER
   *DEL*:           000005H   BYTE   INSEG    CODE           ?PR?ENCODER_DELAY_US?SEEKFREE_ABSOLUTE_ENCODER
   *DEL*:           000038H   BYTE   INSEG    CODE           ?PR?ENCODER_SPI_W_REG_BYTE?SEEKFREE_ABSOLUTE_ENCODER
   *DEL*:           00001CH   BYTE   INSEG    CODE           ?PR?SIMSPI_R_REG_BYTE?SEEKFREE_ABSOLUTE_ENCODER
   *DEL*:           00001AH   BYTE   INSEG    CODE           ?PR?SIMSPI_W_REG_BYTE?SEEKFREE_ABSOLUTE_ENCODER
   *DEL*:           000029H   BYTE   INSEG    CODE           ?PR?ENCODER_INIT_SPI?SEEKFREE_ABSOLUTE_ENCODER
   *DEL*:           000004H   BYTE   INSEG    CODE           ?PR?SPI_WR_BYTE?SEEKFREE_ABSOLUTE_ENCODER
   *DEL*:           000024H   BYTE   INSEG    CODE           ?PR?SET_ZERO_POSITION_SIMSPI?SEEKFREE_ABSOLUTE_ENCODER
   *DEL*:           000023H   BYTE   INSEG    CODE           ?PR?ENCODER_ANGLE_SIMSPI?SEEKFREE_ABSOLUTE_ENCODER
   *DEL*:           00001CH   BYTE   INSEG    CODE           ?PR?SPI_R_REG_BYTE?SEEKFREE_ABSOLUTE_ENCODER
   *DEL*:           00001AH   BYTE   INSEG    CODE           ?PR?SPI_W_REG_BYTE?SEEKFREE_ABSOLUTE_ENCODER
   *DEL*:           00002FH   BYTE   INSEG    CODE           ?PR?ENCODER_SIMSPI_R_REG_BYTE?SEEKFREE_ABSOLUTE_ENCODER
   *DEL*:           000038H   BYTE   INSEG    CODE           ?PR?ENCODER_SIMSPI_W_REG_BYTE?SEEKFREE_ABSOLUTE_ENCODER
   *DEL*:           00000FH   BYTE   INSEG    CODE           ?PR?ENCODER_INIT_SIMSPI?SEEKFREE_ABSOLUTE_ENCODER
   *DEL*:           000024H   BYTE   INSEG    CODE           ?PR?SET_ZERO_POSITION_SPI?SEEKFREE_ABSOLUTE_ENCODER
   *DEL*:           00001FH   BYTE   INSEG    CODE           ?PR?SIMSPI_WR_BYTE?SEEKFREE_ABSOLUTE_ENCODER
   *DEL*:           000023H   BYTE   INSEG    CODE           ?PR?ENCODER_ANGLE_SPI?SEEKFREE_ABSOLUTE_ENCODER
   *DEL*:           000001H   BYTE   UNIT     EDATA          ?ED?ENCODER_SELF4_CHECK?SEEKFREE_ABSOLUTE_ENCODER
   *DEL*:           000001H   BYTE   UNIT     EDATA          ?ED?ENCODER_SELF5_CHECK?SEEKFREE_ABSOLUTE_ENCODER
   *DEL*:           00000FH   BYTE   INSEG    CODE           ?PR?SIMIIC_START?SEEKFREE_IIC
   *DEL*:           000066H   BYTE   INSEG    CODE           ?PR?SIMIIC_READ_REGS?SEEKFREE_IIC
   *DEL*:           000001H   BYTE   INSEG    CODE           ?PR?SIMIIC_INIT?SEEKFREE_IIC
   *DEL*:           000034H   BYTE   INSEG    CODE           ?PR?SIMIIC_READ_REG?SEEKFREE_IIC
   *DEL*:           000011H   BYTE   INSEG    CODE           ?PR?SIMIIC_STOP?SEEKFREE_IIC
   *DEL*:           000022H   BYTE   INSEG    CODE           ?PR?SIMIIC_WRITE_REG?SEEKFREE_IIC
   *DEL*:           000020H   BYTE   INSEG    CODE           ?PR?SIMIIC_SENDACK?SEEKFREE_IIC
   *DEL*:           00003BH   BYTE   INSEG    CODE           ?PR?READ_CH?SEEKFREE_IIC
   *DEL*:           00002EH   BYTE   INSEG    CODE           ?PR?SEND_CH?SEEKFREE_IIC
   *DEL*:           00001CH   BYTE   INSEG    CODE           ?PR?SCCB_WAITACK?SEEKFREE_IIC
   *DEL*:           00000BH   BYTE   INSEG    CODE           ?PR?SIMIIC_DELAY?SEEKFREE_IIC
   *DEL*:           000005H   BYTE   UNIT     EDATA          ?ED?SIMIIC_READ_REGS?SEEKFREE_IIC
   *DEL*:           000055H   BYTE   INSEG    CODE           ?PR?MPU6050_INIT?SEEKFREE_MPU6050
   *DEL*:           00002CH   BYTE   INSEG    CODE           ?PR?MPU6050_SELF1_CHECK?SEEKFREE_MPU6050
   *DEL*:           000044H   BYTE   INSEG    CODE           ?PR?MPU6050_GET_GYRO?SEEKFREE_MPU6050
   *DEL*:           000044H   BYTE   INSEG    CODE           ?PR?MPU6050_GET_ACCDATA?SEEKFREE_MPU6050
   *DEL*:           000006H   BYTE   UNIT     EDATA          ?ED?MPU6050_GET_ACCDATA?SEEKFREE_MPU6050
   *DEL*:           000006H   BYTE   UNIT     EDATA          ?ED?MPU6050_GET_GYRO?SEEKFREE_MPU6050
   *DEL*:           000033H   BYTE   INSEG    CODE           ?PR?OLED_PUTPIXEL?SEEKFREE_OLED
   *DEL*:           000032H   BYTE   INSEG    CODE           ?PR?OLED_HEXASCII_SPI?SEEKFREE_OLED
   *DEL*:           000325H   BYTE   INSEG    CODE           ?PR?OLED_DIS_BMP_SPI?SEEKFREE_OLED
   *DEL*:           0000E8H   BYTE   INSEG    CODE           ?PR?OLED_P8X16STR_SPI?SEEKFREE_OLED
   *DEL*:           00002AH   BYTE   INSEG    CODE           ?PR?OLED_CLRPIXEL_SPI?SEEKFREE_OLED
   *DEL*:           000090H   BYTE   INSEG    CODE           ?PR?OLED_PRINT_CHINESE_SPI?SEEKFREE_OLED
   *DEL*:           000082H   BYTE   INSEG    CODE           ?PR?OLED_PRINTF_INT32?SEEKFREE_OLED
   *DEL*:           00001DH   BYTE   INSEG    CODE           ?PR?OLED_UINT16?SEEKFREE_OLED
   *DEL*:           000031H   BYTE   INSEG    CODE           ?PR?OLED_PUTPIXEL_SPI?SEEKFREE_OLED
   *DEL*:           000021H   BYTE   INSEG    CODE           ?PR?OLED_SET_POS_SPI?SEEKFREE_OLED
   *DEL*:           0000A9H   BYTE   INSEG    CODE           ?PR?OLED_P6X8STR?SEEKFREE_OLED
   *DEL*:           00004BH   BYTE   INSEG    CODE           ?PR?OLED_INT16?SEEKFREE_OLED
   *DEL*:           0000F8H   BYTE   INSEG    CODE           ?PR?OLED_PRINTF_FLOAT_SPI?SEEKFREE_OLED
   *DEL*:           00000AH   BYTE   INSEG    CODE           ?PR?OLED_WRCMD_SPI?SEEKFREE_OLED
   *DEL*:           00000AH   BYTE   INSEG    CODE           ?PR?OLED_WRDAT_SPI?SEEKFREE_OLED
   *DEL*:           000032H   BYTE   INSEG    CODE           ?PR?OLED_HEXASCII?SEEKFREE_OLED
   *DEL*:           000033H   BYTE   INSEG    CODE           ?PR?OLED_FILL_SPI?SEEKFREE_OLED
   *DEL*:           000082H   BYTE   INSEG    CODE           ?PR?OLED_PRINTF_INT32_SPI?SEEKFREE_OLED
   *DEL*:           00001DH   BYTE   INSEG    CODE           ?PR?OLED_UINT16_SPI?SEEKFREE_OLED
   *DEL*:           0000A9H   BYTE   INSEG    CODE           ?PR?OLED_P6X8STR_SPI?SEEKFREE_OLED
L251 LINKER/LOCATER V4.66.93.0                                                        03/12/2024  22:14:56  PAGE 9


   *DEL*:           00004BH   BYTE   INSEG    CODE           ?PR?OLED_INT16_SPI?SEEKFREE_OLED
   *DEL*:           00033BH   BYTE   INSEG    CODE           ?PR?OLED_DIS_BMP?SEEKFREE_OLED
   *DEL*:           0000BFH   BYTE   INSEG    CODE           ?PR?OLED_INIT_SPI?SEEKFREE_OLED
   *DEL*:           00002CH   BYTE   INSEG    CODE           ?PR?OLED_CLRPIXEL?SEEKFREE_OLED
   *DEL*:           000090H   BYTE   INSEG    CODE           ?PR?OLED_PRINT_CHINESE?SEEKFREE_OLED
   *DEL*:           000005H   BYTE   UNIT     EDATA          ?ED?OLED_P6X8STR?SEEKFREE_OLED
   *DEL*:           000007H   BYTE   UNIT     EDATA          ?ED?OLED_UINT16?SEEKFREE_OLED
   *DEL*:           000007H   BYTE   UNIT     EDATA          ?ED?OLED_INT16?SEEKFREE_OLED
   *DEL*:           000028H   BYTE   UNIT     EDATA          ?ED?OLED_PRINTF_INT32?SEEKFREE_OLED
   *DEL*:           00000CH   BYTE   UNIT     EDATA          ?ED?OLED_DIS_BMP?SEEKFREE_OLED
   *DEL*:           00000AH   BYTE   UNIT     EDATA          ?ED?OLED_PRINT_CHINESE?SEEKFREE_OLED
   *DEL*:           000005H   BYTE   UNIT     EDATA          ?ED?OLED_P6X8STR_SPI?SEEKFREE_OLED
   *DEL*:           000005H   BYTE   UNIT     EDATA          ?ED?OLED_P8X16STR_SPI?SEEKFREE_OLED
   *DEL*:           000007H   BYTE   UNIT     EDATA          ?ED?OLED_UINT16_SPI?SEEKFREE_OLED
   *DEL*:           000007H   BYTE   UNIT     EDATA          ?ED?OLED_INT16_SPI?SEEKFREE_OLED
   *DEL*:           000028H   BYTE   UNIT     EDATA          ?ED?OLED_PRINTF_INT32_SPI?SEEKFREE_OLED
   *DEL*:           00002BH   BYTE   UNIT     EDATA          ?ED?OLED_PRINTF_FLOAT_SPI?SEEKFREE_OLED
   *DEL*:           00000CH   BYTE   UNIT     EDATA          ?ED?OLED_DIS_BMP_SPI?SEEKFREE_OLED
   *DEL*:           00000AH   BYTE   UNIT     EDATA          ?ED?OLED_PRINT_CHINESE_SPI?SEEKFREE_OLED
   *DEL*:           00005EH   BYTE   INSEG    CODE           ?PR?AT24C02_READ_BYTES?SEEKFREE_AT24C02
   *DEL*:           000017H   BYTE   INSEG    CODE           ?PR?AT24C02_READ_BYTE?SEEKFREE_AT24C02
   *DEL*:           00005BH   BYTE   INSEG    CODE           ?PR?AT24C02_WRITE_BYTES?SEEKFREE_AT24C02
   *DEL*:           000019H   BYTE   INSEG    CODE           ?PR?AT24C02_WRITE_BYTE?SEEKFREE_AT24C02
   *DEL*:           000002H   BYTE   UNIT     EDATA          ?ED?AT24C02_WRITE_BYTES?SEEKFREE_AT24C02
   *DEL*:           000002H   BYTE   UNIT     EDATA          ?ED?AT24C02_READ_BYTES?SEEKFREE_AT24C02
   *DEL*:           000022H   BYTE   INSEG    CODE           ?PR?BLUETOOTH_CH9141_READ_BUFF?SEEKFREE_BLUETOOTH_CH9141
   *DEL*:           0000ABH   BYTE   INSEG    CODE           ?PR?BLUETOOTH_CH9141_SEND_BUFF?SEEKFREE_BLUETOOTH_CH9141
   *DEL*:           00003CH   BYTE   INSEG    CODE           ?PR?BLUETOOTH_CH9141_INIT?SEEKFREE_BLUETOOTH_CH9141
   *DEL*:           000006H   BYTE   UNIT     EDATA          ?ED?BLUETOOTH_CH9141_SEND_BUFF?SEEKFREE_BLUETOOTH_CH9141
   *DEL*:           000004H   BYTE   UNIT     EDATA          ?ED?BLUETOOTH_CH9141_READ_BUFF?SEEKFREE_BLUETOOTH_CH9141
   *DEL*:           00001FH   BYTE   INSEG    CODE           ?PR?ICM_SIMSPI_WR_BYTE?SEEKFREE_ICM20602
   *DEL*:           000075H   BYTE   INSEG    CODE           ?PR?ICM20602_INIT_SIMIIC?SEEKFREE_ICM20602
   *DEL*:           000040H   BYTE   INSEG    CODE           ?PR?ICM_SIMSPI_R_REG_BYTES?SEEKFREE_ICM20602
   *DEL*:           00001CH   BYTE   INSEG    CODE           ?PR?ICM_SIMSPI_R_REG_BYTE?SEEKFREE_ICM20602
   *DEL*:           000013H   BYTE   INSEG    CODE           ?PR?ICM_SIMSPI_W_REG_BYTE?SEEKFREE_ICM20602
   *DEL*:           000059H   BYTE   INSEG    CODE           ?PR?ICM20602_INIT_SIMSPI?SEEKFREE_ICM20602
   *DEL*:           00002BH   BYTE   INSEG    CODE           ?PR?ICM20602_SELF1_CHECK?SEEKFREE_ICM20602
   *DEL*:           000011H   BYTE   INSEG    CODE           ?PR?ICM20602_SELF4_CHECK?SEEKFREE_ICM20602
   *DEL*:           000044H   BYTE   INSEG    CODE           ?PR?GET_ICM20602_GYRO_SIMIIC?SEEKFREE_ICM20602
   *DEL*:           000044H   BYTE   INSEG    CODE           ?PR?GET_ICM20602_ACCDATA_SIMIIC?SEEKFREE_ICM20602
   *DEL*:           00003DH   BYTE   INSEG    CODE           ?PR?GET_ICM20602_GYRO_SIMSPI?SEEKFREE_ICM20602
   *DEL*:           00003DH   BYTE   INSEG    CODE           ?PR?GET_ICM20602_ACCDATA_SIMSPI?SEEKFREE_ICM20602
   *DEL*:           000006H   BYTE   UNIT     EDATA          ?ED?GET_ICM20602_ACCDATA_SIMIIC?SEEKFREE_ICM20602
   *DEL*:           000006H   BYTE   UNIT     EDATA          ?ED?GET_ICM20602_GYRO_SIMIIC?SEEKFREE_ICM20602
   *DEL*:           000003H   BYTE   UNIT     EDATA          ?ED?ICM_SIMSPI_R_REG_BYTES?SEEKFREE_ICM20602
   *DEL*:           000001H   BYTE   UNIT     EDATA          ?ED?ICM20602_SELF4_CHECK?SEEKFREE_ICM20602
   *DEL*:           000001H   BYTE   UNIT     EDATA          ?ED?ICM20602_INIT_SIMSPI?SEEKFREE_ICM20602
   *DEL*:           000006H   BYTE   UNIT     EDATA          ?ED?GET_ICM20602_ACCDATA_SIMSPI?SEEKFREE_ICM20602
   *DEL*:           000006H   BYTE   UNIT     EDATA          ?ED?GET_ICM20602_GYRO_SIMSPI?SEEKFREE_ICM20602
   *DEL*:           00007BH   BYTE   INSEG    CODE           ?PR?IPS114_SHOWUINT8_SIMSPI?SEEKFREE_IPS114_SPI
   *DEL*:           000077H   BYTE   INSEG    CODE           ?PR?IPS114_SHOWUINT8?SEEKFREE_IPS114_SPI
   *DEL*:           0000B9H   BYTE   INSEG    CODE           ?PR?IPS114_SHOWINT8_SIMSPI?SEEKFREE_IPS114_SPI
   *DEL*:           0000B5H   BYTE   INSEG    CODE           ?PR?IPS114_SHOWINT8?SEEKFREE_IPS114_SPI
   *DEL*:           00001FH   BYTE   INSEG    CODE           ?PR?IPS114_WRITEDATA_16BIT?SEEKFREE_IPS114_SPI
   *DEL*:           0000F8H   BYTE   INSEG    CODE           ?PR?IPS114_SHOWFLOAT_SIMSPI?SEEKFREE_IPS114_SPI
   *DEL*:           000013H   BYTE   INSEG    CODE           ?PR?IPS114_DRAWPOINT_SIMSPI?SEEKFREE_IPS114_SPI
   *DEL*:           0000F8H   BYTE   INSEG    CODE           ?PR?IPS114_SHOWFLOAT?SEEKFREE_IPS114_SPI
   *DEL*:           000013H   BYTE   INSEG    CODE           ?PR?IPS114_DRAWPOINT?SEEKFREE_IPS114_SPI
   *DEL*:           00008EH   BYTE   INSEG    CODE           ?PR?IPS114_SHOWCHAR_SIMSPI?SEEKFREE_IPS114_SPI
   *DEL*:           00008EH   BYTE   INSEG    CODE           ?PR?IPS114_SHOWCHAR?SEEKFREE_IPS114_SPI
   *DEL*:           00008BH   BYTE   INSEG    CODE           ?PR?IPS114_SHOWUINT16_SIMSPI?SEEKFREE_IPS114_SPI
   *DEL*:           00008BH   BYTE   INSEG    CODE           ?PR?IPS114_SHOWUINT16?SEEKFREE_IPS114_SPI
   *DEL*:           000082H   BYTE   INSEG    CODE           ?PR?IPS114_SHOWINT32_SIMSPI?SEEKFREE_IPS114_SPI
   *DEL*:           0000DDH   BYTE   INSEG    CODE           ?PR?IPS114_SHOWINT16_SIMSPI?SEEKFREE_IPS114_SPI
   *DEL*:           000082H   BYTE   INSEG    CODE           ?PR?IPS114_SHOWINT32?SEEKFREE_IPS114_SPI
L251 LINKER/LOCATER V4.66.93.0                                                        03/12/2024  22:14:56  PAGE 10


   *DEL*:           0000D9H   BYTE   INSEG    CODE           ?PR?IPS114_SHOWINT16?SEEKFREE_IPS114_SPI
   *DEL*:           00003CH   BYTE   INSEG    CODE           ?PR?IPS114_CLEAR_SIMSPI?SEEKFREE_IPS114_SPI
   *DEL*:           00003CH   BYTE   INSEG    CODE           ?PR?IPS114_CLEAR?SEEKFREE_IPS114_SPI
   *DEL*:           00002CH   BYTE   INSEG    CODE           ?PR?IPS114_WRITEDATAI_16BIT_SIMSPI?SEEKFREE_IPS114_SPI
   *DEL*:           00004EH   BYTE   INSEG    CODE           ?PR?IPS114_SHOWSTR_SIMSPI?SEEKFREE_IPS114_SPI
   *DEL*:           00004EH   BYTE   INSEG    CODE           ?PR?IPS114_SHOWSTR?SEEKFREE_IPS114_SPI
   *DEL*:           000029H   BYTE   INSEG    CODE           ?PR?IPS114_WRITEINDEX_SIMSPI?SEEKFREE_IPS114_SPI
   *DEL*:           000029H   BYTE   INSEG    CODE           ?PR?IPS114_WRITEDATA_SIMSPI?SEEKFREE_IPS114_SPI
   *DEL*:           00000AH   BYTE   INSEG    CODE           ?PR?IPS114_WRITEINDEX?SEEKFREE_IPS114_SPI
   *DEL*:           00000AH   BYTE   INSEG    CODE           ?PR?IPS114_WRITEDATA?SEEKFREE_IPS114_SPI
   *DEL*:           000044H   BYTE   INSEG    CODE           ?PR?IPS114_SET_REGION_SIMSPI?SEEKFREE_IPS114_SPI
   *DEL*:           00014FH   BYTE   INSEG    CODE           ?PR?IPS114_INIT_SIMSPI?SEEKFREE_IPS114_SPI
   *DEL*:           000048H   BYTE   INSEG    CODE           ?PR?IPS114_SET_REGION?SEEKFREE_IPS114_SPI
   *DEL*:           00016DH   BYTE   INSEG    CODE           ?PR?IPS114_INIT?SEEKFREE_IPS114_SPI
   *DEL*:           000004H   BYTE   UNIT     EDATA          ?ED?IPS114_SET_REGION_SIMSPI?SEEKFREE_IPS114_SPI
   *DEL*:           000002H   BYTE   UNIT     EDATA          ?ED?IPS114_CLEAR_SIMSPI?SEEKFREE_IPS114_SPI
   *DEL*:           000004H   BYTE   UNIT     EDATA          ?ED?IPS114_SHOWCHAR_SIMSPI?SEEKFREE_IPS114_SPI
   *DEL*:           000006H   BYTE   UNIT     EDATA          ?ED?IPS114_SHOWSTR_SIMSPI?SEEKFREE_IPS114_SPI
   *DEL*:           000005H   BYTE   UNIT     EDATA          ?ED?IPS114_SHOWINT8_SIMSPI?SEEKFREE_IPS114_SPI
   *DEL*:           000004H   BYTE   UNIT     EDATA          ?ED?IPS114_SHOWUINT8_SIMSPI?SEEKFREE_IPS114_SPI
   *DEL*:           000008H   BYTE   UNIT     EDATA          ?ED?IPS114_SHOWINT16_SIMSPI?SEEKFREE_IPS114_SPI
   *DEL*:           000006H   BYTE   UNIT     EDATA          ?ED?IPS114_SHOWUINT16_SIMSPI?SEEKFREE_IPS114_SPI
   *DEL*:           000028H   BYTE   UNIT     EDATA          ?ED?IPS114_SHOWINT32_SIMSPI?SEEKFREE_IPS114_SPI
   *DEL*:           00002BH   BYTE   UNIT     EDATA          ?ED?IPS114_SHOWFLOAT_SIMSPI?SEEKFREE_IPS114_SPI
   *DEL*:           000002H   BYTE   UNIT     EDATA          ?ED?IPS114_WRITEDATA_16BIT?SEEKFREE_IPS114_SPI
   *DEL*:           000004H   BYTE   UNIT     EDATA          ?ED?IPS114_SET_REGION?SEEKFREE_IPS114_SPI
   *DEL*:           000002H   BYTE   UNIT     EDATA          ?ED?IPS114_CLEAR?SEEKFREE_IPS114_SPI
   *DEL*:           000004H   BYTE   UNIT     EDATA          ?ED?IPS114_SHOWCHAR?SEEKFREE_IPS114_SPI
   *DEL*:           000006H   BYTE   UNIT     EDATA          ?ED?IPS114_SHOWSTR?SEEKFREE_IPS114_SPI
   *DEL*:           000005H   BYTE   UNIT     EDATA          ?ED?IPS114_SHOWINT8?SEEKFREE_IPS114_SPI
   *DEL*:           000004H   BYTE   UNIT     EDATA          ?ED?IPS114_SHOWUINT8?SEEKFREE_IPS114_SPI
   *DEL*:           000008H   BYTE   UNIT     EDATA          ?ED?IPS114_SHOWINT16?SEEKFREE_IPS114_SPI
   *DEL*:           000006H   BYTE   UNIT     EDATA          ?ED?IPS114_SHOWUINT16?SEEKFREE_IPS114_SPI
   *DEL*:           000028H   BYTE   UNIT     EDATA          ?ED?IPS114_SHOWINT32?SEEKFREE_IPS114_SPI
   *DEL*:           00002BH   BYTE   UNIT     EDATA          ?ED?IPS114_SHOWFLOAT?SEEKFREE_IPS114_SPI
   *DEL*:           000070H   BYTE   INSEG    CODE           ?PR?CCD_SEND_DATA?SEEKFREE_TSL1401
   *DEL*:           000016H   BYTE   INSEG    CODE           ?PR?CCD_INIT?SEEKFREE_TSL1401
   *DEL*:           000035H   BYTE   INSEG    CODE           ?PR?CCD_COLLECT?SEEKFREE_TSL1401
   *DEL*:           000003H   BYTE   UNIT     EDATA          ?ED?CCD_SEND_DATA?SEEKFREE_TSL1401
   *DEL*:           00003AH   BYTE   INSEG    CODE           ?PR?CRC_CHECK?SEEKFREE_VIRSCO
   *DEL*:           000069H   BYTE   INSEG    CODE           ?PR?DATA_CONVERSION?SEEKFREE_VIRSCO
   *DEL*:           000004H   BYTE   UNIT     EDATA          ?ED?DATA_CONVERSION?SEEKFREE_VIRSCO
   *DEL*:           000022H   BYTE   INSEG    CODE           ?PR?WIRELESS_UART_READ_BUFF?SEEKFREE_WIRELESS
   *DEL*:           00005DH   BYTE   INSEG    CODE           ?PR?WIRELESS_UART_SEND_BUFF?SEEKFREE_WIRELESS
   *DEL*:           00003CH   BYTE   INSEG    CODE           ?PR?WIRELESS_UART_INIT?SEEKFREE_WIRELESS
   *DEL*:           000002H   BYTE   UNIT     EDATA          ?ED?WIRELESS_UART_SEND_BUFF?SEEKFREE_WIRELESS
   *DEL*:           000004H   BYTE   UNIT     EDATA          ?ED?WIRELESS_UART_READ_BUFF?SEEKFREE_WIRELESS
   *DEL*:           000022H   BYTE   INSEG    CODE           ?PR?WIRELESS_CH573_READ_BUFF?SEEKFREE_WIRELESS_CH573
   *DEL*:           00005DH   BYTE   INSEG    CODE           ?PR?WIRELESS_CH573_SEND_BUFF?SEEKFREE_WIRELESS_CH573
   *DEL*:           00003CH   BYTE   INSEG    CODE           ?PR?WIRELESS_CH573_INIT?SEEKFREE_WIRELESS_CH573
   *DEL*:           000002H   BYTE   UNIT     EDATA          ?ED?WIRELESS_CH573_SEND_BUFF?SEEKFREE_WIRELESS_CH573
   *DEL*:           000004H   BYTE   UNIT     EDATA          ?ED?WIRELESS_CH573_READ_BUFF?SEEKFREE_WIRELESS_CH573
   *DEL*:           000011H   BYTE   INSEG    CODE           ?PR?NUM2ABS?MOTOR
   *DEL*:           000013H   BYTE   INSEG    CODE           ?PR?MPU_SET_GYRO_FSR?MPU6050
   *DEL*:           000058H   BYTE   INSEG    CODE           ?PR?MPU_GET_ACCELEROMETER?MPU6050
   *DEL*:           000041H   BYTE   INSEG    CODE           ?PR?MPU_SET_LPF?MPU6050
   *DEL*:           000016H   BYTE   INSEG    CODE           ?PR?MPU_READ_BYTE?MPU6050
   *DEL*:           000013H   BYTE   INSEG    CODE           ?PR?MPU_SET_ACCEL_FSR?MPU6050
   *DEL*:           000031H   BYTE   INSEG    CODE           ?PR?ZERO_ALL?MPU6050
   *DEL*:           000069H   BYTE   INSEG    CODE           ?PR?MPU_INIT?MPU6050
   *DEL*:           00003BH   BYTE   INSEG    CODE           ?PR?MPU_GET_TEMPERATURE?MPU6050
   *DEL*:           000037H   BYTE   INSEG    CODE           ?PR?MPU_SET_RATE?MPU6050
   *DEL*:           000001H   BYTE   UNIT     EDATA          ?ED?MPU_READ_BYTE?MPU6050
   *DEL*:           000002H   BYTE   UNIT     EDATA          ?ED?MPU_GET_TEMPERATURE?MPU6050
   *DEL*:           00000EH   BYTE   UNIT     EDATA          ?ED?MPU_GET_ACCELEROMETER?MPU6050
L251 LINKER/LOCATER V4.66.93.0                                                        03/12/2024  22:14:56  PAGE 11


   *DEL*:           000020H   BYTE   INSEG    CODE           ?PR?VL53L0X_SIMIIC_SENDACK?TOF
   *DEL*:           00003CH   BYTE   INSEG    CODE           ?PR?VL53L0X_TIMEOUT_MICROSECONDS_TO_MCLKS?TOF
   *DEL*:           00003EH   BYTE   INSEG    CODE           ?PR?VL53L0X_TIMEOUT_MCLKS_TO_MICROSECONDS?TOF
   *DEL*:           000027H   BYTE   INSEG    CODE           ?PR?VL53L0X_SET_SIGNAL_RATE_LIMIT?TOF
   *DEL*:           00003BH   BYTE   INSEG    CODE           ?PR?VL53L0X_READ_CH?TOF
   *DEL*:           000010H   BYTE   INSEG    CODE           ?PR?VL53L0X_DECODE_TIMEOUT?TOF
   *DEL*:           00002EH   BYTE   INSEG    CODE           ?PR?VL53L0X_SEND_CH?TOF
   *DEL*:           00017CH   BYTE   INSEG    CODE           ?PR?VL53L0X_GET_SPAD_INFO?TOF
   *DEL*:           000034H   BYTE   INSEG    CODE           ?PR?VL53L0X_ENCODE_TIMEOUT?TOF
   *DEL*:           000058H   BYTE   INSEG    CODE           ?PR?VL53L0X_GET_SEQUENCE_STEP_ENABLES?TOF
   *DEL*:           00001CH   BYTE   INSEG    CODE           ?PR?VL53L0X_SCCB_WAITACK?TOF
   *DEL*:           00005DH   BYTE   INSEG    CODE           ?PR?VL53L0X_GET_DISTANCE?TOF
   *DEL*:           00000DH   BYTE   INSEG    CODE           ?PR?VL53L0X_SIMIIC_DELAY?TOF
   *DEL*:           000077H   BYTE   INSEG    CODE           ?PR?VL53L0X_PERFORM_SINGLE_REF_CALIBRATION?TOF
   *DEL*:           0000DBH   BYTE   INSEG    CODE           ?PR?VL53L0X_GET_SEQUENCE_STEP_TIMEOUTS?TOF
   *DEL*:           00000FH   BYTE   INSEG    CODE           ?PR?VL53L0X_SIMIIC_START?TOF
   *DEL*:           000054H   BYTE   INSEG    CODE           ?PR?VL53L0X_SIMIIC_READ_REGS?TOF
   *DEL*:           000073H   BYTE   INSEG    CODE           ?PR?VL53L0X_GET_MEASUREMENT_TIMING_BUDGET?TOF
   *DEL*:           000035H   BYTE   INSEG    CODE           ?PR?VL53L0X_SIMIIC_WRITE_DATS?TOF
   *DEL*:           000029H   BYTE   INSEG    CODE           ?PR?VL53L0X_SIMIIC_READ_REG?TOF
   *DEL*:           000054H   BYTE   INSEG    CODE           ?PR?VL53L0X_SIMIIC_READ_REGS_1?TOF
   *DEL*:           0000E4H   BYTE   INSEG    CODE           ?PR?VL53L0X_SET_MEASUREMENT_TIMING_BUDGET?TOF
   *DEL*:           000011H   BYTE   INSEG    CODE           ?PR?VL53L0X_SIMIIC_STOP?TOF
   *DEL*:           000022H   BYTE   INSEG    CODE           ?PR?VL53L0X_SIMIIC_WRITE_REG?TOF
   *DEL*:           00061BH   BYTE   INSEG    CODE           ?PR?VL53L0X_INIT?TOF
   *DEL*:           00004DH   BYTE   INSEG    CODE           ?PR?VL53L0X_GET_VCSEL_PULSE_PERIOD?TOF
   *DEL*:           000005H   BYTE   UNIT     EDATA          ?ED?VL53L0X_SIMIIC_WRITE_DATS?TOF
   *DEL*:           000006H   BYTE   UNIT     EDATA          ?ED?VL53L0X_SIMIIC_READ_REGS?TOF
   *DEL*:           000006H   BYTE   UNIT     EDATA          ?ED?VL53L0X_SIMIIC_READ_REGS_1?TOF
   *DEL*:           000008H   BYTE   UNIT     EDATA          ?ED?VL53L0X_GET_SPAD_INFO?TOF
   *DEL*:           000001H   BYTE   UNIT     EDATA          ?ED?VL53L0X_GET_SEQUENCE_STEP_ENABLES?TOF
   *DEL*:           000001H   BYTE   UNIT     EDATA          ?ED?VL53L0X_GET_VCSEL_PULSE_PERIOD?TOF
   *DEL*:           000006H   BYTE   UNIT     EDATA          ?ED?VL53L0X_GET_SEQUENCE_STEP_TIMEOUTS?TOF
   *DEL*:           000003H   BYTE   UNIT     EDATA          ?ED?VL53L0X_PERFORM_SINGLE_REF_CALIBRATION?TOF
   *DEL*:           000023H   BYTE   UNIT     EDATA          ?ED?VL53L0X_SET_MEASUREMENT_TIMING_BUDGET?TOF
   *DEL*:           00001BH   BYTE   UNIT     EDATA          ?ED?VL53L0X_GET_MEASUREMENT_TIMING_BUDGET?TOF
   *DEL*:           000003H   BYTE   UNIT     EDATA          ?ED?VL53L0X_SET_SIGNAL_RATE_LIMIT?TOF
   *DEL*:           000003H   BYTE   UNIT     EDATA          ?ED?VL53L0X_GET_DISTANCE?TOF
   *DEL*:           000012H   BYTE   UNIT     EDATA          ?ED?VL53L0X_INIT?TOF
   *DEL*:           0000D3H   BYTE   INSEG    CODE           ?PR?ELEM_BARRIER?ELEMENT
   *DEL*:           00002DH   BYTE   INSEG    CODE           ?PR?OLED_CHANGE_VALUE?UI
   *DEL*:           00001AH   BYTE   INSEG    CODE           ?PR?MEMSET?_?MEMSET



OVERLAY MAP OF MODULE:   .\Out_File\SEEKFREE (board)


FUNCTION/MODULE                               EDATA_GROUP
--> CALLED FUNCTION/MODULE                    START  STOP
=========================================================
UART1_Isr/isr                                 ----- -----

*** NEW ROOT ********************************

UART2_Isr/isr                                 ----- -----

*** NEW ROOT ********************************

UART3_Isr/isr                                 ----- -----

*** NEW ROOT ********************************

UART4_Isr/isr                                 ----- -----
  +--> wireless_uart_callback/SEEKFREE_WIRELESS
L251 LINKER/LOCATER V4.66.93.0                                                        03/12/2024  22:14:56  PAGE 12


  +--> bluetooth_ch9141_uart_callback/SEEKFREE_BLUETOOTH_CH9141
  +--> wireless_ch573_callback/SEEKFREE_WIRELESS_CH573

wireless_uart_callback/SEEKFREE_WIRELESS      ----- -----
  +--> fifo_write_buffer/zf_fifo

fifo_write_buffer/zf_fifo                     030BH 0316H
  +--> memcpy?_/memcpy
  +--> fifo_head_offset/zf_fifo

memcpy?_/memcpy                               ----- -----

fifo_head_offset/zf_fifo                      ----- -----

bluetooth_ch9141_uart_callback/SEEKFREE_+     ----- -----
... BLUETOOTH_CH9141
  +--> fifo_write_buffer/zf_fifo

wireless_ch573_callback/SEEKFREE_WIRELES+     ----- -----
... S_CH573
  +--> fifo_write_buffer/zf_fifo

*** NEW ROOT ********************************

INT0_Isr/isr                                  ----- -----

*** NEW ROOT ********************************

INT1_Isr/isr                                  ----- -----

*** NEW ROOT ********************************

INT2_Isr/isr                                  ----- -----

*** NEW ROOT ********************************

INT3_Isr/isr                                  ----- -----

*** NEW ROOT ********************************

INT4_Isr/isr                                  ----- -----

*** NEW ROOT ********************************

TM0_Isr/isr                                   ----- -----

*** NEW ROOT ********************************

TM1_Isr/isr                                   ----- -----

*** NEW ROOT ********************************

TM2_Isr/isr                                   ----- -----

*** NEW ROOT ********************************

TM3_Isr/isr                                   ----- -----

*** NEW ROOT ********************************

TM4_Isr/isr                                   ----- -----
  +--> pwm_duty/zf_pwm

pwm_duty/zf_pwm                               ----- -----

L251 LINKER/LOCATER V4.66.93.0                                                        03/12/2024  22:14:56  PAGE 13


*** NEW ROOT ********************************

?C_C51STARTUP                                 ----- -----

*** NEW ROOT ********************************

?C_C51STARTUP?3                               ----- -----
  +--> main/main

main/main                                     ----- -----
  +--> Init_all/main
  +--> EnableGlobalIRQ/board
  +--> PRINTF/PRINTF
  +--> ui_show/UI
  +--> GetKey_Value/Key
  +--> oled_all_static_state/UI
  +--> ADC_GetValue/ADC
  +--> MPU6050_Refresh_DMP/MPU6050
  +--> MPU_Get_Gyroscope/MPU6050
  +--> Get_Ratio/main
  +--> Elem_Circle_L/Element
  +--> Elem_Circle_R/Element
  +--> Limit_Out/motor
  +--> PID_Calculate/PID
  +--> Elem_Up_Down/Element
  +--> Get_Speed/motor
  +--> Left_SetSpeed/motor
  +--> Right_SetSpeed/motor

Init_all/main                                 ----- -----
  +--> DisableGlobalIRQ/board
  +--> board_init/board
  +--> gpio_mode/zf_gpio
  +--> Key_Init/Key
  +--> ui_init/UI
  +--> MPU6050_DMP_Init/MPU6050
  +--> pit_timer_ms/zf_tim
  +--> ctimer_count_init/zf_tim
  +--> Motor_Init/motor
  +--> Buzzer_Init/Buzzer
  +--> ADC_InitAll/ADC
  +--> PID_Init/PID

DisableGlobalIRQ/board                        ----- -----

board_init/board                              ----- -----
  +--> delay_init/zf_delay
  +--> uart_init/zf_uart

delay_init/zf_delay                           ----- -----
  +--> ?C?SLDIV/?C?SLDIV

?C?SLDIV/?C?SLDIV                             ----- -----
  +--> ?C?ULIDIV/?C?ULDIV

?C?ULIDIV/?C?ULDIV                            ----- -----

uart_init/zf_uart                             0317H 031CH
  +--> ?C?ULIDIV/?C?ULDIV

gpio_mode/zf_gpio                             ----- -----

Key_Init/Key                                  ----- -----
  +--> gpio_mode/zf_gpio

L251 LINKER/LOCATER V4.66.93.0                                                        03/12/2024  22:14:56  PAGE 14


ui_init/UI                                    ----- -----
  +--> oled_init/SEEKFREE_OLED
  +--> value_name_init/UI
  +--> oled_all_static_state/UI

oled_init/SEEKFREE_OLED                       ----- -----
  +--> delay_ms/zf_delay
  +--> oled_wrcmd/SEEKFREE_OLED
  +--> oled_fill/SEEKFREE_OLED
  +--> oled_set_pos/SEEKFREE_OLED

delay_ms/zf_delay                             ----- -----

oled_wrcmd/SEEKFREE_OLED                      ----- -----

oled_fill/SEEKFREE_OLED                       ----- -----
  +--> oled_wrcmd/SEEKFREE_OLED
  +--> oled_wrdat/SEEKFREE_OLED

oled_wrdat/SEEKFREE_OLED                      ----- -----

oled_set_pos/SEEKFREE_OLED                    ----- -----
  +--> oled_wrcmd/SEEKFREE_OLED

value_name_init/UI                            ----- -----
  +--> STRCPY?_/STRCPY?_

STRCPY?_/STRCPY?_                             ----- -----

oled_all_static_state/UI                      ----- -----
  +--> oled_p8x16str/SEEKFREE_OLED

oled_p8x16str/SEEKFREE_OLED                   0342H 0346H
  +--> oled_set_pos/SEEKFREE_OLED
  +--> oled_wrdat/SEEKFREE_OLED

MPU6050_DMP_Init/MPU6050                      ----- -----
  +--> initMPU6050/MPU6050
  +--> getDeviceID/MPU6050
  +--> dmpInitialize/MPU6050
  +--> MPU_Write_Bit/MPU6050

initMPU6050/MPU6050                           ----- -----
  +--> MPU_Write_Bits/MPU6050
  +--> MPU_Write_Bit/MPU6050

MPU_Write_Bits/MPU6050                        ----- -----
  +--> i2c_write_bits/MPU6050

i2c_write_bits/MPU6050                        031DH 031DH
  +--> i2c_mem_read/MPU6050
  +--> i2c_mem_write/MPU6050

i2c_mem_read/MPU6050                          0325H 0328H
  +--> i2c_start/MPU6050
  +--> i2c_write_byte/MPU6050
  +--> i2c_wait_ack/MPU6050
  +--> i2c_read_byte/MPU6050
  +--> i2c_stop/MPU6050

i2c_start/MPU6050                             ----- -----
  +--> I2C_SDA_H/MPU6050
  +--> I2C_SCL_H/MPU6050
  +--> i2c_delay/MPU6050
  +--> I2C_SDA_L/MPU6050
L251 LINKER/LOCATER V4.66.93.0                                                        03/12/2024  22:14:56  PAGE 15


  +--> I2C_SCL_L/MPU6050

I2C_SDA_H/MPU6050                             ----- -----

I2C_SCL_H/MPU6050                             ----- -----

i2c_delay/MPU6050                             ----- -----

I2C_SDA_L/MPU6050                             ----- -----

I2C_SCL_L/MPU6050                             ----- -----

i2c_write_byte/MPU6050                        ----- -----
  +--> I2C_SCL_L/MPU6050
  +--> I2C_SDA_H/MPU6050
  +--> I2C_SDA_L/MPU6050
  +--> i2c_delay/MPU6050
  +--> I2C_SCL_H/MPU6050

i2c_wait_ack/MPU6050                          ----- -----
  +--> I2C_SCL_H/MPU6050
  +--> i2c_delay/MPU6050
  +--> i2c_timeout_delay/MPU6050
  +--> i2c_stop/MPU6050
  +--> I2C_SDA_Read/MPU6050
  +--> I2C_SCL_L/MPU6050

i2c_timeout_delay/MPU6050                     ----- -----

i2c_stop/MPU6050                              ----- -----
  +--> I2C_SDA_L/MPU6050
  +--> I2C_SCL_H/MPU6050
  +--> i2c_delay/MPU6050
  +--> I2C_SDA_H/MPU6050

I2C_SDA_Read/MPU6050                          ----- -----

i2c_read_byte/MPU6050                         ----- -----
  +--> I2C_SCL_L/MPU6050
  +--> i2c_delay/MPU6050
  +--> I2C_SCL_H/MPU6050
  +--> I2C_SDA_Read/MPU6050
  +--> i2c_nack/MPU6050
  +--> i2c_ack/MPU6050

i2c_nack/MPU6050                              ----- -----
  +--> I2C_SCL_L/MPU6050
  +--> I2C_SDA_H/MPU6050
  +--> i2c_delay/MPU6050
  +--> I2C_SCL_H/MPU6050

i2c_ack/MPU6050                               ----- -----
  +--> I2C_SCL_L/MPU6050
  +--> I2C_SDA_L/MPU6050
  +--> i2c_delay/MPU6050
  +--> I2C_SCL_H/MPU6050
  +--> I2C_SDA_H/MPU6050

i2c_mem_write/MPU6050                         0320H 0323H
  +--> i2c_start/MPU6050
  +--> i2c_write_byte/MPU6050
  +--> i2c_wait_ack/MPU6050
  +--> i2c_stop/MPU6050

MPU_Write_Bit/MPU6050                         ----- -----
L251 LINKER/LOCATER V4.66.93.0                                                        03/12/2024  22:14:56  PAGE 16


  +--> i2c_write_bit/MPU6050

i2c_write_bit/MPU6050                         031DH 031DH
  +--> i2c_mem_read/MPU6050
  +--> i2c_mem_write/MPU6050

getDeviceID/MPU6050                           0317H 0317H
  +--> MPU_Read_Bits/MPU6050

MPU_Read_Bits/MPU6050                         ----- -----
  +--> i2c_read_bits/MPU6050

i2c_read_bits/MPU6050                         031DH 0320H
  +--> i2c_mem_read/MPU6050

dmpInitialize/MPU6050                         0317H 031CH
  +--> MPU_Write_Bit/MPU6050
  +--> MPU_Delay_Ms/MPU6050
  +--> MPU_Write_Byte/MPU6050
  +--> MPU_Read_Len/MPU6050
  +--> MPU_Read_Bit/MPU6050
  +--> MPU_Read_Bits/MPU6050
  +--> loadfirmware/MPU6050
  +--> loadcfgupd/MPU6050
  +--> MPU_Write_Bits/MPU6050
  +--> xdmpUpdates/MPU6050
  +--> getFIFOCount/MPU6050

MPU_Delay_Ms/MPU6050                          ----- -----
  +--> Delay1ms/MPU6050

Delay1ms/MPU6050                              ----- -----

MPU_Write_Byte/MPU6050                        031FH 031FH
  +--> i2c_mem_write/MPU6050

MPU_Read_Len/MPU6050                          ----- -----
  +--> i2c_mem_read/MPU6050

MPU_Read_Bit/MPU6050                          ----- -----
  +--> i2c_read_bit/MPU6050

i2c_read_bit/MPU6050                          031DH 031EH
  +--> i2c_mem_read/MPU6050

loadfirmware/MPU6050                          031DH 031EH
  +--> MPU_Write_Byte/MPU6050
  +--> MPU_Write_Len/MPU6050

MPU_Write_Len/MPU6050                         ----- -----
  +--> i2c_mem_write/MPU6050

loadcfgupd/MPU6050                            031DH 031EH
  +--> MPU_Write_Byte/MPU6050
  +--> MPU_Write_Len/MPU6050

xdmpUpdates/MPU6050                           031DH 031DH
  +--> MPU_Write_Byte/MPU6050
  +--> MPU_Write_Len/MPU6050

getFIFOCount/MPU6050                          031DH 031EH
  +--> MPU_Read_Len/MPU6050

pit_timer_ms/zf_tim                           ----- -----
  +--> ?C?SLDIV/?C?SLDIV
L251 LINKER/LOCATER V4.66.93.0                                                        03/12/2024  22:14:56  PAGE 17



ctimer_count_init/zf_tim                      ----- -----

Motor_Init/motor                              ----- -----
  +--> pwm_init/zf_pwm

pwm_init/zf_pwm                               0317H 031EH
  +--> pwm_set_gpio/zf_pwm
  +--> ?C?ULIDIV/?C?ULDIV

pwm_set_gpio/zf_pwm                           ----- -----
  +--> gpio_mode/zf_gpio

Buzzer_Init/Buzzer                            ----- -----
  +--> pwm_init/zf_pwm

ADC_InitAll/ADC                               ----- -----
  +--> adc_init/zf_adc

adc_init/zf_adc                               ----- -----

PID_Init/PID                                  0317H 0326H

EnableGlobalIRQ/board                         ----- -----

PRINTF/PRINTF                                 0317H 033EH
  +--> OUT/PRINTF

OUT/PRINTF                                    ----- -----
  +--> PUTCH/PRINTF

PUTCH/PRINTF                                  ----- -----
  +--> putchar/board
  +--> OUT/PRINTF

putchar/board                                 ----- -----
  +--> uart_putchar/zf_uart

uart_putchar/zf_uart                          ----- -----

ui_show/UI                                    ----- -----
  +--> refresh_value/UI
  +--> oled_show/UI

refresh_value/UI                              ----- -----

oled_show/UI                                  ----- -----
  +--> refresh_value/UI
  +--> oled_printf_float/SEEKFREE_OLED

oled_printf_float/SEEKFREE_OLED               0317H 0341H
  +--> zf_sprintf/SEEKFREE_PRINTF
  +--> oled_p8x16str/SEEKFREE_OLED

zf_sprintf/SEEKFREE_PRINTF                    0342H 03A0H
  +--> number_conversion_ascii/SEEKFREE_PRINTF
  +--> printf_reverse_order/SEEKFREE_PRINTF
  +--> memcpy?_/memcpy

number_conversion_ascii/SEEKFREE_PRINTF       03A1H 03A1H
  +--> ?C?SLDIV/?C?SLDIV
  +--> ?C?ULIDIV/?C?ULDIV

printf_reverse_order/SEEKFREE_PRINTF          ----- -----

L251 LINKER/LOCATER V4.66.93.0                                                        03/12/2024  22:14:56  PAGE 18


GetKey_Value/Key                              ----- -----

ADC_GetValue/ADC                              ----- -----
  +--> adc_once/zf_adc

adc_once/zf_adc                               ----- -----

MPU6050_Refresh_DMP/MPU6050                   ----- -----
  +--> getFIFOCount/MPU6050
  +--> MPU_Read_Len/MPU6050
  +--> MPU_Write_Bit/MPU6050
  +--> readdmp/MPU6050
  +--> atan2?_/atan2

readdmp/MPU6050                               ----- -----
  +--> MPU_Read_Len/MPU6050

atan2?_/atan2                                 ----- -----

MPU_Get_Gyroscope/MPU6050                     0317H 0324H
  +--> MPU_Read_Len/MPU6050

Get_Ratio/main                                ----- -----

Elem_Circle_L/Element                         ----- -----

Elem_Circle_R/Element                         ----- -----

Limit_Out/motor                               031BH 031EH

PID_Calculate/PID                             0317H 031AH
  +--> Limit_Out/motor

Elem_Up_Down/Element                          ----- -----

Get_Speed/motor                               ----- -----
  +--> ctimer_count_read/zf_tim
  +--> ctimer_count_clean/zf_tim

ctimer_count_read/zf_tim                      ----- -----

ctimer_count_clean/zf_tim                     ----- -----

Left_SetSpeed/motor                           ----- -----
  +--> abs?_/ABS
  +--> pwm_duty/zf_pwm

abs?_/ABS                                     ----- -----

Right_SetSpeed/motor                          ----- -----
  +--> abs?_/ABS
  +--> pwm_duty/zf_pwm

*** NEW ROOT ********************************

?C_C51STARTUP?2                               ----- -----



PUBLIC SYMBOLS OF MODULE:  .\Out_File\SEEKFREE (board)


      VALUE       CLASS    TYPE      PUBLIC SYMBOL NAME
      =================================================
      00FF111EH   CODE     NEAR LAB  ?C?CASTF
L251 LINKER/LOCATER V4.66.93.0                                                        03/12/2024  22:14:56  PAGE 19


      000000FFH   NUMBER   ---       ?C?CODESEG
      00FF10EBH   CODE     NEAR LAB  ?C?FCASTC
      00FF10E6H   CODE     NEAR LAB  ?C?FCASTI
      00FF10E1H   CODE     NEAR LAB  ?C?FCASTL
      00FF18BFH   CODE     ---       ?C?FP2SERIES
      00FF0EB4H   CODE     ---       ?C?FPADD
      00FF108FH   CODE     ---       ?C?FPCMP
      00FF108DH   CODE     ---       ?C?FPCMP3
      00FF17C4H   CODE     ---       ?C?FPCONVERT
      00FF100CH   CODE     ---       ?C?FPDIV
      00FF1237H   CODE     ---       ?C?FPGETOPN2
      00FF0F6CH   CODE     ---       ?C?FPMUL
      00FF1274H   CODE     ---       ?C?FPNANRESULT
      00FF10D3H   CODE     ---       ?C?FPNEG
      00FF127CH   CODE     ---       ?C?FPOVERFLOW
      00FF1250H   CODE     ---       ?C?FPRESULT
      00FF1266H   CODE     ---       ?C?FPRESULT2
      00FF187CH   CODE     ---       ?C?FPROUND
      00FF18C8H   CODE     ---       ?C?FPSERIES
      00FF0EB1H   CODE     ---       ?C?FPSUB
      00FF1279H   CODE     ---       ?C?FPUNDERFLOW
      00FF191CH   CODE     ---       ?C?FTNPWR
      00FF5361H   CODE     ---       ?C?INITEDATA
      00FF5A7EH   HCONST   WORD      ?C?INITEDATA_END
      00FF1996H   CODE     ---       ?C?LIMUL
      00FF1985H   CODE     ---       ?C?LMUL
      00FF12B5H   CODE     ---       ?C?PRNFMT
      00FF1953H   CODE     ---       ?C?SIDIV
      00FF19F2H   CODE     NEAR LAB  ?C?SLDIV
      00FF0000H   CODE     ---       ?C?STARTUP
      00FF19A1H   CODE     NEAR LAB  ?C?ULDIV
      00FF199FH   CODE     NEAR LAB  ?C?ULIDIV
      00000001H   NUMBER   ---       ?C?XDATASEG
      00FF0000H   CODE     ---       ?C_STARTUP
*DEL*:1FFFFFF8H   EDATA    BYTE      ?data_conversion?BYTE
*DEL*:1FFFFFF8H   EDATA    BYTE      ?fifo_init?BYTE
*DEL*:1FFFFFFCH   EDATA    BYTE      ?fifo_read_buffer?BYTE
      00000307H   EDATA    BYTE      ?fifo_write_buffer?BYTE
*DEL*:1FFFFFFAH   EDATA    BYTE      ?iic_init?BYTE
*DEL*:1FFFFFFCH   EDATA    BYTE      ?ips114_showfloat?BYTE
*DEL*:1FFFFFFCH   EDATA    BYTE      ?ips114_showfloat_simspi?BYTE
*DEL*:1FFFFFFCH   EDATA    BYTE      ?lcd_showfloat?BYTE
*DEL*:1FFFFFFCH   EDATA    BYTE      ?lcd_showfloat_simspi?BYTE
      00000313H   EDATA    BYTE      ?Limit_Out?BYTE
*DEL*:1FFFFFFCH   EDATA    BYTE      ?MPU_Get_Accelerometer?BYTE
      00000313H   EDATA    BYTE      ?MPU_Get_Gyroscope?BYTE
      00000398H   EDATA    BYTE      ?number_conversion_ascii?BYTE
      00000313H   EDATA    BYTE      ?oled_printf_float?BYTE
*DEL*:1FFFFFFCH   EDATA    BYTE      ?oled_printf_float_spi?BYTE
      0000030FH   EDATA    BYTE      ?PID_Calculate?BYTE
      0000030FH   EDATA    BYTE      ?PID_Init?BYTE
      0000033FH   EDATA    ---       ?printf?BYTE
*DEL*:1FFFFFFAH   EDATA    BYTE      ?pwm_freq?BYTE
      00000315H   EDATA    BYTE      ?pwm_init?BYTE
*DEL*:1FFFFFF7H   EDATA    BYTE      ?spi_init?BYTE
      00000311H   EDATA    BYTE      ?uart_init?BYTE
      0000036AH   EDATA    BYTE      ?zf_sprintf?BYTE
      000003F2H   EDATA    CHAR      A
      00000417H   EDATA    CHAR      A1
      00FF583AH   CODE     ---       abs?_
      00000586H   EDATA    ---       ADC_Array_Original
*SFR* 000000BCH   DATA     BYTE      ADC_CONTR
      00FF3B38H   CODE     ---       ADC_GetValue
      00FF4F62H   CODE     ---       adc_init
      00FF55D9H   CODE     ---       ADC_InitAll
L251 LINKER/LOCATER V4.66.93.0                                                        03/12/2024  22:14:56  PAGE 20


      00FF5580H   CODE     ---       adc_once
      000005C2H   EDATA    ---       ADC_proc
*SFR* 000000BDH   DATA     BYTE      ADC_RES
*SFR* 000000BEH   DATA     BYTE      ADC_RESL
*SFR* 000000DEH   DATA     BYTE      ADCCFG
      00000602H   EDATA    FLOAT     Adjust_Val
      00FF1217H   CODE     ---       asin?_
*DEL*:00000000H   CODE     ---       at24c02_read_byte
*DEL*:00000000H   CODE     ---       at24c02_read_bytes
*DEL*:00000000H   CODE     ---       at24c02_write_byte
*DEL*:00000000H   CODE     ---       at24c02_write_bytes
      00FF5204H   CODE     ---       atan2?_
      00FF16E4H   CODE     ---       ATAN?_
*SFR* 000000EFH   DATA     BYTE      AUXINTIF
*SFR* 0000008EH   DATA     BYTE      AUXR
      00000622H   EDATA    CHAR      Avoid_ON
      0000061FH   EDATA    CHAR      Barrier_Executed
      0000061BH   EDATA    CHAR      Barrier_Flag1
      0000061CH   EDATA    CHAR      Barrier_Flag2
      0000061DH   EDATA    CHAR      Barrier_Flag3
      0000061EH   EDATA    CHAR      Barrier_Flag4
*DEL*:00000000H   CODE     ---       bluetooth_ch9141_init
*DEL*:00000000H   CODE     ---       bluetooth_ch9141_read_buff
*DEL*:00000000H   CODE     ---       bluetooth_ch9141_send_buff
      00FF0066H   CODE     ---       bluetooth_ch9141_uart_callback
      00FF4ADDH   CODE     ---       board_init
      00000306H   EDATA    ---       busy
      00FF5829H   CODE     ---       Buzzer_Init
*DEL*:00000000H   CODE     ---       ccd_collect
      0000013EH   EDATA    ---       ccd_data
*DEL*:00000000H   CODE     ---       ccd_init
*DEL*:00000000H   CODE     ---       ccd_send_data
      00000617H   EDATA    CHAR      circle_flag_L
      00000619H   EDATA    CHAR      circle_flag_R
      00000618H   EDATA    CHAR      circle_Force_Flag
      00000620H   EDATA    CHAR      circle_In_Flag
      00000621H   EDATA    CHAR      circle_Out_Flag
      00000678H   EDATA    CHAR      clear_Num
      0000067CH   EDATA    CHAR      count
*DEL*:00000000H   CODE     ---       CRC_CHECK
      00FF511CH   CODE     ---       ctimer_count_clean
      00FF51BAH   CODE     ---       ctimer_count_init
      00FF516DH   CODE     ---       ctimer_count_read
*DEL*:00000000H   CODE     ---       data_conversion
      00FF58BCH   CODE     ---       Delay1ms
      0000061AH   EDATA    CHAR      delay_10ms
      00FF5444H   CODE     ---       delay_init
      00FF579DH   CODE     ---       delay_ms
*DEL*:00000000H   CODE     ---       delay_us
      0000060AH   EDATA    FLOAT     Diff
      00000606H   EDATA    FLOAT     Diff_Mid
      00FF0016H   CODE     ---       DisableGlobalIRQ
      00FF1A55H   CODE     ---       dmpcfgupddata
      0000044CH   EDATA    ---       dmpdatas
      00FF374DH   CODE     ---       dmpInitialize
      00FF1B15H   CODE     ---       dmpmemorydata
      00FF1A26H   CODE     ---       dmpUpdates
*SFR* 000000A8H.7 DATA     BIT       EA
*DEL*:00000000H   CODE     ---       eeprom_trig
*DEL*:00000000H   CODE     ---       Elem_Barrier
      00FF3DD3H   CODE     ---       Elem_Circle_L
      00FF3EDFH   CODE     ---       Elem_Circle_R
      00FF5408H   CODE     ---       Elem_Up_Down
      00FF000EH   CODE     ---       EnableGlobalIRQ
*DEL*:00000000H   CODE     ---       encoder_angle_simspi
L251 LINKER/LOCATER V4.66.93.0                                                        03/12/2024  22:14:56  PAGE 21


*DEL*:00000000H   CODE     ---       encoder_angle_spi
*DEL*:00000000H   CODE     ---       encoder_delay_us
*DEL*:00000000H   CODE     ---       encoder_init_simspi
*DEL*:00000000H   CODE     ---       encoder_init_spi
*DEL*:00000000H   CODE     ---       encoder_self4_check
*DEL*:00000000H   CODE     ---       encoder_self5_check
*DEL*:00000000H   CODE     ---       encoder_simspi_r_reg_byte
*DEL*:00000000H   CODE     ---       encoder_simspi_w_reg_byte
*DEL*:00000000H   CODE     ---       encoder_spi_r_reg_byte
*DEL*:00000000H   CODE     ---       encoder_spi_w_reg_byte
*SFR* 000000A8H.4 DATA     BIT       ES
*SFR* 000000A8H.1 DATA     BIT       ET0
*SFR* 000000A8H.3 DATA     BIT       ET1
*SFR* 000000A8H.0 DATA     BIT       EX0
*SFR* 000000A8H.2 DATA     BIT       EX1
*DEL*:00000000H   CODE     ---       exit_init
      000005DAH   EDATA    FLOAT     Exp_Speed
      000005EFH   EDATA    FLOAT     Exp_Speed_L
      000005F3H   EDATA    FLOAT     Exp_Speed_R
*DEL*:00000000H   CODE     ---       extern_iap_write_bytes
*SFR* 000000D0H.5 DATA     BIT       F0
*DEL*:00000000H   CODE     ---       fifo_clear
*DEL*:00000000H   CODE     ---       fifo_end_offset
      00FF528DH   CODE     ---       fifo_head_offset
*DEL*:00000000H   CODE     ---       fifo_init
*DEL*:00000000H   CODE     ---       fifo_read_buffer
*DEL*:00000000H   CODE     ---       fifo_used
      00FF42BBH   CODE     ---       fifo_write_buffer
*DEL*:00000000H   CODE     ---       get_icm20602_accdata_simiic
*DEL*:00000000H   CODE     ---       get_icm20602_accdata_simspi
*DEL*:00000000H   CODE     ---       get_icm20602_gyro_simiic
*DEL*:00000000H   CODE     ---       get_icm20602_gyro_simspi
      00FF3CA7H   CODE     ---       Get_Ratio
      00FF4EA0H   CODE     ---       Get_Speed
      00FF570FH   CODE     ---       getDeviceID
      00FF0026H   CODE     ---       getFIFOCount
      00FF4D56H   CODE     ---       GetKey_Value
      00FF2798H   CODE     ---       gpio_mode
*DEL*:00000000H   CODE     ---       gpio_pull_set
      000005FBH   EDATA    INT       gx
      000005FDH   EDATA    INT       gy
      000005FFH   EDATA    INT       gz
      00FF57B4H   CODE     ---       i2c_ack
      00FF58B1H   CODE     ---       i2c_delay
      00FF4CDCH   CODE     ---       i2c_mem_read
      00FF4F03H   CODE     ---       i2c_mem_write
      00FF5805H   CODE     ---       i2c_nack
      00FF54E7H   CODE     ---       i2c_read_bit
      00FF4DCCH   CODE     ---       i2c_read_bits
      00FF547DH   CODE     ---       i2c_read_byte
      00FF005EH   CODE     ---       I2C_SCL_H
      00FF007FH   CODE     ---       I2C_SCL_L
      00FF001EH   CODE     ---       I2C_SDA_H
      00FF0056H   CODE     ---       I2C_SDA_L
      00FF0006H   CODE     ---       I2C_SDA_Read
      00FF5817H   CODE     ---       i2c_start
      00FF584AH   CODE     ---       i2c_stop
      00FF589BH   CODE     ---       i2c_timeout_delay
      00FF5604H   CODE     ---       i2c_wait_ack
      00FF4FC0H   CODE     ---       i2c_write_bit
      00FF4C5FH   CODE     ---       i2c_write_bits
      00FF551AH   CODE     ---       i2c_write_byte
*SFR* 000000F6H   DATA     BYTE      IAP_ADDRE
*SFR* 000000C3H   DATA     BYTE      IAP_ADDRH
*SFR* 000000C4H   DATA     BYTE      IAP_ADDRL
L251 LINKER/LOCATER V4.66.93.0                                                        03/12/2024  22:14:56  PAGE 22


*SFR* 000000C5H   DATA     BYTE      IAP_CMD
*SFR* 000000C7H   DATA     BYTE      IAP_CONTR
*SFR* 000000C2H   DATA     BYTE      IAP_DATA
*DEL*:00000000H   CODE     ---       iap_erase_page
*DEL*:00000000H   CODE     ---       iap_get_cmd_state
*DEL*:00000000H   CODE     ---       iap_idle
*DEL*:00000000H   CODE     ---       iap_init
*DEL*:00000000H   CODE     ---       iap_read_bytes
*DEL*:00000000H   CODE     ---       iap_set_tps
*SFR* 000000F5H   DATA     BYTE      IAP_TPS
*SFR* 000000C6H   DATA     BYTE      IAP_TRIG
*DEL*:00000000H   CODE     ---       iap_write_bytes
*DEL*:00000000H   CODE     ---       icm20602_init_simiic
*DEL*:00000000H   CODE     ---       icm20602_init_simspi
*DEL*:00000000H   CODE     ---       icm20602_self1_check
*DEL*:00000000H   CODE     ---       icm20602_self4_check
      0000064FH   EDATA    INT       icm_acc_x
      00000651H   EDATA    INT       icm_acc_y
      00000653H   EDATA    INT       icm_acc_z
      00000655H   EDATA    INT       icm_gyro_x
      00000657H   EDATA    INT       icm_gyro_y
      00000659H   EDATA    INT       icm_gyro_z
*DEL*:00000000H   CODE     ---       icm_simspi_r_reg_byte
*DEL*:00000000H   CODE     ---       icm_simspi_r_reg_bytes
*DEL*:00000000H   CODE     ---       icm_simspi_w_reg_byte
*DEL*:00000000H   CODE     ---       icm_simspi_wr_byte
*SFR* 000000A8H   DATA     BYTE      IE
*SFR* 000000AFH   DATA     BYTE      IE2
      00000665H   EDATA    BYTE      IIC_ad_main
      00000667H   EDATA    BYTE      IIC_ad_sub
      00000668H   EDATA    ---       IIC_buf
*DEL*:00000000H   CODE     ---       iic_change_pin
*DEL*:00000000H   CODE     ---       iic_delay_us
*DEL*:00000000H   CODE     ---       iic_init
      00000666H   EDATA    BYTE      IIC_num
*DEL*:00000000H   CODE     ---       iic_read_reg
*DEL*:00000000H   CODE     ---       iic_read_reg_bytes
*DEL*:00000000H   CODE     ---       iic_write_reg
      00FF439BH   CODE     ---       Init_all
      00FF554DH   CODE     ---       initMPU6050
      00FF5900H   CODE     ---       INT0_Isr
      00FF0011H   CODE     ---       INT1_Isr
      00FF58D8H   CODE     ---       INT2_Isr
      00FF58E0H   CODE     ---       INT3_Isr
      00FF58E8H   CODE     ---       INT4_Isr
*SFR* 0000008FH   DATA     BYTE      INTCLKO
*SFR* 000000B8H   DATA     BYTE      IP
*SFR* 000000B5H   DATA     BYTE      IP2
*SFR* 000000B6H   DATA     BYTE      IP2H
*SFR* 000000B7H   DATA     BYTE      IPH
*DEL*:00000000H   CODE     ---       ips114_clear
*DEL*:00000000H   CODE     ---       ips114_clear_simspi
*DEL*:00000000H   CODE     ---       ips114_drawpoint
*DEL*:00000000H   CODE     ---       ips114_drawpoint_simspi
*DEL*:00000000H   CODE     ---       ips114_init
*DEL*:00000000H   CODE     ---       ips114_init_simspi
*DEL*:00000000H   CODE     ---       ips114_set_region
*DEL*:00000000H   CODE     ---       ips114_set_region_simspi
*DEL*:00000000H   CODE     ---       ips114_showchar
*DEL*:00000000H   CODE     ---       ips114_showchar_simspi
*DEL*:00000000H   CODE     ---       ips114_showfloat
*DEL*:00000000H   CODE     ---       ips114_showfloat_simspi
*DEL*:00000000H   CODE     ---       ips114_showint16
*DEL*:00000000H   CODE     ---       ips114_showint16_simspi
*DEL*:00000000H   CODE     ---       ips114_showint32
L251 LINKER/LOCATER V4.66.93.0                                                        03/12/2024  22:14:56  PAGE 23


*DEL*:00000000H   CODE     ---       ips114_showint32_simspi
*DEL*:00000000H   CODE     ---       ips114_showint8
*DEL*:00000000H   CODE     ---       ips114_showint8_simspi
*DEL*:00000000H   CODE     ---       ips114_showstr
*DEL*:00000000H   CODE     ---       ips114_showstr_simspi
*DEL*:00000000H   CODE     ---       ips114_showuint16
*DEL*:00000000H   CODE     ---       ips114_showuint16_simspi
*DEL*:00000000H   CODE     ---       ips114_showuint8
*DEL*:00000000H   CODE     ---       ips114_showuint8_simspi
*DEL*:00000000H   CODE     ---       ips114_writeData
*DEL*:00000000H   CODE     ---       ips114_writedata_16bit
*DEL*:00000000H   CODE     ---       ips114_writeData_simspi
*DEL*:00000000H   CODE     ---       ips114_writeDatai_16bit_simspi
*DEL*:00000000H   CODE     ---       ips114_writeIndex
*DEL*:00000000H   CODE     ---       ips114_writeIndex_simspi
      00000601H   EDATA    CHAR      Isr_flag_10
*SFR* 00000088H.0 DATA     BIT       IT0
*SFR* 00000088H.2 DATA     BIT       IT1
      00FF56A5H   CODE     ---       Key_Init
      000005EEH   EDATA    CHAR      KeyValue
*DEL*:00000000H   CODE     ---       lcd_clear
*DEL*:00000000H   CODE     ---       lcd_clear_simspi
*DEL*:00000000H   CODE     ---       lcd_drawpoint
*DEL*:00000000H   CODE     ---       lcd_drawpoint_simspi
*DEL*:00000000H   CODE     ---       lcd_init
*DEL*:00000000H   CODE     ---       lcd_init_simspi
*DEL*:00000000H   CODE     ---       lcd_set_region
*DEL*:00000000H   CODE     ---       lcd_set_region_simspi
*DEL*:00000000H   CODE     ---       lcd_showchar
*DEL*:00000000H   CODE     ---       lcd_showchar_simspi
*DEL*:00000000H   CODE     ---       lcd_showfloat
*DEL*:00000000H   CODE     ---       lcd_showfloat_simspi
*DEL*:00000000H   CODE     ---       lcd_showint16
*DEL*:00000000H   CODE     ---       lcd_showint16_simspi
*DEL*:00000000H   CODE     ---       lcd_showint32
*DEL*:00000000H   CODE     ---       lcd_showint32_simspi
*DEL*:00000000H   CODE     ---       lcd_showint8
*DEL*:00000000H   CODE     ---       lcd_showint8_simspi
*DEL*:00000000H   CODE     ---       lcd_showstr
*DEL*:00000000H   CODE     ---       lcd_showstr_simspi
*DEL*:00000000H   CODE     ---       lcd_showuint16
*DEL*:00000000H   CODE     ---       lcd_showuint16_simspi
*DEL*:00000000H   CODE     ---       lcd_showuint8
*DEL*:00000000H   CODE     ---       lcd_showuint8_simspi
*DEL*:00000000H   CODE     ---       lcd_writeData
*DEL*:00000000H   CODE     ---       lcd_writedata_16bit
*DEL*:00000000H   CODE     ---       lcd_writeData_16bit_simspi
*DEL*:00000000H   CODE     ---       lcd_writeData_simspi
*DEL*:00000000H   CODE     ---       lcd_writeIndex
*DEL*:00000000H   CODE     ---       lcd_writeIndex_simspi
      00FF4539H   CODE     ---       Left_SetSpeed
      000003CAH   EDATA    ---       Left_Wheel_PID
      00FF55AEH   CODE     ---       Limit_Out
      00FF475BH   CODE     ---       loadcfgupd
      00FF4B5EH   CODE     ---       loadfirmware
      00FF2B8FH   CODE     ---       main
      00FF5680H   CODE     ---       memcpy?_
*DEL*:00000000H   CODE     ---       memset?_
      00000677H   EDATA    CHAR      Mode
      00FF5249H   CODE     ---       Motor_Init
      00FF56ECH   CODE     ---       MPU6050_DMP_Init
*DEL*:00000000H   CODE     ---       mpu6050_get_accdata
*DEL*:00000000H   CODE     ---       mpu6050_get_gyro
*DEL*:00000000H   CODE     ---       mpu6050_init
      00FF34B3H   CODE     ---       MPU6050_Refresh_DMP
L251 LINKER/LOCATER V4.66.93.0                                                        03/12/2024  22:14:56  PAGE 24


*DEL*:00000000H   CODE     ---       mpu6050_self1_check
      00000643H   EDATA    INT       mpu_acc_x
      00000645H   EDATA    INT       mpu_acc_y
      00000647H   EDATA    INT       mpu_acc_z
      00FF57DEH   CODE     ---       MPU_Delay_Ms
*DEL*:00000000H   CODE     ---       MPU_Get_Accelerometer
      00FF501CH   CODE     ---       MPU_Get_Gyroscope
*DEL*:00000000H   CODE     ---       MPU_Get_Temperature
      00000649H   EDATA    INT       mpu_gyro_x
      0000064BH   EDATA    INT       mpu_gyro_y
      0000064DH   EDATA    INT       mpu_gyro_z
*DEL*:00000000H   CODE     ---       MPU_Init
      00FF58C6H   CODE     ---       MPU_Read_Bit
      00FF0046H   CODE     ---       MPU_Read_Bits
*DEL*:00000000H   CODE     ---       MPU_Read_Byte
      00FF5890H   CODE     ---       MPU_Read_Len
*DEL*:00000000H   CODE     ---       MPU_Set_Accel_Fsr
*DEL*:00000000H   CODE     ---       MPU_Set_Gyro_Fsr
*DEL*:00000000H   CODE     ---       MPU_Set_LPF
*DEL*:00000000H   CODE     ---       MPU_Set_Rate
      00000476H   EDATA    CHAR      mpu_state
      00FF5883H   CODE     ---       MPU_Write_Bit
      00FF5876H   CODE     ---       MPU_Write_Bits
      00FF57C9H   CODE     ---       MPU_Write_Byte
      00FF58A6H   CODE     ---       MPU_Write_Len
*DEL*:00000000H   CODE     ---       Num2Abs
      00FF4938H   CODE     ---       number_conversion_ascii
*DEL*:00000000H   CODE     ---       NVIC_SetPriority
      00FF0C86H   CODE     ---       oled_6x8
      00FF00A6H   CODE     ---       oled_8x16
      00FF530FH   CODE     ---       oled_all_static_state
*DEL*:00000000H   CODE     ---       oled_change_value
*DEL*:00000000H   CODE     ---       oled_clrpixel
*DEL*:00000000H   CODE     ---       oled_clrpixel_spi
*DEL*:00000000H   CODE     ---       oled_dis_bmp
*DEL*:00000000H   CODE     ---       oled_dis_bmp_spi
      00FF54B4H   CODE     ---       oled_fill
*DEL*:00000000H   CODE     ---       oled_fill_spi
*DEL*:00000000H   CODE     ---       oled_hexascii
*DEL*:00000000H   CODE     ---       oled_hexascii_spi
      00FF4801H   CODE     ---       oled_init
*DEL*:00000000H   CODE     ---       oled_init_spi
*DEL*:00000000H   CODE     ---       oled_int16
*DEL*:00000000H   CODE     ---       oled_int16_spi
*DEL*:00000000H   CODE     ---       oled_p6x8str
*DEL*:00000000H   CODE     ---       oled_p6x8str_spi
      00FF41D3H   CODE     ---       oled_p8x16str
*DEL*:00000000H   CODE     ---       oled_p8x16str_spi
*DEL*:00000000H   CODE     ---       oled_print_chinese
*DEL*:00000000H   CODE     ---       oled_print_chinese_spi
      00FF3FEBH   CODE     ---       oled_printf_float
*DEL*:00000000H   CODE     ---       oled_printf_float_spi
*DEL*:00000000H   CODE     ---       oled_printf_int32
*DEL*:00000000H   CODE     ---       oled_printf_int32_spi
*DEL*:00000000H   CODE     ---       oled_putpixel
*DEL*:00000000H   CODE     ---       oled_putpixel_spi
      00FF56C9H   CODE     ---       oled_set_pos
*DEL*:00000000H   CODE     ---       oled_set_pos_spi
      00FF52CFH   CODE     ---       oled_show
*DEL*:00000000H   CODE     ---       oled_uint16
*DEL*:00000000H   CODE     ---       oled_uint16_spi
      00FF562EH   CODE     ---       oled_wrcmd
*DEL*:00000000H   CODE     ---       oled_wrcmd_spi
      00FF5657H   CODE     ---       oled_wrdat
*DEL*:00000000H   CODE     ---       oled_wrdat_spi
L251 LINKER/LOCATER V4.66.93.0                                                        03/12/2024  22:14:56  PAGE 25


*SFR* 00000080H   DATA     BYTE      P0
*SFR* 00000080H.7 DATA     BIT       P07
*SFR* 00000094H   DATA     BYTE      P0M0
*SFR* 00000093H   DATA     BYTE      P0M1
*SFR* 00000090H   DATA     BYTE      P1
*SFR* 00000092H   DATA     BYTE      P1M0
*SFR* 00000091H   DATA     BYTE      P1M1
*SFR* 000000A0H   DATA     BYTE      P2
*SFR* 000000A0H.0 DATA     BIT       P20
*SFR* 000000A0H.1 DATA     BIT       P21
*SFR* 000000A0H.2 DATA     BIT       P22
*SFR* 000000A0H.3 DATA     BIT       P23
*SFR* 000000A0H.4 DATA     BIT       P24
*SFR* 000000A0H.5 DATA     BIT       P25
*SFR* 000000A0H.6 DATA     BIT       P26
*SFR* 000000A0H.7 DATA     BIT       P27
*SFR* 00000096H   DATA     BYTE      P2M0
*SFR* 00000095H   DATA     BYTE      P2M1
*SFR* 000000B0H   DATA     BYTE      P3
*SFR* 000000B0H.2 DATA     BIT       P32
*SFR* 000000B0H.3 DATA     BIT       P33
*SFR* 000000B0H.5 DATA     BIT       P35
*SFR* 000000B2H   DATA     BYTE      P3M0
*SFR* 000000B1H   DATA     BYTE      P3M1
*SFR* 000000C0H   DATA     BYTE      P4
*SFR* 000000C0H.0 DATA     BIT       P40
*SFR* 000000C0H.1 DATA     BIT       P41
*SFR* 000000C0H.2 DATA     BIT       P42
*SFR* 000000C0H.3 DATA     BIT       P43
*SFR* 000000C0H.7 DATA     BIT       P47
*SFR* 000000B4H   DATA     BYTE      P4M0
*SFR* 000000B3H   DATA     BYTE      P4M1
*SFR* 000000C8H   DATA     BYTE      P5
*SFR* 000000C8H.0 DATA     BIT       P50
*SFR* 000000C8H.1 DATA     BIT       P51
*SFR* 000000C8H.2 DATA     BIT       P52
*SFR* 000000C8H.3 DATA     BIT       P53
*SFR* 000000CAH   DATA     BYTE      P5M0
*SFR* 000000C9H   DATA     BYTE      P5M1
*SFR* 000000E8H   DATA     BYTE      P6
*SFR* 000000CCH   DATA     BYTE      P6M0
*SFR* 000000CBH   DATA     BYTE      P6M1
*SFR* 000000F8H   DATA     BYTE      P7
*SFR* 000000F8H.0 DATA     BIT       P70
*SFR* 000000F8H.1 DATA     BIT       P71
*SFR* 000000F8H.2 DATA     BIT       P72
*SFR* 000000F8H.3 DATA     BIT       P73
*SFR* 000000E2H   DATA     BYTE      P7M0
*SFR* 000000E1H   DATA     BYTE      P7M1
*SFR* 000000A2H   DATA     BYTE      P_SW1
*SFR* 000000BAH   DATA     BYTE      P_SW2
      00000008H   EDATA    BYTE      page
      00FF4472H   CODE     ---       PID_Calculate
      00FF50C8H   CODE     ---       PID_Init
      00FF48A4H   CODE     ---       pit_timer_ms
      00000477H   EDATA    FLOAT     Pitch
      000005EAH   EDATA    FLOAT     Plus
      000005E6H   EDATA    FLOAT     Plus_Mid
      00FF115BH   CODE     NEAR LAB  printf
      00FF538DH   CODE     ---       printf_reverse_order
*SFR* 000000D0H   DATA     BYTE      PSW
      00FF5868H   CODE     ---       putchar
      00FF5B12H   HCONST   ---       PWM_ARR_ADDR
      00FF5B1AH   HCONST   ---       PWM_CCER_ADDR
      00FF5B2AH   HCONST   ---       PWM_CCMR_ADDR
L251 LINKER/LOCATER V4.66.93.0                                                        03/12/2024  22:14:56  PAGE 26


      00FF5AF2H   HCONST   ---       PWM_CCR_ADDR
      00FF45F7H   CODE     ---       pwm_duty
*DEL*:00000000H   CODE     ---       pwm_freq
      00FF2F2EH   CODE     ---       pwm_init
      00FF3212H   CODE     ---       pwm_set_gpio
      0000043CH   EDATA    ---       Q
      000005D6H   EDATA    FLOAT     Ratio
      0000060EH   EDATA    FLOAT     Ratio_Mid
*DEL*:00000000H   CODE     ---       read_ch
      00FF5859H   CODE     ---       readdmp
*DEL*:00000000H   CODE     ---       recv_ack
*DEL*:00000000H   CODE     ---       recv_data
      00FF4A55H   CODE     ---       refresh_value
      00FF46AFH   CODE     ---       Right_SetSpeed
      000003A2H   EDATA    ---       Right_Wheel_PID
      00000424H   EDATA    FLOAT     Roll
*SFR* 000000FFH   DATA     BYTE      RSTCFG
*SFR* 0000009BH   DATA     BYTE      S2BUF
*SFR* 0000009AH   DATA     BYTE      S2CON
*SFR* 000000ADH   DATA     BYTE      S3BUF
*SFR* 000000ACH   DATA     BYTE      S3CON
*SFR* 000000FEH   DATA     BYTE      S4BUF
*SFR* 000000FDH   DATA     BYTE      S4CON
*SFR* 00000099H   DATA     BYTE      SBUF
*SFR* 00000098H   DATA     BYTE      SCON
*DEL*:00000000H   CODE     ---       send_ack
*DEL*:00000000H   CODE     ---       send_ch
*DEL*:00000000H   CODE     ---       send_data
*DEL*:00000000H   CODE     ---       send_nak
*DEL*:00000000H   CODE     ---       set_zero_position_simspi
*DEL*:00000000H   CODE     ---       set_zero_position_spi
*DEL*:00000000H   CODE     ---       showimage
*DEL*:00000000H   CODE     ---       simiic_delay
*DEL*:00000000H   CODE     ---       simiic_init
*DEL*:00000000H   CODE     ---       simiic_read_reg
*DEL*:00000000H   CODE     ---       simiic_read_regs
*DEL*:00000000H   CODE     ---       simiic_sendack
*DEL*:00000000H   CODE     ---       simiic_start
*DEL*:00000000H   CODE     ---       simiic_stop
*DEL*:00000000H   CODE     ---       simiic_write_reg
*DEL*:00000000H   CODE     ---       simspi_r_reg_byte
*DEL*:00000000H   CODE     ---       simspi_w_reg_byte
*DEL*:00000000H   CODE     ---       simspi_wr_byte
*SFR* 000000CEH   DATA     BYTE      SPCTL
*SFR* 000000CFH   DATA     BYTE      SPDAT
      000003C6H   EDATA    FLOAT     Speed_L
      000003EEH   EDATA    FLOAT     Speed_R
*DEL*:00000000H   CODE     ---       spi_change_mode
*DEL*:00000000H   CODE     ---       spi_change_pin
*DEL*:00000000H   CODE     ---       spi_init
*DEL*:00000000H   CODE     ---       spi_mosi
*DEL*:00000000H   CODE     ---       spi_r_reg_byte
*DEL*:00000000H   CODE     ---       spi_w_reg_byte
*DEL*:00000000H   CODE     ---       spi_wr_byte
*SFR* 000000CDH   DATA     BYTE      SPSTAT
      00FF1187H   CODE     ---       sqrt?_
*DEL*:00000000H   CODE     ---       start
*DEL*:00000000H   CODE     ---       stop
      00FF57F2H   CODE     NEAR LAB  strcpy?_
      000005F7H   EDATA    FLOAT     sum
      00000612H   EDATA    FLOAT     Sum_Angle
      000005DEH   EDATA    FLOAT     sum_L
      000005E2H   EDATA    FLOAT     sum_R
      0000066CH   EDATA    LONG      sys_clk
*SFR* 000000D6H   DATA     BYTE      T2H
L251 LINKER/LOCATER V4.66.93.0                                                        03/12/2024  22:14:56  PAGE 27


*SFR* 000000D7H   DATA     BYTE      T2L
*SFR* 000000D4H   DATA     BYTE      T3H
*SFR* 000000D5H   DATA     BYTE      T3L
*SFR* 000000D2H   DATA     BYTE      T4H
*SFR* 000000D3H   DATA     BYTE      T4L
*SFR* 000000DDH   DATA     BYTE      T4T3M
*SFR* 00000088H   DATA     BYTE      TCON
      00FF0696H   CODE     ---       tft_ascii
*SFR* 0000008CH   DATA     BYTE      TH0
*SFR* 0000008DH   DATA     BYTE      TH1
*SFR* 0000008AH   DATA     BYTE      TL0
*SFR* 0000008BH   DATA     BYTE      TL1
      00FF0012H   CODE     ---       TM0_Isr
      00FF0019H   CODE     ---       TM1_Isr
      00FF58F0H   CODE     ---       TM2_Isr
      00FF58F8H   CODE     ---       TM3_Isr
      00FF4BDFH   CODE     ---       TM4_Isr
*SFR* 00000089H   DATA     BYTE      TMOD
*SFR* 00000088H.4 DATA     BIT       TR0
*SFR* 00000088H.6 DATA     BIT       TR1
      0000013DH   EDATA    BYTE      tsl1401_finish_flag
      000003F3H   EDATA    ---       Turn_PID
      00FF53CBH   CODE     ---       UART1_Isr
      0000023EH   EDATA    ---       uart1_rx_buff
      000002A2H   EDATA    ---       uart1_tx_buff
      00FF572FH   CODE     ---       UART2_Isr
      00FF574DH   CODE     ---       UART3_Isr
      00FF4E37H   CODE     ---       UART4_Isr
      00FF3979H   CODE     ---       uart_init
*DEL*:00000000H   CODE     ---       uart_putbuff
      00FF5074H   CODE     ---       uart_putchar
*DEL*:00000000H   CODE     ---       uart_putstr
      00FF58CFH   CODE     ---       ui_init
      00FF5907H   CODE     ---       ui_show
      00000616H   EDATA    CHAR      Up_Down_Flag
      00000009H   EDATA    ---       value
      00000079H   EDATA    ---       value_name
      00FF40E3H   CODE     ---       value_name_init
      0000065BH   EDATA    ---       virtual_scope_data
      00000674H   EDATA    WORD      vl53l0x_distance_mm
      00000676H   EDATA    BYTE      vl53l0x_finsh_flag
*DEL*:00000000H   CODE     ---       vl53l0x_get_distance
*DEL*:00000000H   CODE     ---       vl53l0x_init
*DEL*:00000000H   CODE     ---       wait
      00FF5784H   CODE     ---       wireless_ch573_callback
*DEL*:00000000H   CODE     ---       wireless_ch573_init
*DEL*:00000000H   CODE     ---       wireless_ch573_read_buff
*DEL*:00000000H   CODE     ---       wireless_ch573_send_buff
      0000067AH   EDATA    INT       wireless_type
      00FF576BH   CODE     ---       wireless_uart_callback
*DEL*:00000000H   CODE     ---       wireless_uart_init
*DEL*:00000000H   CODE     ---       wireless_uart_read_buff
*DEL*:00000000H   CODE     ---       wireless_uart_send_buff
*SFR* 000000E9H   DATA     BYTE      WTST
      00000428H   EDATA    FLOAT     x1
      0000067EH   EDATA    WORD      x10_ms
      00FF49CAH   CODE     ---       xdmpUpdates
      0000042CH   EDATA    FLOAT     y1
      00000438H   EDATA    FLOAT     Yaw
      00000430H   EDATA    FLOAT     z1
      0000041CH   EDATA    FLOAT     z_add
      00000420H   EDATA    FLOAT     z_last
      00000434H   EDATA    FLOAT     z_now
*DEL*:00000000H   CODE     ---       zero_all
      00000670H   EDATA    WORD      zf_delay_ms
L251 LINKER/LOCATER V4.66.93.0                                                        03/12/2024  22:14:56  PAGE 28


      00000672H   EDATA    WORD      zf_delay_us
      00FF229EH   CODE     ---       zf_sprintf



SYMBOL TABLE OF MODULE:  .\Out_File\SEEKFREE (board)

      VALUE       REP       CLASS    TYPE      SYMBOL NAME
      ====================================================
      ---         MODULE    ---      ---       board
      00FF000EH   PUBLIC    CODE     ---       EnableGlobalIRQ
      00FF4ADDH   PUBLIC    CODE     ---       board_init
      00FF0016H   PUBLIC    CODE     ---       DisableGlobalIRQ
      00FF5868H   PUBLIC    CODE     ---       putchar
      0000066CH   PUBLIC    EDATA    LONG      sys_clk
      00000094H   SFRSYM    DATA     BYTE      P0M0
      000000D0H   SFRSYM    DATA     BYTE      PSW
      000000FDH   SFRSYM    DATA     BYTE      S4CON
      000000ACH   SFRSYM    DATA     BYTE      S3CON
      0000009AH   SFRSYM    DATA     BYTE      S2CON
      000000B7H   SFRSYM    DATA     BYTE      IPH
      000000E9H   SFRSYM    DATA     BYTE      WTST
      000000FFH   SFRSYM    DATA     BYTE      RSTCFG
      0000008EH   SFRSYM    DATA     BYTE      AUXR
      000000AFH   SFRSYM    DATA     BYTE      IE2
      00000088H   SFRSYM    DATA     BYTE      TCON
      00000089H   SFRSYM    DATA     BYTE      TMOD
      00000098H   SFRSYM    DATA     BYTE      SCON
      000000BCH   SFRSYM    DATA     BYTE      ADC_CONTR
      000000DEH   SFRSYM    DATA     BYTE      ADCCFG
      000000B8H   SFRSYM    DATA     BYTE      IP
      000000A8H   SFRSYM    DATA     BYTE      IE
      000000BAH   SFRSYM    DATA     BYTE      P_SW2
      000000A2H   SFRSYM    DATA     BYTE      P_SW1
      000000F8H   SFRSYM    DATA     BYTE      P7
      000000A8H.7 SFRSYM    DATA     BIT       EA
      000000E1H   SFRSYM    DATA     BYTE      P7M1
      000000E8H   SFRSYM    DATA     BYTE      P6
      000000C8H   SFRSYM    DATA     BYTE      P5
      000000CBH   SFRSYM    DATA     BYTE      P6M1
      000000E2H   SFRSYM    DATA     BYTE      P7M0
      000000C0H   SFRSYM    DATA     BYTE      P4
      000000C9H   SFRSYM    DATA     BYTE      P5M1
      000000CCH   SFRSYM    DATA     BYTE      P6M0
      000000B0H   SFRSYM    DATA     BYTE      P3
      000000B3H   SFRSYM    DATA     BYTE      P4M1
      000000CAH   SFRSYM    DATA     BYTE      P5M0
      000000A0H   SFRSYM    DATA     BYTE      P2
      000000B1H   SFRSYM    DATA     BYTE      P3M1
      000000B4H   SFRSYM    DATA     BYTE      P4M0
      00000090H   SFRSYM    DATA     BYTE      P1
      00000095H   SFRSYM    DATA     BYTE      P2M1
      000000B2H   SFRSYM    DATA     BYTE      P3M0
      00000080H   SFRSYM    DATA     BYTE      P0
      00000091H   SFRSYM    DATA     BYTE      P1M1
      00000096H   SFRSYM    DATA     BYTE      P2M0
      00000092H   SFRSYM    DATA     BYTE      P1M0
      00000093H   SFRSYM    DATA     BYTE      P0M1

      00FF4ADDH   BLOCK     CODE     ---       LVL=0
      00FF4ADDH   LINE      CODE     ---       #177
      00FF4ADDH   LINE      CODE     ---       #179
      00FF4AE0H   LINE      CODE     ---       #197
      00FF4AE3H   LINE      CODE     ---       #199
      00FF4AE6H   LINE      CODE     ---       #200
L251 LINKER/LOCATER V4.66.93.0                                                        03/12/2024  22:14:56  PAGE 29


      00FF4AE9H   LINE      CODE     ---       #201
      00FF4AF5H   LINE      CODE     ---       #203
      00FF4AF8H   LINE      CODE     ---       #204
      00FF4AFBH   LINE      CODE     ---       #205
      00FF4AFEH   LINE      CODE     ---       #206
      00FF4B01H   LINE      CODE     ---       #207
      00FF4B04H   LINE      CODE     ---       #208
      00FF4B07H   LINE      CODE     ---       #209
      00FF4B0AH   LINE      CODE     ---       #210
      00FF4B0DH   LINE      CODE     ---       #211
      00FF4B10H   LINE      CODE     ---       #212
      00FF4B13H   LINE      CODE     ---       #213
      00FF4B16H   LINE      CODE     ---       #214
      00FF4B19H   LINE      CODE     ---       #215
      00FF4B1CH   LINE      CODE     ---       #216
      00FF4B1FH   LINE      CODE     ---       #217
      00FF4B22H   LINE      CODE     ---       #218
      00FF4B25H   LINE      CODE     ---       #220
      00FF4B28H   LINE      CODE     ---       #221
      00FF4B2BH   LINE      CODE     ---       #222
      00FF4B2EH   LINE      CODE     ---       #223
      00FF4B31H   LINE      CODE     ---       #224
      00FF4B34H   LINE      CODE     ---       #225
      00FF4B37H   LINE      CODE     ---       #226
      00FF4B3AH   LINE      CODE     ---       #227
      00FF4B3DH   LINE      CODE     ---       #228
      00FF4B40H   LINE      CODE     ---       #229
      00FF4B43H   LINE      CODE     ---       #231
      ---         BLOCKEND  ---      ---       LVL=0

      00FF5868H   BLOCK     CODE     ---       LVL=0
      R15         REGSYM    ---      CHAR      c
      00FF5868H   LINE      CODE     ---       #237
      00FF586CH   LINE      CODE     ---       #239
      00FF5871H   LINE      CODE     ---       #241
      00FF5873H   LINE      CODE     ---       #242
      ---         BLOCKEND  ---      ---       LVL=0

      00FF0016H   BLOCK     CODE     ---       LVL=0
      00FF0016H   LINE      CODE     ---       #245
      00FF0016H   LINE      CODE     ---       #247
      00FF0018H   LINE      CODE     ---       #248
      ---         BLOCKEND  ---      ---       LVL=0

      00FF000EH   BLOCK     CODE     ---       LVL=0
      00FF000EH   LINE      CODE     ---       #251
      00FF000EH   LINE      CODE     ---       #253
      00FF0010H   LINE      CODE     ---       #254
      ---         BLOCKEND  ---      ---       LVL=0

      ---         MODULE    ---      ---       common
      0000067AH   PUBLIC    EDATA    INT       wireless_type
      000000D0H   SFRSYM    DATA     BYTE      PSW
      000000B7H   SFRSYM    DATA     BYTE      IPH
      00000088H   SFRSYM    DATA     BYTE      TCON
      00000098H   SFRSYM    DATA     BYTE      SCON
      000000BCH   SFRSYM    DATA     BYTE      ADC_CONTR
      000000DEH   SFRSYM    DATA     BYTE      ADCCFG
      000000B8H   SFRSYM    DATA     BYTE      IP
      000000A8H   SFRSYM    DATA     BYTE      IE
      000000F8H   SFRSYM    DATA     BYTE      P7
      000000E8H   SFRSYM    DATA     BYTE      P6
      000000C8H   SFRSYM    DATA     BYTE      P5
      000000C0H   SFRSYM    DATA     BYTE      P4
      000000B0H   SFRSYM    DATA     BYTE      P3
L251 LINKER/LOCATER V4.66.93.0                                                        03/12/2024  22:14:56  PAGE 30


      000000A0H   SFRSYM    DATA     BYTE      P2
      00000090H   SFRSYM    DATA     BYTE      P1
      00000080H   SFRSYM    DATA     BYTE      P0

      ---         MODULE    ---      ---       SEEKFREE_PRINTF
      00FF4938H   PUBLIC    CODE     ---       number_conversion_ascii
      00FF229EH   PUBLIC    CODE     ---       zf_sprintf
      00FF538DH   PUBLIC    CODE     ---       printf_reverse_order
      00000398H   PUBLIC    EDATA    BYTE      ?number_conversion_ascii?BYTE
      0000036AH   PUBLIC    EDATA    BYTE      ?zf_sprintf?BYTE
      000000D0H   SFRSYM    DATA     BYTE      PSW
      000000B7H   SFRSYM    DATA     BYTE      IPH
      00000088H   SFRSYM    DATA     BYTE      TCON
      00000098H   SFRSYM    DATA     BYTE      SCON
      000000BCH   SFRSYM    DATA     BYTE      ADC_CONTR
      000000DEH   SFRSYM    DATA     BYTE      ADCCFG
      000000B8H   SFRSYM    DATA     BYTE      IP
      000000A8H   SFRSYM    DATA     BYTE      IE
      000000F8H   SFRSYM    DATA     BYTE      P7
      000000E8H   SFRSYM    DATA     BYTE      P6
      000000C8H   SFRSYM    DATA     BYTE      P5
      000000C0H   SFRSYM    DATA     BYTE      P4
      000000B0H   SFRSYM    DATA     BYTE      P3
      000000A0H   SFRSYM    DATA     BYTE      P2
      00000090H   SFRSYM    DATA     BYTE      P1
      00000080H   SFRSYM    DATA     BYTE      P0

      00FF4938H   BLOCK     CODE     ---       LVL=0
      DR24        REGSYM    ---      DWORD     dat
      REG=7       REGSYM    ---      ---       p
      R10         REGSYM    ---      BYTE      neg_type
      000003A1H   SYMBOL    EDATA    BYTE      radix
      00FF4940H   BLOCK     CODE     NEAR LAB  LVL=1
      DR20        REGSYM    ---      LONG      neg_dat
      DR24        REGSYM    ---      DWORD     pos_dat
      R14         REGSYM    ---      BYTE      temp_data
      R15         REGSYM    ---      BYTE      valid_num
      ---         BLOCKEND  ---      ---       LVL=1
      00FF4938H   LINE      CODE     ---       #25
      00FF4940H   LINE      CODE     ---       #26
      00FF4940H   LINE      CODE     ---       #29
      00FF4940H   LINE      CODE     ---       #30
      00FF4942H   LINE      CODE     ---       #32
      00FF4946H   LINE      CODE     ---       #34
      00FF4948H   LINE      CODE     ---       #35
      00FF4958H   LINE      CODE     ---       #36
      00FF4958H   LINE      CODE     ---       #38
      00FF496EH   LINE      CODE     ---       #39
      00FF497DH   LINE      CODE     ---       #40
      00FF497FH   LINE      CODE     ---       #42
      00FF4985H   LINE      CODE     ---       #43
      00FF4987H   LINE      CODE     ---       #44
      00FF4989H   LINE      CODE     ---       #45
      00FF498BH   LINE      CODE     ---       #48
      00FF498BH   LINE      CODE     ---       #49
      00FF498BH   LINE      CODE     ---       #51
      00FF499AH   LINE      CODE     ---       #52
      00FF49A4H   LINE      CODE     ---       #53
      00FF49A7H   LINE      CODE     ---       #55
      00FF49AAH   LINE      CODE     ---       #57
      00FF49B9H   LINE      CODE     ---       #58
      00FF49BBH   LINE      CODE     ---       #60
      00FF49C1H   LINE      CODE     ---       #61
      00FF49C3H   LINE      CODE     ---       #62
      00FF49C5H   LINE      CODE     ---       #63
L251 LINKER/LOCATER V4.66.93.0                                                        03/12/2024  22:14:56  PAGE 31


      00FF49C5H   LINE      CODE     ---       #64
      00FF49C7H   LINE      CODE     ---       #65
      ---         BLOCKEND  ---      ---       LVL=0

      00FF538DH   BLOCK     CODE     ---       LVL=0
      REG=7       REGSYM    ---      ---       d_buff
      DR24        REGSYM    ---      DWORD     len
      00FF5391H   BLOCK     CODE     NEAR LAB  LVL=1
      DR4         REGSYM    ---      DWORD     i
      R3          REGSYM    ---      CHAR      temp_data
      ---         BLOCKEND  ---      ---       LVL=1
      00FF538DH   LINE      CODE     ---       #67
      00FF5391H   LINE      CODE     ---       #68
      00FF5391H   LINE      CODE     ---       #71
      00FF5395H   LINE      CODE     ---       #73
      00FF53A4H   LINE      CODE     ---       #74
      00FF53B2H   LINE      CODE     ---       #75
      00FF53B9H   LINE      CODE     ---       #76
      00FF53CAH   LINE      CODE     ---       #77
      ---         BLOCKEND  ---      ---       LVL=0

      00FF229EH   BLOCK     CODE     ---       LVL=0
      REG=3       REGSYM    ---      ---       buff
      0000036EH   SYMBOL    EDATA    ---       format
      00FF22A6H   BLOCK     CODE     NEAR LAB  LVL=1
      00000372H   SYMBOL    EDATA    DWORD     buff_len
      00000376H   SYMBOL    EDATA    ---       arg
      00FF22BBH   BLOCK     CODE     NEAR LAB  LVL=2
      0000037AH   SYMBOL    EDATA    CHAR      ret
      00FF23E5H   BLOCK     CODE     NEAR LAB  LVL=3
      0000037BH   SYMBOL    EDATA    CHAR      ch
      ---         BLOCKEND  ---      ---       LVL=3
      00FF23FEH   BLOCK     CODE     NEAR LAB  LVL=3
      0000037BH   SYMBOL    EDATA    ---       vstr
      0000039CH   SYMBOL    EDATA    LONG      ival
      000003A0H   SYMBOL    EDATA    BYTE      vlen
      ---         BLOCKEND  ---      ---       LVL=3
      00FF2477H   BLOCK     CODE     NEAR LAB  LVL=3
      0000037BH   SYMBOL    EDATA    ---       vstr
      0000039CH   SYMBOL    EDATA    FLOAT     ival
      000003A0H   SYMBOL    EDATA    BYTE      vlen
      ---         BLOCKEND  ---      ---       LVL=3
      00FF25B2H   BLOCK     CODE     NEAR LAB  LVL=3
      0000037BH   SYMBOL    EDATA    ---       vstr
      0000039CH   SYMBOL    EDATA    DWORD     ival
      000003A0H   SYMBOL    EDATA    BYTE      vlen
      ---         BLOCKEND  ---      ---       LVL=3
      00FF260AH   BLOCK     CODE     NEAR LAB  LVL=3
      0000037BH   SYMBOL    EDATA    ---       vstr
      0000039CH   SYMBOL    EDATA    DWORD     ival
      000003A0H   SYMBOL    EDATA    BYTE      vlen
      ---         BLOCKEND  ---      ---       LVL=3
      00FF2661H   BLOCK     CODE     NEAR LAB  LVL=3
      0000037BH   SYMBOL    EDATA    ---       vstr
      0000039CH   SYMBOL    EDATA    DWORD     ival
      000003A0H   SYMBOL    EDATA    BYTE      vlen
      ---         BLOCKEND  ---      ---       LVL=3
      00FF26C3H   BLOCK     CODE     NEAR LAB  LVL=3
      0000037BH   SYMBOL    EDATA    ---       pc
      ---         BLOCKEND  ---      ---       LVL=3
      00FF2705H   BLOCK     CODE     NEAR LAB  LVL=3
      0000037BH   SYMBOL    EDATA    ---       vstr
      0000039CH   SYMBOL    EDATA    DWORD     ival
      ---         BLOCKEND  ---      ---       LVL=3
      ---         BLOCKEND  ---      ---       LVL=2
L251 LINKER/LOCATER V4.66.93.0                                                        03/12/2024  22:14:56  PAGE 32


      ---         BLOCKEND  ---      ---       LVL=1
      00FF229EH   LINE      CODE     ---       #212
      00FF22A6H   LINE      CODE     ---       #213
      00FF22A6H   LINE      CODE     ---       #214
      00FF22ACH   LINE      CODE     ---       #216
      00FF22B8H   LINE      CODE     ---       #218
      00FF22BBH   LINE      CODE     ---       #219
      00FF22BBH   LINE      CODE     ---       #220
      00FF22C6H   LINE      CODE     ---       #221
      00FF22CEH   LINE      CODE     ---       #223
      00FF23E5H   LINE      CODE     ---       #225
      00FF23E5H   LINE      CODE     ---       #229
      00FF23E5H   LINE      CODE     ---       #232
      00FF23E5H   LINE      CODE     ---       #233
      00FF23E5H   LINE      CODE     ---       #234
      00FF23FBH   LINE      CODE     ---       #235
      00FF23FBH   LINE      CODE     ---       #236
      00FF23FBH   LINE      CODE     ---       #237
      00FF23FBH   LINE      CODE     ---       #239
      00FF23FEH   LINE      CODE     ---       #242
      00FF23FEH   LINE      CODE     ---       #243
      00FF23FEH   LINE      CODE     ---       #244
      00FF23FEH   LINE      CODE     ---       #246
      00FF2417H   LINE      CODE     ---       #247
      00FF242AH   LINE      CODE     ---       #249
      00FF2434H   LINE      CODE     ---       #251
      00FF2441H   LINE      CODE     ---       #252
      00FF2446H   LINE      CODE     ---       #253
      00FF2446H   LINE      CODE     ---       #254
      00FF2455H   LINE      CODE     ---       #255
      00FF2468H   LINE      CODE     ---       #256
      00FF2470H   LINE      CODE     ---       #257
      00FF2474H   LINE      CODE     ---       #260
      00FF2477H   LINE      CODE     ---       #262
      00FF2477H   LINE      CODE     ---       #263
      00FF2477H   LINE      CODE     ---       #264
      00FF2477H   LINE      CODE     ---       #266
      00FF2490H   LINE      CODE     ---       #267
      00FF24A6H   LINE      CODE     ---       #269
      00FF24B1H   LINE      CODE     ---       #271
      00FF24BEH   LINE      CODE     ---       #272
      00FF24C3H   LINE      CODE     ---       #273
      00FF24C3H   LINE      CODE     ---       #274
      00FF24D2H   LINE      CODE     ---       #275
      00FF24E5H   LINE      CODE     ---       #276
      00FF24EDH   LINE      CODE     ---       #277
      00FF24FFH   LINE      CODE     ---       #279
      00FF2523H   LINE      CODE     ---       #280
      00FF2529H   LINE      CODE     ---       #282
      00FF253BH   LINE      CODE     ---       #283
      00FF253DH   LINE      CODE     ---       #286
      00FF2557H   LINE      CODE     ---       #287
      00FF255DH   LINE      CODE     ---       #288
      00FF255DH   LINE      CODE     ---       #290
      00FF2562H   LINE      CODE     ---       #292
      00FF256CH   LINE      CODE     ---       #293
      00FF2571H   LINE      CODE     ---       #294
      00FF257AH   LINE      CODE     ---       #296
      00FF2582H   LINE      CODE     ---       #297
      00FF2589H   LINE      CODE     ---       #299
      00FF2598H   LINE      CODE     ---       #300
      00FF25ABH   LINE      CODE     ---       #301
      00FF25AFH   LINE      CODE     ---       #303
      00FF25B2H   LINE      CODE     ---       #306
      00FF25B2H   LINE      CODE     ---       #307
L251 LINKER/LOCATER V4.66.93.0                                                        03/12/2024  22:14:56  PAGE 33


      00FF25B2H   LINE      CODE     ---       #309
      00FF25CBH   LINE      CODE     ---       #310
      00FF25DDH   LINE      CODE     ---       #312
      00FF25E8H   LINE      CODE     ---       #313
      00FF25FBH   LINE      CODE     ---       #314
      00FF2603H   LINE      CODE     ---       #315
      00FF2607H   LINE      CODE     ---       #316
      00FF260AH   LINE      CODE     ---       #318
      00FF260AH   LINE      CODE     ---       #319
      00FF260AH   LINE      CODE     ---       #321
      00FF2623H   LINE      CODE     ---       #322
      00FF2635H   LINE      CODE     ---       #324
      00FF2640H   LINE      CODE     ---       #325
      00FF2653H   LINE      CODE     ---       #326
      00FF265BH   LINE      CODE     ---       #327
      00FF265FH   LINE      CODE     ---       #329
      00FF2661H   LINE      CODE     ---       #331
      00FF2661H   LINE      CODE     ---       #332
      00FF2661H   LINE      CODE     ---       #333
      00FF2661H   LINE      CODE     ---       #335
      00FF267AH   LINE      CODE     ---       #336
      00FF268CH   LINE      CODE     ---       #338
      00FF2697H   LINE      CODE     ---       #339
      00FF26AAH   LINE      CODE     ---       #340
      00FF26B2H   LINE      CODE     ---       #341
      00FF26C0H   LINE      CODE     ---       #342
      00FF26C3H   LINE      CODE     ---       #345
      00FF26C3H   LINE      CODE     ---       #346
      00FF26C3H   LINE      CODE     ---       #347
      00FF26D8H   LINE      CODE     ---       #348
      00FF26DAH   LINE      CODE     ---       #350
      00FF26E4H   LINE      CODE     ---       #351
      00FF26E6H   LINE      CODE     ---       #352
      00FF26F0H   LINE      CODE     ---       #353
      00FF26FAH   LINE      CODE     ---       #354
      00FF2703H   LINE      CODE     ---       #355
      00FF2705H   LINE      CODE     ---       #357
      00FF2705H   LINE      CODE     ---       #358
      00FF2705H   LINE      CODE     ---       #360
      00FF271EH   LINE      CODE     ---       #362
      00FF272CH   LINE      CODE     ---       #364
      00FF2737H   LINE      CODE     ---       #365
      00FF2748H   LINE      CODE     ---       #366
      00FF274CH   LINE      CODE     ---       #367
      00FF2754H   LINE      CODE     ---       #369
      00FF2756H   LINE      CODE     ---       #372
      00FF2756H   LINE      CODE     ---       #374
      00FF275BH   LINE      CODE     ---       #375
      00FF275DH   LINE      CODE     ---       #376
      00FF2763H   LINE      CODE     ---       #377
      00FF2765H   LINE      CODE     ---       #379
      00FF2765H   LINE      CODE     ---       #380
      00FF2765H   LINE      CODE     ---       #381
      00FF2765H   LINE      CODE     ---       #384
      00FF276FH   LINE      CODE     ---       #385
      00FF2771H   LINE      CODE     ---       #386
      00FF277BH   LINE      CODE     ---       #387
      00FF277BH   LINE      CODE     ---       #388
      00FF2785H   LINE      CODE     ---       #389
      00FF2791H   LINE      CODE     ---       #392
      00FF2795H   LINE      CODE     ---       #393
      ---         BLOCKEND  ---      ---       LVL=0

      ---         MODULE    ---      ---       zf_adc
      00FF5580H   PUBLIC    CODE     ---       adc_once
L251 LINKER/LOCATER V4.66.93.0                                                        03/12/2024  22:14:56  PAGE 34


      00FF4F62H   PUBLIC    CODE     ---       adc_init
      00000094H   SFRSYM    DATA     BYTE      P0M0
      000000D0H   SFRSYM    DATA     BYTE      PSW
      000000B7H   SFRSYM    DATA     BYTE      IPH
      000000BEH   SFRSYM    DATA     BYTE      ADC_RESL
      00000088H   SFRSYM    DATA     BYTE      TCON
      00000098H   SFRSYM    DATA     BYTE      SCON
      000000BCH   SFRSYM    DATA     BYTE      ADC_CONTR
      000000DEH   SFRSYM    DATA     BYTE      ADCCFG
      000000B8H   SFRSYM    DATA     BYTE      IP
      000000BDH   SFRSYM    DATA     BYTE      ADC_RES
      000000A8H   SFRSYM    DATA     BYTE      IE
      000000F8H   SFRSYM    DATA     BYTE      P7
      000000E8H   SFRSYM    DATA     BYTE      P6
      000000C8H   SFRSYM    DATA     BYTE      P5
      000000C0H   SFRSYM    DATA     BYTE      P4
      000000B0H   SFRSYM    DATA     BYTE      P3
      000000A0H   SFRSYM    DATA     BYTE      P2
      00000090H   SFRSYM    DATA     BYTE      P1
      00000080H   SFRSYM    DATA     BYTE      P0
      00000091H   SFRSYM    DATA     BYTE      P1M1
      00000092H   SFRSYM    DATA     BYTE      P1M0
      00000093H   SFRSYM    DATA     BYTE      P0M1

      00FF4F62H   BLOCK     CODE     ---       LVL=0
      WR4         REGSYM    ---      INT       adcn
      WR2         REGSYM    ---      INT       speed
      00FF4F62H   LINE      CODE     ---       #32
      00FF4F66H   LINE      CODE     ---       #34
      00FF4F69H   LINE      CODE     ---       #36
      00FF4F6CH   LINE      CODE     ---       #37
      00FF4F72H   LINE      CODE     ---       #39
      00FF4F7EH   LINE      CODE     ---       #42
      00FF4F93H   LINE      CODE     ---       #43
      00FF4F97H   LINE      CODE     ---       #44
      00FF4F99H   LINE      CODE     ---       #45
      00FF4F9DH   LINE      CODE     ---       #48
      00FF4FB2H   LINE      CODE     ---       #49
      00FF4FB6H   LINE      CODE     ---       #50
      00FF4FB6H   LINE      CODE     ---       #52
      00FF4FBCH   LINE      CODE     ---       #54
      00FF4FBFH   LINE      CODE     ---       #55
      ---         BLOCKEND  ---      ---       LVL=0

      00FF5580H   BLOCK     CODE     ---       LVL=0
      WR6         REGSYM    ---      INT       adcn
      WR4         REGSYM    ---      INT       resolution
      WR6         REGSYM    ---      WORD      adc_value
      00FF5580H   LINE      CODE     ---       #66
      00FF5580H   LINE      CODE     ---       #67
      00FF5580H   LINE      CODE     ---       #70
      00FF5583H   LINE      CODE     ---       #71
      00FF5587H   LINE      CODE     ---       #73
      00FF558AH   LINE      CODE     ---       #74
      00FF558FH   LINE      CODE     ---       #75
      00FF5592H   LINE      CODE     ---       #77
      00FF5594H   LINE      CODE     ---       #78
      00FF5598H   LINE      CODE     ---       #79
      00FF559EH   LINE      CODE     ---       #81
      00FF55A1H   LINE      CODE     ---       #82
      00FF55A4H   LINE      CODE     ---       #84
      00FF55ADH   LINE      CODE     ---       #87
      00FF55ADH   LINE      CODE     ---       #88
      ---         BLOCKEND  ---      ---       LVL=0

L251 LINKER/LOCATER V4.66.93.0                                                        03/12/2024  22:14:56  PAGE 35


      ---         MODULE    ---      ---       zf_delay
      00FF5444H   PUBLIC    CODE     ---       delay_init
      00FF579DH   PUBLIC    CODE     ---       delay_ms
      00000670H   PUBLIC    EDATA    WORD      zf_delay_ms
      00000672H   PUBLIC    EDATA    WORD      zf_delay_us
      000000D0H   SFRSYM    DATA     BYTE      PSW
      000000B7H   SFRSYM    DATA     BYTE      IPH
      00000088H   SFRSYM    DATA     BYTE      TCON
      00000098H   SFRSYM    DATA     BYTE      SCON
      000000BCH   SFRSYM    DATA     BYTE      ADC_CONTR
      000000DEH   SFRSYM    DATA     BYTE      ADCCFG
      000000B8H   SFRSYM    DATA     BYTE      IP
      000000A8H   SFRSYM    DATA     BYTE      IE
      000000F8H   SFRSYM    DATA     BYTE      P7
      000000E8H   SFRSYM    DATA     BYTE      P6
      000000C8H   SFRSYM    DATA     BYTE      P5
      000000C0H   SFRSYM    DATA     BYTE      P4
      000000B0H   SFRSYM    DATA     BYTE      P3
      000000A0H   SFRSYM    DATA     BYTE      P2
      00000090H   SFRSYM    DATA     BYTE      P1
      00000080H   SFRSYM    DATA     BYTE      P0

      00FF5444H   BLOCK     CODE     ---       LVL=0
      00FF5444H   LINE      CODE     ---       #34
      00FF5444H   LINE      CODE     ---       #36
      00FF5455H   LINE      CODE     ---       #37
      00FF5466H   LINE      CODE     ---       #38
      00FF547CH   LINE      CODE     ---       #40
      ---         BLOCKEND  ---      ---       LVL=0

      00FF579DH   BLOCK     CODE     ---       LVL=0
      WR4         REGSYM    ---      WORD      ms
      00FF579FH   BLOCK     CODE     NEAR LAB  LVL=1
      WR6         REGSYM    ---      WORD      i
      ---         BLOCKEND  ---      ---       LVL=1
      00FF579DH   LINE      CODE     ---       #48
      00FF579FH   LINE      CODE     ---       #49
      00FF579FH   LINE      CODE     ---       #51
      00FF579FH   LINE      CODE     ---       #52
      00FF57A3H   LINE      CODE     ---       #54
      00FF57ABH   LINE      CODE     ---       #55
      00FF57B3H   LINE      CODE     ---       #56
      ---         BLOCKEND  ---      ---       LVL=0
      DR0         REGSYM    ---      DWORD     us
      WR6         REGSYM    ---      WORD      i

      ---         MODULE    ---      ---       zf_eeprom
      000000D0H   SFRSYM    DATA     BYTE      PSW
      000000D0H.5 SFRSYM    DATA     BIT       F0
      000000C6H   SFRSYM    DATA     BYTE      IAP_TRIG
      000000B7H   SFRSYM    DATA     BYTE      IPH
      000000C2H   SFRSYM    DATA     BYTE      IAP_DATA
      000000C7H   SFRSYM    DATA     BYTE      IAP_CONTR
      00000088H   SFRSYM    DATA     BYTE      TCON
      00000098H   SFRSYM    DATA     BYTE      SCON
      000000F5H   SFRSYM    DATA     BYTE      IAP_TPS
      000000BCH   SFRSYM    DATA     BYTE      ADC_CONTR
      000000C4H   SFRSYM    DATA     BYTE      IAP_ADDRL
      000000C3H   SFRSYM    DATA     BYTE      IAP_ADDRH
      000000F6H   SFRSYM    DATA     BYTE      IAP_ADDRE
      000000DEH   SFRSYM    DATA     BYTE      ADCCFG
      000000B8H   SFRSYM    DATA     BYTE      IP
      000000C5H   SFRSYM    DATA     BYTE      IAP_CMD
      000000A8H   SFRSYM    DATA     BYTE      IE
      000000F8H   SFRSYM    DATA     BYTE      P7
L251 LINKER/LOCATER V4.66.93.0                                                        03/12/2024  22:14:56  PAGE 36


      000000A8H.7 SFRSYM    DATA     BIT       EA
      000000E8H   SFRSYM    DATA     BYTE      P6
      000000C8H   SFRSYM    DATA     BYTE      P5
      000000C0H   SFRSYM    DATA     BYTE      P4
      000000B0H   SFRSYM    DATA     BYTE      P3
      000000A0H   SFRSYM    DATA     BYTE      P2
      00000090H   SFRSYM    DATA     BYTE      P1
      00000080H   SFRSYM    DATA     BYTE      P0
      R11         REGSYM    ---      BYTE      write_time
      REG=3       REGSYM    ---      ---       buf
      REG=3       REGSYM    ---      ---       buf
      WR6         REGSYM    ---      WORD      addr
      REG=3       REGSYM    ---      ---       buf
      WR6         REGSYM    ---      WORD      i

      ---         MODULE    ---      ---       zf_exti
      000000D0H   SFRSYM    DATA     BYTE      PSW
      000000B7H   SFRSYM    DATA     BYTE      IPH
      00000088H.2 SFRSYM    DATA     BIT       IT1
      000000A8H.2 SFRSYM    DATA     BIT       EX1
      00000088H.0 SFRSYM    DATA     BIT       IT0
      000000A8H.0 SFRSYM    DATA     BIT       EX0
      00000088H   SFRSYM    DATA     BYTE      TCON
      00000098H   SFRSYM    DATA     BYTE      SCON
      000000BCH   SFRSYM    DATA     BYTE      ADC_CONTR
      000000DEH   SFRSYM    DATA     BYTE      ADCCFG
      000000B8H   SFRSYM    DATA     BYTE      IP
      0000008FH   SFRSYM    DATA     BYTE      INTCLKO
      000000A8H   SFRSYM    DATA     BYTE      IE
      000000F8H   SFRSYM    DATA     BYTE      P7
      000000E8H   SFRSYM    DATA     BYTE      P6
      000000C8H   SFRSYM    DATA     BYTE      P5
      000000C0H   SFRSYM    DATA     BYTE      P4
      000000B0H   SFRSYM    DATA     BYTE      P3
      000000A0H   SFRSYM    DATA     BYTE      P2
      00000090H   SFRSYM    DATA     BYTE      P1
      00000080H   SFRSYM    DATA     BYTE      P0
      WR4         REGSYM    ---      INT       int_n
      WR2         REGSYM    ---      INT       mode

      ---         MODULE    ---      ---       zf_gpio
      00FF2798H   PUBLIC    CODE     ---       gpio_mode
      00000094H   SFRSYM    DATA     BYTE      P0M0
      000000D0H   SFRSYM    DATA     BYTE      PSW
      000000B7H   SFRSYM    DATA     BYTE      IPH
      00000088H   SFRSYM    DATA     BYTE      TCON
      00000098H   SFRSYM    DATA     BYTE      SCON
      000000BCH   SFRSYM    DATA     BYTE      ADC_CONTR
      000000DEH   SFRSYM    DATA     BYTE      ADCCFG
      000000B8H   SFRSYM    DATA     BYTE      IP
      000000A8H   SFRSYM    DATA     BYTE      IE
      000000F8H   SFRSYM    DATA     BYTE      P7
      000000E1H   SFRSYM    DATA     BYTE      P7M1
      000000E8H   SFRSYM    DATA     BYTE      P6
      000000C8H   SFRSYM    DATA     BYTE      P5
      000000CBH   SFRSYM    DATA     BYTE      P6M1
      000000E2H   SFRSYM    DATA     BYTE      P7M0
      000000C0H   SFRSYM    DATA     BYTE      P4
      000000C9H   SFRSYM    DATA     BYTE      P5M1
      000000CCH   SFRSYM    DATA     BYTE      P6M0
      000000B0H   SFRSYM    DATA     BYTE      P3
      000000B3H   SFRSYM    DATA     BYTE      P4M1
      000000CAH   SFRSYM    DATA     BYTE      P5M0
      000000A0H   SFRSYM    DATA     BYTE      P2
      000000B1H   SFRSYM    DATA     BYTE      P3M1
L251 LINKER/LOCATER V4.66.93.0                                                        03/12/2024  22:14:56  PAGE 37


      000000B4H   SFRSYM    DATA     BYTE      P4M0
      00000090H   SFRSYM    DATA     BYTE      P1
      00000095H   SFRSYM    DATA     BYTE      P2M1
      000000B2H   SFRSYM    DATA     BYTE      P3M0
      00000080H   SFRSYM    DATA     BYTE      P0
      00000091H   SFRSYM    DATA     BYTE      P1M1
      00000096H   SFRSYM    DATA     BYTE      P2M0
      00000092H   SFRSYM    DATA     BYTE      P1M0
      00000093H   SFRSYM    DATA     BYTE      P0M1
      WR4         REGSYM    ---      INT       pin
      WR2         REGSYM    ---      INT       pull

      00FF2798H   BLOCK     CODE     ---       LVL=0
      WR4         REGSYM    ---      INT       pin
      WR2         REGSYM    ---      INT       mode
      00FF2798H   LINE      CODE     ---       #54
      00FF279CH   LINE      CODE     ---       #56
      00FF27A3H   LINE      CODE     ---       #58
      00FF27ABH   LINE      CODE     ---       #60
      00FF27C3H   LINE      CODE     ---       #61
      00FF27C5H   LINE      CODE     ---       #62
      00FF27C5H   LINE      CODE     ---       #63
      00FF27CBH   LINE      CODE     ---       #65
      00FF27E3H   LINE      CODE     ---       #66
      00FF27E5H   LINE      CODE     ---       #67
      00FF27E5H   LINE      CODE     ---       #68
      00FF27EBH   LINE      CODE     ---       #70
      00FF2803H   LINE      CODE     ---       #71
      00FF2805H   LINE      CODE     ---       #72
      00FF2805H   LINE      CODE     ---       #74
      00FF280BH   LINE      CODE     ---       #76
      00FF2823H   LINE      CODE     ---       #77
      00FF2825H   LINE      CODE     ---       #78
      00FF2825H   LINE      CODE     ---       #79
      00FF282BH   LINE      CODE     ---       #81
      00FF2843H   LINE      CODE     ---       #82
      00FF2845H   LINE      CODE     ---       #83
      00FF2845H   LINE      CODE     ---       #84
      00FF284BH   LINE      CODE     ---       #86
      00FF2863H   LINE      CODE     ---       #87
      00FF2865H   LINE      CODE     ---       #88
      00FF2865H   LINE      CODE     ---       #89
      00FF286BH   LINE      CODE     ---       #91
      00FF2883H   LINE      CODE     ---       #92
      00FF2885H   LINE      CODE     ---       #93
      00FF2885H   LINE      CODE     ---       #94
      00FF288EH   LINE      CODE     ---       #96
      00FF28A6H   LINE      CODE     ---       #97
      00FF28A8H   LINE      CODE     ---       #98
      00FF28A9H   LINE      CODE     ---       #100
      00FF28B2H   LINE      CODE     ---       #102
      00FF28BAH   LINE      CODE     ---       #104
      00FF28CFH   LINE      CODE     ---       #105
      00FF28D3H   LINE      CODE     ---       #106
      00FF28D3H   LINE      CODE     ---       #107
      00FF28D9H   LINE      CODE     ---       #109
      00FF28EEH   LINE      CODE     ---       #110
      00FF28F2H   LINE      CODE     ---       #111
      00FF28F2H   LINE      CODE     ---       #112
      00FF28F8H   LINE      CODE     ---       #114
      00FF290DH   LINE      CODE     ---       #115
      00FF2911H   LINE      CODE     ---       #116
      00FF2911H   LINE      CODE     ---       #118
      00FF2917H   LINE      CODE     ---       #120
      00FF292CH   LINE      CODE     ---       #121
L251 LINKER/LOCATER V4.66.93.0                                                        03/12/2024  22:14:56  PAGE 38


      00FF2930H   LINE      CODE     ---       #122
      00FF2930H   LINE      CODE     ---       #123
      00FF2936H   LINE      CODE     ---       #125
      00FF294BH   LINE      CODE     ---       #126
      00FF294FH   LINE      CODE     ---       #127
      00FF294FH   LINE      CODE     ---       #128
      00FF2955H   LINE      CODE     ---       #130
      00FF296AH   LINE      CODE     ---       #131
      00FF296EH   LINE      CODE     ---       #132
      00FF296EH   LINE      CODE     ---       #133
      00FF2974H   LINE      CODE     ---       #135
      00FF2989H   LINE      CODE     ---       #136
      00FF298DH   LINE      CODE     ---       #137
      00FF298DH   LINE      CODE     ---       #138
      00FF2996H   LINE      CODE     ---       #140
      00FF29ADH   LINE      CODE     ---       #141
      00FF29ADH   LINE      CODE     ---       #142
      00FF29B0H   LINE      CODE     ---       #145
      00FF29B9H   LINE      CODE     ---       #147
      00FF29C1H   LINE      CODE     ---       #149
      00FF29D4H   LINE      CODE     ---       #150
      00FF29D8H   LINE      CODE     ---       #151
      00FF29D8H   LINE      CODE     ---       #152
      00FF29DEH   LINE      CODE     ---       #154
      00FF29F1H   LINE      CODE     ---       #155
      00FF29F5H   LINE      CODE     ---       #156
      00FF29F5H   LINE      CODE     ---       #157
      00FF29FBH   LINE      CODE     ---       #159
      00FF2A0EH   LINE      CODE     ---       #160
      00FF2A12H   LINE      CODE     ---       #161
      00FF2A12H   LINE      CODE     ---       #163
      00FF2A18H   LINE      CODE     ---       #165
      00FF2A2BH   LINE      CODE     ---       #166
      00FF2A2FH   LINE      CODE     ---       #167
      00FF2A2FH   LINE      CODE     ---       #168
      00FF2A35H   LINE      CODE     ---       #170
      00FF2A48H   LINE      CODE     ---       #171
      00FF2A4CH   LINE      CODE     ---       #172
      00FF2A4CH   LINE      CODE     ---       #173
      00FF2A52H   LINE      CODE     ---       #175
      00FF2A65H   LINE      CODE     ---       #176
      00FF2A69H   LINE      CODE     ---       #177
      00FF2A69H   LINE      CODE     ---       #178
      00FF2A6FH   LINE      CODE     ---       #180
      00FF2A82H   LINE      CODE     ---       #181
      00FF2A86H   LINE      CODE     ---       #182
      00FF2A86H   LINE      CODE     ---       #183
      00FF2A8FH   LINE      CODE     ---       #185
      00FF2AA2H   LINE      CODE     ---       #186
      00FF2AA6H   LINE      CODE     ---       #187
      00FF2AA7H   LINE      CODE     ---       #189
      00FF2AB0H   LINE      CODE     ---       #191
      00FF2AB8H   LINE      CODE     ---       #193
      00FF2ACBH   LINE      CODE     ---       #194
      00FF2ACDH   LINE      CODE     ---       #195
      00FF2ACDH   LINE      CODE     ---       #196
      00FF2AD3H   LINE      CODE     ---       #198
      00FF2AE6H   LINE      CODE     ---       #199
      00FF2AE8H   LINE      CODE     ---       #200
      00FF2AE8H   LINE      CODE     ---       #201
      00FF2AEEH   LINE      CODE     ---       #203
      00FF2B01H   LINE      CODE     ---       #204
      00FF2B03H   LINE      CODE     ---       #205
      00FF2B03H   LINE      CODE     ---       #207
      00FF2B09H   LINE      CODE     ---       #209
L251 LINKER/LOCATER V4.66.93.0                                                        03/12/2024  22:14:56  PAGE 39


      00FF2B1CH   LINE      CODE     ---       #210
      00FF2B1EH   LINE      CODE     ---       #211
      00FF2B1EH   LINE      CODE     ---       #212
      00FF2B24H   LINE      CODE     ---       #214
      00FF2B37H   LINE      CODE     ---       #215
      00FF2B39H   LINE      CODE     ---       #216
      00FF2B39H   LINE      CODE     ---       #217
      00FF2B3FH   LINE      CODE     ---       #219
      00FF2B52H   LINE      CODE     ---       #220
      00FF2B54H   LINE      CODE     ---       #221
      00FF2B54H   LINE      CODE     ---       #222
      00FF2B5AH   LINE      CODE     ---       #224
      00FF2B6DH   LINE      CODE     ---       #225
      00FF2B6FH   LINE      CODE     ---       #226
      00FF2B6FH   LINE      CODE     ---       #227
      00FF2B75H   LINE      CODE     ---       #229
      00FF2B8AH   LINE      CODE     ---       #230
      00FF2B8EH   LINE      CODE     ---       #231
      00FF2B8EH   LINE      CODE     ---       #233
      ---         BLOCKEND  ---      ---       LVL=0

      ---         MODULE    ---      ---       zf_iic
      000000D0H   SFRSYM    DATA     BYTE      PSW
      000000B7H   SFRSYM    DATA     BYTE      IPH
      00000088H   SFRSYM    DATA     BYTE      TCON
      00000098H   SFRSYM    DATA     BYTE      SCON
      000000BCH   SFRSYM    DATA     BYTE      ADC_CONTR
      000000DEH   SFRSYM    DATA     BYTE      ADCCFG
      000000B8H   SFRSYM    DATA     BYTE      IP
      000000A8H   SFRSYM    DATA     BYTE      IE
      000000BAH   SFRSYM    DATA     BYTE      P_SW2
      000000F8H   SFRSYM    DATA     BYTE      P7
      000000E8H   SFRSYM    DATA     BYTE      P6
      000000C8H   SFRSYM    DATA     BYTE      P5
      000000C0H   SFRSYM    DATA     BYTE      P4
      000000B0H   SFRSYM    DATA     BYTE      P3
      000000A0H   SFRSYM    DATA     BYTE      P2
      00000090H   SFRSYM    DATA     BYTE      P1
      00000080H   SFRSYM    DATA     BYTE      P0
      WR6         REGSYM    ---      WORD      x
      R10         REGSYM    ---      BYTE      i
      WR12        REGSYM    ---      WORD      count
      R15         REGSYM    ---      BYTE      ret
      R11         REGSYM    ---      BYTE      ret
      R11         REGSYM    ---      CHAR      dat
      R11         REGSYM    ---      BYTE      ret
      R11         REGSYM    ---      BYTE      ret
      R11         REGSYM    ---      BYTE      ret
      R11         REGSYM    ---      BYTE      ret
      WR6         REGSYM    ---      INT       iic_n
      R13         REGSYM    ---      BYTE      dev_add
      R14         REGSYM    ---      BYTE      reg
      R15         REGSYM    ---      BYTE      dat
      R15         REGSYM    ---      BYTE      dev_add
      R14         REGSYM    ---      BYTE      reg
      REG=3       REGSYM    ---      ---       dat
      WR6         REGSYM    ---      INT       iic_n

      ---         MODULE    ---      ---       zf_nvic
      000000D0H   SFRSYM    DATA     BYTE      PSW
      000000B7H   SFRSYM    DATA     BYTE      IPH
      000000B5H   SFRSYM    DATA     BYTE      IP2
      00000088H   SFRSYM    DATA     BYTE      TCON
      00000098H   SFRSYM    DATA     BYTE      SCON
      000000BCH   SFRSYM    DATA     BYTE      ADC_CONTR
L251 LINKER/LOCATER V4.66.93.0                                                        03/12/2024  22:14:56  PAGE 40


      000000DEH   SFRSYM    DATA     BYTE      ADCCFG
      000000B8H   SFRSYM    DATA     BYTE      IP
      000000B6H   SFRSYM    DATA     BYTE      IP2H
      000000A8H   SFRSYM    DATA     BYTE      IE
      000000F8H   SFRSYM    DATA     BYTE      P7
      000000E8H   SFRSYM    DATA     BYTE      P6
      000000C8H   SFRSYM    DATA     BYTE      P5
      000000C0H   SFRSYM    DATA     BYTE      P4
      000000B0H   SFRSYM    DATA     BYTE      P3
      000000A0H   SFRSYM    DATA     BYTE      P2
      00000090H   SFRSYM    DATA     BYTE      P1
      00000080H   SFRSYM    DATA     BYTE      P0
      WR4         REGSYM    ---      INT       irqn
      R3          REGSYM    ---      BYTE      priority

      ---         MODULE    ---      ---       zf_pwm
      00FF45F7H   PUBLIC    CODE     ---       pwm_duty
      00FF3212H   PUBLIC    CODE     ---       pwm_set_gpio
      00FF2F2EH   PUBLIC    CODE     ---       pwm_init
      00FF5AF2H   PUBLIC    HCONST   ---       PWM_CCR_ADDR
      00FF5B12H   PUBLIC    HCONST   ---       PWM_ARR_ADDR
      00FF5B1AH   PUBLIC    HCONST   ---       PWM_CCER_ADDR
      00FF5B2AH   PUBLIC    HCONST   ---       PWM_CCMR_ADDR
      00000315H   PUBLIC    EDATA    BYTE      ?pwm_init?BYTE
      000000D0H   SFRSYM    DATA     BYTE      PSW
      000000B7H   SFRSYM    DATA     BYTE      IPH
      00000088H   SFRSYM    DATA     BYTE      TCON
      00000098H   SFRSYM    DATA     BYTE      SCON
      000000BCH   SFRSYM    DATA     BYTE      ADC_CONTR
      000000DEH   SFRSYM    DATA     BYTE      ADCCFG
      000000B8H   SFRSYM    DATA     BYTE      IP
      000000A8H   SFRSYM    DATA     BYTE      IE
      000000BAH   SFRSYM    DATA     BYTE      P_SW2
      000000F8H   SFRSYM    DATA     BYTE      P7
      000000E8H   SFRSYM    DATA     BYTE      P6
      000000C8H   SFRSYM    DATA     BYTE      P5
      000000C0H   SFRSYM    DATA     BYTE      P4
      000000B0H   SFRSYM    DATA     BYTE      P3
      000000A0H   SFRSYM    DATA     BYTE      P2
      00000090H   SFRSYM    DATA     BYTE      P1
      00000080H   SFRSYM    DATA     BYTE      P0

      00FF3212H   BLOCK     CODE     ---       LVL=0
      WR6         REGSYM    ---      INT       pwmch
      00FF3212H   LINE      CODE     ---       #49
      00FF3212H   LINE      CODE     ---       #51
      00FF3385H   LINE      CODE     ---       #53
      00FF3385H   LINE      CODE     ---       #55
      00FF3389H   LINE      CODE     ---       #56
      00FF338CH   LINE      CODE     ---       #58
      00FF338CH   LINE      CODE     ---       #60
      00FF3390H   LINE      CODE     ---       #61
      00FF3393H   LINE      CODE     ---       #63
      00FF3393H   LINE      CODE     ---       #65
      00FF3397H   LINE      CODE     ---       #66
      00FF339AH   LINE      CODE     ---       #68
      00FF339AH   LINE      CODE     ---       #70
      00FF339EH   LINE      CODE     ---       #71
      00FF33A1H   LINE      CODE     ---       #73
      00FF33A1H   LINE      CODE     ---       #75
      00FF33A5H   LINE      CODE     ---       #76
      00FF33A8H   LINE      CODE     ---       #78
      00FF33A8H   LINE      CODE     ---       #80
      00FF33ACH   LINE      CODE     ---       #81
      00FF33AFH   LINE      CODE     ---       #84
L251 LINKER/LOCATER V4.66.93.0                                                        03/12/2024  22:14:56  PAGE 41


      00FF33AFH   LINE      CODE     ---       #86
      00FF33B3H   LINE      CODE     ---       #87
      00FF33B6H   LINE      CODE     ---       #89
      00FF33B6H   LINE      CODE     ---       #91
      00FF33BAH   LINE      CODE     ---       #92
      00FF33BDH   LINE      CODE     ---       #94
      00FF33BDH   LINE      CODE     ---       #96
      00FF33C1H   LINE      CODE     ---       #97
      00FF33C4H   LINE      CODE     ---       #99
      00FF33C4H   LINE      CODE     ---       #101
      00FF33C8H   LINE      CODE     ---       #102
      00FF33CBH   LINE      CODE     ---       #104
      00FF33CBH   LINE      CODE     ---       #106
      00FF33CFH   LINE      CODE     ---       #107
      00FF33D2H   LINE      CODE     ---       #109
      00FF33D2H   LINE      CODE     ---       #111
      00FF33D6H   LINE      CODE     ---       #112
      00FF33D9H   LINE      CODE     ---       #115
      00FF33D9H   LINE      CODE     ---       #117
      00FF33DDH   LINE      CODE     ---       #118
      00FF33DFH   LINE      CODE     ---       #120
      00FF33DFH   LINE      CODE     ---       #122
      00FF33E3H   LINE      CODE     ---       #123
      00FF33E5H   LINE      CODE     ---       #125
      00FF33E5H   LINE      CODE     ---       #127
      00FF33E9H   LINE      CODE     ---       #128
      00FF33EBH   LINE      CODE     ---       #130
      00FF33EBH   LINE      CODE     ---       #132
      00FF33EFH   LINE      CODE     ---       #133
      00FF33F1H   LINE      CODE     ---       #135
      00FF33F1H   LINE      CODE     ---       #137
      00FF33F5H   LINE      CODE     ---       #138
      00FF33F7H   LINE      CODE     ---       #140
      00FF33F7H   LINE      CODE     ---       #142
      00FF33FBH   LINE      CODE     ---       #143
      00FF33FDH   LINE      CODE     ---       #147
      00FF33FDH   LINE      CODE     ---       #149
      00FF3401H   LINE      CODE     ---       #150
      00FF3403H   LINE      CODE     ---       #152
      00FF3403H   LINE      CODE     ---       #154
      00FF3407H   LINE      CODE     ---       #155
      00FF3409H   LINE      CODE     ---       #157
      00FF3409H   LINE      CODE     ---       #159
      00FF340DH   LINE      CODE     ---       #160
      00FF340FH   LINE      CODE     ---       #162
      00FF340FH   LINE      CODE     ---       #164
      00FF3413H   LINE      CODE     ---       #165
      00FF3415H   LINE      CODE     ---       #167
      00FF3415H   LINE      CODE     ---       #169
      00FF3419H   LINE      CODE     ---       #170
      00FF341BH   LINE      CODE     ---       #172
      00FF341BH   LINE      CODE     ---       #174
      00FF341FH   LINE      CODE     ---       #175
      00FF3421H   LINE      CODE     ---       #177
      00FF3421H   LINE      CODE     ---       #179
      00FF3425H   LINE      CODE     ---       #180
      00FF3427H   LINE      CODE     ---       #182
      00FF3427H   LINE      CODE     ---       #184
      00FF342BH   LINE      CODE     ---       #185
      00FF342DH   LINE      CODE     ---       #189
      00FF342DH   LINE      CODE     ---       #191
      00FF3431H   LINE      CODE     ---       #192
      00FF3433H   LINE      CODE     ---       #194
      00FF3433H   LINE      CODE     ---       #196
      00FF3437H   LINE      CODE     ---       #197
L251 LINKER/LOCATER V4.66.93.0                                                        03/12/2024  22:14:56  PAGE 42


      00FF3439H   LINE      CODE     ---       #199
      00FF3439H   LINE      CODE     ---       #201
      00FF343BH   LINE      CODE     ---       #202
      00FF343DH   LINE      CODE     ---       #204
      00FF343DH   LINE      CODE     ---       #206
      00FF3441H   LINE      CODE     ---       #207
      00FF3443H   LINE      CODE     ---       #210
      00FF3443H   LINE      CODE     ---       #212
      00FF3447H   LINE      CODE     ---       #213
      00FF3449H   LINE      CODE     ---       #215
      00FF3449H   LINE      CODE     ---       #217
      00FF344DH   LINE      CODE     ---       #218
      00FF344FH   LINE      CODE     ---       #220
      00FF344FH   LINE      CODE     ---       #222
      00FF3455H   LINE      CODE     ---       #223
      00FF3457H   LINE      CODE     ---       #225
      00FF3457H   LINE      CODE     ---       #227
      00FF345FH   LINE      CODE     ---       #228
      00FF3461H   LINE      CODE     ---       #232
      00FF3461H   LINE      CODE     ---       #234
      00FF3469H   LINE      CODE     ---       #235
      00FF346BH   LINE      CODE     ---       #237
      00FF346BH   LINE      CODE     ---       #239
      00FF3473H   LINE      CODE     ---       #240
      00FF3475H   LINE      CODE     ---       #242
      00FF3475H   LINE      CODE     ---       #244
      00FF347DH   LINE      CODE     ---       #245
      00FF347FH   LINE      CODE     ---       #247
      00FF347FH   LINE      CODE     ---       #249
      00FF3487H   LINE      CODE     ---       #250
      00FF3489H   LINE      CODE     ---       #254
      00FF3489H   LINE      CODE     ---       #256
      00FF3491H   LINE      CODE     ---       #257
      00FF3493H   LINE      CODE     ---       #259
      00FF3493H   LINE      CODE     ---       #261
      00FF349BH   LINE      CODE     ---       #262
      00FF349DH   LINE      CODE     ---       #264
      00FF349DH   LINE      CODE     ---       #266
      00FF34A5H   LINE      CODE     ---       #267
      00FF34A7H   LINE      CODE     ---       #269
      00FF34A7H   LINE      CODE     ---       #271
      00FF34B2H   LINE      CODE     ---       #272
      00FF34B2H   LINE      CODE     ---       #275
      00FF34B2H   LINE      CODE     ---       #277
      ---         BLOCKEND  ---      ---       LVL=0

      00FF2F2EH   BLOCK     CODE     ---       LVL=0
      WR14        REGSYM    ---      INT       pwmch
      00000317H   SYMBOL    EDATA    DWORD     freq
      0000031BH   SYMBOL    EDATA    DWORD     duty
      00FF2F36H   BLOCK     CODE     NEAR LAB  LVL=1
      DR4         REGSYM    ---      DWORD     match_temp
      DR28        REGSYM    ---      DWORD     period_temp
      WR26        REGSYM    ---      WORD      freq_div
      ---         BLOCKEND  ---      ---       LVL=1
      00FF2F2EH   LINE      CODE     ---       #290
      00FF2F36H   LINE      CODE     ---       #291
      00FF2F36H   LINE      CODE     ---       #295
      00FF2F36H   LINE      CODE     ---       #298
      00FF2F39H   LINE      CODE     ---       #301
      00FF2F3CH   LINE      CODE     ---       #305
      00FF2F4DH   LINE      CODE     ---       #306
      00FF2F4DH   LINE      CODE     ---       #307
      00FF2F56H   LINE      CODE     ---       #309
      00FF2F77H   LINE      CODE     ---       #312
L251 LINKER/LOCATER V4.66.93.0                                                        03/12/2024  22:14:56  PAGE 43


      00FF2F80H   LINE      CODE     ---       #315
      00FF2FABH   LINE      CODE     ---       #316
      00FF2FCCH   LINE      CODE     ---       #319
      00FF3018H   LINE      CODE     ---       #322
      00FF3027H   LINE      CODE     ---       #323
      00FF3032H   LINE      CODE     ---       #325
      00FF303BH   LINE      CODE     ---       #326
      00FF3041H   LINE      CODE     ---       #327
      00FF3044H   LINE      CODE     ---       #330
      00FF307CH   LINE      CODE     ---       #331
      00FF309FH   LINE      CODE     ---       #334
      00FF30F1H   LINE      CODE     ---       #338
      00FF3100H   LINE      CODE     ---       #339
      00FF310BH   LINE      CODE     ---       #341
      00FF3114H   LINE      CODE     ---       #342
      00FF3121H   LINE      CODE     ---       #343
      00FF3121H   LINE      CODE     ---       #346
      00FF314DH   LINE      CODE     ---       #347
      00FF317BH   LINE      CODE     ---       #350
      00FF31A1H   LINE      CODE     ---       #351
      00FF31CDH   LINE      CODE     ---       #354
      00FF31E4H   LINE      CODE     ---       #355
      00FF320FH   LINE      CODE     ---       #360
      ---         BLOCKEND  ---      ---       LVL=0

      00FF45F7H   BLOCK     CODE     ---       LVL=0
      WR30        REGSYM    ---      INT       pwmch
      DR24        REGSYM    ---      DWORD     duty
      00FF45FBH   BLOCK     CODE     NEAR LAB  LVL=1
      DR0         REGSYM    ---      DWORD     match_temp
      DR20        REGSYM    ---      DWORD     arr
      ---         BLOCKEND  ---      ---       LVL=1
      00FF45F7H   LINE      CODE     ---       #370
      00FF45FBH   LINE      CODE     ---       #371
      00FF45FBH   LINE      CODE     ---       #373
      00FF463FH   LINE      CODE     ---       #377
      00FF4660H   LINE      CODE     ---       #381
      00FF4686H   LINE      CODE     ---       #382
      00FF46AEH   LINE      CODE     ---       #386
      ---         BLOCKEND  ---      ---       LVL=0
      WR30        REGSYM    ---      INT       pwmch
      DR24        REGSYM    ---      DWORD     freq
      DR0         REGSYM    ---      DWORD     match_temp
      DR24        REGSYM    ---      DWORD     period_temp
      WR28        REGSYM    ---      WORD      freq_div

      ---         MODULE    ---      ---       zf_spi
      000000CFH   SFRSYM    DATA     BYTE      SPDAT
      000000D0H   SFRSYM    DATA     BYTE      PSW
      000000B7H   SFRSYM    DATA     BYTE      IPH
      000000CDH   SFRSYM    DATA     BYTE      SPSTAT
      00000088H   SFRSYM    DATA     BYTE      TCON
      00000098H   SFRSYM    DATA     BYTE      SCON
      000000BCH   SFRSYM    DATA     BYTE      ADC_CONTR
      000000DEH   SFRSYM    DATA     BYTE      ADCCFG
      000000B8H   SFRSYM    DATA     BYTE      IP
      000000A8H   SFRSYM    DATA     BYTE      IE
      000000A2H   SFRSYM    DATA     BYTE      P_SW1
      000000CEH   SFRSYM    DATA     BYTE      SPCTL
      000000F8H   SFRSYM    DATA     BYTE      P7
      000000E8H   SFRSYM    DATA     BYTE      P6
      000000C8H   SFRSYM    DATA     BYTE      P5
      000000C0H   SFRSYM    DATA     BYTE      P4
      000000B0H   SFRSYM    DATA     BYTE      P3
      000000A0H   SFRSYM    DATA     BYTE      P2
L251 LINKER/LOCATER V4.66.93.0                                                        03/12/2024  22:14:56  PAGE 44


      00000090H   SFRSYM    DATA     BYTE      P1
      00000080H   SFRSYM    DATA     BYTE      P0
      WR14        REGSYM    ---      INT       spi_n
      R13         REGSYM    ---      BYTE      mode
      R11         REGSYM    ---      BYTE      dat
      WR14        REGSYM    ---      INT       spi_n
      R7          REGSYM    ---      BYTE      mode

      ---         MODULE    ---      ---       zf_tim
      00FF516DH   PUBLIC    CODE     ---       ctimer_count_read
      00FF48A4H   PUBLIC    CODE     ---       pit_timer_ms
      00FF51BAH   PUBLIC    CODE     ---       ctimer_count_init
      00FF511CH   PUBLIC    CODE     ---       ctimer_count_clean
      000000D0H   SFRSYM    DATA     BYTE      PSW
      000000B7H   SFRSYM    DATA     BYTE      IPH
      000000DDH   SFRSYM    DATA     BYTE      T4T3M
      00000088H.6 SFRSYM    DATA     BIT       TR1
      00000088H.4 SFRSYM    DATA     BIT       TR0
      000000D3H   SFRSYM    DATA     BYTE      T4L
      000000D5H   SFRSYM    DATA     BYTE      T3L
      000000D7H   SFRSYM    DATA     BYTE      T2L
      0000008BH   SFRSYM    DATA     BYTE      TL1
      0000008AH   SFRSYM    DATA     BYTE      TL0
      000000D2H   SFRSYM    DATA     BYTE      T4H
      000000D4H   SFRSYM    DATA     BYTE      T3H
      000000D6H   SFRSYM    DATA     BYTE      T2H
      0000008DH   SFRSYM    DATA     BYTE      TH1
      0000008CH   SFRSYM    DATA     BYTE      TH0
      000000A8H.3 SFRSYM    DATA     BIT       ET1
      000000A8H.1 SFRSYM    DATA     BIT       ET0
      0000008EH   SFRSYM    DATA     BYTE      AUXR
      000000AFH   SFRSYM    DATA     BYTE      IE2
      00000088H   SFRSYM    DATA     BYTE      TCON
      00000089H   SFRSYM    DATA     BYTE      TMOD
      00000098H   SFRSYM    DATA     BYTE      SCON
      000000BCH   SFRSYM    DATA     BYTE      ADC_CONTR
      000000DEH   SFRSYM    DATA     BYTE      ADCCFG
      000000B8H   SFRSYM    DATA     BYTE      IP
      000000A8H   SFRSYM    DATA     BYTE      IE
      000000F8H   SFRSYM    DATA     BYTE      P7
      000000E8H   SFRSYM    DATA     BYTE      P6
      000000C8H   SFRSYM    DATA     BYTE      P5
      000000C0H   SFRSYM    DATA     BYTE      P4
      000000B0H   SFRSYM    DATA     BYTE      P3
      000000A0H   SFRSYM    DATA     BYTE      P2
      00000090H   SFRSYM    DATA     BYTE      P1
      00000080H   SFRSYM    DATA     BYTE      P0

      00FF51BAH   BLOCK     CODE     ---       LVL=0
      WR6         REGSYM    ---      INT       tim_n
      00FF51BAH   LINE      CODE     ---       #39
      00FF51BAH   LINE      CODE     ---       #42
      00FF51CEH   LINE      CODE     ---       #44
      00FF51CEH   LINE      CODE     ---       #46
      00FF51D1H   LINE      CODE     ---       #47
      00FF51D4H   LINE      CODE     ---       #48
      00FF51D7H   LINE      CODE     ---       #49
      00FF51D9H   LINE      CODE     ---       #50
      00FF51DAH   LINE      CODE     ---       #53
      00FF51DAH   LINE      CODE     ---       #55
      00FF51DDH   LINE      CODE     ---       #56
      00FF51E0H   LINE      CODE     ---       #57
      00FF51E3H   LINE      CODE     ---       #58
      00FF51E5H   LINE      CODE     ---       #59
      00FF51E6H   LINE      CODE     ---       #62
L251 LINKER/LOCATER V4.66.93.0                                                        03/12/2024  22:14:56  PAGE 45


      00FF51E6H   LINE      CODE     ---       #64
      00FF51E9H   LINE      CODE     ---       #65
      00FF51ECH   LINE      CODE     ---       #66
      00FF51EFH   LINE      CODE     ---       #67
      00FF51F0H   LINE      CODE     ---       #70
      00FF51F0H   LINE      CODE     ---       #72
      00FF51F3H   LINE      CODE     ---       #73
      00FF51F6H   LINE      CODE     ---       #74
      00FF51F9H   LINE      CODE     ---       #75
      00FF51FAH   LINE      CODE     ---       #78
      00FF51FAH   LINE      CODE     ---       #80
      00FF51FDH   LINE      CODE     ---       #81
      00FF5200H   LINE      CODE     ---       #82
      00FF5203H   LINE      CODE     ---       #83
      00FF5203H   LINE      CODE     ---       #86
      00FF5203H   LINE      CODE     ---       #87
      ---         BLOCKEND  ---      ---       LVL=0

      00FF516DH   BLOCK     CODE     ---       LVL=0
      WR4         REGSYM    ---      INT       tim_n
      00FF516FH   BLOCK     CODE     NEAR LAB  LVL=1
      WR6         REGSYM    ---      WORD      dat
      ---         BLOCKEND  ---      ---       LVL=1
      00FF516DH   LINE      CODE     ---       #95
      00FF516FH   LINE      CODE     ---       #96
      00FF516FH   LINE      CODE     ---       #97
      00FF5171H   LINE      CODE     ---       #99
      00FF5185H   LINE      CODE     ---       #101
      00FF5185H   LINE      CODE     ---       #103
      00FF518BH   LINE      CODE     ---       #104
      00FF518DH   LINE      CODE     ---       #105
      00FF518FH   LINE      CODE     ---       #107
      00FF518FH   LINE      CODE     ---       #109
      00FF5195H   LINE      CODE     ---       #110
      00FF5197H   LINE      CODE     ---       #111
      00FF5199H   LINE      CODE     ---       #113
      00FF5199H   LINE      CODE     ---       #115
      00FF519FH   LINE      CODE     ---       #116
      00FF51A1H   LINE      CODE     ---       #117
      00FF51A3H   LINE      CODE     ---       #119
      00FF51A3H   LINE      CODE     ---       #121
      00FF51A9H   LINE      CODE     ---       #122
      00FF51ABH   LINE      CODE     ---       #123
      00FF51ADH   LINE      CODE     ---       #125
      00FF51ADH   LINE      CODE     ---       #127
      00FF51B3H   LINE      CODE     ---       #128
      00FF51B9H   LINE      CODE     ---       #129
      00FF51B9H   LINE      CODE     ---       #132
      00FF51B9H   LINE      CODE     ---       #133
      00FF51B9H   LINE      CODE     ---       #134
      ---         BLOCKEND  ---      ---       LVL=0

      00FF511CH   BLOCK     CODE     ---       LVL=0
      WR6         REGSYM    ---      INT       tim_n
      00FF511CH   LINE      CODE     ---       #143
      00FF511CH   LINE      CODE     ---       #145
      00FF5130H   LINE      CODE     ---       #147
      00FF5130H   LINE      CODE     ---       #149
      00FF5132H   LINE      CODE     ---       #150
      00FF5135H   LINE      CODE     ---       #151
      00FF5138H   LINE      CODE     ---       #152
      00FF513AH   LINE      CODE     ---       #153
      00FF513BH   LINE      CODE     ---       #155
      00FF513BH   LINE      CODE     ---       #157
      00FF513DH   LINE      CODE     ---       #158
L251 LINKER/LOCATER V4.66.93.0                                                        03/12/2024  22:14:56  PAGE 46


      00FF5140H   LINE      CODE     ---       #159
      00FF5143H   LINE      CODE     ---       #160
      00FF5145H   LINE      CODE     ---       #161
      00FF5146H   LINE      CODE     ---       #163
      00FF5146H   LINE      CODE     ---       #165
      00FF5149H   LINE      CODE     ---       #166
      00FF514CH   LINE      CODE     ---       #167
      00FF514FH   LINE      CODE     ---       #168
      00FF5152H   LINE      CODE     ---       #169
      00FF5153H   LINE      CODE     ---       #171
      00FF5153H   LINE      CODE     ---       #173
      00FF5156H   LINE      CODE     ---       #174
      00FF5159H   LINE      CODE     ---       #175
      00FF515CH   LINE      CODE     ---       #176
      00FF515FH   LINE      CODE     ---       #177
      00FF5160H   LINE      CODE     ---       #179
      00FF5160H   LINE      CODE     ---       #181
      00FF5163H   LINE      CODE     ---       #182
      00FF5166H   LINE      CODE     ---       #183
      00FF5169H   LINE      CODE     ---       #184
      00FF516CH   LINE      CODE     ---       #185
      00FF516CH   LINE      CODE     ---       #187
      00FF516CH   LINE      CODE     ---       #188
      ---         BLOCKEND  ---      ---       LVL=0

      00FF48A4H   BLOCK     CODE     ---       LVL=0
      WR30        REGSYM    ---      INT       tim_n
      WR28        REGSYM    ---      WORD      time_ms
      00FF48A6H   BLOCK     CODE     NEAR LAB  LVL=1
      WR28        REGSYM    ---      WORD      temp
      ---         BLOCKEND  ---      ---       LVL=1
      00FF48A4H   LINE      CODE     ---       #198
      00FF48A6H   LINE      CODE     ---       #199
      00FF48A6H   LINE      CODE     ---       #201
      00FF48C3H   LINE      CODE     ---       #203
      00FF48C7H   LINE      CODE     ---       #205
      00FF48CBH   LINE      CODE     ---       #206
      00FF48D1H   LINE      CODE     ---       #207
      00FF48D5H   LINE      CODE     ---       #208
      00FF48D7H   LINE      CODE     ---       #209
      00FF48D9H   LINE      CODE     ---       #210
      00FF48DAH   LINE      CODE     ---       #211
      00FF48E0H   LINE      CODE     ---       #213
      00FF48E4H   LINE      CODE     ---       #214
      00FF48EAH   LINE      CODE     ---       #215
      00FF48EEH   LINE      CODE     ---       #216
      00FF48F0H   LINE      CODE     ---       #217
      00FF48F2H   LINE      CODE     ---       #218
      00FF48F3H   LINE      CODE     ---       #219
      00FF48F9H   LINE      CODE     ---       #221
      00FF48FFH   LINE      CODE     ---       #222
      00FF4903H   LINE      CODE     ---       #223
      00FF4906H   LINE      CODE     ---       #224
      00FF4909H   LINE      CODE     ---       #225
      00FF490AH   LINE      CODE     ---       #226
      00FF4910H   LINE      CODE     ---       #228
      00FF4916H   LINE      CODE     ---       #229
      00FF491AH   LINE      CODE     ---       #230
      00FF491DH   LINE      CODE     ---       #231
      00FF4920H   LINE      CODE     ---       #232
      00FF4921H   LINE      CODE     ---       #233
      00FF4927H   LINE      CODE     ---       #235
      00FF492DH   LINE      CODE     ---       #236
      00FF4931H   LINE      CODE     ---       #237
      00FF4934H   LINE      CODE     ---       #238
L251 LINKER/LOCATER V4.66.93.0                                                        03/12/2024  22:14:56  PAGE 47


      00FF4937H   LINE      CODE     ---       #239
      ---         BLOCKEND  ---      ---       LVL=0

      ---         MODULE    ---      ---       zf_uart
      00FF5074H   PUBLIC    CODE     ---       uart_putchar
      00FF3979H   PUBLIC    CODE     ---       uart_init
      0000023EH   PUBLIC    EDATA    ---       uart1_rx_buff
      000002A2H   PUBLIC    EDATA    ---       uart1_tx_buff
      00000306H   PUBLIC    EDATA    ---       busy
      00000311H   PUBLIC    EDATA    BYTE      ?uart_init?BYTE
      000000D0H   SFRSYM    DATA     BYTE      PSW
      000000FDH   SFRSYM    DATA     BYTE      S4CON
      000000ACH   SFRSYM    DATA     BYTE      S3CON
      0000009AH   SFRSYM    DATA     BYTE      S2CON
      000000FEH   SFRSYM    DATA     BYTE      S4BUF
      000000ADH   SFRSYM    DATA     BYTE      S3BUF
      0000009BH   SFRSYM    DATA     BYTE      S2BUF
      000000B7H   SFRSYM    DATA     BYTE      IPH
      000000DDH   SFRSYM    DATA     BYTE      T4T3M
      00000088H.6 SFRSYM    DATA     BIT       TR1
      000000D3H   SFRSYM    DATA     BYTE      T4L
      000000D5H   SFRSYM    DATA     BYTE      T3L
      000000D7H   SFRSYM    DATA     BYTE      T2L
      0000008BH   SFRSYM    DATA     BYTE      TL1
      000000D2H   SFRSYM    DATA     BYTE      T4H
      000000D4H   SFRSYM    DATA     BYTE      T3H
      000000D6H   SFRSYM    DATA     BYTE      T2H
      0000008DH   SFRSYM    DATA     BYTE      TH1
      0000008EH   SFRSYM    DATA     BYTE      AUXR
      000000AFH   SFRSYM    DATA     BYTE      IE2
      00000088H   SFRSYM    DATA     BYTE      TCON
      00000089H   SFRSYM    DATA     BYTE      TMOD
      00000098H   SFRSYM    DATA     BYTE      SCON
      00000099H   SFRSYM    DATA     BYTE      SBUF
      000000BCH   SFRSYM    DATA     BYTE      ADC_CONTR
      000000DEH   SFRSYM    DATA     BYTE      ADCCFG
      000000B8H   SFRSYM    DATA     BYTE      IP
      000000A8H.4 SFRSYM    DATA     BIT       ES
      000000A8H   SFRSYM    DATA     BYTE      IE
      000000BAH   SFRSYM    DATA     BYTE      P_SW2
      000000A2H   SFRSYM    DATA     BYTE      P_SW1
      000000F8H   SFRSYM    DATA     BYTE      P7
      000000E8H   SFRSYM    DATA     BYTE      P6
      000000C8H   SFRSYM    DATA     BYTE      P5
      000000C0H   SFRSYM    DATA     BYTE      P4
      000000C9H   SFRSYM    DATA     BYTE      P5M1
      000000B0H   SFRSYM    DATA     BYTE      P3
      000000CAH   SFRSYM    DATA     BYTE      P5M0
      000000A0H   SFRSYM    DATA     BYTE      P2
      00000090H   SFRSYM    DATA     BYTE      P1
      00000080H   SFRSYM    DATA     BYTE      P0

      00FF3979H   BLOCK     CODE     ---       LVL=0
      WR24        REGSYM    ---      INT       uart_n
      WR28        REGSYM    ---      INT       uart_rx_pin
      WR30        REGSYM    ---      INT       uart_tx_pin
      00000317H   SYMBOL    EDATA    DWORD     baud
      WR26        REGSYM    ---      INT       tim_n
      00FF3981H   BLOCK     CODE     NEAR LAB  LVL=1
      WR6         REGSYM    ---      WORD      brt
      ---         BLOCKEND  ---      ---       LVL=1
      00FF3979H   LINE      CODE     ---       #48
      00FF3981H   LINE      CODE     ---       #49
      00FF3981H   LINE      CODE     ---       #52
      00FF39A4H   LINE      CODE     ---       #55
L251 LINKER/LOCATER V4.66.93.0                                                        03/12/2024  22:14:56  PAGE 48


      00FF39C2H   LINE      CODE     ---       #57
      00FF39C2H   LINE      CODE     ---       #59
      00FF39C8H   LINE      CODE     ---       #61
      00FF39CBH   LINE      CODE     ---       #62
      00FF39CFH   LINE      CODE     ---       #63
      00FF39D3H   LINE      CODE     ---       #64
      00FF39D7H   LINE      CODE     ---       #65
      00FF39DAH   LINE      CODE     ---       #66
      00FF39DCH   LINE      CODE     ---       #67
      00FF39E1H   LINE      CODE     ---       #68
      00FF39E3H   LINE      CODE     ---       #69
      00FF39E9H   LINE      CODE     ---       #71
      00FF39ECH   LINE      CODE     ---       #72
      00FF39F0H   LINE      CODE     ---       #73
      00FF39F4H   LINE      CODE     ---       #74
      00FF39F7H   LINE      CODE     ---       #75
      00FF39F7H   LINE      CODE     ---       #76
      00FF39FAH   LINE      CODE     ---       #77
      00FF3A04H   LINE      CODE     ---       #79
      00FF3A08H   LINE      CODE     ---       #80
      00FF3A0AH   LINE      CODE     ---       #81
      00FF3A16H   LINE      CODE     ---       #83
      00FF3A19H   LINE      CODE     ---       #84
      00FF3A1BH   LINE      CODE     ---       #85
      00FF3A27H   LINE      CODE     ---       #87
      00FF3A2AH   LINE      CODE     ---       #88
      00FF3A2CH   LINE      CODE     ---       #89
      00FF3A38H   LINE      CODE     ---       #91
      00FF3A3BH   LINE      CODE     ---       #92
      00FF3A3BH   LINE      CODE     ---       #93
      00FF3A40H   LINE      CODE     ---       #94
      00FF3A42H   LINE      CODE     ---       #95
      00FF3A43H   LINE      CODE     ---       #98
      00FF3A43H   LINE      CODE     ---       #100
      00FF3A49H   LINE      CODE     ---       #102
      00FF3A4CH   LINE      CODE     ---       #103
      00FF3A50H   LINE      CODE     ---       #104
      00FF3A54H   LINE      CODE     ---       #105
      00FF3A57H   LINE      CODE     ---       #106
      00FF3A57H   LINE      CODE     ---       #108
      00FF3A5AH   LINE      CODE     ---       #109
      00FF3A66H   LINE      CODE     ---       #111
      00FF3A6AH   LINE      CODE     ---       #112
      00FF3A6CH   LINE      CODE     ---       #113
      00FF3A78H   LINE      CODE     ---       #115
      00FF3A7BH   LINE      CODE     ---       #116
      00FF3A7BH   LINE      CODE     ---       #118
      00FF3A7EH   LINE      CODE     ---       #119
      00FF3A83H   LINE      CODE     ---       #120
      00FF3A84H   LINE      CODE     ---       #123
      00FF3A84H   LINE      CODE     ---       #125
      00FF3A8AH   LINE      CODE     ---       #127
      00FF3A8DH   LINE      CODE     ---       #128
      00FF3A91H   LINE      CODE     ---       #129
      00FF3A95H   LINE      CODE     ---       #130
      00FF3A98H   LINE      CODE     ---       #131
      00FF3A9AH   LINE      CODE     ---       #132
      00FF3AA0H   LINE      CODE     ---       #134
      00FF3AA3H   LINE      CODE     ---       #135
      00FF3AA7H   LINE      CODE     ---       #136
      00FF3AABH   LINE      CODE     ---       #137
      00FF3AAEH   LINE      CODE     ---       #138
      00FF3AAEH   LINE      CODE     ---       #140
      00FF3AB1H   LINE      CODE     ---       #141
      00FF3ABDH   LINE      CODE     ---       #143
L251 LINKER/LOCATER V4.66.93.0                                                        03/12/2024  22:14:56  PAGE 49


      00FF3AC1H   LINE      CODE     ---       #144
      00FF3AC3H   LINE      CODE     ---       #145
      00FF3ACFH   LINE      CODE     ---       #147
      00FF3AD2H   LINE      CODE     ---       #148
      00FF3AD2H   LINE      CODE     ---       #150
      00FF3AD5H   LINE      CODE     ---       #151
      00FF3ADAH   LINE      CODE     ---       #152
      00FF3ADBH   LINE      CODE     ---       #155
      00FF3ADBH   LINE      CODE     ---       #157
      00FF3AE1H   LINE      CODE     ---       #159
      00FF3AE4H   LINE      CODE     ---       #160
      00FF3AE8H   LINE      CODE     ---       #161
      00FF3AECH   LINE      CODE     ---       #162
      00FF3AEFH   LINE      CODE     ---       #163
      00FF3AF1H   LINE      CODE     ---       #164
      00FF3AF7H   LINE      CODE     ---       #166
      00FF3AFAH   LINE      CODE     ---       #167
      00FF3AFEH   LINE      CODE     ---       #168
      00FF3B02H   LINE      CODE     ---       #169
      00FF3B05H   LINE      CODE     ---       #170
      00FF3B05H   LINE      CODE     ---       #172
      00FF3B08H   LINE      CODE     ---       #173
      00FF3B14H   LINE      CODE     ---       #175
      00FF3B18H   LINE      CODE     ---       #176
      00FF3B1AH   LINE      CODE     ---       #177
      00FF3B26H   LINE      CODE     ---       #179
      00FF3B29H   LINE      CODE     ---       #180
      00FF3B2CH   LINE      CODE     ---       #181
      00FF3B2FH   LINE      CODE     ---       #182
      00FF3B2FH   LINE      CODE     ---       #183
      00FF3B32H   LINE      CODE     ---       #184
      00FF3B37H   LINE      CODE     ---       #185
      00FF3B37H   LINE      CODE     ---       #188
      00FF3B37H   LINE      CODE     ---       #190
      ---         BLOCKEND  ---      ---       LVL=0

      00FF5074H   BLOCK     CODE     ---       LVL=0
      WR6         REGSYM    ---      INT       uart_n
      R10         REGSYM    ---      BYTE      dat
      00FF5074H   LINE      CODE     ---       #199
      00FF5076H   LINE      CODE     ---       #201
      00FF5088H   LINE      CODE     ---       #203
      00FF5088H   LINE      CODE     ---       #204
      00FF508EH   LINE      CODE     ---       #205
      00FF5094H   LINE      CODE     ---       #206
      00FF5097H   LINE      CODE     ---       #207
      00FF5098H   LINE      CODE     ---       #208
      00FF5098H   LINE      CODE     ---       #209
      00FF509EH   LINE      CODE     ---       #210
      00FF50A4H   LINE      CODE     ---       #211
      00FF50A7H   LINE      CODE     ---       #212
      00FF50A8H   LINE      CODE     ---       #213
      00FF50A8H   LINE      CODE     ---       #214
      00FF50AEH   LINE      CODE     ---       #215
      00FF50B4H   LINE      CODE     ---       #216
      00FF50B7H   LINE      CODE     ---       #217
      00FF50B8H   LINE      CODE     ---       #218
      00FF50B8H   LINE      CODE     ---       #219
      00FF50BEH   LINE      CODE     ---       #220
      00FF50C4H   LINE      CODE     ---       #221
      00FF50C7H   LINE      CODE     ---       #222
      00FF50C7H   LINE      CODE     ---       #223
      00FF50C7H   LINE      CODE     ---       #224
      ---         BLOCKEND  ---      ---       LVL=0
      REG=3       REGSYM    ---      ---       p
L251 LINKER/LOCATER V4.66.93.0                                                        03/12/2024  22:14:56  PAGE 50


      REG=3       REGSYM    ---      ---       str

      ---         MODULE    ---      ---       zf_fifo
      00FF528DH   PUBLIC    CODE     ---       fifo_head_offset
      00FF42BBH   PUBLIC    CODE     ---       fifo_write_buffer
      00000307H   PUBLIC    EDATA    BYTE      ?fifo_write_buffer?BYTE
      000000D0H   SFRSYM    DATA     BYTE      PSW
      000000B7H   SFRSYM    DATA     BYTE      IPH
      00000088H   SFRSYM    DATA     BYTE      TCON
      00000098H   SFRSYM    DATA     BYTE      SCON
      000000BCH   SFRSYM    DATA     BYTE      ADC_CONTR
      000000DEH   SFRSYM    DATA     BYTE      ADCCFG
      000000B8H   SFRSYM    DATA     BYTE      IP
      000000A8H   SFRSYM    DATA     BYTE      IE
      000000F8H   SFRSYM    DATA     BYTE      P7
      000000E8H   SFRSYM    DATA     BYTE      P6
      000000C8H   SFRSYM    DATA     BYTE      P5
      000000C0H   SFRSYM    DATA     BYTE      P4
      000000B0H   SFRSYM    DATA     BYTE      P3
      000000A0H   SFRSYM    DATA     BYTE      P2
      00000090H   SFRSYM    DATA     BYTE      P1
      00000080H   SFRSYM    DATA     BYTE      P0
      REG=2       REGSYM    ---      ---       fifo
      REG=7       REGSYM    ---      ---       buffer_addr

      00FF528DH   BLOCK     CODE     ---       LVL=0
      REG=7       REGSYM    ---      ---       fifo
      DR24        REGSYM    ---      DWORD     offset
      00FF528DH   LINE      CODE     ---       #61
      00FF5291H   LINE      CODE     ---       #63
      00FF529CH   LINE      CODE     ---       #65
      00FF529EH   LINE      CODE     ---       #67
      00FF52BAH   LINE      CODE     ---       #68
      00FF52CEH   LINE      CODE     ---       #69
      ---         BLOCKEND  ---      ---       LVL=0
      REG=7       REGSYM    ---      ---       fifo
      DR24        REGSYM    ---      DWORD     offset
      REG=2       REGSYM    ---      ---       fifo
      REG=7       REGSYM    ---      ---       fifo

      00FF42BBH   BLOCK     CODE     ---       LVL=0
      REG=3       REGSYM    ---      ---       fifo
      0000030BH   SYMBOL    EDATA    ---       dat
      0000030FH   SYMBOL    EDATA    DWORD     length
      00FF42C3H   BLOCK     CODE     NEAR LAB  LVL=1
      00000313H   SYMBOL    EDATA    DWORD     temp_length
      ---         BLOCKEND  ---      ---       LVL=1
      00FF42BBH   LINE      CODE     ---       #120
      00FF42C3H   LINE      CODE     ---       #121
      00FF42C3H   LINE      CODE     ---       #124
      00FF42D6H   LINE      CODE     ---       #126
      00FF42ECH   LINE      CODE     ---       #128
      00FF42F0H   LINE      CODE     ---       #130
      00FF4308H   LINE      CODE     ---       #131
      00FF4311H   LINE      CODE     ---       #132
      00FF4321H   LINE      CODE     ---       #133
      00FF4341H   LINE      CODE     ---       #134
      00FF434DH   LINE      CODE     ---       #135
      00FF434FH   LINE      CODE     ---       #138
      00FF436BH   LINE      CODE     ---       #139
      00FF4374H   LINE      CODE     ---       #140
      00FF4374H   LINE      CODE     ---       #142
      00FF438EH   LINE      CODE     ---       #143
      00FF4390H   LINE      CODE     ---       #146
      00FF4396H   LINE      CODE     ---       #147
L251 LINKER/LOCATER V4.66.93.0                                                        03/12/2024  22:14:56  PAGE 51


      00FF4396H   LINE      CODE     ---       #149
      00FF4398H   LINE      CODE     ---       #150
      ---         BLOCKEND  ---      ---       LVL=0
      REG=3       REGSYM    ---      ---       fifo

      ---         MODULE    ---      ---       SEEKFREE_18TFT
      000000D0H   SFRSYM    DATA     BYTE      PSW
      000000B7H   SFRSYM    DATA     BYTE      IPH
      000000A0H.5 SFRSYM    DATA     BIT       P25
      00000088H   SFRSYM    DATA     BYTE      TCON
      000000A0H.3 SFRSYM    DATA     BIT       P23
      00000098H   SFRSYM    DATA     BYTE      SCON
      000000A0H.2 SFRSYM    DATA     BIT       P22
      000000A0H.1 SFRSYM    DATA     BIT       P21
      000000A0H.0 SFRSYM    DATA     BIT       P20
      000000BCH   SFRSYM    DATA     BYTE      ADC_CONTR
      000000DEH   SFRSYM    DATA     BYTE      ADCCFG
      000000B8H   SFRSYM    DATA     BYTE      IP
      000000A8H   SFRSYM    DATA     BYTE      IE
      000000F8H   SFRSYM    DATA     BYTE      P7
      000000E8H   SFRSYM    DATA     BYTE      P6
      000000C8H   SFRSYM    DATA     BYTE      P5
      000000C0H   SFRSYM    DATA     BYTE      P4
      000000B0H   SFRSYM    DATA     BYTE      P3
      000000A0H   SFRSYM    DATA     BYTE      P2
      00000090H   SFRSYM    DATA     BYTE      P1
      00000080H   SFRSYM    DATA     BYTE      P0
      R7          REGSYM    ---      BYTE      dat
      R6          REGSYM    ---      BYTE      i
      R7          REGSYM    ---      BYTE      dat
      R6          REGSYM    ---      BYTE      i
      WR4         REGSYM    ---      WORD      dat
      R10         REGSYM    ---      BYTE      i
      WR12        REGSYM    ---      WORD      x_end
      WR14        REGSYM    ---      WORD      y_end
      WR14        REGSYM    ---      INT       color
      R13         REGSYM    ---      BYTE      i
      R12         REGSYM    ---      BYTE      j
      WR2         REGSYM    ---      WORD      x
      WR0         REGSYM    ---      WORD      y
      WR14        REGSYM    ---      WORD      color
      WR12        REGSYM    ---      WORD      x
      WR14        REGSYM    ---      WORD      y
      REG=3       REGSYM    ---      ---       dat
      WR12        REGSYM    ---      WORD      x
      WR14        REGSYM    ---      WORD      y
      WR12        REGSYM    ---      WORD      x
      WR14        REGSYM    ---      WORD      y
      R10         REGSYM    ---      BYTE      dat
      WR12        REGSYM    ---      WORD      x
      WR14        REGSYM    ---      WORD      y
      WR12        REGSYM    ---      WORD      x
      WR14        REGSYM    ---      WORD      y
      WR2         REGSYM    ---      WORD      dat
      WR12        REGSYM    ---      WORD      y
      R15         REGSYM    ---      BYTE      num
      R14         REGSYM    ---      BYTE      length
      DR12        REGSYM    ---      FLOAT     dat
      R7          REGSYM    ---      CHAR      point
      R7          REGSYM    ---      BYTE      dat
      R7          REGSYM    ---      BYTE      dat
      WR4         REGSYM    ---      WORD      dat
      WR12        REGSYM    ---      WORD      x_end
      WR14        REGSYM    ---      WORD      y_end
      WR14        REGSYM    ---      INT       color
L251 LINKER/LOCATER V4.66.93.0                                                        03/12/2024  22:14:56  PAGE 52


      R13         REGSYM    ---      BYTE      i
      R12         REGSYM    ---      BYTE      j
      WR2         REGSYM    ---      WORD      x
      WR0         REGSYM    ---      WORD      y
      WR14        REGSYM    ---      WORD      color
      WR12        REGSYM    ---      WORD      x
      WR14        REGSYM    ---      WORD      y
      REG=3       REGSYM    ---      ---       dat
      WR12        REGSYM    ---      WORD      x
      WR14        REGSYM    ---      WORD      y
      WR12        REGSYM    ---      WORD      x
      WR14        REGSYM    ---      WORD      y
      R10         REGSYM    ---      BYTE      dat
      WR12        REGSYM    ---      WORD      x
      WR14        REGSYM    ---      WORD      y
      WR12        REGSYM    ---      WORD      x
      WR14        REGSYM    ---      WORD      y
      WR2         REGSYM    ---      WORD      dat
      WR12        REGSYM    ---      WORD      y
      R15         REGSYM    ---      BYTE      num
      R14         REGSYM    ---      BYTE      length
      DR12        REGSYM    ---      FLOAT     dat
      R7          REGSYM    ---      CHAR      point
      REG=3       REGSYM    ---      ---       p

      ---         MODULE    ---      ---       SEEKFREE_ABSOLUTE_ENCODER
      000000D0H   SFRSYM    DATA     BYTE      PSW
      000000B7H   SFRSYM    DATA     BYTE      IPH
      000000A0H.7 SFRSYM    DATA     BIT       P27
      000000A0H.6 SFRSYM    DATA     BIT       P26
      000000A0H.5 SFRSYM    DATA     BIT       P25
      000000A0H.4 SFRSYM    DATA     BIT       P24
      00000088H   SFRSYM    DATA     BYTE      TCON
      00000098H   SFRSYM    DATA     BYTE      SCON
      000000A0H.2 SFRSYM    DATA     BIT       P22
      000000BCH   SFRSYM    DATA     BYTE      ADC_CONTR
      000000DEH   SFRSYM    DATA     BYTE      ADCCFG
      000000B8H   SFRSYM    DATA     BYTE      IP
      000000A8H   SFRSYM    DATA     BYTE      IE
      000000F8H   SFRSYM    DATA     BYTE      P7
      000000E8H   SFRSYM    DATA     BYTE      P6
      000000C8H   SFRSYM    DATA     BYTE      P5
      000000C0H   SFRSYM    DATA     BYTE      P4
      000000B0H   SFRSYM    DATA     BYTE      P3
      000000A0H   SFRSYM    DATA     BYTE      P2
      00000090H   SFRSYM    DATA     BYTE      P1
      00000080H   SFRSYM    DATA     BYTE      P0
      WR6         REGSYM    ---      WORD      x
      R6          REGSYM    ---      BYTE      byte
      R7          REGSYM    ---      BYTE      i
      R7          REGSYM    ---      BYTE      cmd
      R15         REGSYM    ---      BYTE      val
      R7          REGSYM    ---      BYTE      cmd
      REG=3       REGSYM    ---      ---       val
      R7          REGSYM    ---      BYTE      cmd
      R15         REGSYM    ---      BYTE      val
      R14         REGSYM    ---      BYTE      dat
      R7          REGSYM    ---      BYTE      cmd
      REG=3       REGSYM    ---      ---       val
      WR14        REGSYM    ---      WORD      zero_position
      WR14        REGSYM    ---      WORD      angle
      R10         REGSYM    ---      BYTE      byte
      R7          REGSYM    ---      BYTE      cmd
      R15         REGSYM    ---      BYTE      val
      R7          REGSYM    ---      BYTE      cmd
L251 LINKER/LOCATER V4.66.93.0                                                        03/12/2024  22:14:56  PAGE 53


      REG=3       REGSYM    ---      ---       val
      R7          REGSYM    ---      BYTE      cmd
      R15         REGSYM    ---      BYTE      val
      R14         REGSYM    ---      BYTE      dat
      R7          REGSYM    ---      BYTE      cmd
      REG=3       REGSYM    ---      ---       val
      WR14        REGSYM    ---      WORD      zero_position
      WR14        REGSYM    ---      WORD      angle

      ---         MODULE    ---      ---       SEEKFREE_FONT
      00FF00A6H   PUBLIC    CODE     ---       oled_8x16
      00FF0696H   PUBLIC    CODE     ---       tft_ascii
      00FF0C86H   PUBLIC    CODE     ---       oled_6x8
      000000D0H   SFRSYM    DATA     BYTE      PSW
      000000B7H   SFRSYM    DATA     BYTE      IPH
      00000088H   SFRSYM    DATA     BYTE      TCON
      00000098H   SFRSYM    DATA     BYTE      SCON
      000000BCH   SFRSYM    DATA     BYTE      ADC_CONTR
      000000DEH   SFRSYM    DATA     BYTE      ADCCFG
      000000B8H   SFRSYM    DATA     BYTE      IP
      000000A8H   SFRSYM    DATA     BYTE      IE
      000000F8H   SFRSYM    DATA     BYTE      P7
      000000E8H   SFRSYM    DATA     BYTE      P6
      000000C8H   SFRSYM    DATA     BYTE      P5
      000000C0H   SFRSYM    DATA     BYTE      P4
      000000B0H   SFRSYM    DATA     BYTE      P3
      000000A0H   SFRSYM    DATA     BYTE      P2
      00000090H   SFRSYM    DATA     BYTE      P1
      00000080H   SFRSYM    DATA     BYTE      P0

      ---         MODULE    ---      ---       SEEKFREE_IIC
      00000665H   PUBLIC    EDATA    BYTE      IIC_ad_main
      00000666H   PUBLIC    EDATA    BYTE      IIC_num
      00000667H   PUBLIC    EDATA    BYTE      IIC_ad_sub
      00000668H   PUBLIC    EDATA    ---       IIC_buf
      000000D0H   SFRSYM    DATA     BYTE      PSW
      000000B7H   SFRSYM    DATA     BYTE      IPH
      00000088H   SFRSYM    DATA     BYTE      TCON
      000000C0H.1 SFRSYM    DATA     BIT       P41
      00000098H   SFRSYM    DATA     BYTE      SCON
      000000C0H.0 SFRSYM    DATA     BIT       P40
      000000BCH   SFRSYM    DATA     BYTE      ADC_CONTR
      000000DEH   SFRSYM    DATA     BYTE      ADCCFG
      000000B8H   SFRSYM    DATA     BYTE      IP
      000000A8H   SFRSYM    DATA     BYTE      IE
      000000F8H   SFRSYM    DATA     BYTE      P7
      000000E8H   SFRSYM    DATA     BYTE      P6
      000000C8H   SFRSYM    DATA     BYTE      P5
      000000C0H   SFRSYM    DATA     BYTE      P4
      000000B0H   SFRSYM    DATA     BYTE      P3
      000000A0H   SFRSYM    DATA     BYTE      P2
      00000090H   SFRSYM    DATA     BYTE      P1
      00000080H   SFRSYM    DATA     BYTE      P0
      WR6         REGSYM    ---      WORD      j
      R15         REGSYM    ---      BYTE      ack_dat
      R15         REGSYM    ---      BYTE      c
      R14         REGSYM    ---      BYTE      i
      R15         REGSYM    ---      BYTE      ack_x
      R13         REGSYM    ---      BYTE      i
      R14         REGSYM    ---      BYTE      c
      R13         REGSYM    ---      BYTE      dev_add
      R14         REGSYM    ---      BYTE      reg
      R15         REGSYM    ---      BYTE      dat
      R15         REGSYM    ---      BYTE      dev_add
      R14         REGSYM    ---      BYTE      reg
L251 LINKER/LOCATER V4.66.93.0                                                        03/12/2024  22:14:56  PAGE 54


      WR12        REGSYM    ---      INT       type
      R15         REGSYM    ---      BYTE      dat
      REG=3       REGSYM    ---      ---       dat_add

      ---         MODULE    ---      ---       SEEKFREE_MPU6050
      00000643H   PUBLIC    EDATA    INT       mpu_acc_x
      00000645H   PUBLIC    EDATA    INT       mpu_acc_y
      00000647H   PUBLIC    EDATA    INT       mpu_acc_z
      00000649H   PUBLIC    EDATA    INT       mpu_gyro_x
      0000064BH   PUBLIC    EDATA    INT       mpu_gyro_y
      0000064DH   PUBLIC    EDATA    INT       mpu_gyro_z
      000000D0H   SFRSYM    DATA     BYTE      PSW
      000000B7H   SFRSYM    DATA     BYTE      IPH
      00000088H   SFRSYM    DATA     BYTE      TCON
      00000098H   SFRSYM    DATA     BYTE      SCON
      000000BCH   SFRSYM    DATA     BYTE      ADC_CONTR
      000000DEH   SFRSYM    DATA     BYTE      ADCCFG
      000000B8H   SFRSYM    DATA     BYTE      IP
      000000A8H   SFRSYM    DATA     BYTE      IE
      000000F8H   SFRSYM    DATA     BYTE      P7
      000000E8H   SFRSYM    DATA     BYTE      P6
      000000C8H   SFRSYM    DATA     BYTE      P5
      000000C0H   SFRSYM    DATA     BYTE      P4
      000000B0H   SFRSYM    DATA     BYTE      P3
      000000A0H   SFRSYM    DATA     BYTE      P2
      00000090H   SFRSYM    DATA     BYTE      P1
      00000080H   SFRSYM    DATA     BYTE      P0

      ---         MODULE    ---      ---       SEEKFREE_OLED
      00FF56C9H   PUBLIC    CODE     ---       oled_set_pos
      00FF3FEBH   PUBLIC    CODE     ---       oled_printf_float
      00FF562EH   PUBLIC    CODE     ---       oled_wrcmd
      00FF5657H   PUBLIC    CODE     ---       oled_wrdat
      00FF54B4H   PUBLIC    CODE     ---       oled_fill
      00FF4801H   PUBLIC    CODE     ---       oled_init
      00FF41D3H   PUBLIC    CODE     ---       oled_p8x16str
      00000313H   PUBLIC    EDATA    BYTE      ?oled_printf_float?BYTE
      000000D0H   SFRSYM    DATA     BYTE      PSW
      000000B7H   SFRSYM    DATA     BYTE      IPH
      000000A0H.5 SFRSYM    DATA     BIT       P25
      00000088H   SFRSYM    DATA     BYTE      TCON
      000000A0H.3 SFRSYM    DATA     BIT       P23
      00000098H   SFRSYM    DATA     BYTE      SCON
      000000A0H.2 SFRSYM    DATA     BIT       P22
      000000A0H.1 SFRSYM    DATA     BIT       P21
      000000A0H.0 SFRSYM    DATA     BIT       P20
      000000BCH   SFRSYM    DATA     BYTE      ADC_CONTR
      000000DEH   SFRSYM    DATA     BYTE      ADCCFG
      000000B8H   SFRSYM    DATA     BYTE      IP
      000000A8H   SFRSYM    DATA     BYTE      IE
      000000F8H   SFRSYM    DATA     BYTE      P7
      000000E8H   SFRSYM    DATA     BYTE      P6
      000000C8H   SFRSYM    DATA     BYTE      P5
      000000C0H   SFRSYM    DATA     BYTE      P4
      000000B0H   SFRSYM    DATA     BYTE      P3
      000000A0H   SFRSYM    DATA     BYTE      P2
      00000090H   SFRSYM    DATA     BYTE      P1
      00000080H   SFRSYM    DATA     BYTE      P0

      00FF5657H   BLOCK     CODE     ---       LVL=0
      R7          REGSYM    ---      BYTE      dat
      00FF5659H   BLOCK     CODE     NEAR LAB  LVL=1
      R6          REGSYM    ---      BYTE      i
      ---         BLOCKEND  ---      ---       LVL=1
      00FF5657H   LINE      CODE     ---       #47
L251 LINKER/LOCATER V4.66.93.0                                                        03/12/2024  22:14:56  PAGE 55


      00FF5659H   LINE      CODE     ---       #48
      00FF5659H   LINE      CODE     ---       #49
      00FF565CH   LINE      CODE     ---       #51
      00FF565EH   LINE      CODE     ---       #52
      00FF5660H   LINE      CODE     ---       #53
      00FF5662H   LINE      CODE     ---       #54
      00FF5664H   LINE      CODE     ---       #56
      00FF566DH   LINE      CODE     ---       #57
      00FF566FH   LINE      CODE     ---       #58
      00FF5671H   LINE      CODE     ---       #60
      00FF5673H   LINE      CODE     ---       #61
      00FF5675H   LINE      CODE     ---       #62
      00FF567DH   LINE      CODE     ---       #63
      00FF567FH   LINE      CODE     ---       #64
      ---         BLOCKEND  ---      ---       LVL=0

      00FF562EH   BLOCK     CODE     ---       LVL=0
      R7          REGSYM    ---      BYTE      cmd
      00FF5630H   BLOCK     CODE     NEAR LAB  LVL=1
      R6          REGSYM    ---      BYTE      i
      ---         BLOCKEND  ---      ---       LVL=1
      00FF562EH   LINE      CODE     ---       #98
      00FF5630H   LINE      CODE     ---       #99
      00FF5630H   LINE      CODE     ---       #100
      00FF5633H   LINE      CODE     ---       #102
      00FF5635H   LINE      CODE     ---       #103
      00FF5637H   LINE      CODE     ---       #104
      00FF5639H   LINE      CODE     ---       #106
      00FF563BH   LINE      CODE     ---       #108
      00FF5644H   LINE      CODE     ---       #109
      00FF5646H   LINE      CODE     ---       #110
      00FF5648H   LINE      CODE     ---       #112
      00FF564AH   LINE      CODE     ---       #113
      00FF564CH   LINE      CODE     ---       #114
      00FF5654H   LINE      CODE     ---       #115
      00FF5656H   LINE      CODE     ---       #116
      ---         BLOCKEND  ---      ---       LVL=0
      WR8         REGSYM    ---      WORD      hex
      REG=7       REGSYM    ---      ---       Print
      R5          REGSYM    ---      BYTE      hexcheck
      R10         REGSYM    ---      BYTE      TEMP

      00FF4801H   BLOCK     CODE     ---       LVL=0
      00FF4801H   LINE      CODE     ---       #148
      00FF4801H   LINE      CODE     ---       #151
      00FF4803H   LINE      CODE     ---       #152
      00FF4805H   LINE      CODE     ---       #154
      00FF4807H   LINE      CODE     ---       #155
      00FF480EH   LINE      CODE     ---       #156
      00FF4810H   LINE      CODE     ---       #158
      00FF4815H   LINE      CODE     ---       #159
      00FF4819H   LINE      CODE     ---       #160
      00FF481EH   LINE      CODE     ---       #161
      00FF4823H   LINE      CODE     ---       #162
      00FF4828H   LINE      CODE     ---       #163
      00FF482DH   LINE      CODE     ---       #166
      00FF4832H   LINE      CODE     ---       #167
      00FF4837H   LINE      CODE     ---       #173
      00FF483CH   LINE      CODE     ---       #174
      00FF4841H   LINE      CODE     ---       #175
      00FF4846H   LINE      CODE     ---       #176
      00FF484BH   LINE      CODE     ---       #177
      00FF484FH   LINE      CODE     ---       #178
      00FF4854H   LINE      CODE     ---       #179
      00FF4859H   LINE      CODE     ---       #180
L251 LINKER/LOCATER V4.66.93.0                                                        03/12/2024  22:14:56  PAGE 56


      00FF485EH   LINE      CODE     ---       #181
      00FF4863H   LINE      CODE     ---       #182
      00FF4868H   LINE      CODE     ---       #183
      00FF486DH   LINE      CODE     ---       #184
      00FF4872H   LINE      CODE     ---       #185
      00FF4877H   LINE      CODE     ---       #186
      00FF487CH   LINE      CODE     ---       #187
      00FF4881H   LINE      CODE     ---       #188
      00FF4886H   LINE      CODE     ---       #189
      00FF488BH   LINE      CODE     ---       #190
      00FF4890H   LINE      CODE     ---       #191
      00FF4895H   LINE      CODE     ---       #192
      00FF489AH   LINE      CODE     ---       #193
      00FF489EH   LINE      CODE     ---       #194
      ---         BLOCKEND  ---      ---       LVL=0

      00FF56C9H   BLOCK     CODE     ---       LVL=0
      R15         REGSYM    ---      BYTE      x
      R10         REGSYM    ---      BYTE      y
      00FF56C9H   LINE      CODE     ---       #205
      00FF56CDH   LINE      CODE     ---       #207
      00FF56D4H   LINE      CODE     ---       #208
      00FF56E2H   LINE      CODE     ---       #209
      00FF56E9H   LINE      CODE     ---       #210
      ---         BLOCKEND  ---      ---       LVL=0

      00FF54B4H   BLOCK     CODE     ---       LVL=0
      R15         REGSYM    ---      BYTE      bmp_data
      00FF54BAH   BLOCK     CODE     NEAR LAB  LVL=1
      R14         REGSYM    ---      BYTE      y
      R13         REGSYM    ---      BYTE      x
      ---         BLOCKEND  ---      ---       LVL=1
      00FF54B4H   LINE      CODE     ---       #219
      00FF54BAH   LINE      CODE     ---       #220
      00FF54BAH   LINE      CODE     ---       #223
      00FF54BCH   LINE      CODE     ---       #225
      00FF54C3H   LINE      CODE     ---       #226
      00FF54C8H   LINE      CODE     ---       #227
      00FF54CDH   LINE      CODE     ---       #228
      00FF54DBH   LINE      CODE     ---       #229
      00FF54E2H   LINE      CODE     ---       #230
      ---         BLOCKEND  ---      ---       LVL=0
      R15         REGSYM    ---      BYTE      x
      R14         REGSYM    ---      BYTE      y
      R13         REGSYM    ---      BYTE      data1
      R15         REGSYM    ---      BYTE      x
      R14         REGSYM    ---      BYTE      y
      REG=3       REGSYM    ---      ---       ch

      00FF41D3H   BLOCK     CODE     ---       LVL=0
      00000342H   SYMBOL    EDATA    BYTE      x
      00000343H   SYMBOL    EDATA    BYTE      y
      REG=3       REGSYM    ---      ---       ch
      00FF41DFH   BLOCK     CODE     NEAR LAB  LVL=1
      00000344H   SYMBOL    EDATA    BYTE      c
      00000345H   SYMBOL    EDATA    BYTE      i
      00000346H   SYMBOL    EDATA    BYTE      j
      ---         BLOCKEND  ---      ---       LVL=1
      00FF41D3H   LINE      CODE     ---       #302
      00FF41DFH   LINE      CODE     ---       #303
      00FF41DFH   LINE      CODE     ---       #304
      00FF41E8H   LINE      CODE     ---       #306
      00FF41EBH   LINE      CODE     ---       #308
      00FF4202H   LINE      CODE     ---       #309
      00FF4219H   LINE      CODE     ---       #311
L251 LINKER/LOCATER V4.66.93.0                                                        03/12/2024  22:14:56  PAGE 57


      00FF4224H   LINE      CODE     ---       #312
      00FF4255H   LINE      CODE     ---       #314
      00FF4262H   LINE      CODE     ---       #315
      00FF4293H   LINE      CODE     ---       #317
      00FF429DH   LINE      CODE     ---       #318
      00FF42A6H   LINE      CODE     ---       #319
      00FF42B8H   LINE      CODE     ---       #320
      ---         BLOCKEND  ---      ---       LVL=0
      R14         REGSYM    ---      BYTE      x
      R15         REGSYM    ---      BYTE      y
      WR4         REGSYM    ---      WORD      num
      R15         REGSYM    ---      BYTE      x
      R14         REGSYM    ---      BYTE      y
      WR12        REGSYM    ---      INT       num
      WR12        REGSYM    ---      WORD      y
      R15         REGSYM    ---      BYTE      num
      R14         REGSYM    ---      BYTE      length

      00FF3FEBH   BLOCK     CODE     ---       LVL=0
      00000317H   SYMBOL    EDATA    WORD      x
      00000319H   SYMBOL    EDATA    WORD      y
      DR12        REGSYM    ---      FLOAT     dat
      0000031BH   SYMBOL    EDATA    BYTE      num
      0000031CH   SYMBOL    EDATA    BYTE      pointnum
      00FF3FFBH   BLOCK     CODE     NEAR LAB  LVL=1
      0000031DH   SYMBOL    EDATA    BYTE      length
      0000031EH   SYMBOL    EDATA    ---       buff
      00000340H   SYMBOL    EDATA    CHAR      start
      00000341H   SYMBOL    EDATA    CHAR      end
      R7          REGSYM    ---      CHAR      point
      ---         BLOCKEND  ---      ---       LVL=1
      00FF3FEBH   LINE      CODE     ---       #412
      00FF3FFBH   LINE      CODE     ---       #413
      00FF3FFBH   LINE      CODE     ---       #418
      00FF400AH   LINE      CODE     ---       #419
      00FF4019H   LINE      CODE     ---       #421
      00FF403BH   LINE      CODE     ---       #424
      00FF4054H   LINE      CODE     ---       #425
      00FF4059H   LINE      CODE     ---       #426
      00FF4059H   LINE      CODE     ---       #427
      00FF4063H   LINE      CODE     ---       #428
      00FF4073H   LINE      CODE     ---       #429
      00FF4083H   LINE      CODE     ---       #430
      00FF4088H   LINE      CODE     ---       #432
      00FF4092H   LINE      CODE     ---       #433
      00FF409BH   LINE      CODE     ---       #434
      00FF40A4H   LINE      CODE     ---       #435
      00FF40ADH   LINE      CODE     ---       #437
      00FF40BAH   LINE      CODE     ---       #438
      00FF40C6H   LINE      CODE     ---       #440
      00FF40D1H   LINE      CODE     ---       #442
      00FF40E0H   LINE      CODE     ---       #443
      ---         BLOCKEND  ---      ---       LVL=0
      WR4         REGSYM    ---      WORD      high
      REG=3       REGSYM    ---      ---       p
      REG=3       REGSYM    ---      ---       p
      R7          REGSYM    ---      BYTE      dat
      R7          REGSYM    ---      BYTE      cmd
      WR8         REGSYM    ---      WORD      hex
      REG=7       REGSYM    ---      ---       Print
      R5          REGSYM    ---      BYTE      hexcheck
      R10         REGSYM    ---      BYTE      TEMP
      R15         REGSYM    ---      BYTE      x
      R10         REGSYM    ---      BYTE      y
      R15         REGSYM    ---      BYTE      bmp_data
L251 LINKER/LOCATER V4.66.93.0                                                        03/12/2024  22:14:56  PAGE 58


      R14         REGSYM    ---      BYTE      y
      R13         REGSYM    ---      BYTE      x
      R15         REGSYM    ---      BYTE      x
      R14         REGSYM    ---      BYTE      y
      R13         REGSYM    ---      BYTE      data1
      R15         REGSYM    ---      BYTE      x
      R14         REGSYM    ---      BYTE      y
      REG=3       REGSYM    ---      ---       ch
      REG=3       REGSYM    ---      ---       ch
      R14         REGSYM    ---      BYTE      x
      R15         REGSYM    ---      BYTE      y
      WR4         REGSYM    ---      WORD      num
      R15         REGSYM    ---      BYTE      x
      R14         REGSYM    ---      BYTE      y
      WR12        REGSYM    ---      INT       num
      WR12        REGSYM    ---      WORD      y
      R15         REGSYM    ---      BYTE      num
      R14         REGSYM    ---      BYTE      length
      DR12        REGSYM    ---      FLOAT     dat
      R7          REGSYM    ---      CHAR      point
      WR4         REGSYM    ---      WORD      high
      REG=3       REGSYM    ---      ---       p
      REG=3       REGSYM    ---      ---       p

      ---         MODULE    ---      ---       SEEKFREE_AT24C02
      000000D0H   SFRSYM    DATA     BYTE      PSW
      000000B7H   SFRSYM    DATA     BYTE      IPH
      00000088H   SFRSYM    DATA     BYTE      TCON
      00000098H   SFRSYM    DATA     BYTE      SCON
      000000BCH   SFRSYM    DATA     BYTE      ADC_CONTR
      000000DEH   SFRSYM    DATA     BYTE      ADCCFG
      000000B8H   SFRSYM    DATA     BYTE      IP
      000000A8H   SFRSYM    DATA     BYTE      IE
      000000F8H   SFRSYM    DATA     BYTE      P7
      000000E8H   SFRSYM    DATA     BYTE      P6
      000000C8H   SFRSYM    DATA     BYTE      P5
      000000C0H   SFRSYM    DATA     BYTE      P4
      000000B0H   SFRSYM    DATA     BYTE      P3
      000000A0H   SFRSYM    DATA     BYTE      P2
      00000090H   SFRSYM    DATA     BYTE      P1
      00000080H   SFRSYM    DATA     BYTE      P0
      R14         REGSYM    ---      BYTE      byte_reg
      R15         REGSYM    ---      BYTE      dat
      R15         REGSYM    ---      BYTE      byte_reg
      REG=3       REGSYM    ---      ---       dat_add
      REG=3       REGSYM    ---      ---       dat_add

      ---         MODULE    ---      ---       SEEKFREE_BLUETOOTH_CH9141
      00FF0066H   PUBLIC    CODE     ---       bluetooth_ch9141_uart_callback
      000000D0H   SFRSYM    DATA     BYTE      PSW
      000000FEH   SFRSYM    DATA     BYTE      S4BUF
      000000B7H   SFRSYM    DATA     BYTE      IPH
      00000080H.7 SFRSYM    DATA     BIT       P07
      00000088H   SFRSYM    DATA     BYTE      TCON
      00000098H   SFRSYM    DATA     BYTE      SCON
      000000BCH   SFRSYM    DATA     BYTE      ADC_CONTR
      000000DEH   SFRSYM    DATA     BYTE      ADCCFG
      000000B8H   SFRSYM    DATA     BYTE      IP
      000000A8H   SFRSYM    DATA     BYTE      IE
      000000F8H   SFRSYM    DATA     BYTE      P7
      000000E8H   SFRSYM    DATA     BYTE      P6
      000000C8H   SFRSYM    DATA     BYTE      P5
      000000C0H   SFRSYM    DATA     BYTE      P4
      000000B0H   SFRSYM    DATA     BYTE      P3
      000000A0H   SFRSYM    DATA     BYTE      P2
L251 LINKER/LOCATER V4.66.93.0                                                        03/12/2024  22:14:56  PAGE 59


      00000090H   SFRSYM    DATA     BYTE      P1
      00000080H   SFRSYM    DATA     BYTE      P0
      00000487H   SYMBOL    EDATA    ---       bluetooth_ch9141_buffer
      000004C7H   SYMBOL    EDATA    BYTE      bluetooth_ch9141_data
      000004C8H   SYMBOL    EDATA    ---       bluetooth_ch9141_fifo

      00FF0066H   BLOCK     CODE     ---       LVL=0
      00FF0066H   LINE      CODE     ---       #67
      00FF0066H   LINE      CODE     ---       #70
      00FF006CH   LINE      CODE     ---       #71
      ---         BLOCKEND  ---      ---       LVL=0
      DR12        REGSYM    ---      DWORD     len
      REG=7       REGSYM    ---      ---       buff
      DR8         REGSYM    ---      DWORD     len

      ---         MODULE    ---      ---       SEEKFREE_ICM20602
      0000064FH   PUBLIC    EDATA    INT       icm_acc_x
      00000651H   PUBLIC    EDATA    INT       icm_acc_y
      00000653H   PUBLIC    EDATA    INT       icm_acc_z
      00000655H   PUBLIC    EDATA    INT       icm_gyro_x
      00000657H   PUBLIC    EDATA    INT       icm_gyro_y
      00000659H   PUBLIC    EDATA    INT       icm_gyro_z
      000000D0H   SFRSYM    DATA     BYTE      PSW
      000000B7H   SFRSYM    DATA     BYTE      IPH
      000000C0H.3 SFRSYM    DATA     BIT       P43
      000000C0H.2 SFRSYM    DATA     BIT       P42
      00000088H   SFRSYM    DATA     BYTE      TCON
      000000C0H.1 SFRSYM    DATA     BIT       P41
      00000098H   SFRSYM    DATA     BYTE      SCON
      000000C0H.0 SFRSYM    DATA     BIT       P40
      000000BCH   SFRSYM    DATA     BYTE      ADC_CONTR
      000000DEH   SFRSYM    DATA     BYTE      ADCCFG
      000000B8H   SFRSYM    DATA     BYTE      IP
      000000A8H   SFRSYM    DATA     BYTE      IE
      000000F8H   SFRSYM    DATA     BYTE      P7
      000000E8H   SFRSYM    DATA     BYTE      P6
      000000C8H   SFRSYM    DATA     BYTE      P5
      000000C0H   SFRSYM    DATA     BYTE      P4
      000000B0H   SFRSYM    DATA     BYTE      P3
      000000A0H   SFRSYM    DATA     BYTE      P2
      00000090H   SFRSYM    DATA     BYTE      P1
      00000080H   SFRSYM    DATA     BYTE      P0
      R15         REGSYM    ---      BYTE      dat
      R6          REGSYM    ---      BYTE      byte
      R7          REGSYM    ---      BYTE      i
      R7          REGSYM    ---      BYTE      cmd
      R15         REGSYM    ---      BYTE      val
      R7          REGSYM    ---      BYTE      cmd
      REG=3       REGSYM    ---      ---       val
      R7          REGSYM    ---      BYTE      cmd
      REG=3       REGSYM    ---      ---       val

      ---         MODULE    ---      ---       SEEKFREE_IPS114_SPI
      000000D0H   SFRSYM    DATA     BYTE      PSW
      000000B7H   SFRSYM    DATA     BYTE      IPH
      000000A0H.7 SFRSYM    DATA     BIT       P27
      000000A0H.5 SFRSYM    DATA     BIT       P25
      00000088H   SFRSYM    DATA     BYTE      TCON
      000000A0H.3 SFRSYM    DATA     BIT       P23
      00000098H   SFRSYM    DATA     BYTE      SCON
      000000A0H.2 SFRSYM    DATA     BIT       P22
      000000A0H.1 SFRSYM    DATA     BIT       P21
      000000A0H.0 SFRSYM    DATA     BIT       P20
      000000BCH   SFRSYM    DATA     BYTE      ADC_CONTR
      000000DEH   SFRSYM    DATA     BYTE      ADCCFG
L251 LINKER/LOCATER V4.66.93.0                                                        03/12/2024  22:14:56  PAGE 60


      000000B8H   SFRSYM    DATA     BYTE      IP
      000000A8H   SFRSYM    DATA     BYTE      IE
      000000F8H   SFRSYM    DATA     BYTE      P7
      000000E8H   SFRSYM    DATA     BYTE      P6
      000000C8H   SFRSYM    DATA     BYTE      P5
      000000C0H   SFRSYM    DATA     BYTE      P4
      000000B0H   SFRSYM    DATA     BYTE      P3
      000000A0H   SFRSYM    DATA     BYTE      P2
      00000090H   SFRSYM    DATA     BYTE      P1
      00000080H   SFRSYM    DATA     BYTE      P0
      R7          REGSYM    ---      BYTE      dat
      R6          REGSYM    ---      BYTE      i
      R7          REGSYM    ---      BYTE      dat
      R6          REGSYM    ---      BYTE      i
      WR4         REGSYM    ---      WORD      dat
      R10         REGSYM    ---      BYTE      i
      WR12        REGSYM    ---      WORD      x2
      WR14        REGSYM    ---      WORD      y2
      WR14        REGSYM    ---      WORD      color
      R13         REGSYM    ---      BYTE      i
      WR2         REGSYM    ---      WORD      x
      WR0         REGSYM    ---      WORD      y
      WR14        REGSYM    ---      WORD      color
      WR12        REGSYM    ---      WORD      x
      WR14        REGSYM    ---      WORD      y
      REG=3       REGSYM    ---      ---       dat
      WR12        REGSYM    ---      WORD      x
      WR14        REGSYM    ---      WORD      y
      WR12        REGSYM    ---      WORD      x
      WR14        REGSYM    ---      WORD      y
      R10         REGSYM    ---      BYTE      dat
      WR12        REGSYM    ---      WORD      x
      WR14        REGSYM    ---      WORD      y
      WR12        REGSYM    ---      WORD      x
      WR14        REGSYM    ---      WORD      y
      WR2         REGSYM    ---      WORD      dat
      WR12        REGSYM    ---      WORD      y
      R15         REGSYM    ---      BYTE      num
      R14         REGSYM    ---      BYTE      length
      DR12        REGSYM    ---      FLOAT     dat
      R7          REGSYM    ---      CHAR      point
      R7          REGSYM    ---      BYTE      dat
      R7          REGSYM    ---      BYTE      dat
      WR4         REGSYM    ---      WORD      dat
      WR12        REGSYM    ---      WORD      x2
      WR14        REGSYM    ---      WORD      y2
      WR14        REGSYM    ---      WORD      color
      R13         REGSYM    ---      BYTE      i
      WR2         REGSYM    ---      WORD      x
      WR0         REGSYM    ---      WORD      y
      WR14        REGSYM    ---      WORD      color
      WR12        REGSYM    ---      WORD      x
      WR14        REGSYM    ---      WORD      y
      REG=3       REGSYM    ---      ---       dat
      WR12        REGSYM    ---      WORD      x
      WR14        REGSYM    ---      WORD      y
      WR12        REGSYM    ---      WORD      x
      WR14        REGSYM    ---      WORD      y
      R10         REGSYM    ---      BYTE      dat
      WR12        REGSYM    ---      WORD      x
      WR14        REGSYM    ---      WORD      y
      WR12        REGSYM    ---      WORD      x
      WR14        REGSYM    ---      WORD      y
      WR2         REGSYM    ---      WORD      dat
      WR12        REGSYM    ---      WORD      y
L251 LINKER/LOCATER V4.66.93.0                                                        03/12/2024  22:14:56  PAGE 61


      R15         REGSYM    ---      BYTE      num
      R14         REGSYM    ---      BYTE      length
      DR12        REGSYM    ---      FLOAT     dat
      R7          REGSYM    ---      CHAR      point

      ---         MODULE    ---      ---       SEEKFREE_TSL1401
      0000013DH   PUBLIC    EDATA    BYTE      tsl1401_finish_flag
      0000013EH   PUBLIC    EDATA    ---       ccd_data
      000000D0H   SFRSYM    DATA     BYTE      PSW
      000000B7H   SFRSYM    DATA     BYTE      IPH
      000000B0H.3 SFRSYM    DATA     BIT       P33
      00000088H   SFRSYM    DATA     BYTE      TCON
      000000B0H.2 SFRSYM    DATA     BIT       P32
      00000098H   SFRSYM    DATA     BYTE      SCON
      000000BCH   SFRSYM    DATA     BYTE      ADC_CONTR
      000000DEH   SFRSYM    DATA     BYTE      ADCCFG
      000000B8H   SFRSYM    DATA     BYTE      IP
      000000A8H   SFRSYM    DATA     BYTE      IE
      000000F8H   SFRSYM    DATA     BYTE      P7
      000000E8H   SFRSYM    DATA     BYTE      P6
      000000C8H   SFRSYM    DATA     BYTE      P5
      000000C0H   SFRSYM    DATA     BYTE      P4
      000000B0H   SFRSYM    DATA     BYTE      P3
      000000A0H   SFRSYM    DATA     BYTE      P2
      00000090H   SFRSYM    DATA     BYTE      P1
      00000080H   SFRSYM    DATA     BYTE      P0
      REG=3       REGSYM    ---      ---       dat
      R15         REGSYM    ---      BYTE      i

      ---         MODULE    ---      ---       SEEKFREE_VIRSCO
      0000065BH   PUBLIC    EDATA    ---       virtual_scope_data
      000000D0H   SFRSYM    DATA     BYTE      PSW
      000000B7H   SFRSYM    DATA     BYTE      IPH
      00000088H   SFRSYM    DATA     BYTE      TCON
      00000098H   SFRSYM    DATA     BYTE      SCON
      000000BCH   SFRSYM    DATA     BYTE      ADC_CONTR
      000000DEH   SFRSYM    DATA     BYTE      ADCCFG
      000000B8H   SFRSYM    DATA     BYTE      IP
      000000A8H   SFRSYM    DATA     BYTE      IE
      000000F8H   SFRSYM    DATA     BYTE      P7
      000000E8H   SFRSYM    DATA     BYTE      P6
      000000C8H   SFRSYM    DATA     BYTE      P5
      000000C0H   SFRSYM    DATA     BYTE      P4
      000000B0H   SFRSYM    DATA     BYTE      P3
      000000A0H   SFRSYM    DATA     BYTE      P2
      00000090H   SFRSYM    DATA     BYTE      P1
      00000080H   SFRSYM    DATA     BYTE      P0
      REG=7       REGSYM    ---      ---       Buf
      R10         REGSYM    ---      BYTE      CRC_CNT
      WR6         REGSYM    ---      WORD      CRC_Temp
      R5          REGSYM    ---      BYTE      i
      R4          REGSYM    ---      BYTE      j
      WR0         REGSYM    ---      INT       data1
      WR30        REGSYM    ---      INT       data2
      WR8         REGSYM    ---      INT       data3
      WR10        REGSYM    ---      INT       data4
      WR6         REGSYM    ---      WORD      CRC16

      ---         MODULE    ---      ---       SEEKFREE_WIRELESS
      00FF576BH   PUBLIC    CODE     ---       wireless_uart_callback
      000000D0H   SFRSYM    DATA     BYTE      PSW
      000000FEH   SFRSYM    DATA     BYTE      S4BUF
      000000B7H   SFRSYM    DATA     BYTE      IPH
      00000080H.7 SFRSYM    DATA     BIT       P07
      00000088H   SFRSYM    DATA     BYTE      TCON
L251 LINKER/LOCATER V4.66.93.0                                                        03/12/2024  22:14:56  PAGE 62


      00000098H   SFRSYM    DATA     BYTE      SCON
      000000BCH   SFRSYM    DATA     BYTE      ADC_CONTR
      000000DEH   SFRSYM    DATA     BYTE      ADCCFG
      000000B8H   SFRSYM    DATA     BYTE      IP
      000000A8H   SFRSYM    DATA     BYTE      IE
      000000F8H   SFRSYM    DATA     BYTE      P7
      000000E8H   SFRSYM    DATA     BYTE      P6
      000000C8H   SFRSYM    DATA     BYTE      P5
      000000C0H   SFRSYM    DATA     BYTE      P4
      000000B0H   SFRSYM    DATA     BYTE      P3
      000000A0H   SFRSYM    DATA     BYTE      P2
      00000090H   SFRSYM    DATA     BYTE      P1
      00000080H   SFRSYM    DATA     BYTE      P0
      000004DCH   SYMBOL    EDATA    BYTE      wireless_uart_data
      000004DDH   SYMBOL    EDATA    ---       wireless_uart_fifo
      000004F1H   SYMBOL    EDATA    ---       wireless_uart_buffer

      00FF576BH   BLOCK     CODE     ---       LVL=0
      00FF576BH   LINE      CODE     ---       #48
      00FF576BH   LINE      CODE     ---       #51
      00FF5771H   LINE      CODE     ---       #52
      ---         BLOCKEND  ---      ---       LVL=0
      REG=3       REGSYM    ---      ---       buff
      REG=7       REGSYM    ---      ---       buff
      DR8         REGSYM    ---      DWORD     len

      ---         MODULE    ---      ---       SEEKFREE_WIRELESS_CH573
      00FF5784H   PUBLIC    CODE     ---       wireless_ch573_callback
      000000D0H   SFRSYM    DATA     BYTE      PSW
      000000FEH   SFRSYM    DATA     BYTE      S4BUF
      000000B7H   SFRSYM    DATA     BYTE      IPH
      00000080H.7 SFRSYM    DATA     BIT       P07
      00000088H   SFRSYM    DATA     BYTE      TCON
      00000098H   SFRSYM    DATA     BYTE      SCON
      000000BCH   SFRSYM    DATA     BYTE      ADC_CONTR
      000000DEH   SFRSYM    DATA     BYTE      ADCCFG
      000000B8H   SFRSYM    DATA     BYTE      IP
      000000A8H   SFRSYM    DATA     BYTE      IE
      000000F8H   SFRSYM    DATA     BYTE      P7
      000000E8H   SFRSYM    DATA     BYTE      P6
      000000C8H   SFRSYM    DATA     BYTE      P5
      000000C0H   SFRSYM    DATA     BYTE      P4
      000000B0H   SFRSYM    DATA     BYTE      P3
      000000A0H   SFRSYM    DATA     BYTE      P2
      00000090H   SFRSYM    DATA     BYTE      P1
      00000080H   SFRSYM    DATA     BYTE      P0
      00000531H   SYMBOL    EDATA    ---       wireless_ch573_buffer
      00000571H   SYMBOL    EDATA    BYTE      wireless_ch573_data
      00000572H   SYMBOL    EDATA    ---       wireless_ch573_fifo

      00FF5784H   BLOCK     CODE     ---       LVL=0
      00FF5784H   LINE      CODE     ---       #39
      00FF5784H   LINE      CODE     ---       #42
      00FF578AH   LINE      CODE     ---       #43
      ---         BLOCKEND  ---      ---       LVL=0
      REG=3       REGSYM    ---      ---       buff
      REG=7       REGSYM    ---      ---       buff
      DR8         REGSYM    ---      DWORD     len

      ---         MODULE    ---      ---       isr
      00FF53CBH   PUBLIC    CODE     ---       UART1_Isr
      00FF572FH   PUBLIC    CODE     ---       UART2_Isr
      00FF574DH   PUBLIC    CODE     ---       UART3_Isr
      00FF4E37H   PUBLIC    CODE     ---       UART4_Isr
      00FF5900H   PUBLIC    CODE     ---       INT0_Isr
L251 LINKER/LOCATER V4.66.93.0                                                        03/12/2024  22:14:56  PAGE 63


      00FF0011H   PUBLIC    CODE     ---       INT1_Isr
      00FF58D8H   PUBLIC    CODE     ---       INT2_Isr
      00FF58E0H   PUBLIC    CODE     ---       INT3_Isr
      00FF58E8H   PUBLIC    CODE     ---       INT4_Isr
      00FF0012H   PUBLIC    CODE     ---       TM0_Isr
      00FF0019H   PUBLIC    CODE     ---       TM1_Isr
      00FF58F0H   PUBLIC    CODE     ---       TM2_Isr
      00FF58F8H   PUBLIC    CODE     ---       TM3_Isr
      00FF4BDFH   PUBLIC    CODE     ---       TM4_Isr
      0000067CH   PUBLIC    EDATA    CHAR      count
      000000D0H   SFRSYM    DATA     BYTE      PSW
      000000EFH   SFRSYM    DATA     BYTE      AUXINTIF
      000000FDH   SFRSYM    DATA     BYTE      S4CON
      000000ACH   SFRSYM    DATA     BYTE      S3CON
      0000009AH   SFRSYM    DATA     BYTE      S2CON
      000000B7H   SFRSYM    DATA     BYTE      IPH
      000000C7H   SFRSYM    DATA     BYTE      IAP_CONTR
      000000C8H.2 SFRSYM    DATA     BIT       P52
      00000088H   SFRSYM    DATA     BYTE      TCON
      00000098H   SFRSYM    DATA     BYTE      SCON
      00000099H   SFRSYM    DATA     BYTE      SBUF
      000000BCH   SFRSYM    DATA     BYTE      ADC_CONTR
      000000DEH   SFRSYM    DATA     BYTE      ADCCFG
      000000B8H   SFRSYM    DATA     BYTE      IP
      000000A8H   SFRSYM    DATA     BYTE      IE
      000000F8H   SFRSYM    DATA     BYTE      P7
      000000E8H   SFRSYM    DATA     BYTE      P6
      000000C8H   SFRSYM    DATA     BYTE      P5
      000000C0H   SFRSYM    DATA     BYTE      P4
      000000B0H   SFRSYM    DATA     BYTE      P3
      000000A0H   SFRSYM    DATA     BYTE      P2
      00000090H   SFRSYM    DATA     BYTE      P1
      00000080H   SFRSYM    DATA     BYTE      P0

      00FF53CBH   BLOCK     CODE     ---       LVL=0
      00FF53CFH   BLOCK     CODE     NEAR LAB  LVL=1
      R11         REGSYM    ---      BYTE      res
      0000067DH   SYMBOL    EDATA    BYTE      dwon_count
      ---         BLOCKEND  ---      ---       LVL=1
      00FF53CBH   LINE      CODE     ---       #27
      00FF53CFH   LINE      CODE     ---       #28
      00FF53CFH   LINE      CODE     ---       #31
      00FF53D4H   LINE      CODE     ---       #33
      00FF53D7H   LINE      CODE     ---       #34
      00FF53DCH   LINE      CODE     ---       #35
      00FF53DCH   LINE      CODE     ---       #36
      00FF53E1H   LINE      CODE     ---       #38
      00FF53E4H   LINE      CODE     ---       #39
      00FF53E6H   LINE      CODE     ---       #41
      00FF53E9H   LINE      CODE     ---       #43
      00FF53F9H   LINE      CODE     ---       #44
      00FF53FCH   LINE      CODE     ---       #45
      00FF53FEH   LINE      CODE     ---       #48
      00FF5403H   LINE      CODE     ---       #49
      00FF5403H   LINE      CODE     ---       #50
      ---         BLOCKEND  ---      ---       LVL=0

      00FF572FH   BLOCK     CODE     ---       LVL=0
      00FF572FH   LINE      CODE     ---       #54
      00FF5733H   LINE      CODE     ---       #56
      00FF5738H   LINE      CODE     ---       #58
      00FF573BH   LINE      CODE     ---       #59
      00FF5740H   LINE      CODE     ---       #60
      00FF5740H   LINE      CODE     ---       #61
      00FF5745H   LINE      CODE     ---       #63
L251 LINKER/LOCATER V4.66.93.0                                                        03/12/2024  22:14:56  PAGE 64


      00FF5748H   LINE      CODE     ---       #66
      ---         BLOCKEND  ---      ---       LVL=0

      00FF574DH   BLOCK     CODE     ---       LVL=0
      00FF574DH   LINE      CODE     ---       #71
      00FF5751H   LINE      CODE     ---       #73
      00FF5756H   LINE      CODE     ---       #75
      00FF5759H   LINE      CODE     ---       #76
      00FF575EH   LINE      CODE     ---       #77
      00FF575EH   LINE      CODE     ---       #78
      00FF5763H   LINE      CODE     ---       #80
      00FF5766H   LINE      CODE     ---       #83
      ---         BLOCKEND  ---      ---       LVL=0

      00FF4E37H   BLOCK     CODE     ---       LVL=0
      00FF4E37H   LINE      CODE     ---       #88
      00FF4E4FH   LINE      CODE     ---       #90
      00FF4E54H   LINE      CODE     ---       #92
      00FF4E57H   LINE      CODE     ---       #93
      00FF4E5CH   LINE      CODE     ---       #94
      00FF4E5CH   LINE      CODE     ---       #95
      00FF4E61H   LINE      CODE     ---       #97
      00FF4E64H   LINE      CODE     ---       #100
      00FF4E6EH   LINE      CODE     ---       #102
      00FF4E71H   LINE      CODE     ---       #103
      00FF4E73H   LINE      CODE     ---       #104
      00FF4E79H   LINE      CODE     ---       #106
      00FF4E7CH   LINE      CODE     ---       #107
      00FF4E7EH   LINE      CODE     ---       #108
      00FF4E84H   LINE      CODE     ---       #110
      00FF4E87H   LINE      CODE     ---       #111
      00FF4E87H   LINE      CODE     ---       #113
      ---         BLOCKEND  ---      ---       LVL=0

      00FF5900H   BLOCK     CODE     ---       LVL=0
      00FF5900H   LINE      CODE     ---       #116
      00FF5902H   LINE      CODE     ---       #118
      00FF5904H   LINE      CODE     ---       #119
      ---         BLOCKEND  ---      ---       LVL=0

      00FF0011H   BLOCK     CODE     ---       LVL=0
      00FF0011H   LINE      CODE     ---       #120
      00FF0011H   LINE      CODE     ---       #123
      ---         BLOCKEND  ---      ---       LVL=0

      00FF58D8H   BLOCK     CODE     ---       LVL=0
      00FF58D8H   LINE      CODE     ---       #124
      00FF58DAH   LINE      CODE     ---       #126
      00FF58DDH   LINE      CODE     ---       #127
      ---         BLOCKEND  ---      ---       LVL=0

      00FF58E0H   BLOCK     CODE     ---       LVL=0
      00FF58E0H   LINE      CODE     ---       #128
      00FF58E2H   LINE      CODE     ---       #130
      00FF58E5H   LINE      CODE     ---       #131
      ---         BLOCKEND  ---      ---       LVL=0

      00FF58E8H   BLOCK     CODE     ---       LVL=0
      00FF58E8H   LINE      CODE     ---       #133
      00FF58EAH   LINE      CODE     ---       #135
      00FF58EDH   LINE      CODE     ---       #136
      ---         BLOCKEND  ---      ---       LVL=0

      00FF0012H   BLOCK     CODE     ---       LVL=0
      00FF0012H   LINE      CODE     ---       #138
L251 LINKER/LOCATER V4.66.93.0                                                        03/12/2024  22:14:56  PAGE 65


      00FF0012H   LINE      CODE     ---       #141
      ---         BLOCKEND  ---      ---       LVL=0

      00FF0019H   BLOCK     CODE     ---       LVL=0
      00FF0019H   LINE      CODE     ---       #142
      00FF0019H   LINE      CODE     ---       #145
      ---         BLOCKEND  ---      ---       LVL=0

      00FF58F0H   BLOCK     CODE     ---       LVL=0
      00FF58F0H   LINE      CODE     ---       #146
      00FF58F2H   LINE      CODE     ---       #148
      00FF58F5H   LINE      CODE     ---       #150
      ---         BLOCKEND  ---      ---       LVL=0

      00FF58F8H   BLOCK     CODE     ---       LVL=0
      00FF58F8H   LINE      CODE     ---       #151
      00FF58FAH   LINE      CODE     ---       #153
      00FF58FDH   LINE      CODE     ---       #155
      ---         BLOCKEND  ---      ---       LVL=0

      00FF4BDFH   BLOCK     CODE     ---       LVL=0
      00FF4BDFH   LINE      CODE     ---       #158
      00FF4BF5H   LINE      CODE     ---       #160
      00FF4BF8H   LINE      CODE     ---       #161
      00FF4C01H   LINE      CODE     ---       #162
      00FF4C07H   LINE      CODE     ---       #164
      00FF4C11H   LINE      CODE     ---       #166
      00FF4C1CH   LINE      CODE     ---       #167
      00FF4C26H   LINE      CODE     ---       #168
      00FF4C28H   LINE      CODE     ---       #170
      00FF4C31H   LINE      CODE     ---       #172
      00FF4C3AH   LINE      CODE     ---       #174
      00FF4C43H   LINE      CODE     ---       #175
      00FF4C48H   LINE      CODE     ---       #176
      ---         BLOCKEND  ---      ---       LVL=0

      ---         MODULE    ---      ---       main
      00FF3CA7H   PUBLIC    CODE     ---       Get_Ratio
      00FF2B8FH   PUBLIC    CODE     ---       main
      00FF439BH   PUBLIC    CODE     ---       Init_all
      000005D6H   PUBLIC    EDATA    FLOAT     Ratio
      000005DAH   PUBLIC    EDATA    FLOAT     Exp_Speed
      000005DEH   PUBLIC    EDATA    FLOAT     sum_L
      000005E2H   PUBLIC    EDATA    FLOAT     sum_R
      000005E6H   PUBLIC    EDATA    FLOAT     Plus_Mid
      000005EAH   PUBLIC    EDATA    FLOAT     Plus
      000005EEH   PUBLIC    EDATA    CHAR      KeyValue
      000005EFH   PUBLIC    EDATA    FLOAT     Exp_Speed_L
      000005F3H   PUBLIC    EDATA    FLOAT     Exp_Speed_R
      000005F7H   PUBLIC    EDATA    FLOAT     sum
      000005FBH   PUBLIC    EDATA    INT       gx
      000005FDH   PUBLIC    EDATA    INT       gy
      000005FFH   PUBLIC    EDATA    INT       gz
      00000601H   PUBLIC    EDATA    CHAR      Isr_flag_10
      00000602H   PUBLIC    EDATA    FLOAT     Adjust_Val
      00000606H   PUBLIC    EDATA    FLOAT     Diff_Mid
      0000060AH   PUBLIC    EDATA    FLOAT     Diff
      0000060EH   PUBLIC    EDATA    FLOAT     Ratio_Mid
      000000D0H   SFRSYM    DATA     BYTE      PSW
      000000B7H   SFRSYM    DATA     BYTE      IPH
      000000E9H   SFRSYM    DATA     BYTE      WTST
      00000088H   SFRSYM    DATA     BYTE      TCON
      00000098H   SFRSYM    DATA     BYTE      SCON
      000000BCH   SFRSYM    DATA     BYTE      ADC_CONTR
      000000DEH   SFRSYM    DATA     BYTE      ADCCFG
L251 LINKER/LOCATER V4.66.93.0                                                        03/12/2024  22:14:56  PAGE 66


      000000B8H   SFRSYM    DATA     BYTE      IP
      000000A8H   SFRSYM    DATA     BYTE      IE
      000000F8H   SFRSYM    DATA     BYTE      P7
      000000E8H   SFRSYM    DATA     BYTE      P6
      000000C8H   SFRSYM    DATA     BYTE      P5
      000000C0H   SFRSYM    DATA     BYTE      P4
      000000B0H   SFRSYM    DATA     BYTE      P3
      000000A0H   SFRSYM    DATA     BYTE      P2
      00000090H   SFRSYM    DATA     BYTE      P1
      00000080H   SFRSYM    DATA     BYTE      P0

      00FF2B8FH   BLOCK     CODE     ---       LVL=0
      00FF2B8FH   LINE      CODE     ---       #42
      00FF2B8FH   LINE      CODE     ---       #44
      00FF2B92H   LINE      CODE     ---       #45
      00FF2B95H   LINE      CODE     ---       #46
      00FF2B9FH   LINE      CODE     ---       #47
      00FF2B9FH   LINE      CODE     ---       #49
      00FF2BE2H   LINE      CODE     ---       #53
      00FF2BE5H   LINE      CODE     ---       #54
      00FF2BEDH   LINE      CODE     ---       #55
      00FF2C0AH   LINE      CODE     ---       #56
      00FF2C2DH   LINE      CODE     ---       #57
      00FF2C43H   LINE      CODE     ---       #58
      00FF2C5BH   LINE      CODE     ---       #62
      00FF2C67H   LINE      CODE     ---       #64
      00FF2C6AH   LINE      CODE     ---       #65
      00FF2C6DH   LINE      CODE     ---       #66
      00FF2C80H   LINE      CODE     ---       #67
      00FF2C83H   LINE      CODE     ---       #94
      00FF2CA5H   LINE      CODE     ---       #96
      00FF2CAFH   LINE      CODE     ---       #97
      00FF2CBBH   LINE      CODE     ---       #98
      00FF2CC9H   LINE      CODE     ---       #99
      00FF2CD9H   LINE      CODE     ---       #100
      00FF2CDFH   LINE      CODE     ---       #101
      00FF2CE1H   LINE      CODE     ---       #104
      00FF2CEBH   LINE      CODE     ---       #105
      00FF2CF3H   LINE      CODE     ---       #106
      00FF2CFBH   LINE      CODE     ---       #107
      00FF2D07H   LINE      CODE     ---       #108
      00FF2D11H   LINE      CODE     ---       #109
      00FF2D1DH   LINE      CODE     ---       #110
      00FF2D27H   LINE      CODE     ---       #111
      00FF2D27H   LINE      CODE     ---       #143
      00FF2D54H   LINE      CODE     ---       #145
      00FF2D5CH   LINE      CODE     ---       #146
      00FF2D7AH   LINE      CODE     ---       #148
      00FF2D80H   LINE      CODE     ---       #149
      00FF2D82H   LINE      CODE     ---       #150
      00FF2D96H   LINE      CODE     ---       #152
      00FF2D9CH   LINE      CODE     ---       #153
      00FF2D9CH   LINE      CODE     ---       #155
      00FF2DBAH   LINE      CODE     ---       #157
      00FF2DBFH   LINE      CODE     ---       #158
      00FF2DC3H   LINE      CODE     ---       #159
      00FF2DC3H   LINE      CODE     ---       #160
      00FF2DE9H   LINE      CODE     ---       #161
      00FF2E0FH   LINE      CODE     ---       #163
      00FF2E26H   LINE      CODE     ---       #164
      00FF2E54H   LINE      CODE     ---       #165
      00FF2E6BH   LINE      CODE     ---       #167
      00FF2E81H   LINE      CODE     ---       #169
      00FF2EA3H   LINE      CODE     ---       #170
      00FF2EADH   LINE      CODE     ---       #171
L251 LINKER/LOCATER V4.66.93.0                                                        03/12/2024  22:14:56  PAGE 67


      00FF2ECBH   LINE      CODE     ---       #172
      00FF2ED6H   LINE      CODE     ---       #174
      00FF2ED9H   LINE      CODE     ---       #176
      00FF2EECH   LINE      CODE     ---       #177
      00FF2EFFH   LINE      CODE     ---       #180
      00FF2F0EH   LINE      CODE     ---       #182
      00FF2F14H   LINE      CODE     ---       #183
      00FF2F18H   LINE      CODE     ---       #184
      00FF2F18H   LINE      CODE     ---       #187
      00FF2F1FH   LINE      CODE     ---       #189
      00FF2F26H   LINE      CODE     ---       #190
      00FF2F2BH   LINE      CODE     ---       #191
      ---         BLOCKEND  ---      ---       LVL=0

      00FF3CA7H   BLOCK     CODE     ---       LVL=0
      00FF3CA7H   LINE      CODE     ---       #196
      00FF3CA7H   LINE      CODE     ---       #199
      00FF3CC7H   LINE      CODE     ---       #200
      00FF3CE9H   LINE      CODE     ---       #201
      00FF3CFAH   LINE      CODE     ---       #202
      00FF3D07H   LINE      CODE     ---       #203
      00FF3D10H   LINE      CODE     ---       #220
      00FF3D3CH   LINE      CODE     ---       #221
      00FF3D48H   LINE      CODE     ---       #222
      00FF3D66H   LINE      CODE     ---       #223
      00FF3D72H   LINE      CODE     ---       #225
      00FF3D9CH   LINE      CODE     ---       #226
      00FF3DA8H   LINE      CODE     ---       #227
      00FF3DC6H   LINE      CODE     ---       #228
      00FF3DD2H   LINE      CODE     ---       #229
      ---         BLOCKEND  ---      ---       LVL=0

      00FF439BH   BLOCK     CODE     ---       LVL=0
      00FF439BH   LINE      CODE     ---       #231
      00FF439BH   LINE      CODE     ---       #233
      00FF439EH   LINE      CODE     ---       #234
      00FF43A1H   LINE      CODE     ---       #235
      00FF43ADH   LINE      CODE     ---       #238
      00FF43B0H   LINE      CODE     ---       #241
      00FF43B9H   LINE      CODE     ---       #242
      00FF43C2H   LINE      CODE     ---       #245
      00FF43C5H   LINE      CODE     ---       #252
      00FF43C8H   LINE      CODE     ---       #255
      00FF43CBH   LINE      CODE     ---       #258
      00FF43D6H   LINE      CODE     ---       #261
      00FF43DBH   LINE      CODE     ---       #262
      00FF43E2H   LINE      CODE     ---       #268
      00FF43E5H   LINE      CODE     ---       #271
      00FF43E8H   LINE      CODE     ---       #274
      00FF43EBH   LINE      CODE     ---       #277
      00FF441CH   LINE      CODE     ---       #278
      00FF444DH   LINE      CODE     ---       #279
      ---         BLOCKEND  ---      ---       LVL=0

      ---         MODULE    ---      ---       motor
      00FF46AFH   PUBLIC    CODE     ---       Right_SetSpeed
      00FF5249H   PUBLIC    CODE     ---       Motor_Init
      00FF4539H   PUBLIC    CODE     ---       Left_SetSpeed
      00FF55AEH   PUBLIC    CODE     ---       Limit_Out
      00FF4EA0H   PUBLIC    CODE     ---       Get_Speed
      000003A2H   PUBLIC    EDATA    ---       Right_Wheel_PID
      000003C6H   PUBLIC    EDATA    FLOAT     Speed_L
      000003CAH   PUBLIC    EDATA    ---       Left_Wheel_PID
      000003EEH   PUBLIC    EDATA    FLOAT     Speed_R
      000003F2H   PUBLIC    EDATA    CHAR      A
L251 LINKER/LOCATER V4.66.93.0                                                        03/12/2024  22:14:56  PAGE 68


      000003F3H   PUBLIC    EDATA    ---       Turn_PID
      00000417H   PUBLIC    EDATA    CHAR      A1
      00000313H   PUBLIC    EDATA    BYTE      ?Limit_Out?BYTE
      000000D0H   SFRSYM    DATA     BYTE      PSW
      000000B7H   SFRSYM    DATA     BYTE      IPH
      000000B0H.5 SFRSYM    DATA     BIT       P35
      000000C8H.3 SFRSYM    DATA     BIT       P53
      00000088H   SFRSYM    DATA     BYTE      TCON
      00000098H   SFRSYM    DATA     BYTE      SCON
      000000BCH   SFRSYM    DATA     BYTE      ADC_CONTR
      000000DEH   SFRSYM    DATA     BYTE      ADCCFG
      000000B8H   SFRSYM    DATA     BYTE      IP
      000000A8H   SFRSYM    DATA     BYTE      IE
      000000F8H   SFRSYM    DATA     BYTE      P7
      000000E8H   SFRSYM    DATA     BYTE      P6
      000000C8H   SFRSYM    DATA     BYTE      P5
      000000C0H   SFRSYM    DATA     BYTE      P4
      000000B0H   SFRSYM    DATA     BYTE      P3
      000000A0H   SFRSYM    DATA     BYTE      P2
      00000090H   SFRSYM    DATA     BYTE      P1
      00000080H   SFRSYM    DATA     BYTE      P0

      00FF55AEH   BLOCK     CODE     ---       LVL=0
      REG=7       REGSYM    ---      ---       Output
      DR24        REGSYM    ---      FLOAT     Limit_Min
      0000031BH   SYMBOL    EDATA    FLOAT     Limit_Max
      00FF55AEH   LINE      CODE     ---       #21
      00FF55B2H   LINE      CODE     ---       #23
      00FF55C4H   LINE      CODE     ---       #24
      00FF55D8H   LINE      CODE     ---       #25
      ---         BLOCKEND  ---      ---       LVL=0
      DR28        REGSYM    ---      FLOAT     x

      00FF5249H   BLOCK     CODE     ---       LVL=0
      00FF5249H   LINE      CODE     ---       #34
      00FF5249H   LINE      CODE     ---       #36
      00FF525AH   LINE      CODE     ---       #37
      00FF526BH   LINE      CODE     ---       #38
      00FF527CH   LINE      CODE     ---       #39
      ---         BLOCKEND  ---      ---       LVL=0

      00FF4539H   BLOCK     CODE     ---       LVL=0
      DR12        REGSYM    ---      FLOAT     speed
      00FF453DH   BLOCK     CODE     NEAR LAB  LVL=1
      00000418H   SYMBOL    EDATA    INT       Special_NumL
      ---         BLOCKEND  ---      ---       LVL=1
      00FF4539H   LINE      CODE     ---       #43
      00FF453DH   LINE      CODE     ---       #44
      00FF453DH   LINE      CODE     ---       #46
      00FF4549H   LINE      CODE     ---       #47
      00FF4551H   LINE      CODE     ---       #49
      00FF4557H   LINE      CODE     ---       #50
      00FF455DH   LINE      CODE     ---       #52
      00FF4566H   LINE      CODE     ---       #53
      00FF456FH   LINE      CODE     ---       #54
      00FF4575H   LINE      CODE     ---       #55
      00FF4577H   LINE      CODE     ---       #58
      00FF458AH   LINE      CODE     ---       #59
      00FF459BH   LINE      CODE     ---       #60
      00FF45A4H   LINE      CODE     ---       #62
      00FF45B7H   LINE      CODE     ---       #63
      00FF45B7H   LINE      CODE     ---       #64
      00FF45B9H   LINE      CODE     ---       #65
      00FF45C2H   LINE      CODE     ---       #67
      00FF45CBH   LINE      CODE     ---       #68
L251 LINKER/LOCATER V4.66.93.0                                                        03/12/2024  22:14:56  PAGE 69


      00FF45E0H   LINE      CODE     ---       #69
      00FF45E2H   LINE      CODE     ---       #72
      00FF45EBH   LINE      CODE     ---       #73
      00FF45F4H   LINE      CODE     ---       #74
      00FF45F4H   LINE      CODE     ---       #75
      00FF45F4H   LINE      CODE     ---       #77
      ---         BLOCKEND  ---      ---       LVL=0

      00FF46AFH   BLOCK     CODE     ---       LVL=0
      DR12        REGSYM    ---      FLOAT     speed
      00FF46B3H   BLOCK     CODE     NEAR LAB  LVL=1
      0000041AH   SYMBOL    EDATA    INT       Special_NumR
      ---         BLOCKEND  ---      ---       LVL=1
      00FF46AFH   LINE      CODE     ---       #79
      00FF46B3H   LINE      CODE     ---       #80
      00FF46B3H   LINE      CODE     ---       #82
      00FF46C4H   LINE      CODE     ---       #83
      00FF46D5H   LINE      CODE     ---       #85
      00FF46E3H   LINE      CODE     ---       #86
      00FF46EBH   LINE      CODE     ---       #88
      00FF46F1H   LINE      CODE     ---       #89
      00FF46F7H   LINE      CODE     ---       #91
      00FF46FDH   LINE      CODE     ---       #92
      00FF46FDH   LINE      CODE     ---       #93
      00FF46FDH   LINE      CODE     ---       #94
      00FF46FFH   LINE      CODE     ---       #97
      00FF4708H   LINE      CODE     ---       #99
      00FF471BH   LINE      CODE     ---       #100
      00FF471BH   LINE      CODE     ---       #101
      00FF471DH   LINE      CODE     ---       #102
      00FF4726H   LINE      CODE     ---       #104
      00FF472FH   LINE      CODE     ---       #105
      00FF4744H   LINE      CODE     ---       #106
      00FF4746H   LINE      CODE     ---       #109
      00FF474FH   LINE      CODE     ---       #110
      00FF4758H   LINE      CODE     ---       #111
      00FF4758H   LINE      CODE     ---       #113
      00FF4758H   LINE      CODE     ---       #114
      ---         BLOCKEND  ---      ---       LVL=0

      00FF4EA0H   BLOCK     CODE     ---       LVL=0
      00FF4EA0H   LINE      CODE     ---       #116
      00FF4EA0H   LINE      CODE     ---       #118
      00FF4EB5H   LINE      CODE     ---       #119
      00FF4ECDH   LINE      CODE     ---       #120
      00FF4ED4H   LINE      CODE     ---       #123
      00FF4EE8H   LINE      CODE     ---       #124
      00FF4EFEH   LINE      CODE     ---       #125
      ---         BLOCKEND  ---      ---       LVL=0

      ---         MODULE    ---      ---       ADC
      00FF3B38H   PUBLIC    CODE     ---       ADC_GetValue
      00FF55D9H   PUBLIC    CODE     ---       ADC_InitAll
      00000586H   PUBLIC    EDATA    ---       ADC_Array_Original
      000005C2H   PUBLIC    EDATA    ---       ADC_proc
      000000D0H   SFRSYM    DATA     BYTE      PSW
      000000B7H   SFRSYM    DATA     BYTE      IPH
      00000088H   SFRSYM    DATA     BYTE      TCON
      00000098H   SFRSYM    DATA     BYTE      SCON
      000000BCH   SFRSYM    DATA     BYTE      ADC_CONTR
      000000DEH   SFRSYM    DATA     BYTE      ADCCFG
      000000B8H   SFRSYM    DATA     BYTE      IP
      000000A8H   SFRSYM    DATA     BYTE      IE
      000000F8H   SFRSYM    DATA     BYTE      P7
      000000E8H   SFRSYM    DATA     BYTE      P6
L251 LINKER/LOCATER V4.66.93.0                                                        03/12/2024  22:14:56  PAGE 70


      000000C8H   SFRSYM    DATA     BYTE      P5
      000000C0H   SFRSYM    DATA     BYTE      P4
      000000B0H   SFRSYM    DATA     BYTE      P3
      000000A0H   SFRSYM    DATA     BYTE      P2
      00000090H   SFRSYM    DATA     BYTE      P1
      00000080H   SFRSYM    DATA     BYTE      P0

      00FF55D9H   BLOCK     CODE     ---       LVL=0
      00FF55D9H   LINE      CODE     ---       #11
      00FF55D9H   LINE      CODE     ---       #13
      00FF55E0H   LINE      CODE     ---       #14
      00FF55E9H   LINE      CODE     ---       #16
      00FF55F2H   LINE      CODE     ---       #18
      00FF55FBH   LINE      CODE     ---       #19
      ---         BLOCKEND  ---      ---       LVL=0

      00FF3B38H   BLOCK     CODE     ---       LVL=0
      00FF3B3AH   BLOCK     CODE     NEAR LAB  LVL=1
      DR28        REGSYM    ---      FLOAT     temp
      R15         REGSYM    ---      CHAR      i
      R14         REGSYM    ---      CHAR      j
      R15         REGSYM    ---      CHAR      k
      ---         BLOCKEND  ---      ---       LVL=1
      00FF3B38H   LINE      CODE     ---       #22
      00FF3B3AH   LINE      CODE     ---       #23
      00FF3B3AH   LINE      CODE     ---       #26
      00FF3B3CH   LINE      CODE     ---       #36
      00FF3B59H   LINE      CODE     ---       #37
      00FF3B78H   LINE      CODE     ---       #39
      00FF3B97H   LINE      CODE     ---       #41
      00FF3BB6H   LINE      CODE     ---       #42
      00FF3BD5H   LINE      CODE     ---       #43
      00FF3BDFH   LINE      CODE     ---       #44
      00FF3BE1H   LINE      CODE     ---       #46
      00FF3BE3H   LINE      CODE     ---       #47
      00FF3BE5H   LINE      CODE     ---       #49
      00FF3C04H   LINE      CODE     ---       #50
      00FF3C0BH   LINE      CODE     ---       #51
      00FF3C24H   LINE      CODE     ---       #52
      00FF3C3DH   LINE      CODE     ---       #53
      00FF3C54H   LINE      CODE     ---       #55
      00FF3C76H   LINE      CODE     ---       #56
      00FF3C87H   LINE      CODE     ---       #57
      00FF3C8BH   LINE      CODE     ---       #58
      00FF3C96H   LINE      CODE     ---       #59
      00FF3C9AH   LINE      CODE     ---       #60
      00FF3CA4H   LINE      CODE     ---       #61
      ---         BLOCKEND  ---      ---       LVL=0

      ---         MODULE    ---      ---       PID
      00FF4472H   PUBLIC    CODE     ---       PID_Calculate
      00FF50C8H   PUBLIC    CODE     ---       PID_Init
      0000030FH   PUBLIC    EDATA    BYTE      ?PID_Init?BYTE
      0000030FH   PUBLIC    EDATA    BYTE      ?PID_Calculate?BYTE
      000000D0H   SFRSYM    DATA     BYTE      PSW
      000000B7H   SFRSYM    DATA     BYTE      IPH
      00000088H   SFRSYM    DATA     BYTE      TCON
      00000098H   SFRSYM    DATA     BYTE      SCON
      000000BCH   SFRSYM    DATA     BYTE      ADC_CONTR
      000000DEH   SFRSYM    DATA     BYTE      ADCCFG
      000000B8H   SFRSYM    DATA     BYTE      IP
      000000A8H   SFRSYM    DATA     BYTE      IE
      000000F8H   SFRSYM    DATA     BYTE      P7
      000000E8H   SFRSYM    DATA     BYTE      P6
      000000C8H   SFRSYM    DATA     BYTE      P5
L251 LINKER/LOCATER V4.66.93.0                                                        03/12/2024  22:14:56  PAGE 71


      000000C0H   SFRSYM    DATA     BYTE      P4
      000000B0H   SFRSYM    DATA     BYTE      P3
      000000A0H   SFRSYM    DATA     BYTE      P2
      00000090H   SFRSYM    DATA     BYTE      P1
      00000080H   SFRSYM    DATA     BYTE      P0

      00FF50C8H   BLOCK     CODE     ---       LVL=0
      REG=2       REGSYM    ---      ---       PID_Struct
      DR4         REGSYM    ---      FLOAT     Kp
      00000317H   SYMBOL    EDATA    FLOAT     Ki
      0000031BH   SYMBOL    EDATA    FLOAT     Kd
      0000031FH   SYMBOL    EDATA    FLOAT     Out_Limit
      00000323H   SYMBOL    EDATA    FLOAT     Integral_Limit
      00FF50C8H   LINE      CODE     ---       #10
      00FF50CAH   LINE      CODE     ---       #12
      00FF50D2H   LINE      CODE     ---       #13
      00FF50DEH   LINE      CODE     ---       #14
      00FF50EAH   LINE      CODE     ---       #16
      00FF50F3H   LINE      CODE     ---       #17
      00FF50FBH   LINE      CODE     ---       #19
      00FF5103H   LINE      CODE     ---       #20
      00FF510FH   LINE      CODE     ---       #21
      00FF511BH   LINE      CODE     ---       #22
      ---         BLOCKEND  ---      ---       LVL=0

      00FF4472H   BLOCK     CODE     ---       LVL=0
      REG=3       REGSYM    ---      ---       PID_Struct
      DR28        REGSYM    ---      FLOAT     Exp_Val
      00000317H   SYMBOL    EDATA    FLOAT     Act_Val
      00FF4472H   LINE      CODE     ---       #24
      00FF4476H   LINE      CODE     ---       #26
      00FF4484H   LINE      CODE     ---       #27
      00FF44A2H   LINE      CODE     ---       #28
      00FF44BAH   LINE      CODE     ---       #29
      00FF450FH   LINE      CODE     ---       #33
      00FF4527H   LINE      CODE     ---       #34
      00FF4536H   LINE      CODE     ---       #35
      ---         BLOCKEND  ---      ---       LVL=0

      ---         MODULE    ---      ---       MPU6050
      00FF5805H   PUBLIC    CODE     ---       i2c_nack
      00FF58BCH   PUBLIC    CODE     ---       Delay1ms
      00FF4B5EH   PUBLIC    CODE     ---       loadfirmware
      00FF57B4H   PUBLIC    CODE     ---       i2c_ack
      00FF5817H   PUBLIC    CODE     ---       i2c_start
      00FF4DCCH   PUBLIC    CODE     ---       i2c_read_bits
      00FF547DH   PUBLIC    CODE     ---       i2c_read_byte
      00FF49CAH   PUBLIC    CODE     ---       xdmpUpdates
      00FF501CH   PUBLIC    CODE     ---       MPU_Get_Gyroscope
      00FF54E7H   PUBLIC    CODE     ---       i2c_read_bit
      00FF4CDCH   PUBLIC    CODE     ---       i2c_mem_read
      00FF475BH   PUBLIC    CODE     ---       loadcfgupd
      00FF001EH   PUBLIC    CODE     ---       I2C_SDA_H
      00FF4C5FH   PUBLIC    CODE     ---       i2c_write_bits
      00FF570FH   PUBLIC    CODE     ---       getDeviceID
      00FF0056H   PUBLIC    CODE     ---       I2C_SDA_L
      00FF551AH   PUBLIC    CODE     ---       i2c_write_byte
      00FF5604H   PUBLIC    CODE     ---       i2c_wait_ack
      00FF584AH   PUBLIC    CODE     ---       i2c_stop
      00FF005EH   PUBLIC    CODE     ---       I2C_SCL_H
      00FF007FH   PUBLIC    CODE     ---       I2C_SCL_L
      00FF4FC0H   PUBLIC    CODE     ---       i2c_write_bit
      00FF4F03H   PUBLIC    CODE     ---       i2c_mem_write
      00FF34B3H   PUBLIC    CODE     ---       MPU6050_Refresh_DMP
      00FF0046H   PUBLIC    CODE     ---       MPU_Read_Bits
L251 LINKER/LOCATER V4.66.93.0                                                        03/12/2024  22:14:56  PAGE 72


      00FF58C6H   PUBLIC    CODE     ---       MPU_Read_Bit
      00FF5890H   PUBLIC    CODE     ---       MPU_Read_Len
      00FF0006H   PUBLIC    CODE     ---       I2C_SDA_Read
      00FF5876H   PUBLIC    CODE     ---       MPU_Write_Bits
      00FF57C9H   PUBLIC    CODE     ---       MPU_Write_Byte
      00FF374DH   PUBLIC    CODE     ---       dmpInitialize
      00FF589BH   PUBLIC    CODE     ---       i2c_timeout_delay
      00FF5859H   PUBLIC    CODE     ---       readdmp
      00FF5883H   PUBLIC    CODE     ---       MPU_Write_Bit
      00FF58A6H   PUBLIC    CODE     ---       MPU_Write_Len
      00FF57DEH   PUBLIC    CODE     ---       MPU_Delay_Ms
      00FF58B1H   PUBLIC    CODE     ---       i2c_delay
      00FF0026H   PUBLIC    CODE     ---       getFIFOCount
      00FF554DH   PUBLIC    CODE     ---       initMPU6050
      00FF56ECH   PUBLIC    CODE     ---       MPU6050_DMP_Init
      0000041CH   PUBLIC    EDATA    FLOAT     z_add
      00000420H   PUBLIC    EDATA    FLOAT     z_last
      00000424H   PUBLIC    EDATA    FLOAT     Roll
      00000428H   PUBLIC    EDATA    FLOAT     x1
      0000042CH   PUBLIC    EDATA    FLOAT     y1
      00000430H   PUBLIC    EDATA    FLOAT     z1
      00000434H   PUBLIC    EDATA    FLOAT     z_now
      00000438H   PUBLIC    EDATA    FLOAT     Yaw
      0000043CH   PUBLIC    EDATA    ---       Q
      0000044CH   PUBLIC    EDATA    ---       dmpdatas
      00000476H   PUBLIC    EDATA    CHAR      mpu_state
      00000477H   PUBLIC    EDATA    FLOAT     Pitch
      00FF1A26H   PUBLIC    CODE     ---       dmpUpdates
      00FF1A55H   PUBLIC    CODE     ---       dmpcfgupddata
      00FF1B15H   PUBLIC    CODE     ---       dmpmemorydata
      00000313H   PUBLIC    EDATA    BYTE      ?MPU_Get_Gyroscope?BYTE
      000000D0H   SFRSYM    DATA     BYTE      PSW
      000000B7H   SFRSYM    DATA     BYTE      IPH
      000000C8H.1 SFRSYM    DATA     BIT       P51
      00000088H   SFRSYM    DATA     BYTE      TCON
      000000C8H.0 SFRSYM    DATA     BIT       P50
      00000098H   SFRSYM    DATA     BYTE      SCON
      000000BCH   SFRSYM    DATA     BYTE      ADC_CONTR
      000000DEH   SFRSYM    DATA     BYTE      ADCCFG
      000000B8H   SFRSYM    DATA     BYTE      IP
      000000A8H   SFRSYM    DATA     BYTE      IE
      000000F8H   SFRSYM    DATA     BYTE      P7
      000000E8H   SFRSYM    DATA     BYTE      P6
      000000C8H   SFRSYM    DATA     BYTE      P5
      000000C0H   SFRSYM    DATA     BYTE      P4
      000000B0H   SFRSYM    DATA     BYTE      P3
      000000A0H   SFRSYM    DATA     BYTE      P2
      00000090H   SFRSYM    DATA     BYTE      P1
      00000080H   SFRSYM    DATA     BYTE      P0

      00FF589BH   BLOCK     CODE     ---       LVL=0
      R10         REGSYM    ---      CHAR      i
      00FF589BH   LINE      CODE     ---       #10
      00FF589BH   LINE      CODE     ---       #11
      00FF589BH   LINE      CODE     ---       #13
      00FF589EH   LINE      CODE     ---       #14
      00FF58A5H   LINE      CODE     ---       #15
      ---         BLOCKEND  ---      ---       LVL=0

      00FF58B1H   BLOCK     CODE     ---       LVL=0
      R10         REGSYM    ---      CHAR      i
      00FF58B1H   LINE      CODE     ---       #17
      00FF58B1H   LINE      CODE     ---       #18
      00FF58B1H   LINE      CODE     ---       #20
      00FF58B4H   LINE      CODE     ---       #21
L251 LINKER/LOCATER V4.66.93.0                                                        03/12/2024  22:14:56  PAGE 73


      00FF58BBH   LINE      CODE     ---       #22
      ---         BLOCKEND  ---      ---       LVL=0

      00FF005EH   BLOCK     CODE     ---       LVL=0
      00FF005EH   LINE      CODE     ---       #25
      00FF005EH   LINE      CODE     ---       #27
      00FF0060H   LINE      CODE     ---       #28
      ---         BLOCKEND  ---      ---       LVL=0

      00FF007FH   BLOCK     CODE     ---       LVL=0
      00FF007FH   LINE      CODE     ---       #31
      00FF007FH   LINE      CODE     ---       #33
      00FF0081H   LINE      CODE     ---       #34
      ---         BLOCKEND  ---      ---       LVL=0

      00FF001EH   BLOCK     CODE     ---       LVL=0
      00FF001EH   LINE      CODE     ---       #37
      00FF001EH   LINE      CODE     ---       #39
      00FF0020H   LINE      CODE     ---       #40
      ---         BLOCKEND  ---      ---       LVL=0

      00FF0056H   BLOCK     CODE     ---       LVL=0
      00FF0056H   LINE      CODE     ---       #43
      00FF0056H   LINE      CODE     ---       #45
      00FF0058H   LINE      CODE     ---       #46
      ---         BLOCKEND  ---      ---       LVL=0

      00FF0006H   BLOCK     CODE     ---       LVL=0
      00FF0006H   LINE      CODE     ---       #49
      00FF0006H   LINE      CODE     ---       #51
      00FF000AH   LINE      CODE     ---       #52
      ---         BLOCKEND  ---      ---       LVL=0

      00FF5817H   BLOCK     CODE     ---       LVL=0
      00FF5817H   LINE      CODE     ---       #60
      00FF5817H   LINE      CODE     ---       #62
      00FF581AH   LINE      CODE     ---       #63
      00FF581DH   LINE      CODE     ---       #64
      00FF5820H   LINE      CODE     ---       #66
      00FF5823H   LINE      CODE     ---       #67
      00FF5826H   LINE      CODE     ---       #68
      ---         BLOCKEND  ---      ---       LVL=0

      00FF584AH   BLOCK     CODE     ---       LVL=0
      00FF584AH   LINE      CODE     ---       #77
      00FF584AH   LINE      CODE     ---       #79
      00FF584DH   LINE      CODE     ---       #80
      00FF5850H   LINE      CODE     ---       #81
      00FF5853H   LINE      CODE     ---       #83
      00FF5856H   LINE      CODE     ---       #84
      ---         BLOCKEND  ---      ---       LVL=0

      00FF57B4H   BLOCK     CODE     ---       LVL=0
      00FF57B4H   LINE      CODE     ---       #93
      00FF57B4H   LINE      CODE     ---       #95
      00FF57B7H   LINE      CODE     ---       #96
      00FF57BAH   LINE      CODE     ---       #97
      00FF57BDH   LINE      CODE     ---       #99
      00FF57C0H   LINE      CODE     ---       #100
      00FF57C3H   LINE      CODE     ---       #101
      00FF57C6H   LINE      CODE     ---       #102
      ---         BLOCKEND  ---      ---       LVL=0

      00FF5805H   BLOCK     CODE     ---       LVL=0
      00FF5805H   LINE      CODE     ---       #111
L251 LINKER/LOCATER V4.66.93.0                                                        03/12/2024  22:14:56  PAGE 74


      00FF5805H   LINE      CODE     ---       #113
      00FF5808H   LINE      CODE     ---       #114
      00FF580BH   LINE      CODE     ---       #115
      00FF580EH   LINE      CODE     ---       #117
      00FF5811H   LINE      CODE     ---       #118
      00FF5814H   LINE      CODE     ---       #119
      ---         BLOCKEND  ---      ---       LVL=0

      00FF5604H   BLOCK     CODE     ---       LVL=0
      00FF5606H   BLOCK     CODE     NEAR LAB  LVL=1
      WR14        REGSYM    ---      WORD      time_temp
      ---         BLOCKEND  ---      ---       LVL=1
      00FF5604H   LINE      CODE     ---       #129
      00FF5606H   LINE      CODE     ---       #130
      00FF5606H   LINE      CODE     ---       #131
      00FF5608H   LINE      CODE     ---       #133
      00FF560BH   LINE      CODE     ---       #134
      00FF560EH   LINE      CODE     ---       #135
      00FF5610H   LINE      CODE     ---       #137
      00FF5612H   LINE      CODE     ---       #138
      00FF5615H   LINE      CODE     ---       #139
      00FF561BH   LINE      CODE     ---       #141
      00FF561EH   LINE      CODE     ---       #142
      00FF5622H   LINE      CODE     ---       #143
      00FF5627H   LINE      CODE     ---       #145
      00FF562AH   LINE      CODE     ---       #146
      00FF562BH   LINE      CODE     ---       #147
      ---         BLOCKEND  ---      ---       LVL=0

      00FF551AH   BLOCK     CODE     ---       LVL=0
      R15         REGSYM    ---      BYTE      dat
      00FF551EH   BLOCK     CODE     NEAR LAB  LVL=1
      R14         REGSYM    ---      BYTE      i
      ---         BLOCKEND  ---      ---       LVL=1
      00FF551AH   LINE      CODE     ---       #155
      00FF551EH   LINE      CODE     ---       #156
      00FF551EH   LINE      CODE     ---       #157
      00FF551EH   LINE      CODE     ---       #159
      00FF5521H   LINE      CODE     ---       #160
      00FF5524H   LINE      CODE     ---       #162
      00FF552DH   LINE      CODE     ---       #163
      00FF5532H   LINE      CODE     ---       #165
      00FF5535H   LINE      CODE     ---       #166
      00FF5537H   LINE      CODE     ---       #167
      00FF553AH   LINE      CODE     ---       #168
      00FF553DH   LINE      CODE     ---       #169
      00FF5540H   LINE      CODE     ---       #170
      00FF5543H   LINE      CODE     ---       #171
      00FF5546H   LINE      CODE     ---       #172
      00FF554AH   LINE      CODE     ---       #173
      ---         BLOCKEND  ---      ---       LVL=0

      00FF547DH   BLOCK     CODE     ---       LVL=0
      R15         REGSYM    ---      BYTE      ack
      00FF5483H   BLOCK     CODE     NEAR LAB  LVL=1
      R13         REGSYM    ---      BYTE      i
      R14         REGSYM    ---      BYTE      receive
      ---         BLOCKEND  ---      ---       LVL=1
      00FF547DH   LINE      CODE     ---       #181
      00FF5483H   LINE      CODE     ---       #182
      00FF5483H   LINE      CODE     ---       #183
      00FF5485H   LINE      CODE     ---       #185
      00FF5488H   LINE      CODE     ---       #187
      00FF548BH   LINE      CODE     ---       #188
      00FF548EH   LINE      CODE     ---       #189
L251 LINKER/LOCATER V4.66.93.0                                                        03/12/2024  22:14:56  PAGE 75


      00FF5491H   LINE      CODE     ---       #190
      00FF5493H   LINE      CODE     ---       #191
      00FF5498H   LINE      CODE     ---       #192
      00FF549AH   LINE      CODE     ---       #193
      00FF549DH   LINE      CODE     ---       #194
      00FF54A1H   LINE      CODE     ---       #195
      00FF54A5H   LINE      CODE     ---       #196
      00FF54AAH   LINE      CODE     ---       #198
      00FF54ADH   LINE      CODE     ---       #200
      00FF54AFH   LINE      CODE     ---       #201
      ---         BLOCKEND  ---      ---       LVL=0

      00FF4F03H   BLOCK     CODE     ---       LVL=0
      00000320H   SYMBOL    EDATA    BYTE      DevAddress
      00000321H   SYMBOL    EDATA    BYTE      MemAddress
      REG=3       REGSYM    ---      ---       pData
      00000322H   SYMBOL    EDATA    WORD      Len
      00FF4F03H   LINE      CODE     ---       #209
      00FF4F13H   LINE      CODE     ---       #211
      00FF4F16H   LINE      CODE     ---       #212
      00FF4F1FH   LINE      CODE     ---       #213
      00FF4F24H   LINE      CODE     ---       #214
      00FF4F28H   LINE      CODE     ---       #215
      00FF4F2FH   LINE      CODE     ---       #216
      00FF4F34H   LINE      CODE     ---       #217
      00FF4F38H   LINE      CODE     ---       #218
      00FF4F3AH   LINE      CODE     ---       #220
      00FF4F42H   LINE      CODE     ---       #221
      00FF4F47H   LINE      CODE     ---       #222
      00FF4F4BH   LINE      CODE     ---       #223
      00FF4F5BH   LINE      CODE     ---       #224
      00FF4F5EH   LINE      CODE     ---       #225
      00FF4F5FH   LINE      CODE     ---       #226
      ---         BLOCKEND  ---      ---       LVL=0

      00FF4CDCH   BLOCK     CODE     ---       LVL=0
      00000325H   SYMBOL    EDATA    BYTE      DevAddress
      00000326H   SYMBOL    EDATA    BYTE      MemAddress
      REG=3       REGSYM    ---      ---       pBuffer
      00000327H   SYMBOL    EDATA    WORD      Len
      00FF4CDCH   LINE      CODE     ---       #234
      00FF4CECH   LINE      CODE     ---       #236
      00FF4CEFH   LINE      CODE     ---       #237
      00FF4CF8H   LINE      CODE     ---       #238
      00FF4CFDH   LINE      CODE     ---       #239
      00FF4D01H   LINE      CODE     ---       #240
      00FF4D08H   LINE      CODE     ---       #241
      00FF4D0DH   LINE      CODE     ---       #242
      00FF4D11H   LINE      CODE     ---       #243
      00FF4D14H   LINE      CODE     ---       #244
      00FF4D1FH   LINE      CODE     ---       #245
      00FF4D24H   LINE      CODE     ---       #246
      00FF4D28H   LINE      CODE     ---       #247
      00FF4D2AH   LINE      CODE     ---       #249
      00FF4D3FH   LINE      CODE     ---       #250
      00FF4D4FH   LINE      CODE     ---       #251
      00FF4D52H   LINE      CODE     ---       #252
      00FF4D53H   LINE      CODE     ---       #253
      ---         BLOCKEND  ---      ---       LVL=0

      00FF4FC0H   BLOCK     CODE     ---       LVL=0
      R13         REGSYM    ---      BYTE      DevAddress
      R14         REGSYM    ---      BYTE      addr
      R15         REGSYM    ---      BYTE      bitNum
      R12         REGSYM    ---      BYTE      Data
L251 LINKER/LOCATER V4.66.93.0                                                        03/12/2024  22:14:56  PAGE 76


      00FF4FCAH   BLOCK     CODE     NEAR LAB  LVL=1
      0000031DH   SYMBOL    EDATA    BYTE      b
      ---         BLOCKEND  ---      ---       LVL=1
      00FF4FC0H   LINE      CODE     ---       #262
      00FF4FCAH   LINE      CODE     ---       #263
      00FF4FCAH   LINE      CODE     ---       #265
      00FF4FD7H   LINE      CODE     ---       #267
      00FF5006H   LINE      CODE     ---       #268
      00FF5017H   LINE      CODE     ---       #269
      00FF5017H   LINE      CODE     ---       #271
      00FF5019H   LINE      CODE     ---       #272
      ---         BLOCKEND  ---      ---       LVL=0

      00FF4C5FH   BLOCK     CODE     ---       LVL=0
      0000031DH   SYMBOL    EDATA    BYTE      DevAddress
      R12         REGSYM    ---      BYTE      addr
      R13         REGSYM    ---      BYTE      bitStart
      R14         REGSYM    ---      BYTE      length
      R15         REGSYM    ---      BYTE      Data
      00FF4C6DH   BLOCK     CODE     NEAR LAB  LVL=1
      0000047BH   SYMBOL    EDATA    BYTE      b
      0000047CH   SYMBOL    EDATA    BYTE      mask
      ---         BLOCKEND  ---      ---       LVL=1
      00FF4C5FH   LINE      CODE     ---       #282
      00FF4C6DH   LINE      CODE     ---       #283
      00FF4C6DH   LINE      CODE     ---       #292
      00FF4C7AH   LINE      CODE     ---       #294
      00FF4CA0H   LINE      CODE     ---       #295
      00FF4CA9H   LINE      CODE     ---       #296
      00FF4CABH   LINE      CODE     ---       #297
      00FF4CBAH   LINE      CODE     ---       #298
      00FF4CC4H   LINE      CODE     ---       #300
      00FF4CD7H   LINE      CODE     ---       #301
      00FF4CD7H   LINE      CODE     ---       #303
      00FF4CD9H   LINE      CODE     ---       #304
      ---         BLOCKEND  ---      ---       LVL=0

      00FF54E7H   BLOCK     CODE     ---       LVL=0
      R11         REGSYM    ---      BYTE      DevAddress
      R10         REGSYM    ---      BYTE      addr
      0000031DH   SYMBOL    EDATA    BYTE      bitNum
      REG=3       REGSYM    ---      ---       Data
      00FF54EFH   BLOCK     CODE     NEAR LAB  LVL=1
      0000031EH   SYMBOL    EDATA    BYTE      b
      ---         BLOCKEND  ---      ---       LVL=1
      00FF54E7H   LINE      CODE     ---       #312
      00FF54EFH   LINE      CODE     ---       #313
      00FF54EFH   LINE      CODE     ---       #315
      00FF54FCH   LINE      CODE     ---       #317
      00FF5512H   LINE      CODE     ---       #318
      00FF5515H   LINE      CODE     ---       #319
      00FF5515H   LINE      CODE     ---       #322
      00FF5517H   LINE      CODE     ---       #323
      00FF5517H   LINE      CODE     ---       #324
      ---         BLOCKEND  ---      ---       LVL=0

      00FF4DCCH   BLOCK     CODE     ---       LVL=0
      R11         REGSYM    ---      BYTE      DevAddress
      R10         REGSYM    ---      BYTE      addr
      R14         REGSYM    ---      BYTE      bitStart
      R15         REGSYM    ---      BYTE      length
      0000031DH   SYMBOL    EDATA    ---       Data
      00FF4DD6H   BLOCK     CODE     NEAR LAB  LVL=1
      0000047DH   SYMBOL    EDATA    BYTE      b
      0000047EH   SYMBOL    EDATA    BYTE      mask
L251 LINKER/LOCATER V4.66.93.0                                                        03/12/2024  22:14:56  PAGE 77


      ---         BLOCKEND  ---      ---       LVL=1
      00FF4DCCH   LINE      CODE     ---       #333
      00FF4DD6H   LINE      CODE     ---       #334
      00FF4DD6H   LINE      CODE     ---       #341
      00FF4DE3H   LINE      CODE     ---       #344
      00FF4E05H   LINE      CODE     ---       #345
      00FF4E0DH   LINE      CODE     ---       #346
      00FF4E24H   LINE      CODE     ---       #347
      00FF4E2FH   LINE      CODE     ---       #348
      00FF4E32H   LINE      CODE     ---       #349
      00FF4E32H   LINE      CODE     ---       #351
      00FF4E34H   LINE      CODE     ---       #352
      ---         BLOCKEND  ---      ---       LVL=0

      00FF58BCH   BLOCK     CODE     ---       LVL=0
      DR4         REGSYM    ---      DWORD     i
      00FF58BCH   LINE      CODE     ---       #356
      00FF58BCH   LINE      CODE     ---       #357
      00FF58BCH   LINE      CODE     ---       #359
      00FF58BDH   LINE      CODE     ---       #360
      00FF58C1H   LINE      CODE     ---       #361
      00FF58C5H   LINE      CODE     ---       #362
      ---         BLOCKEND  ---      ---       LVL=0

      00FF57DEH   BLOCK     CODE     ---       LVL=0
      WR14        REGSYM    ---      WORD      Milliseconds
      00FF57DEH   LINE      CODE     ---       #365
      00FF57E2H   LINE      CODE     ---       #367
      00FF57EFH   LINE      CODE     ---       #369
      ---         BLOCKEND  ---      ---       LVL=0

      00FF58A6H   BLOCK     CODE     ---       LVL=0
      R7          REGSYM    ---      BYTE      reg
      R6          REGSYM    ---      BYTE      len
      REG=0       REGSYM    ---      ---       buf
      00FF58A6H   LINE      CODE     ---       #377
      00FF58AAH   LINE      CODE     ---       #379
      ---         BLOCKEND  ---      ---       LVL=0

      00FF5890H   BLOCK     CODE     ---       LVL=0
      R7          REGSYM    ---      BYTE      reg
      R6          REGSYM    ---      BYTE      len
      REG=0       REGSYM    ---      ---       buf
      00FF5890H   LINE      CODE     ---       #388
      00FF5894H   LINE      CODE     ---       #390
      ---         BLOCKEND  ---      ---       LVL=0

      00FF57C9H   BLOCK     CODE     ---       LVL=0
      R10         REGSYM    ---      BYTE      reg
      0000031FH   SYMBOL    EDATA    BYTE      Data
      00FF57C9H   LINE      CODE     ---       #398
      00FF57CFH   LINE      CODE     ---       #400
      ---         BLOCKEND  ---      ---       LVL=0
      R10         REGSYM    ---      BYTE      reg

      00FF5883H   BLOCK     CODE     ---       LVL=0
      R7          REGSYM    ---      BYTE      addr
      R6          REGSYM    ---      BYTE      bitNum
      R10         REGSYM    ---      BYTE      Data
      00FF5883H   LINE      CODE     ---       #414
      00FF5889H   LINE      CODE     ---       #416
      ---         BLOCKEND  ---      ---       LVL=0

      00FF5876H   BLOCK     CODE     ---       LVL=0
      R7          REGSYM    ---      BYTE      addr
L251 LINKER/LOCATER V4.66.93.0                                                        03/12/2024  22:14:56  PAGE 78


      R6          REGSYM    ---      BYTE      bitStart
      R5          REGSYM    ---      BYTE      length
      R4          REGSYM    ---      BYTE      Data
      00FF5876H   LINE      CODE     ---       #420
      00FF587EH   LINE      CODE     ---       #422
      ---         BLOCKEND  ---      ---       LVL=0

      00FF58C6H   BLOCK     CODE     ---       LVL=0
      R7          REGSYM    ---      BYTE      addr
      R6          REGSYM    ---      BYTE      bitNum
      REG=0       REGSYM    ---      ---       Data
      00FF58C6H   LINE      CODE     ---       #426
      00FF58CAH   LINE      CODE     ---       #428
      ---         BLOCKEND  ---      ---       LVL=0

      00FF0046H   BLOCK     CODE     ---       LVL=0
      R7          REGSYM    ---      BYTE      addr
      R6          REGSYM    ---      BYTE      bitStart
      R10         REGSYM    ---      BYTE      length
      REG=0       REGSYM    ---      ---       Data
      00FF0046H   LINE      CODE     ---       #432
      00FF004CH   LINE      CODE     ---       #434
      ---         BLOCKEND  ---      ---       LVL=0
      R11         REGSYM    ---      BYTE      res
      R10         REGSYM    ---      BYTE      fsr
      R10         REGSYM    ---      BYTE      fsr
      WR6         REGSYM    ---      WORD      lpf
      R10         REGSYM    ---      BYTE      Data
      WR14        REGSYM    ---      WORD      rate
      0000047FH   SYMBOL    EDATA    BYTE      Data
      WR4         REGSYM    ---      INT       raw
      DR4         REGSYM    ---      FLOAT     temp

      00FF501CH   BLOCK     CODE     ---       LVL=0
      00000317H   SYMBOL    EDATA    ---       gx
      REG=3       REGSYM    ---      ---       gy
      0000031BH   SYMBOL    EDATA    ---       gz
      00FF5024H   BLOCK     CODE     NEAR LAB  LVL=1
      0000031FH   SYMBOL    EDATA    ---       buf
      R11         REGSYM    ---      BYTE      res
      ---         BLOCKEND  ---      ---       LVL=1
      00FF501CH   LINE      CODE     ---       #543
      00FF5024H   LINE      CODE     ---       #544
      00FF5024H   LINE      CODE     ---       #546
      00FF5030H   LINE      CODE     ---       #547
      00FF5032H   LINE      CODE     ---       #549
      00FF5049H   LINE      CODE     ---       #550
      00FF505CH   LINE      CODE     ---       #551
      00FF5071H   LINE      CODE     ---       #552
      00FF5071H   LINE      CODE     ---       #553
      00FF5071H   LINE      CODE     ---       #554
      ---         BLOCKEND  ---      ---       LVL=0
      REG=3       REGSYM    ---      ---       ay
      R11         REGSYM    ---      BYTE      res

      00FF4B5EH   BLOCK     CODE     ---       LVL=0
      00FF4B60H   BLOCK     CODE     NEAR LAB  LVL=1
      WR14        REGSYM    ---      WORD      datanum
      0000031DH   SYMBOL    EDATA    BYTE      ye
      0000031EH   SYMBOL    EDATA    BYTE      i
      R12         REGSYM    ---      BYTE      bank
      R13         REGSYM    ---      BYTE      addr
      ---         BLOCKEND  ---      ---       LVL=1
      00FF4B5EH   LINE      CODE     ---       #790
      00FF4B60H   LINE      CODE     ---       #791
L251 LINKER/LOCATER V4.66.93.0                                                        03/12/2024  22:14:56  PAGE 79


      00FF4B60H   LINE      CODE     ---       #792
      00FF4B62H   LINE      CODE     ---       #794
      00FF4B64H   LINE      CODE     ---       #795
      00FF4B66H   LINE      CODE     ---       #797
      00FF4B66H   LINE      CODE     ---       #799
      00FF4B6BH   LINE      CODE     ---       #800
      00FF4B6FH   LINE      CODE     ---       #802
      00FF4B75H   LINE      CODE     ---       #803
      00FF4B78H   LINE      CODE     ---       #805
      00FF4B7FH   LINE      CODE     ---       #806
      00FF4B86H   LINE      CODE     ---       #807
      00FF4B98H   LINE      CODE     ---       #808
      00FF4B9CH   LINE      CODE     ---       #809
      00FF4B9FH   LINE      CODE     ---       #810
      00FF4BB2H   LINE      CODE     ---       #811
      00FF4BB9H   LINE      CODE     ---       #812
      00FF4BC1H   LINE      CODE     ---       #813
      00FF4BC8H   LINE      CODE     ---       #814
      00FF4BDAH   LINE      CODE     ---       #815
      00FF4BDAH   LINE      CODE     ---       #816
      00FF4BDCH   LINE      CODE     ---       #817
      ---         BLOCKEND  ---      ---       LVL=0

      00FF475BH   BLOCK     CODE     ---       LVL=0
      00FF475DH   BLOCK     CODE     NEAR LAB  LVL=1
      R14         REGSYM    ---      BYTE      line
      0000031DH   SYMBOL    EDATA    BYTE      bank
      R15         REGSYM    ---      BYTE      datacounts
      R13         REGSYM    ---      BYTE      bytes2write
      0000031EH   SYMBOL    EDATA    BYTE      offset
      00000480H   SYMBOL    EDATA    BYTE      writingcounts
      R12         REGSYM    ---      BYTE      special
      ---         BLOCKEND  ---      ---       LVL=1
      00FF475BH   LINE      CODE     ---       #819
      00FF475DH   LINE      CODE     ---       #820
      00FF475DH   LINE      CODE     ---       #823
      00FF475FH   LINE      CODE     ---       #829
      00FF4762H   LINE      CODE     ---       #831
      00FF4778H   LINE      CODE     ---       #832
      00FF478EH   LINE      CODE     ---       #833
      00FF47A2H   LINE      CODE     ---       #834
      00FF47ABH   LINE      CODE     ---       #835
      00FF47B4H   LINE      CODE     ---       #836
      00FF47C5H   LINE      CODE     ---       #837
      00FF47C9H   LINE      CODE     ---       #838
      00FF47CBH   LINE      CODE     ---       #839
      00FF47CFH   LINE      CODE     ---       #841
      00FF47E3H   LINE      CODE     ---       #842
      00FF47E8H   LINE      CODE     ---       #847
      00FF47F0H   LINE      CODE     ---       #848
      00FF47F2H   LINE      CODE     ---       #850
      00FF47F5H   LINE      CODE     ---       #851
      00FF47FCH   LINE      CODE     ---       #853
      00FF47FEH   LINE      CODE     ---       #854
      ---         BLOCKEND  ---      ---       LVL=0

      00FF49CAH   BLOCK     CODE     ---       LVL=0
      0000031DH   SYMBOL    EDATA    BYTE      datacounts
      00FF49D0H   BLOCK     CODE     NEAR LAB  LVL=1
      00000481H   SYMBOL    EDATA    BYTE      writingcounts
      R7          REGSYM    ---      BYTE      bank
      R14         REGSYM    ---      BYTE      offset
      R15         REGSYM    ---      BYTE      bytes2write
      ---         BLOCKEND  ---      ---       LVL=1
      00FF49CAH   LINE      CODE     ---       #857
L251 LINKER/LOCATER V4.66.93.0                                                        03/12/2024  22:14:56  PAGE 80


      00FF49D0H   LINE      CODE     ---       #858
      00FF49D0H   LINE      CODE     ---       #862
      00FF49EBH   LINE      CODE     ---       #863
      00FF4A06H   LINE      CODE     ---       #864
      00FF4A21H   LINE      CODE     ---       #865
      00FF4A26H   LINE      CODE     ---       #866
      00FF4A2DH   LINE      CODE     ---       #867
      00FF4A42H   LINE      CODE     ---       #868
      00FF4A46H   LINE      CODE     ---       #869
      00FF4A50H   LINE      CODE     ---       #870
      00FF4A52H   LINE      CODE     ---       #871
      ---         BLOCKEND  ---      ---       LVL=0

      00FF0026H   BLOCK     CODE     ---       LVL=0
      0000031DH   SYMBOL    EDATA    ---       i
      00FF0026H   LINE      CODE     ---       #875
      00FF0026H   LINE      CODE     ---       #876
      00FF0026H   LINE      CODE     ---       #878
      00FF0032H   LINE      CODE     ---       #879
      00FF0042H   LINE      CODE     ---       #880
      ---         BLOCKEND  ---      ---       LVL=0

      00FF5859H   BLOCK     CODE     ---       LVL=0
      REG=7       REGSYM    ---      ---       Data
      00FF5859H   LINE      CODE     ---       #886
      00FF5859H   LINE      CODE     ---       #888
      00FF5867H   LINE      CODE     ---       #889
      ---         BLOCKEND  ---      ---       LVL=0

      00FF374DH   BLOCK     CODE     ---       LVL=0
      00000317H   SYMBOL    EDATA    BYTE      hwRevision
      00000318H   SYMBOL    EDATA    BYTE      otpValid
      00000319H   SYMBOL    EDATA    BYTE      mpuIntStatus
      0000031AH   SYMBOL    EDATA    BYTE      xgOffsetTC
      0000031BH   SYMBOL    EDATA    BYTE      ygOffsetTC
      0000031CH   SYMBOL    EDATA    BYTE      zgOffsetTC
      00000482H   SYMBOL    EDATA    WORD      fifoCount
      00FF374DH   LINE      CODE     ---       #892
      00FF374DH   LINE      CODE     ---       #893
      00FF374DH   LINE      CODE     ---       #897
      00FF3758H   LINE      CODE     ---       #898
      00FF375FH   LINE      CODE     ---       #899
      00FF3769H   LINE      CODE     ---       #900
      00FF3771H   LINE      CODE     ---       #901
      00FF3779H   LINE      CODE     ---       #902
      00FF3785H   LINE      CODE     ---       #903
      00FF378CH   LINE      CODE     ---       #904
      00FF3796H   LINE      CODE     ---       #905
      00FF37A4H   LINE      CODE     ---       #906
      00FF37B3H   LINE      CODE     ---       #907
      00FF37C2H   LINE      CODE     ---       #911
      00FF37CDH   LINE      CODE     ---       #912
      00FF37D4H   LINE      CODE     ---       #913
      00FF37D9H   LINE      CODE     ---       #914
      00FF37DBH   LINE      CODE     ---       #915
      00FF37E0H   LINE      CODE     ---       #916
      00FF37E2H   LINE      CODE     ---       #917
      00FF37F0H   LINE      CODE     ---       #918
      00FF37F8H   LINE      CODE     ---       #919
      00FF3800H   LINE      CODE     ---       #920
      00FF380EH   LINE      CODE     ---       #921
      00FF381CH   LINE      CODE     ---       #922
      00FF382AH   LINE      CODE     ---       #923
      00FF3832H   LINE      CODE     ---       #924
      00FF3839H   LINE      CODE     ---       #925
L251 LINKER/LOCATER V4.66.93.0                                                        03/12/2024  22:14:56  PAGE 81


      00FF3841H   LINE      CODE     ---       #926
      00FF384DH   LINE      CODE     ---       #927
      00FF385AH   LINE      CODE     ---       #928
      00FF3867H   LINE      CODE     ---       #929
      00FF386DH   LINE      CODE     ---       #930
      00FF386FH   LINE      CODE     ---       #931
      00FF3876H   LINE      CODE     ---       #932
      00FF3878H   LINE      CODE     ---       #933
      00FF3883H   LINE      CODE     ---       #934
      00FF388AH   LINE      CODE     ---       #936
      00FF3895H   LINE      CODE     ---       #938
      00FF389DH   LINE      CODE     ---       #939
      00FF38A5H   LINE      CODE     ---       #940
      00FF38ADH   LINE      CODE     ---       #941
      00FF38B4H   LINE      CODE     ---       #942
      00FF38BFH   LINE      CODE     ---       #943
      00FF38CAH   LINE      CODE     ---       #944
      00FF38D5H   LINE      CODE     ---       #945
      00FF38E0H   LINE      CODE     ---       #946
      00FF38E7H   LINE      CODE     ---       #947
      00FF38E9H   LINE      CODE     ---       #948
      00FF38F0H   LINE      CODE     ---       #949
      00FF38F2H   LINE      CODE     ---       #950
      00FF38F9H   LINE      CODE     ---       #951
      00FF38FBH   LINE      CODE     ---       #952
      00FF3908H   LINE      CODE     ---       #953
      00FF3913H   LINE      CODE     ---       #955
      00FF391FH   LINE      CODE     ---       #956
      00FF3926H   LINE      CODE     ---       #957
      00FF3928H   LINE      CODE     ---       #958
      00FF3935H   LINE      CODE     ---       #959
      00FF3940H   LINE      CODE     ---       #961
      00FF394CH   LINE      CODE     ---       #962
      00FF3953H   LINE      CODE     ---       #963
      00FF3955H   LINE      CODE     ---       #964
      00FF395FH   LINE      CODE     ---       #965
      00FF396AH   LINE      CODE     ---       #966
      00FF3976H   LINE      CODE     ---       #968
      00FF3978H   LINE      CODE     ---       #969
      ---         BLOCKEND  ---      ---       LVL=0

      00FF554DH   BLOCK     CODE     ---       LVL=0
      00FF554DH   LINE      CODE     ---       #972
      00FF554DH   LINE      CODE     ---       #974
      00FF555BH   LINE      CODE     ---       #975
      00FF5568H   LINE      CODE     ---       #976
      00FF5575H   LINE      CODE     ---       #977
      ---         BLOCKEND  ---      ---       LVL=0

      00FF570FH   BLOCK     CODE     ---       LVL=0
      00000317H   SYMBOL    EDATA    BYTE      b
      00FF570FH   LINE      CODE     ---       #981
      00FF570FH   LINE      CODE     ---       #982
      00FF570FH   LINE      CODE     ---       #983
      00FF5714H   LINE      CODE     ---       #984
      00FF5723H   LINE      CODE     ---       #985
      00FF572EH   LINE      CODE     ---       #987
      ---         BLOCKEND  ---      ---       LVL=0

      00FF56ECH   BLOCK     CODE     ---       LVL=0
      00FF56ECH   LINE      CODE     ---       #989
      00FF56ECH   LINE      CODE     ---       #991
      00FF56EFH   LINE      CODE     ---       #992
      00FF56F4H   LINE      CODE     ---       #993
      00FF56F9H   LINE      CODE     ---       #994
L251 LINKER/LOCATER V4.66.93.0                                                        03/12/2024  22:14:56  PAGE 82


      00FF5704H   LINE      CODE     ---       #995
      ---         BLOCKEND  ---      ---       LVL=0

      00FF34B3H   BLOCK     CODE     ---       LVL=0
      00FF34B5H   BLOCK     CODE     NEAR LAB  LVL=1
      00000484H   SYMBOL    EDATA    BYTE      zd
      00000485H   SYMBOL    EDATA    WORD      i
      ---         BLOCKEND  ---      ---       LVL=1
      00FF34B3H   LINE      CODE     ---       #999
      00FF34B5H   LINE      CODE     ---       #1000
      00FF34B5H   LINE      CODE     ---       #1004
      00FF34BCH   LINE      CODE     ---       #1005
      00FF34C8H   LINE      CODE     ---       #1006
      00FF34DBH   LINE      CODE     ---       #1008
      00FF34E6H   LINE      CODE     ---       #1009
      00FF34E9H   LINE      CODE     ---       #1010
      00FF34F1H   LINE      CODE     ---       #1012
      00FF3504H   LINE      CODE     ---       #1014
      00FF350DH   LINE      CODE     ---       #1016
      00FF352BH   LINE      CODE     ---       #1017
      00FF3543H   LINE      CODE     ---       #1018
      00FF355BH   LINE      CODE     ---       #1019
      00FF3573H   LINE      CODE     ---       #1020
      00FF3573H   LINE      CODE     ---       #1025
      00FF35BBH   LINE      CODE     ---       #1026
      00FF3632H   LINE      CODE     ---       #1027
      00FF36B6H   LINE      CODE     ---       #1029
      00FF36D1H   LINE      CODE     ---       #1030
      00FF36E7H   LINE      CODE     ---       #1032
      00FF36F7H   LINE      CODE     ---       #1033
      00FF3716H   LINE      CODE     ---       #1034
      00FF3735H   LINE      CODE     ---       #1036
      00FF373DH   LINE      CODE     ---       #1038
      00FF374AH   LINE      CODE     ---       #1040
      ---         BLOCKEND  ---      ---       LVL=0

      ---         MODULE    ---      ---       TOF
      00000674H   PUBLIC    EDATA    WORD      vl53l0x_distance_mm
      00000676H   PUBLIC    EDATA    BYTE      vl53l0x_finsh_flag
      000000D0H   SFRSYM    DATA     BYTE      PSW
      000000B7H   SFRSYM    DATA     BYTE      IPH
      000000C0H.7 SFRSYM    DATA     BIT       P47
      000000B0H.3 SFRSYM    DATA     BIT       P33
      00000088H   SFRSYM    DATA     BYTE      TCON
      000000B0H.2 SFRSYM    DATA     BIT       P32
      00000098H   SFRSYM    DATA     BYTE      SCON
      000000BCH   SFRSYM    DATA     BYTE      ADC_CONTR
      000000DEH   SFRSYM    DATA     BYTE      ADCCFG
      000000B8H   SFRSYM    DATA     BYTE      IP
      000000A8H   SFRSYM    DATA     BYTE      IE
      000000F8H   SFRSYM    DATA     BYTE      P7
      000000E8H   SFRSYM    DATA     BYTE      P6
      000000C8H   SFRSYM    DATA     BYTE      P5
      000000C0H   SFRSYM    DATA     BYTE      P4
      000000B0H   SFRSYM    DATA     BYTE      P3
      000000A0H   SFRSYM    DATA     BYTE      P2
      00000090H   SFRSYM    DATA     BYTE      P1
      00000080H   SFRSYM    DATA     BYTE      P0
      WR6         REGSYM    ---      WORD      j
      R15         REGSYM    ---      BYTE      ack_dat
      R15         REGSYM    ---      BYTE      c
      R14         REGSYM    ---      BYTE      i
      R15         REGSYM    ---      BYTE      ack_x
      R13         REGSYM    ---      BYTE      i
      R14         REGSYM    ---      BYTE      c
L251 LINKER/LOCATER V4.66.93.0                                                        03/12/2024  22:14:56  PAGE 83


      DR12        REGSYM    ---      DWORD     len
      R13         REGSYM    ---      BYTE      dev_add
      R14         REGSYM    ---      BYTE      reg
      R15         REGSYM    ---      BYTE      dat
      R15         REGSYM    ---      BYTE      dev_add
      R14         REGSYM    ---      BYTE      reg
      R15         REGSYM    ---      BYTE      dat
      REG=3       REGSYM    ---      ---       dat_add
      REG=3       REGSYM    ---      ---       dat_add
      REG=3       REGSYM    ---      ---       type_is_aperture
      WR30        REGSYM    ---      WORD      timeout_period_mclks
      R5          REGSYM    ---      BYTE      vcsel_period_pclks
      DR24        REGSYM    ---      DWORD     macro_period_ns
      DR28        REGSYM    ---      DWORD     timeout_period_us
      R3          REGSYM    ---      BYTE      vcsel_period_pclks
      DR8         REGSYM    ---      DWORD     macro_period_ns
      WR4         REGSYM    ---      WORD      reg_val
      WR2         REGSYM    ---      WORD      timeout_mclks
      DR8         REGSYM    ---      DWORD     ls_byte
      WR4         REGSYM    ---      WORD      ms_byte
      WR6         REGSYM    ---      WORD      return_data
      REG=3       REGSYM    ---      ---       enables
      WR6         REGSYM    ---      INT       type
      REG=3       REGSYM    ---      ---       timeouts
      WR6         REGSYM    ---      WORD      reg16_buffer
      R10         REGSYM    ---      BYTE      vhv_init_byte
      R15         REGSYM    ---      BYTE      return_state
      DR12        REGSYM    ---      DWORD     budget_us
      WR6         REGSYM    ---      WORD      dat
      DR4         REGSYM    ---      DWORD     final_range_timeout_us
      WR6         REGSYM    ---      WORD      final_range_timeout_mclks
      DR12        REGSYM    ---      DWORD     budget_us
      DR4         REGSYM    ---      FLOAT     limit_mcps
      WR6         REGSYM    ---      WORD      limit_mcps_16bit
      R15         REGSYM    ---      BYTE      return_state
      R14         REGSYM    ---      BYTE      reg_data_buffer
      R13         REGSYM    ---      BYTE      i

      ---         MODULE    ---      ---       Element
      00FF5408H   PUBLIC    CODE     ---       Elem_Up_Down
      00FF3DD3H   PUBLIC    CODE     ---       Elem_Circle_L
      00FF3EDFH   PUBLIC    CODE     ---       Elem_Circle_R
      00000612H   PUBLIC    EDATA    FLOAT     Sum_Angle
      00000616H   PUBLIC    EDATA    CHAR      Up_Down_Flag
      00000617H   PUBLIC    EDATA    CHAR      circle_flag_L
      00000618H   PUBLIC    EDATA    CHAR      circle_Force_Flag
      00000619H   PUBLIC    EDATA    CHAR      circle_flag_R
      0000061AH   PUBLIC    EDATA    CHAR      delay_10ms
      0000061BH   PUBLIC    EDATA    CHAR      Barrier_Flag1
      0000061CH   PUBLIC    EDATA    CHAR      Barrier_Flag2
      0000061DH   PUBLIC    EDATA    CHAR      Barrier_Flag3
      0000061EH   PUBLIC    EDATA    CHAR      Barrier_Flag4
      0000061FH   PUBLIC    EDATA    CHAR      Barrier_Executed
      00000620H   PUBLIC    EDATA    CHAR      circle_In_Flag
      00000621H   PUBLIC    EDATA    CHAR      circle_Out_Flag
      00000622H   PUBLIC    EDATA    CHAR      Avoid_ON
      000000D0H   SFRSYM    DATA     BYTE      PSW
      000000B7H   SFRSYM    DATA     BYTE      IPH
      00000088H   SFRSYM    DATA     BYTE      TCON
      00000098H   SFRSYM    DATA     BYTE      SCON
      000000BCH   SFRSYM    DATA     BYTE      ADC_CONTR
      000000DEH   SFRSYM    DATA     BYTE      ADCCFG
      000000B8H   SFRSYM    DATA     BYTE      IP
      000000A8H   SFRSYM    DATA     BYTE      IE
      000000F8H   SFRSYM    DATA     BYTE      P7
L251 LINKER/LOCATER V4.66.93.0                                                        03/12/2024  22:14:56  PAGE 84


      000000E8H   SFRSYM    DATA     BYTE      P6
      000000C8H   SFRSYM    DATA     BYTE      P5
      000000C0H   SFRSYM    DATA     BYTE      P4
      000000B0H   SFRSYM    DATA     BYTE      P3
      000000A0H   SFRSYM    DATA     BYTE      P2
      00000090H   SFRSYM    DATA     BYTE      P1
      00000080H   SFRSYM    DATA     BYTE      P0

      00FF5408H   BLOCK     CODE     ---       LVL=0
      DR28        REGSYM    ---      FLOAT     Angle
      DR24        REGSYM    ---      FLOAT     Gyro
      00FF5408H   LINE      CODE     ---       #36
      00FF540CH   LINE      CODE     ---       #39
      00FF5424H   LINE      CODE     ---       #40
      00FF542CH   LINE      CODE     ---       #41
      00FF5439H   LINE      CODE     ---       #42
      00FF5443H   LINE      CODE     ---       #43
      ---         BLOCKEND  ---      ---       LVL=0
      DR28        REGSYM    ---      FLOAT     Gyro_Z

      00FF3EDFH   BLOCK     CODE     ---       LVL=0
      DR24        REGSYM    ---      FLOAT     Speed
      DR28        REGSYM    ---      FLOAT     Gyro_Z
      00FF3EE3H   BLOCK     CODE     NEAR LAB  LVL=1
      00000623H   SYMBOL    EDATA    FLOAT     Sum_Dis1
      00000627H   SYMBOL    EDATA    FLOAT     Sum_Dis2
      0000062BH   SYMBOL    EDATA    FLOAT     Sum_Angle_C1
      0000062FH   SYMBOL    EDATA    FLOAT     Sum_Angle_C2
      ---         BLOCKEND  ---      ---       LVL=1
      00FF3EDFH   LINE      CODE     ---       #127
      00FF3EE3H   LINE      CODE     ---       #128
      00FF3EE3H   LINE      CODE     ---       #133
      00FF3EEFH   LINE      CODE     ---       #135
      00FF3F05H   LINE      CODE     ---       #136
      00FF3F12H   LINE      CODE     ---       #137
      00FF3F21H   LINE      CODE     ---       #139
      00FF3F32H   LINE      CODE     ---       #141
      00FF3F3EH   LINE      CODE     ---       #142
      00FF3F54H   LINE      CODE     ---       #143
      00FF3F56H   LINE      CODE     ---       #146
      00FF3F5CH   LINE      CODE     ---       #147
      00FF3F5CH   LINE      CODE     ---       #149
      00FF3F5CH   LINE      CODE     ---       #150
      00FF3F63H   LINE      CODE     ---       #152
      00FF3F74H   LINE      CODE     ---       #153
      00FF3F8CH   LINE      CODE     ---       #155
      00FF3F92H   LINE      CODE     ---       #156
      00FF3F92H   LINE      CODE     ---       #157
      00FF3F99H   LINE      CODE     ---       #159
      00FF3FA6H   LINE      CODE     ---       #160
      00FF3FB7H   LINE      CODE     ---       #161
      00FF3FCBH   LINE      CODE     ---       #164
      00FF3FD0H   LINE      CODE     ---       #165
      00FF3FD6H   LINE      CODE     ---       #166
      00FF3FDAH   LINE      CODE     ---       #167
      00FF3FDEH   LINE      CODE     ---       #168
      00FF3FE2H   LINE      CODE     ---       #169
      00FF3FE6H   LINE      CODE     ---       #170
      00FF3FEAH   LINE      CODE     ---       #178
      00FF3FEAH   LINE      CODE     ---       #179
      00FF3FEAH   LINE      CODE     ---       #182
      ---         BLOCKEND  ---      ---       LVL=0

      00FF3DD3H   BLOCK     CODE     ---       LVL=0
      DR24        REGSYM    ---      FLOAT     Speed
L251 LINKER/LOCATER V4.66.93.0                                                        03/12/2024  22:14:56  PAGE 85


      DR28        REGSYM    ---      FLOAT     Gyro_Z
      00FF3DD7H   BLOCK     CODE     NEAR LAB  LVL=1
      00000633H   SYMBOL    EDATA    FLOAT     Sum_Dis1
      00000637H   SYMBOL    EDATA    FLOAT     Sum_Dis2
      0000063BH   SYMBOL    EDATA    FLOAT     Sum_Angle_C1
      0000063FH   SYMBOL    EDATA    FLOAT     Sum_Angle_C2
      ---         BLOCKEND  ---      ---       LVL=1
      00FF3DD3H   LINE      CODE     ---       #186
      00FF3DD7H   LINE      CODE     ---       #187
      00FF3DD7H   LINE      CODE     ---       #192
      00FF3DE3H   LINE      CODE     ---       #193
      00FF3DF9H   LINE      CODE     ---       #194
      00FF3E06H   LINE      CODE     ---       #195
      00FF3E15H   LINE      CODE     ---       #197
      00FF3E26H   LINE      CODE     ---       #199
      00FF3E32H   LINE      CODE     ---       #200
      00FF3E48H   LINE      CODE     ---       #201
      00FF3E4AH   LINE      CODE     ---       #204
      00FF3E50H   LINE      CODE     ---       #205
      00FF3E50H   LINE      CODE     ---       #207
      00FF3E50H   LINE      CODE     ---       #208
      00FF3E57H   LINE      CODE     ---       #210
      00FF3E68H   LINE      CODE     ---       #211
      00FF3E80H   LINE      CODE     ---       #213
      00FF3E86H   LINE      CODE     ---       #214
      00FF3E86H   LINE      CODE     ---       #215
      00FF3E8DH   LINE      CODE     ---       #217
      00FF3E9AH   LINE      CODE     ---       #218
      00FF3EABH   LINE      CODE     ---       #220
      00FF3EBEH   LINE      CODE     ---       #221
      00FF3EBFH   LINE      CODE     ---       #224
      00FF3EC4H   LINE      CODE     ---       #225
      00FF3ECAH   LINE      CODE     ---       #226
      00FF3ECEH   LINE      CODE     ---       #227
      00FF3ED2H   LINE      CODE     ---       #228
      00FF3ED6H   LINE      CODE     ---       #229
      00FF3EDAH   LINE      CODE     ---       #230
      00FF3EDEH   LINE      CODE     ---       #231
      00FF3EDEH   LINE      CODE     ---       #232
      00FF3EDEH   LINE      CODE     ---       #235
      ---         BLOCKEND  ---      ---       LVL=0

      ---         MODULE    ---      ---       Buzzer
      00FF5829H   PUBLIC    CODE     ---       Buzzer_Init
      0000067EH   PUBLIC    EDATA    WORD      x10_ms
      000000D0H   SFRSYM    DATA     BYTE      PSW
      000000B7H   SFRSYM    DATA     BYTE      IPH
      00000088H   SFRSYM    DATA     BYTE      TCON
      00000098H   SFRSYM    DATA     BYTE      SCON
      000000BCH   SFRSYM    DATA     BYTE      ADC_CONTR
      000000DEH   SFRSYM    DATA     BYTE      ADCCFG
      000000B8H   SFRSYM    DATA     BYTE      IP
      000000A8H   SFRSYM    DATA     BYTE      IE
      000000F8H   SFRSYM    DATA     BYTE      P7
      000000E8H   SFRSYM    DATA     BYTE      P6
      000000C8H   SFRSYM    DATA     BYTE      P5
      000000C0H   SFRSYM    DATA     BYTE      P4
      000000B0H   SFRSYM    DATA     BYTE      P3
      000000A0H   SFRSYM    DATA     BYTE      P2
      00000090H   SFRSYM    DATA     BYTE      P1
      00000080H   SFRSYM    DATA     BYTE      P0

      00FF5829H   BLOCK     CODE     ---       LVL=0
      00FF5829H   LINE      CODE     ---       #12
      00FF5829H   LINE      CODE     ---       #14
L251 LINKER/LOCATER V4.66.93.0                                                        03/12/2024  22:14:56  PAGE 86


      ---         BLOCKEND  ---      ---       LVL=0

      ---         MODULE    ---      ---       Key
      00FF56A5H   PUBLIC    CODE     ---       Key_Init
      00FF4D56H   PUBLIC    CODE     ---       GetKey_Value
      00000677H   PUBLIC    EDATA    CHAR      Mode
      00000678H   PUBLIC    EDATA    CHAR      clear_Num
      000000D0H   SFRSYM    DATA     BYTE      PSW
      000000B7H   SFRSYM    DATA     BYTE      IPH
      000000F8H.3 SFRSYM    DATA     BIT       P73
      000000F8H.2 SFRSYM    DATA     BIT       P72
      000000F8H.1 SFRSYM    DATA     BIT       P71
      000000F8H.0 SFRSYM    DATA     BIT       P70
      00000088H   SFRSYM    DATA     BYTE      TCON
      00000098H   SFRSYM    DATA     BYTE      SCON
      000000BCH   SFRSYM    DATA     BYTE      ADC_CONTR
      000000DEH   SFRSYM    DATA     BYTE      ADCCFG
      000000B8H   SFRSYM    DATA     BYTE      IP
      000000A8H   SFRSYM    DATA     BYTE      IE
      000000F8H   SFRSYM    DATA     BYTE      P7
      000000E8H   SFRSYM    DATA     BYTE      P6
      000000C8H   SFRSYM    DATA     BYTE      P5
      000000C0H   SFRSYM    DATA     BYTE      P4
      000000B0H   SFRSYM    DATA     BYTE      P3
      000000A0H   SFRSYM    DATA     BYTE      P2
      00000090H   SFRSYM    DATA     BYTE      P1
      00000080H   SFRSYM    DATA     BYTE      P0

      00FF56A5H   BLOCK     CODE     ---       LVL=0
      00FF56A5H   LINE      CODE     ---       #12
      00FF56A5H   LINE      CODE     ---       #15
      00FF56AEH   LINE      CODE     ---       #16
      00FF56B7H   LINE      CODE     ---       #17
      00FF56C0H   LINE      CODE     ---       #18
      ---         BLOCKEND  ---      ---       LVL=0

      00FF4D56H   BLOCK     CODE     ---       LVL=0
      R7          REGSYM    ---      BYTE      mode
      00FF4D58H   BLOCK     CODE     NEAR LAB  LVL=1
      00000679H   SYMBOL    EDATA    BYTE      key_up
      ---         BLOCKEND  ---      ---       LVL=1
      00FF4D56H   LINE      CODE     ---       #30
      00FF4D58H   LINE      CODE     ---       #31
      00FF4D58H   LINE      CODE     ---       #33
      00FF4D5CH   LINE      CODE     ---       #34
      00FF4D62H   LINE      CODE     ---       #35
      00FF4D80H   LINE      CODE     ---       #38
      00FF4D85H   LINE      CODE     ---       #39
      00FF4D8DH   LINE      CODE     ---       #40
      00FF4D96H   LINE      CODE     ---       #41
      00FF4D9FH   LINE      CODE     ---       #42
      00FF4DA8H   LINE      CODE     ---       #43
      00FF4DA8H   LINE      CODE     ---       #44
      00FF4DC4H   LINE      CODE     ---       #45
      00FF4DCAH   LINE      CODE     ---       #46
      00FF4DCBH   LINE      CODE     ---       #47
      ---         BLOCKEND  ---      ---       LVL=0

      ---         MODULE    ---      ---       UI
      00FF5907H   PUBLIC    CODE     ---       ui_show
      00FF530FH   PUBLIC    CODE     ---       oled_all_static_state
      00FF40E3H   PUBLIC    CODE     ---       value_name_init
      00FF52CFH   PUBLIC    CODE     ---       oled_show
      00FF4A55H   PUBLIC    CODE     ---       refresh_value
      00FF58CFH   PUBLIC    CODE     ---       ui_init
L251 LINKER/LOCATER V4.66.93.0                                                        03/12/2024  22:14:56  PAGE 87


      00000008H   PUBLIC    EDATA    BYTE      page
      00000009H   PUBLIC    EDATA    ---       value
      00000079H   PUBLIC    EDATA    ---       value_name
      000000D0H   SFRSYM    DATA     BYTE      PSW
      000000B7H   SFRSYM    DATA     BYTE      IPH
      00000088H   SFRSYM    DATA     BYTE      TCON
      00000098H   SFRSYM    DATA     BYTE      SCON
      000000BCH   SFRSYM    DATA     BYTE      ADC_CONTR
      000000DEH   SFRSYM    DATA     BYTE      ADCCFG
      000000B8H   SFRSYM    DATA     BYTE      IP
      000000A8H   SFRSYM    DATA     BYTE      IE
      000000F8H   SFRSYM    DATA     BYTE      P7
      000000E8H   SFRSYM    DATA     BYTE      P6
      000000C8H   SFRSYM    DATA     BYTE      P5
      000000C0H   SFRSYM    DATA     BYTE      P4
      000000B0H   SFRSYM    DATA     BYTE      P3
      000000A0H   SFRSYM    DATA     BYTE      P2
      00000090H   SFRSYM    DATA     BYTE      P1
      00000080H   SFRSYM    DATA     BYTE      P0

      00FF40E3H   BLOCK     CODE     ---       LVL=0
      00FF40E3H   LINE      CODE     ---       #25
      00FF40E3H   LINE      CODE     ---       #28
      00FF40F2H   LINE      CODE     ---       #29
      00FF4101H   LINE      CODE     ---       #30
      00FF4110H   LINE      CODE     ---       #31
      00FF411FH   LINE      CODE     ---       #35
      00FF412EH   LINE      CODE     ---       #36
      00FF413DH   LINE      CODE     ---       #37
      00FF414CH   LINE      CODE     ---       #38
      00FF415BH   LINE      CODE     ---       #42
      00FF416AH   LINE      CODE     ---       #43
      00FF4179H   LINE      CODE     ---       #44
      00FF4188H   LINE      CODE     ---       #45
      00FF4197H   LINE      CODE     ---       #48
      00FF41A6H   LINE      CODE     ---       #49
      00FF41B5H   LINE      CODE     ---       #50
      00FF41C4H   LINE      CODE     ---       #51
      ---         BLOCKEND  ---      ---       LVL=0

      00FF4A55H   BLOCK     CODE     ---       LVL=0
      00FF4A55H   LINE      CODE     ---       #55
      00FF4A55H   LINE      CODE     ---       #58
      00FF4A5DH   LINE      CODE     ---       #59
      00FF4A65H   LINE      CODE     ---       #60
      00FF4A6DH   LINE      CODE     ---       #61
      00FF4A75H   LINE      CODE     ---       #64
      00FF4A7DH   LINE      CODE     ---       #65
      00FF4A85H   LINE      CODE     ---       #66
      00FF4A8DH   LINE      CODE     ---       #67
      00FF4A95H   LINE      CODE     ---       #70
      00FF4A9DH   LINE      CODE     ---       #71
      00FF4AA5H   LINE      CODE     ---       #72
      00FF4AADH   LINE      CODE     ---       #73
      00FF4AB5H   LINE      CODE     ---       #76
      00FF4AC1H   LINE      CODE     ---       #77
      00FF4AC9H   LINE      CODE     ---       #78
      00FF4ACFH   LINE      CODE     ---       #79
      00FF4ADCH   LINE      CODE     ---       #81
      ---         BLOCKEND  ---      ---       LVL=0
      WR30        REGSYM    ---      INT       pages
      WR8         REGSYM    ---      INT       y
      DR24        REGSYM    ---      FLOAT     value_new

      00FF530FH   BLOCK     CODE     ---       LVL=0
L251 LINKER/LOCATER V4.66.93.0                                                        03/12/2024  22:14:56  PAGE 88


      00FF5311H   BLOCK     CODE     NEAR LAB  LVL=1
      R14         REGSYM    ---      BYTE      i
      R15         REGSYM    ---      BYTE      j
      ---         BLOCKEND  ---      ---       LVL=1
      00FF530FH   LINE      CODE     ---       #91
      00FF5311H   LINE      CODE     ---       #92
      00FF5311H   LINE      CODE     ---       #100
      00FF5313H   LINE      CODE     ---       #102
      00FF5319H   LINE      CODE     ---       #103
      00FF5335H   LINE      CODE     ---       #104
      00FF5344H   LINE      CODE     ---       #105
      00FF534BH   LINE      CODE     ---       #106
      ---         BLOCKEND  ---      ---       LVL=0

      00FF52CFH   BLOCK     CODE     ---       LVL=0
      00FF52D1H   BLOCK     CODE     NEAR LAB  LVL=1
      R14         REGSYM    ---      BYTE      i
      R15         REGSYM    ---      BYTE      j
      ---         BLOCKEND  ---      ---       LVL=1
      00FF52CFH   LINE      CODE     ---       #109
      00FF52D1H   LINE      CODE     ---       #110
      00FF52D1H   LINE      CODE     ---       #112
      00FF52D4H   LINE      CODE     ---       #113
      00FF52D6H   LINE      CODE     ---       #115
      00FF52DCH   LINE      CODE     ---       #116
      00FF5305H   LINE      CODE     ---       #117
      00FF530CH   LINE      CODE     ---       #118
      ---         BLOCKEND  ---      ---       LVL=0

      00FF58CFH   BLOCK     CODE     ---       LVL=0
      00FF58CFH   LINE      CODE     ---       #121
      00FF58CFH   LINE      CODE     ---       #123
      00FF58D2H   LINE      CODE     ---       #124
      00FF58D5H   LINE      CODE     ---       #125
      ---         BLOCKEND  ---      ---       LVL=0

      00FF5907H   BLOCK     CODE     ---       LVL=0
      00FF5907H   LINE      CODE     ---       #128
      00FF5907H   LINE      CODE     ---       #130
      00FF590AH   LINE      CODE     ---       #131
      ---         BLOCKEND  ---      ---       LVL=0

      ---         MODULE    ---      ---       ?C?FPADD
      00FF0EB4H   PUBLIC    CODE     ---       ?C?FPADD
      00FF0EB1H   PUBLIC    CODE     ---       ?C?FPSUB

      ---         MODULE    ---      ---       ?C?FPMUL
      00FF0F6CH   PUBLIC    CODE     ---       ?C?FPMUL

      ---         MODULE    ---      ---       ?C?FPDIV
      00FF100CH   PUBLIC    CODE     ---       ?C?FPDIV

      ---         MODULE    ---      ---       ?C?FPCMP
      00FF108FH   PUBLIC    CODE     ---       ?C?FPCMP
      00FF108DH   PUBLIC    CODE     ---       ?C?FPCMP3

      ---         MODULE    ---      ---       ?C?FPNEG
      00FF10D3H   PUBLIC    CODE     ---       ?C?FPNEG

      ---         MODULE    ---      ---       ?C?FCAST
      00FF10EBH   PUBLIC    CODE     NEAR LAB  ?C?FCASTC
      00FF10E6H   PUBLIC    CODE     NEAR LAB  ?C?FCASTI
      00FF10E1H   PUBLIC    CODE     NEAR LAB  ?C?FCASTL

      ---         MODULE    ---      ---       ?C?CASTF
L251 LINKER/LOCATER V4.66.93.0                                                        03/12/2024  22:14:56  PAGE 89


      00FF111EH   PUBLIC    CODE     NEAR LAB  ?C?CASTF

      ---         MODULE    ---      ---       PRINTF
      0000033FH   PUBLIC    EDATA    ---       ?PRINTF?BYTE
      00FF115BH   PUBLIC    CODE     NEAR LAB  PRINTF

      ---         MODULE    ---      ---       SQRT?_
      00FF1187H   PUBLIC    CODE     ---       SQRT?_

      ---         MODULE    ---      ---       ASIN?_
      00FF1217H   PUBLIC    CODE     ---       ASIN?_

      ---         MODULE    ---      ---       atan2
      00FF5204H   PUBLIC    CODE     ---       atan2?_

      ---         MODULE    ---      ---       ?C?FPGETOPN
      00FF1237H   PUBLIC    CODE     ---       ?C?FPGETOPN2
      00FF1274H   PUBLIC    CODE     ---       ?C?FPNANRESULT
      00FF127CH   PUBLIC    CODE     ---       ?C?FPOVERFLOW
      00FF1250H   PUBLIC    CODE     ---       ?C?FPRESULT
      00FF1266H   PUBLIC    CODE     ---       ?C?FPRESULT2
      00FF1279H   PUBLIC    CODE     ---       ?C?FPUNDERFLOW

      ---         MODULE    ---      ---       ?C?PRNFMT
      00FF12B5H   PUBLIC    CODE     ---       ?C?PRNFMT

      ---         MODULE    ---      ---       ATAN?_
      00FF16E4H   PUBLIC    CODE     ---       ATAN?_

      ---         MODULE    ---      ---       ?C?FPCONVERT
      00FF17C4H   PUBLIC    CODE     ---       ?C?FPCONVERT
      00FF187CH   PUBLIC    CODE     ---       ?C?FPROUND

      ---         MODULE    ---      ---       ?C?FPSERIES
      00FF18BFH   PUBLIC    CODE     ---       ?C?FP2SERIES
      00FF18C8H   PUBLIC    CODE     ---       ?C?FPSERIES

      ---         MODULE    ---      ---       ?C?FTNPWR
      00FF191CH   PUBLIC    CODE     ---       ?C?FTNPWR

      ---         MODULE    ---      ---       ?C_START
      00FF0000H   PUBLIC    CODE     ---       ?C?STARTUP
      00FF0000H   PUBLIC    CODE     ---       ?C_STARTUP

      ---         MODULE    ---      ---       ?C?INITEDATA
      00FF5361H   PUBLIC    CODE     ---       ?C?INITEDATA

      ---         MODULE    ---      ---       ?C?SIDIV
      00FF1953H   PUBLIC    CODE     ---       ?C?SIDIV

      ---         MODULE    ---      ---       ?C?LMUL
      00FF1985H   PUBLIC    CODE     ---       ?C?LMUL

      ---         MODULE    ---      ---       ?C?LIMUL
      00FF1996H   PUBLIC    CODE     ---       ?C?LIMUL

      ---         MODULE    ---      ---       ?C?ULDIV
      00FF19A1H   PUBLIC    CODE     NEAR LAB  ?C?ULDIV
      00FF199FH   PUBLIC    CODE     NEAR LAB  ?C?ULIDIV

      ---         MODULE    ---      ---       ?C?SLDIV
      00FF19F2H   PUBLIC    CODE     NEAR LAB  ?C?SLDIV

      ---         MODULE    ---      ---       ABS
      00FF583AH   PUBLIC    CODE     ---       abs?_
L251 LINKER/LOCATER V4.66.93.0                                                        03/12/2024  22:14:56  PAGE 90



      ---         MODULE    ---      ---       STRCPY?_
      00FF57F2H   PUBLIC    CODE     NEAR LAB  STRCPY?_

      ---         MODULE    ---      ---       memcpy
      00FF5680H   PUBLIC    CODE     ---       memcpy?_

      ---         MODULE    ---      ---       memset

      ---         MODULE    ---      ---       ?C?INITEDATA_END
      00FF5A7EH   PUBLIC    HCONST   WORD      ?C?INITEDATA_END

Program Size: data=8.0 edata+hdata=1912 xdata=0 const=658 code=22769
L251 RUN COMPLETE.  0 WARNING(S),  0 ERROR(S)
