L251 LINKER/LOCATER V4.66.93.0                                                          03/22/2024  17:44:58  PAGE 1


L251 LINKER/LOCATER V4.66.93.0, INVOKED BY:
D:\KEIL5\KEIL5_MDK\KEIL5_MDK_32\C251\BIN\L251.EXE .\Out_File\board.obj, .\Out_File\common.obj, .\Out_File\SEEKFREE_PRINT
>> F.obj, .\Out_File\zf_adc.obj, .\Out_File\zf_delay.obj, .\Out_File\zf_eeprom.obj, .\Out_File\zf_exti.obj, .\Out_File\z
>> f_gpio.obj, .\Out_File\zf_iic.obj, .\Out_File\zf_nvic.obj, .\Out_File\zf_pwm.obj, .\Out_File\zf_spi.obj, .\Out_File\z
>> f_tim.obj, .\Out_File\zf_uart.obj, .\Out_File\zf_fifo.obj, .\Out_File\SEEKFREE_18TFT.obj, .\Out_File\SEEKFREE_ABSOLUT
>> E_ENCODER.obj, .\Out_File\SEEKFREE_FONT.obj, .\Out_File\SEEKFREE_IIC.obj, .\Out_File\SEEKFREE_MPU6050.obj, .\Out_File
>> \SEEKFREE_OLED.obj, .\Out_File\SEEKFREE_AT24C02.obj, .\Out_File\SEEKFREE_BLUETOOTH_CH9141.obj, .\Out_File\SEEKFREE_IC
>> M20602.obj, .\Out_File\SEEKFREE_IPS114_SPI.obj, .\Out_File\SEEKFREE_TSL1401.obj, .\Out_File\SEEKFREE_VIRSCO.obj, .\Ou
>> t_File\SEEKFREE_WIRELESS.obj, .\Out_File\SEEKFREE_WIRELESS_CH573.obj, .\Out_File\isr.obj, .\Out_File\main.obj, .\Out_
>> File\motor.obj, .\Out_File\ADC.obj, .\Out_File\PID.obj, .\Out_File\MPU6050.obj, .\Out_File\TOF.obj, .\Out_File\Elemen
>> t.obj, .\Out_File\Buzzer.obj, .\Out_File\Key.obj, .\Out_File\UI.obj TO .\Out_File\SEEKFREE PRINT (.\Out_File\SEEKFREE
>> .map) CASE DISABLEWARNING (16, 57) REMOVEUNUSED CLASSES (EDATA (0X0-0XFFF), HDATA (0X0-0XFFF))


CPU MODE:     251 SOURCE MODE
INTR FRAME:   2 BYTES SAVED ON INTERRUPT
MEMORY MODEL: XSMALL WITH FLOATING POINT ARITHMETIC


INPUT MODULES INCLUDED:
  .\Out_File\board.obj (board)
         COMMENT TYPE 0: C251 V5.60.0
  .\Out_File\common.obj (common)
         COMMENT TYPE 0: C251 V5.60.0
  .\Out_File\SEEKFREE_PRINTF.obj (SEEKFREE_PRINTF)
         COMMENT TYPE 0: C251 V5.60.0
  .\Out_File\zf_adc.obj (zf_adc)
         COMMENT TYPE 0: C251 V5.60.0
  .\Out_File\zf_delay.obj (zf_delay)
         COMMENT TYPE 0: C251 V5.60.0
  .\Out_File\zf_eeprom.obj (zf_eeprom)
         COMMENT TYPE 0: C251 V5.60.0
  .\Out_File\zf_exti.obj (zf_exti)
         COMMENT TYPE 0: C251 V5.60.0
  .\Out_File\zf_gpio.obj (zf_gpio)
         COMMENT TYPE 0: C251 V5.60.0
  .\Out_File\zf_iic.obj (zf_iic)
         COMMENT TYPE 0: C251 V5.60.0
  .\Out_File\zf_nvic.obj (zf_nvic)
         COMMENT TYPE 0: C251 V5.60.0
  .\Out_File\zf_pwm.obj (zf_pwm)
         COMMENT TYPE 0: C251 V5.60.0
  .\Out_File\zf_spi.obj (zf_spi)
         COMMENT TYPE 0: C251 V5.60.0
  .\Out_File\zf_tim.obj (zf_tim)
         COMMENT TYPE 0: C251 V5.60.0
  .\Out_File\zf_uart.obj (zf_uart)
         COMMENT TYPE 0: C251 V5.60.0
  .\Out_File\zf_fifo.obj (zf_fifo)
         COMMENT TYPE 0: C251 V5.60.0
  .\Out_File\SEEKFREE_18TFT.obj (SEEKFREE_18TFT)
         COMMENT TYPE 0: C251 V5.60.0
  .\Out_File\SEEKFREE_ABSOLUTE_ENCODER.obj (SEEKFREE_ABSOLUTE_ENCODER)
         COMMENT TYPE 0: C251 V5.60.0
  .\Out_File\SEEKFREE_FONT.obj (SEEKFREE_FONT)
         COMMENT TYPE 0: C251 V5.60.0
  .\Out_File\SEEKFREE_IIC.obj (SEEKFREE_IIC)
         COMMENT TYPE 0: C251 V5.60.0
  .\Out_File\SEEKFREE_MPU6050.obj (SEEKFREE_MPU6050)
         COMMENT TYPE 0: C251 V5.60.0
  .\Out_File\SEEKFREE_OLED.obj (SEEKFREE_OLED)
         COMMENT TYPE 0: C251 V5.60.0
  .\Out_File\SEEKFREE_AT24C02.obj (SEEKFREE_AT24C02)
         COMMENT TYPE 0: C251 V5.60.0
  .\Out_File\SEEKFREE_BLUETOOTH_CH9141.obj (SEEKFREE_BLUETOOTH_CH9141)
         COMMENT TYPE 0: C251 V5.60.0
L251 LINKER/LOCATER V4.66.93.0                                                        03/22/2024  17:44:58  PAGE 2


  .\Out_File\SEEKFREE_ICM20602.obj (SEEKFREE_ICM20602)
         COMMENT TYPE 0: C251 V5.60.0
  .\Out_File\SEEKFREE_IPS114_SPI.obj (SEEKFREE_IPS114_SPI)
         COMMENT TYPE 0: C251 V5.60.0
  .\Out_File\SEEKFREE_TSL1401.obj (SEEKFREE_TSL1401)
         COMMENT TYPE 0: C251 V5.60.0
  .\Out_File\SEEKFREE_VIRSCO.obj (SEEKFREE_VIRSCO)
         COMMENT TYPE 0: C251 V5.60.0
  .\Out_File\SEEKFREE_WIRELESS.obj (SEEKFREE_WIRELESS)
         COMMENT TYPE 0: C251 V5.60.0
  .\Out_File\SEEKFREE_WIRELESS_CH573.obj (SEEKFREE_WIRELESS_CH573)
         COMMENT TYPE 0: C251 V5.60.0
  .\Out_File\isr.obj (isr)
         COMMENT TYPE 0: C251 V5.60.0
  .\Out_File\main.obj (main)
         COMMENT TYPE 0: C251 V5.60.0
  .\Out_File\motor.obj (motor)
         COMMENT TYPE 0: C251 V5.60.0
  .\Out_File\ADC.obj (ADC)
         COMMENT TYPE 0: C251 V5.60.0
  .\Out_File\PID.obj (PID)
         COMMENT TYPE 0: C251 V5.60.0
  .\Out_File\MPU6050.obj (MPU6050)
         COMMENT TYPE 0: C251 V5.60.0
  .\Out_File\TOF.obj (TOF)
         COMMENT TYPE 0: C251 V5.60.0
  .\Out_File\Element.obj (Element)
         COMMENT TYPE 0: C251 V5.60.0
  .\Out_File\Buzzer.obj (Buzzer)
         COMMENT TYPE 0: C251 V5.60.0
  .\Out_File\Key.obj (Key)
         COMMENT TYPE 0: C251 V5.60.0
  .\Out_File\UI.obj (UI)
         COMMENT TYPE 0: C251 V5.60.0
  D:\KEIL5\KEIL5_MDK\KEIL5_MDK_32\C251\LIB\C2SFPXS.LIB (?C?FPADD)
         COMMENT TYPE 0: A251 V4.69.6.0
  D:\KEIL5\KEIL5_MDK\KEIL5_MDK_32\C251\LIB\C2SFPXS.LIB (?C?FPMUL)
         COMMENT TYPE 0: A251 V4.69.6.0
  D:\KEIL5\KEIL5_MDK\KEIL5_MDK_32\C251\LIB\C2SFPXS.LIB (?C?FPDIV)
         COMMENT TYPE 0: A251 V4.69.6.0
  D:\KEIL5\KEIL5_MDK\KEIL5_MDK_32\C251\LIB\C2SFPXS.LIB (?C?FPCMP)
         COMMENT TYPE 0: A251 V4.69.6.0
  D:\KEIL5\KEIL5_MDK\KEIL5_MDK_32\C251\LIB\C2SFPXS.LIB (?C?FPNEG)
         COMMENT TYPE 0: A251 V4.69.6.0
  D:\KEIL5\KEIL5_MDK\KEIL5_MDK_32\C251\LIB\C2SFPXS.LIB (?C?FCAST)
         COMMENT TYPE 0: A251 V4.69.6.0
  D:\KEIL5\KEIL5_MDK\KEIL5_MDK_32\C251\LIB\C2SFPXS.LIB (?C?CASTF)
         COMMENT TYPE 0: A251 V4.69.6.0
  D:\KEIL5\KEIL5_MDK\KEIL5_MDK_32\C251\LIB\C2SFPXS.LIB (PRINTF)
         COMMENT TYPE 0: A251 V4.69.6.0
  D:\KEIL5\KEIL5_MDK\KEIL5_MDK_32\C251\LIB\C2SFPXS.LIB (SQRT?_)
         COMMENT TYPE 0: A251 V4.69.6.0
  D:\KEIL5\KEIL5_MDK\KEIL5_MDK_32\C251\LIB\C2SFPXS.LIB (ASIN?_)
         COMMENT TYPE 0: A251 V4.69.6.0
  D:\KEIL5\KEIL5_MDK\KEIL5_MDK_32\C251\LIB\C2SFPXS.LIB (atan2)
         COMMENT TYPE 0: C251 V5.58.7
  D:\KEIL5\KEIL5_MDK\KEIL5_MDK_32\C251\LIB\C2SFPXS.LIB (?C?FPGETOPN)
         COMMENT TYPE 0: A251 V4.69.6.0
  D:\KEIL5\KEIL5_MDK\KEIL5_MDK_32\C251\LIB\C2SFPXS.LIB (?C?PRNFMT)
         COMMENT TYPE 0: A251 V4.69.6.0
  D:\KEIL5\KEIL5_MDK\KEIL5_MDK_32\C251\LIB\C2SFPXS.LIB (ATAN?_)
         COMMENT TYPE 0: A251 V4.69.6.0
  D:\KEIL5\KEIL5_MDK\KEIL5_MDK_32\C251\LIB\C2SFPXS.LIB (?C?FPCONVERT)
         COMMENT TYPE 0: A251 V4.69.6.0
  D:\KEIL5\KEIL5_MDK\KEIL5_MDK_32\C251\LIB\C2SFPXS.LIB (?C?FPSERIES)
L251 LINKER/LOCATER V4.66.93.0                                                        03/22/2024  17:44:58  PAGE 3


         COMMENT TYPE 0: A251 V4.69.6.0
  D:\KEIL5\KEIL5_MDK\KEIL5_MDK_32\C251\LIB\C2SFPXS.LIB (?C?FTNPWR)
         COMMENT TYPE 0: A251 V4.69.6.0
  D:\KEIL5\KEIL5_MDK\KEIL5_MDK_32\C251\LIB\C2SXS.LIB (?C_START)
         COMMENT TYPE 0: A251 V4.69.6.0
  D:\KEIL5\KEIL5_MDK\KEIL5_MDK_32\C251\LIB\C2SXS.LIB (?C?INITEDATA)
         COMMENT TYPE 0: A251 V4.69.6.0
  D:\KEIL5\KEIL5_MDK\KEIL5_MDK_32\C251\LIB\C2SXS.LIB (?C?SIDIV)
         COMMENT TYPE 0: A251 V4.69.6.0
  D:\KEIL5\KEIL5_MDK\KEIL5_MDK_32\C251\LIB\C2SXS.LIB (?C?LMUL)
         COMMENT TYPE 0: A251 V4.69.6.0
  D:\KEIL5\KEIL5_MDK\KEIL5_MDK_32\C251\LIB\C2SXS.LIB (?C?LIMUL)
         COMMENT TYPE 0: A251 V4.69.6.0
  D:\KEIL5\KEIL5_MDK\KEIL5_MDK_32\C251\LIB\C2SXS.LIB (?C?ULDIV)
         COMMENT TYPE 0: A251 V4.69.6.0
  D:\KEIL5\KEIL5_MDK\KEIL5_MDK_32\C251\LIB\C2SXS.LIB (?C?SLDIV)
         COMMENT TYPE 0: A251 V4.69.6.0
  D:\KEIL5\KEIL5_MDK\KEIL5_MDK_32\C251\LIB\C2SXS.LIB (ABS)
         COMMENT TYPE 0: C251 V5.58.7
  D:\KEIL5\KEIL5_MDK\KEIL5_MDK_32\C251\LIB\C2SXS.LIB (STRCPY?_)
         COMMENT TYPE 0: A251 V4.69.6.0
  D:\KEIL5\KEIL5_MDK\KEIL5_MDK_32\C251\LIB\C2SXS.LIB (memcpy)
         COMMENT TYPE 0: C251 V5.58.7
  D:\KEIL5\KEIL5_MDK\KEIL5_MDK_32\C251\LIB\C2SXS.LIB (memset)
         COMMENT TYPE 0: C251 V5.58.7
  D:\KEIL5\KEIL5_MDK\KEIL5_MDK_32\C251\LIB\C2SXS.LIB (?C?INITEDATA_END)
         COMMENT TYPE 0: A251 V4.69.6.0


ACTIVE MEMORY CLASSES OF MODULE:  .\Out_File\SEEKFREE (board)

BASE        START       END         USED      MEMORY CLASS
==========================================================
000000H     000000H     000FFFH     0007F7H   EDATA
000000H     000000H     000FFFH               HDATA
FF0000H     FF0000H     FFFFFFH     006601H   CODE
000000H     FF0000H     FFFFFFH     00026DH   HCONST
FF0000H     FF0000H     FFFFFFH     000004H   CONST
000000H     000000H     00007FH     000008H   DATA


MEMORY MAP OF MODULE:  .\Out_File\SEEKFREE (board)


START     STOP      LENGTH    ALIGN  RELOC    MEMORY CLASS   SEGMENT NAME
=========================================================================
000000H   000007H   000008H   ---    AT..     DATA           "REG BANK 0"
000008H   00013CH   000135H   BYTE   UNIT     EDATA          ?ED?UI
00013DH   00023DH   000101H   BYTE   UNIT     EDATA          ?ED?SEEKFREE_TSL1401
00023EH   000330H   0000F3H   BYTE   UNIT     EDATA          ?ED?PID
000331H   0003FDH   0000CDH   BYTE   UNIT     EDATA          ?ED?ZF_UART
0003FEH   000494H   000097H   BYTE   UNIT     EDATA          _EDATA_GROUP_
000495H   0004FFH   00006BH   BYTE   UNIT     EDATA          ?ED?MPU6050
000500H   000554H   000055H   BYTE   UNIT     EDATA          ?ED?SEEKFREE_BLUETOOTH_CH9141
000555H   0005A9H   000055H   BYTE   UNIT     EDATA          ?ED?SEEKFREE_WIRELESS
0005AAH   0005FEH   000055H   BYTE   UNIT     EDATA          ?ED?SEEKFREE_WIRELESS_CH573
0005FFH   00064EH   000050H   BYTE   UNIT     EDATA          ?ED?ADC
00064FH   000692H   000044H   BYTE   UNIT     EDATA          ?ED?MAIN
000693H   0006B3H   000021H   BYTE   UNIT     EDATA          ?ED?ELEMENT
0006B4H   0006C1H   00000EH   BYTE   UNIT     EDATA          ?ED?MOTOR
0006C2H   0006CDH   00000CH   BYTE   UNIT     EDATA          ?ED?SEEKFREE_MPU6050
0006CEH   0006D9H   00000CH   BYTE   UNIT     EDATA          ?ED?SEEKFREE_ICM20602
0006DAH   0006E3H   00000AH   BYTE   UNIT     EDATA          ?ED?SEEKFREE_VIRSCO
0006E4H   0006EAH   000007H   BYTE   UNIT     EDATA          ?ED?SEEKFREE_IIC
0006EBH   0006EEH   000004H   BYTE   UNIT     EDATA          ?ED?BOARD
L251 LINKER/LOCATER V4.66.93.0                                                        03/22/2024  17:44:58  PAGE 4


0006EFH   0006F2H   000004H   BYTE   UNIT     EDATA          ?ED?ZF_DELAY
0006F3H   0006F5H   000003H   BYTE   UNIT     EDATA          ?ED?TOF
0006F6H   0006F8H   000003H   BYTE   UNIT     EDATA          ?ED?KEY
0006F9H   0006FAH   000002H   BYTE   UNIT     EDATA          ?ED?COMMON
0006FBH   0006FCH   000002H   BYTE   UNIT     EDATA          ?ED?ISR
0006FDH   0006FEH   000002H   BYTE   UNIT     EDATA          ?ED?BUZZER
0006FFH   0007FEH   000100H   BYTE   UNIT     EDATA          ?STACK
0007FFH   FEFFFFH   FEF801H   ---    ---      **GAP**
FF0000H   FF0002H   000003H   ---    OFFS..   CODE           ?CO?start251?4
FF0003H   FF0005H   000003H   ---    OFFS..   CODE           ?PR?IV?0
FF0006H   FF000AH   000005H   BYTE   INSEG    CODE           ?PR?I2C_SDA_READ?MPU6050
FF000BH   FF000DH   000003H   ---    OFFS..   CODE           ?PR?IV?1
FF000EH   FF0010H   000003H   BYTE   INSEG    CODE           ?PR?ENABLEGLOBALIRQ?BOARD
FF0011H   FF0011H   000001H   BYTE   INSEG    CODE           ?PR?INT1_ISR?ISR
FF0012H   FF0012H   000001H   BYTE   INSEG    CODE           ?PR?TM0_ISR?ISR
FF0013H   FF0015H   000003H   ---    OFFS..   CODE           ?PR?IV?2
FF0016H   FF0018H   000003H   BYTE   INSEG    CODE           ?PR?DISABLEGLOBALIRQ?BOARD
FF0019H   FF0019H   000001H   BYTE   INSEG    CODE           ?PR?TM1_ISR?ISR
FF001AH   FF001AH   000001H   ---    ---      **GAP**
FF001BH   FF001DH   000003H   ---    OFFS..   CODE           ?PR?IV?3
FF001EH   FF0020H   000003H   BYTE   INSEG    CODE           ?PR?I2C_SDA_H?MPU6050
FF0021H   FF0022H   000002H   ---    ---      **GAP**
FF0023H   FF0025H   000003H   ---    OFFS..   CODE           ?PR?IV?4
FF0026H   FF0042H   00001DH   BYTE   INSEG    CODE           ?PR?GETFIFOCOUNT?MPU6050
FF0043H   FF0045H   000003H   ---    OFFS..   CODE           ?PR?IV?8
FF0046H   FF0052H   00000DH   BYTE   INSEG    CODE           ?PR?MPU_READ_BITS?MPU6050
FF0053H   FF0055H   000003H   ---    OFFS..   CODE           ?PR?IV?10
FF0056H   FF0058H   000003H   BYTE   INSEG    CODE           ?PR?I2C_SDA_L?MPU6050
FF0059H   FF005AH   000002H   ---    ---      **GAP**
FF005BH   FF005DH   000003H   ---    OFFS..   CODE           ?PR?IV?11
FF005EH   FF0060H   000003H   BYTE   INSEG    CODE           ?PR?I2C_SCL_H?MPU6050
FF0061H   FF0062H   000002H   ---    ---      **GAP**
FF0063H   FF0065H   000003H   ---    OFFS..   CODE           ?PR?IV?12
FF0066H   FF0081H   00001CH   BYTE   INSEG    CODE           ?PR?VL53L0X_SCCB_WAITACK?TOF
FF0082H   FF0082H   000001H   ---    ---      **GAP**
FF0083H   FF0085H   000003H   ---    OFFS..   CODE           ?PR?IV?16
FF0086H   FF0088H   000003H   BYTE   INSEG    CODE           ?PR?I2C_SCL_L?MPU6050
FF0089H   FF008AH   000002H   ---    ---      **GAP**
FF008BH   FF008DH   000003H   ---    OFFS..   CODE           ?PR?IV?17
FF008EH   FF0091H   000004H   BYTE   UNIT     CONST          ?CO?PRINTF
FF0092H   FF0092H   000001H   ---    ---      **GAP**
FF0093H   FF0095H   000003H   ---    OFFS..   CODE           ?PR?IV?18
FF0096H   FF009AH   000005H   ---    ---      **GAP**
FF009BH   FF009DH   000003H   ---    OFFS..   CODE           ?PR?IV?19
FF009EH   FF00A2H   000005H   ---    ---      **GAP**
FF00A3H   FF00A5H   000003H   ---    OFFS..   CODE           ?PR?IV?20
FF00A6H   FF0EADH   000E08H   BYTE   UNIT     CODE           ?CO?SEEKFREE_FONT
FF0EAEH   FF1A25H   000B78H   BYTE   UNIT     CODE           ?C?LIB_CODE
FF1A26H   FF229DH   000878H   BYTE   UNIT     CODE           ?CO?MPU6050
FF229EH   FF28B8H   00061BH   BYTE   INSEG    CODE           ?PR?VL53L0X_INIT?TOF
FF28B9H   FF2DB2H   0004FAH   BYTE   INSEG    CODE           ?PR?ZF_SPRINTF?SEEKFREE_PRINTF
FF2DB3H   FF31A9H   0003F7H   BYTE   INSEG    CODE           ?PR?GPIO_MODE?ZF_GPIO
FF31AAH   FF3511H   000368H   BYTE   INSEG    CODE           ?PR?MAIN?MAIN
FF3512H   FF37F5H   0002E4H   BYTE   INSEG    CODE           ?PR?PWM_INIT?ZF_PWM
FF37F6H   FF3A96H   0002A1H   BYTE   INSEG    CODE           ?PR?PWM_SET_GPIO?ZF_PWM
FF3A97H   FF3D30H   00029AH   BYTE   INSEG    CODE           ?PR?MPU6050_REFRESH_DMP?MPU6050
FF3D31H   FF3F5CH   00022CH   BYTE   INSEG    CODE           ?PR?DMPINITIALIZE?MPU6050
FF3F5DH   FF411CH   0001C0H   BYTE   INSEG    CODE           ?PR?ELEM_CIRCLE?ELEMENT
FF411DH   FF42DBH   0001BFH   BYTE   INSEG    CODE           ?PR?UART_INIT?ZF_UART
FF42DCH   FF4457H   00017CH   BYTE   INSEG    CODE           ?PR?VL53L0X_GET_SPAD_INFO?TOF
FF4458H   FF45A2H   00014BH   BYTE   INSEG    CODE           ?PR?ADC_GETVALUE?ADC
FF45A3H   FF469AH   0000F8H   BYTE   INSEG    CODE           ?PR?OLED_PRINTF_FLOAT?SEEKFREE_OLED
FF469BH   FF478AH   0000F0H   BYTE   INSEG    CODE           ?PR?VALUE_NAME_INIT?UI
FF478BH   FF4872H   0000E8H   BYTE   INSEG    CODE           ?PR?OLED_P8X16STR?SEEKFREE_OLED
FF4873H   FF4956H   0000E4H   BYTE   INSEG    CODE           ?PR?VL53L0X_SET_MEASUREMENT_TIMING_BUDGET?TOF
L251 LINKER/LOCATER V4.66.93.0                                                        03/22/2024  17:44:58  PAGE 5


FF4957H   FF4A36H   0000E0H   BYTE   INSEG    CODE           ?PR?FIFO_WRITE_BUFFER?ZF_FIFO
FF4A37H   FF4B11H   0000DBH   BYTE   INSEG    CODE           ?PR?VL53L0X_GET_SEQUENCE_STEP_TIMEOUTS?TOF
FF4B12H   FF4BEBH   0000DAH   BYTE   INSEG    CODE           ?PR?INIT_ALL?MAIN
FF4BECH   FF4CB2H   0000C7H   BYTE   INSEG    CODE           ?PR?PID_CALCULATE?PID
FF4CB3H   FF4D75H   0000C3H   BYTE   INSEG    CODE           ?PR?LEFT_SETSPEED?MOTOR
FF4D76H   FF4E2DH   0000B8H   BYTE   INSEG    CODE           ?PR?PWM_DUTY?ZF_PWM
FF4E2EH   FF4EDDH   0000B0H   BYTE   INSEG    CODE           ?PR?RIGHT_SETSPEED?MOTOR
FF4EDEH   FF4F83H   0000A6H   BYTE   INSEG    CODE           ?PR?GET_RATIO?MAIN
FF4F84H   FF5029H   0000A6H   BYTE   INSEG    CODE           ?PR?LOADCFGUPD?MPU6050
FF502AH   FF50CCH   0000A3H   BYTE   INSEG    CODE           ?PR?OLED_INIT?SEEKFREE_OLED
FF50CDH   FF5160H   000094H   BYTE   INSEG    CODE           ?PR?PIT_TIMER_MS?ZF_TIM
FF5161H   FF51F2H   000092H   BYTE   INSEG    CODE           ?PR?NUMBER_CONVERSION_ASCII?SEEKFREE_PRINTF
FF51F3H   FF527DH   00008BH   BYTE   INSEG    CODE           ?PR?XDMPUPDATES?MPU6050
FF527EH   FF5307H   00008AH   BYTE   INSEG    CODE           ?PR?REFRESH_VALUE?UI
FF5308H   FF5388H   000081H   BYTE   INSEG    CODE           ?PR?BOARD_INIT?BOARD
FF5389H   FF5409H   000081H   BYTE   INSEG    CODE           ?PR?LOADFIRMWARE?MPU6050
FF540AH   FF5489H   000080H   BYTE   INSEG    CODE           ?PR?TM4_ISR?ISR
FF548AH   FF5506H   00007DH   BYTE   INSEG    CODE           ?PR?I2C_WRITE_BITS?MPU6050
FF5507H   FF5580H   00007AH   BYTE   INSEG    CODE           ?PR?I2C_MEM_READ?MPU6050
FF5581H   FF55F7H   000077H   BYTE   INSEG    CODE           ?PR?VL53L0X_PERFORM_SINGLE_REF_CALIBRATION?TOF
FF55F8H   FF566DH   000076H   BYTE   INSEG    CODE           ?PR?GETKEY_VALUE?KEY
FF566EH   FF56E0H   000073H   BYTE   INSEG    CODE           ?PR?VL53L0X_GET_MEASUREMENT_TIMING_BUDGET?TOF
FF56E1H   FF574BH   00006BH   BYTE   INSEG    CODE           ?PR?I2C_READ_BITS?MPU6050
FF574CH   FF57B4H   000069H   BYTE   INSEG    CODE           ?PR?UART4_ISR?ISR
FF57B5H   FF5817H   000063H   BYTE   INSEG    CODE           ?PR?GET_SPEED?MOTOR
FF5818H   FF5876H   00005FH   BYTE   INSEG    CODE           ?PR?I2C_MEM_WRITE?MPU6050
FF5877H   FF58D4H   00005EH   BYTE   INSEG    CODE           ?PR?ADC_INIT?ZF_ADC
FF58D5H   FF5931H   00005DH   BYTE   INSEG    CODE           ?PR?VL53L0X_GET_DISTANCE?TOF
FF5932H   FF598DH   00005CH   BYTE   INSEG    CODE           ?PR?I2C_WRITE_BIT?MPU6050
FF598EH   FF59E5H   000058H   BYTE   INSEG    CODE           ?PR?MPU_GET_GYROSCOPE?MPU6050
FF59E6H   FF5A3DH   000058H   BYTE   INSEG    CODE           ?PR?VL53L0X_GET_SEQUENCE_STEP_ENABLES?TOF
FF5A3EH   FF5A91H   000054H   BYTE   INSEG    CODE           ?PR?UART_PUTCHAR?ZF_UART
FF5A92H   FF5AE5H   000054H   BYTE   INSEG    CODE           ?PR?PID_INIT?PID
FF5AE6H   FF5B39H   000054H   BYTE   INSEG    CODE           ?PR?VL53L0X_SIMIIC_READ_REGS?TOF
FF5B3AH   FF5B8DH   000054H   BYTE   INSEG    CODE           ?PR?VL53L0X_SIMIIC_READ_REGS_1?TOF
FF5B8EH   FF5BDEH   000051H   BYTE   INSEG    CODE           ?PR?CTIMER_COUNT_CLEAN?ZF_TIM
FF5BDFH   FF5C2BH   00004DH   BYTE   INSEG    CODE           ?PR?CTIMER_COUNT_READ?ZF_TIM
FF5C2CH   FF5C78H   00004DH   BYTE   INSEG    CODE           ?PR?VL53L0X_GET_VCSEL_PULSE_PERIOD?TOF
FF5C79H   FF5CC2H   00004AH   BYTE   INSEG    CODE           ?PR?CTIMER_COUNT_INIT?ZF_TIM
FF5CC3H   FF5D07H   000045H   BYTE   INSEG    CODE           ?PR?ATAN2?_?ATAN2
FF5D08H   FF5D4BH   000044H   BYTE   INSEG    CODE           ?PR?MOTOR_INIT?MOTOR
FF5D4CH   FF5D8DH   000042H   BYTE   INSEG    CODE           ?PR?FIFO_HEAD_OFFSET?ZF_FIFO
FF5D8EH   FF5DCDH   000040H   BYTE   INSEG    CODE           ?PR?OLED_SHOW?UI
FF5DCEH   FF5E0CH   00003FH   BYTE   INSEG    CODE           ?PR?OLED_ALL_STATIC_STATE?UI
FF5E0DH   FF5E1FH   000013H   BYTE   UNIT     CODE           ?C_C51STARTUP
FF5E20H   FF5E48H   000029H   BYTE   UNIT     CODE           ?C_C51STARTUP?2
FF5E49H   FF5E4BH   000003H   BYTE   UNIT     CODE           ?C_C51STARTUP?3
FF5E4CH   FF5E89H   00003EH   BYTE   INSEG    CODE           ?PR?PRINTF_REVERSE_ORDER?SEEKFREE_PRINTF
FF5E8AH   FF5EC7H   00003EH   BYTE   INSEG    CODE           ?PR?VL53L0X_TIMEOUT_MCLKS_TO_MICROSECONDS?TOF
FF5EC8H   FF5F04H   00003DH   BYTE   INSEG    CODE           ?PR?UART1_ISR?ISR
FF5F05H   FF5F40H   00003CH   BYTE   INSEG    CODE           ?PR?VL53L0X_TIMEOUT_MICROSECONDS_TO_MCLKS?TOF
FF5F41H   FF5F7CH   00003CH   BYTE   INSEG    CODE           ?PR?ELEM_UP_DOWN?ELEMENT
FF5F7DH   FF5FB7H   00003BH   BYTE   INSEG    CODE           ?PR?VL53L0X_READ_CH?TOF
FF5FB8H   FF5FF0H   000039H   BYTE   INSEG    CODE           ?PR?DELAY_INIT?ZF_DELAY
FF5FF1H   FF6027H   000037H   BYTE   INSEG    CODE           ?PR?I2C_READ_BYTE?MPU6050
FF6028H   FF605CH   000035H   BYTE   INSEG    CODE           ?PR?VL53L0X_SIMIIC_WRITE_DATS?TOF
FF605DH   FF6090H   000034H   BYTE   INSEG    CODE           ?PR?VL53L0X_ENCODE_TIMEOUT?TOF
FF6091H   FF60C3H   000033H   BYTE   INSEG    CODE           ?PR?OLED_FILL?SEEKFREE_OLED
FF60C4H   FF60F6H   000033H   BYTE   INSEG    CODE           ?PR?I2C_READ_BIT?MPU6050
FF60F7H   FF6129H   000033H   BYTE   INSEG    CODE           ?PR?I2C_WRITE_BYTE?MPU6050
FF612AH   FF615CH   000033H   BYTE   INSEG    CODE           ?PR?INITMPU6050?MPU6050
FF615DH   FF618AH   00002EH   BYTE   INSEG    CODE           ?PR?ADC_ONCE?ZF_ADC
FF618BH   FF61B8H   00002EH   BYTE   INSEG    CODE           ?PR?VL53L0X_SEND_CH?TOF
FF61B9H   FF61E3H   00002BH   BYTE   INSEG    CODE           ?PR?LIMIT_OUT?MOTOR
FF61E4H   FF620EH   00002BH   BYTE   INSEG    CODE           ?PR?ADC_INITALL?ADC
L251 LINKER/LOCATER V4.66.93.0                                                        03/22/2024  17:44:58  PAGE 6


FF620FH   FF6238H   00002AH   BYTE   INSEG    CODE           ?PR?I2C_WAIT_ACK?MPU6050
FF6239H   FF6261H   000029H   BYTE   INSEG    CODE           ?PR?OLED_WRCMD?SEEKFREE_OLED
FF6262H   FF628AH   000029H   BYTE   INSEG    CODE           ?PR?OLED_WRDAT?SEEKFREE_OLED
FF628BH   FF62B3H   000029H   BYTE   INSEG    CODE           ?PR?VL53L0X_SIMIIC_READ_REG?TOF
FF62B4H   FF62DAH   000027H   BYTE   INSEG    CODE           ?PR?VL53L0X_SET_SIGNAL_RATE_LIMIT?TOF
FF62DBH   FF62FFH   000025H   BYTE   INSEG    CODE           ?PR?MEMCPY?_?MEMCPY
FF6300H   FF6323H   000024H   BYTE   INSEG    CODE           ?PR?KEY_INIT?KEY
FF6324H   FF6346H   000023H   BYTE   INSEG    CODE           ?PR?OLED_SET_POS?SEEKFREE_OLED
FF6347H   FF6369H   000023H   BYTE   INSEG    CODE           ?PR?MPU6050_DMP_INIT?MPU6050
FF636AH   FF638BH   000022H   BYTE   INSEG    CODE           ?PR?VL53L0X_SIMIIC_WRITE_REG?TOF
FF638CH   FF63ABH   000020H   BYTE   INSEG    CODE           ?PR?GETDEVICEID?MPU6050
FF63ACH   FF63CBH   000020H   BYTE   INSEG    CODE           ?PR?VL53L0X_SIMIIC_SENDACK?TOF
FF63CCH   FF63E9H   00001EH   BYTE   INSEG    CODE           ?PR?UART2_ISR?ISR
FF63EAH   FF6407H   00001EH   BYTE   INSEG    CODE           ?PR?UART3_ISR?ISR
FF6408H   FF6421H   00001AH   BYTE   INSEG    CODE           ?PR?MEMSET?_?MEMSET
FF6422H   FF643AH   000019H   BYTE   INSEG    CODE           ?PR?BLUETOOTH_CH9141_UART_CALLBACK?SEEKFREE_BLUETOOTH_CH91
                                                             -41
FF643BH   FF6453H   000019H   BYTE   INSEG    CODE           ?PR?WIRELESS_UART_CALLBACK?SEEKFREE_WIRELESS
FF6454H   FF646CH   000019H   BYTE   INSEG    CODE           ?PR?WIRELESS_CH573_CALLBACK?SEEKFREE_WIRELESS_CH573
FF646DH   FF6483H   000017H   BYTE   INSEG    CODE           ?PR?DELAY_MS?ZF_DELAY
FF6484H   FF6498H   000015H   BYTE   INSEG    CODE           ?PR?I2C_ACK?MPU6050
FF6499H   FF64ADH   000015H   BYTE   INSEG    CODE           ?PR?MPU_WRITE_BYTE?MPU6050
FF64AEH   FF64C1H   000014H   BYTE   INSEG    CODE           ?PR?MPU_DELAY_MS?MPU6050
FF64C2H   FF64D4H   000013H   BYTE   UNIT     CODE           ?PR?STRCPY?_
FF64D5H   FF64E6H   000012H   BYTE   INSEG    CODE           ?PR?I2C_NACK?MPU6050
FF64E7H   FF64F8H   000012H   BYTE   INSEG    CODE           ?PR?I2C_START?MPU6050
FF64F9H   FF6509H   000011H   BYTE   INSEG    CODE           ?PR?VL53L0X_SIMIIC_STOP?TOF
FF650AH   FF651AH   000011H   BYTE   INSEG    CODE           ?PR?BUZZER_INIT?BUZZER
FF651BH   FF652AH   000010H   BYTE   INSEG    CODE           ?PR?VL53L0X_DECODE_TIMEOUT?TOF
FF652BH   FF653AH   000010H   BYTE   INSEG    CODE           ?PR?ABS?_?ABS
FF653BH   FF6549H   00000FH   BYTE   INSEG    CODE           ?PR?I2C_STOP?MPU6050
FF654AH   FF6558H   00000FH   BYTE   INSEG    CODE           ?PR?READDMP?MPU6050
FF6559H   FF6567H   00000FH   BYTE   INSEG    CODE           ?PR?VL53L0X_SIMIIC_START?TOF
FF6568H   FF6575H   00000EH   BYTE   INSEG    CODE           ?PR?PUTCHAR?BOARD
FF6576H   FF6582H   00000DH   BYTE   INSEG    CODE           ?PR?MPU_WRITE_BITS?MPU6050
FF6583H   FF658FH   00000DH   BYTE   INSEG    CODE           ?PR?MPU_WRITE_BIT?MPU6050
FF6590H   FF659CH   00000DH   BYTE   INSEG    CODE           ?PR?VL53L0X_SIMIIC_DELAY?TOF
FF659DH   FF65A7H   00000BH   BYTE   INSEG    CODE           ?PR?MPU_READ_LEN?MPU6050
FF65A8H   FF65B2H   00000BH   BYTE   INSEG    CODE           ?PR?I2C_TIMEOUT_DELAY?MPU6050
FF65B3H   FF65BDH   00000BH   BYTE   INSEG    CODE           ?PR?MPU_WRITE_LEN?MPU6050
FF65BEH   FF65C8H   00000BH   BYTE   INSEG    CODE           ?PR?I2C_DELAY?MPU6050
FF65C9H   FF65D2H   00000AH   BYTE   INSEG    CODE           ?PR?DELAY1MS?MPU6050
FF65D3H   FF65DBH   000009H   BYTE   INSEG    CODE           ?PR?MPU_READ_BIT?MPU6050
FF65DCH   FF65E4H   000009H   BYTE   INSEG    CODE           ?PR?UI_INIT?UI
FF65E5H   FF65ECH   000008H   BYTE   INSEG    CODE           ?PR?INT2_ISR?ISR
FF65EDH   FF65F4H   000008H   BYTE   INSEG    CODE           ?PR?INT3_ISR?ISR
FF65F5H   FF65FCH   000008H   BYTE   INSEG    CODE           ?PR?INT4_ISR?ISR
FF65FDH   FF6604H   000008H   BYTE   INSEG    CODE           ?PR?TM2_ISR?ISR
FF6605H   FF660CH   000008H   BYTE   INSEG    CODE           ?PR?TM3_ISR?ISR
FF660DH   FF6613H   000007H   BYTE   INSEG    CODE           ?PR?INT0_ISR?ISR
FF6614H   FF6619H   000006H   BYTE   INSEG    CODE           ?PR?UI_SHOW?UI
FF661AH   FF6770H   000157H   BYTE   UNIT     HCONST         ?C_INITEDATA
FF6771H   FF67E2H   000072H   BYTE   UNIT     HCONST         ?HC?UI
FF67E3H   FF683AH   000058H   BYTE   UNIT     HCONST         ?HC?ZF_PWM
FF683BH   FF685AH   000020H   BYTE   UNIT     HCONST         ?HC?MAIN
FF685BH   FF6870H   000016H   BYTE   UNIT     HCONST         ?HC?TOF
FF6871H   FF687AH   00000AH   BYTE   UNIT     HCONST         ?HC?SEEKFREE_OLED
FF687BH   FF6880H   000006H   BYTE   UNIT     HCONST         ?HC?SEEKFREE_18TFT
FF6881H   FF6886H   000006H   BYTE   UNIT     HCONST         ?HC?SEEKFREE_IPS114_SPI

* * * * * * * * *   R E M O V E D     S E G M E N T S   * * * * * * * *
   *DEL*:           000019H   BYTE   INSEG    CODE           ?PR?DELAY_US?ZF_DELAY
   *DEL*:           000016H   BYTE   INSEG    CODE           ?PR?IAP_SET_TPS?ZF_EEPROM
   *DEL*:           000015H   BYTE   INSEG    CODE           ?PR?EEPROM_TRIG?ZF_EEPROM
   *DEL*:           00000EH   BYTE   INSEG    CODE           ?PR?IAP_ERASE_PAGE?ZF_EEPROM
L251 LINKER/LOCATER V4.66.93.0                                                        03/22/2024  17:44:58  PAGE 7


   *DEL*:           000004H   BYTE   INSEG    CODE           ?PR?IAP_IDLE?ZF_EEPROM
   *DEL*:           000047H   BYTE   INSEG    CODE           ?PR?IAP_READ_BYTES?ZF_EEPROM
   *DEL*:           00006DH   BYTE   INSEG    CODE           ?PR?EXTERN_IAP_WRITE_BYTES?ZF_EEPROM
   *DEL*:           000006H   BYTE   INSEG    CODE           ?PR?IAP_INIT?ZF_EEPROM
   *DEL*:           000047H   BYTE   INSEG    CODE           ?PR?IAP_WRITE_BYTES?ZF_EEPROM
   *DEL*:           00000CH   BYTE   INSEG    CODE           ?PR?IAP_GET_CMD_STATE?ZF_EEPROM
   *DEL*:           000004H   BYTE   UNIT     EDATA          ?ED?IAP_READ_BYTES?ZF_EEPROM
   *DEL*:           000004H   BYTE   UNIT     EDATA          ?ED?IAP_WRITE_BYTES?ZF_EEPROM
   *DEL*:           000204H   BYTE   UNIT     EDATA          ?ED?EXTERN_IAP_WRITE_BYTES?ZF_EEPROM
   *DEL*:           00003EH   BYTE   INSEG    CODE           ?PR?EXIT_INIT?ZF_EXTI
   *DEL*:           00006EH   BYTE   INSEG    CODE           ?PR?GPIO_PULL_SET?ZF_GPIO
   *DEL*:           000017H   BYTE   INSEG    CODE           ?PR?SEND_DATA?ZF_IIC
   *DEL*:           00002FH   BYTE   INSEG    CODE           ?PR?IIC_CHANGE_PIN?ZF_IIC
   *DEL*:           00001CH   BYTE   INSEG    CODE           ?PR?RECV_DATA?ZF_IIC
   *DEL*:           000010H   BYTE   INSEG    CODE           ?PR?START?ZF_IIC
   *DEL*:           000045H   BYTE   INSEG    CODE           ?PR?WAIT?ZF_IIC
   *DEL*:           000018H   BYTE   INSEG    CODE           ?PR?SEND_ACK?ZF_IIC
   *DEL*:           000010H   BYTE   INSEG    CODE           ?PR?RECV_ACK?ZF_IIC
   *DEL*:           000010H   BYTE   INSEG    CODE           ?PR?STOP?ZF_IIC
   *DEL*:           000019H   BYTE   INSEG    CODE           ?PR?SEND_NAK?ZF_IIC
   *DEL*:           00005EH   BYTE   INSEG    CODE           ?PR?IIC_INIT?ZF_IIC
   *DEL*:           000075H   BYTE   INSEG    CODE           ?PR?IIC_READ_REG?ZF_IIC
   *DEL*:           00009CH   BYTE   INSEG    CODE           ?PR?IIC_READ_REG_BYTES?ZF_IIC
   *DEL*:           000060H   BYTE   INSEG    CODE           ?PR?IIC_WRITE_REG?ZF_IIC
   *DEL*:           000015H   BYTE   INSEG    CODE           ?PR?IIC_DELAY_US?ZF_IIC
   *DEL*:           000004H   BYTE   UNIT     EDATA          ?ED?IIC_INIT?ZF_IIC
   *DEL*:           000004H   BYTE   UNIT     EDATA          ?ED?IIC_READ_REG?ZF_IIC
   *DEL*:           000003H   BYTE   UNIT     EDATA          ?ED?IIC_READ_REG_BYTES?ZF_IIC
   *DEL*:           00006CH   BYTE   INSEG    CODE           ?PR?NVIC_SETPRIORITY?ZF_NVIC
   *DEL*:           000121H   BYTE   INSEG    CODE           ?PR?PWM_FREQ?ZF_PWM
   *DEL*:           000004H   BYTE   UNIT     EDATA          ?ED?PWM_FREQ?ZF_PWM
   *DEL*:           00001DH   BYTE   INSEG    CODE           ?PR?SPI_CHANGE_MODE?ZF_SPI
   *DEL*:           0000AEH   BYTE   INSEG    CODE           ?PR?SPI_CHANGE_PIN?ZF_SPI
   *DEL*:           0000DFH   BYTE   INSEG    CODE           ?PR?SPI_INIT?ZF_SPI
   *DEL*:           00000EH   BYTE   INSEG    CODE           ?PR?SPI_MOSI?ZF_SPI
   *DEL*:           000004H   BYTE   UNIT     EDATA          ?ED?SPI_INIT?ZF_SPI
   *DEL*:           00002DH   BYTE   INSEG    CODE           ?PR?UART_PUTBUFF?ZF_UART
   *DEL*:           00001EH   BYTE   INSEG    CODE           ?PR?UART_PUTSTR?ZF_UART
   *DEL*:           000004H   BYTE   UNIT     EDATA          ?ED?UART_PUTBUFF?ZF_UART
   *DEL*:           000002H   BYTE   UNIT     EDATA          ?ED?UART_PUTSTR?ZF_UART
   *DEL*:           000113H   BYTE   INSEG    CODE           ?PR?FIFO_READ_BUFFER?ZF_FIFO
   *DEL*:           000025H   BYTE   INSEG    CODE           ?PR?FIFO_CLEAR?ZF_FIFO
   *DEL*:           000046H   BYTE   INSEG    CODE           ?PR?FIFO_END_OFFSET?ZF_FIFO
   *DEL*:           000015H   BYTE   INSEG    CODE           ?PR?FIFO_USED?ZF_FIFO
   *DEL*:           000043H   BYTE   INSEG    CODE           ?PR?FIFO_INIT?ZF_FIFO
   *DEL*:           000004H   BYTE   UNIT     EDATA          ?ED?FIFO_INIT?ZF_FIFO
   *DEL*:           00000FH   BYTE   UNIT     EDATA          ?ED?FIFO_READ_BUFFER?ZF_FIFO
   *DEL*:           00008BH   BYTE   INSEG    CODE           ?PR?LCD_SHOWUINT16?SEEKFREE_18TFT
   *DEL*:           000082H   BYTE   INSEG    CODE           ?PR?LCD_SHOWINT32_SIMSPI?SEEKFREE_18TFT
   *DEL*:           0000DDH   BYTE   INSEG    CODE           ?PR?LCD_SHOWINT16_SIMSPI?SEEKFREE_18TFT
   *DEL*:           000082H   BYTE   INSEG    CODE           ?PR?LCD_SHOWINT32?SEEKFREE_18TFT
   *DEL*:           0000DDH   BYTE   INSEG    CODE           ?PR?LCD_SHOWINT16?SEEKFREE_18TFT
   *DEL*:           00002BH   BYTE   INSEG    CODE           ?PR?LCD_CLEAR_SIMSPI?SEEKFREE_18TFT
   *DEL*:           00002BH   BYTE   INSEG    CODE           ?PR?LCD_CLEAR?SEEKFREE_18TFT
   *DEL*:           00004EH   BYTE   INSEG    CODE           ?PR?LCD_SHOWSTR_SIMSPI?SEEKFREE_18TFT
   *DEL*:           00004EH   BYTE   INSEG    CODE           ?PR?LCD_SHOWSTR?SEEKFREE_18TFT
   *DEL*:           000029H   BYTE   INSEG    CODE           ?PR?LCD_WRITEINDEX_SIMSPI?SEEKFREE_18TFT
   *DEL*:           000029H   BYTE   INSEG    CODE           ?PR?LCD_WRITEDATA_SIMSPI?SEEKFREE_18TFT
   *DEL*:           00000AH   BYTE   INSEG    CODE           ?PR?LCD_WRITEINDEX?SEEKFREE_18TFT
   *DEL*:           00000AH   BYTE   INSEG    CODE           ?PR?LCD_WRITEDATA?SEEKFREE_18TFT
   *DEL*:           00002CH   BYTE   INSEG    CODE           ?PR?LCD_WRITEDATA_16BIT_SIMSPI?SEEKFREE_18TFT
   *DEL*:           00004CH   BYTE   INSEG    CODE           ?PR?LCD_SET_REGION_SIMSPI?SEEKFREE_18TFT
   *DEL*:           0001F1H   BYTE   INSEG    CODE           ?PR?LCD_INIT_SIMSPI?SEEKFREE_18TFT
   *DEL*:           00009AH   BYTE   INSEG    CODE           ?PR?SHOWIMAGE?SEEKFREE_18TFT
   *DEL*:           000050H   BYTE   INSEG    CODE           ?PR?LCD_SET_REGION?SEEKFREE_18TFT
L251 LINKER/LOCATER V4.66.93.0                                                        03/22/2024  17:44:58  PAGE 8


   *DEL*:           0001EEH   BYTE   INSEG    CODE           ?PR?LCD_INIT?SEEKFREE_18TFT
   *DEL*:           00007BH   BYTE   INSEG    CODE           ?PR?LCD_SHOWUINT8_SIMSPI?SEEKFREE_18TFT
   *DEL*:           00007BH   BYTE   INSEG    CODE           ?PR?LCD_SHOWUINT8?SEEKFREE_18TFT
   *DEL*:           0000B9H   BYTE   INSEG    CODE           ?PR?LCD_SHOWINT8_SIMSPI?SEEKFREE_18TFT
   *DEL*:           0000B9H   BYTE   INSEG    CODE           ?PR?LCD_SHOWINT8?SEEKFREE_18TFT
   *DEL*:           00001FH   BYTE   INSEG    CODE           ?PR?LCD_WRITEDATA_16BIT?SEEKFREE_18TFT
   *DEL*:           0000F8H   BYTE   INSEG    CODE           ?PR?LCD_SHOWFLOAT_SIMSPI?SEEKFREE_18TFT
   *DEL*:           000013H   BYTE   INSEG    CODE           ?PR?LCD_DRAWPOINT_SIMSPI?SEEKFREE_18TFT
   *DEL*:           0000F8H   BYTE   INSEG    CODE           ?PR?LCD_SHOWFLOAT?SEEKFREE_18TFT
   *DEL*:           000013H   BYTE   INSEG    CODE           ?PR?LCD_DRAWPOINT?SEEKFREE_18TFT
   *DEL*:           00008EH   BYTE   INSEG    CODE           ?PR?LCD_SHOWCHAR_SIMSPI?SEEKFREE_18TFT
   *DEL*:           00008EH   BYTE   INSEG    CODE           ?PR?LCD_SHOWCHAR?SEEKFREE_18TFT
   *DEL*:           00008BH   BYTE   INSEG    CODE           ?PR?LCD_SHOWUINT16_SIMSPI?SEEKFREE_18TFT
   *DEL*:           000004H   BYTE   UNIT     EDATA          ?ED?LCD_SET_REGION_SIMSPI?SEEKFREE_18TFT
   *DEL*:           000004H   BYTE   UNIT     EDATA          ?ED?LCD_SHOWCHAR_SIMSPI?SEEKFREE_18TFT
   *DEL*:           000006H   BYTE   UNIT     EDATA          ?ED?LCD_SHOWSTR_SIMSPI?SEEKFREE_18TFT
   *DEL*:           000005H   BYTE   UNIT     EDATA          ?ED?LCD_SHOWINT8_SIMSPI?SEEKFREE_18TFT
   *DEL*:           000004H   BYTE   UNIT     EDATA          ?ED?LCD_SHOWUINT8_SIMSPI?SEEKFREE_18TFT
   *DEL*:           000008H   BYTE   UNIT     EDATA          ?ED?LCD_SHOWINT16_SIMSPI?SEEKFREE_18TFT
   *DEL*:           000006H   BYTE   UNIT     EDATA          ?ED?LCD_SHOWUINT16_SIMSPI?SEEKFREE_18TFT
   *DEL*:           000028H   BYTE   UNIT     EDATA          ?ED?LCD_SHOWINT32_SIMSPI?SEEKFREE_18TFT
   *DEL*:           00002BH   BYTE   UNIT     EDATA          ?ED?LCD_SHOWFLOAT_SIMSPI?SEEKFREE_18TFT
   *DEL*:           000002H   BYTE   UNIT     EDATA          ?ED?LCD_WRITEDATA_16BIT?SEEKFREE_18TFT
   *DEL*:           000004H   BYTE   UNIT     EDATA          ?ED?LCD_SET_REGION?SEEKFREE_18TFT
   *DEL*:           000004H   BYTE   UNIT     EDATA          ?ED?LCD_SHOWCHAR?SEEKFREE_18TFT
   *DEL*:           000006H   BYTE   UNIT     EDATA          ?ED?LCD_SHOWSTR?SEEKFREE_18TFT
   *DEL*:           000005H   BYTE   UNIT     EDATA          ?ED?LCD_SHOWINT8?SEEKFREE_18TFT
   *DEL*:           000004H   BYTE   UNIT     EDATA          ?ED?LCD_SHOWUINT8?SEEKFREE_18TFT
   *DEL*:           000008H   BYTE   UNIT     EDATA          ?ED?LCD_SHOWINT16?SEEKFREE_18TFT
   *DEL*:           000006H   BYTE   UNIT     EDATA          ?ED?LCD_SHOWUINT16?SEEKFREE_18TFT
   *DEL*:           000028H   BYTE   UNIT     EDATA          ?ED?LCD_SHOWINT32?SEEKFREE_18TFT
   *DEL*:           00002BH   BYTE   UNIT     EDATA          ?ED?LCD_SHOWFLOAT?SEEKFREE_18TFT
   *DEL*:           000008H   BYTE   UNIT     EDATA          ?ED?SHOWIMAGE?SEEKFREE_18TFT
   *DEL*:           000011H   BYTE   INSEG    CODE           ?PR?ENCODER_SELF4_CHECK?SEEKFREE_ABSOLUTE_ENCODER
   *DEL*:           000011H   BYTE   INSEG    CODE           ?PR?ENCODER_SELF5_CHECK?SEEKFREE_ABSOLUTE_ENCODER
   *DEL*:           00002FH   BYTE   INSEG    CODE           ?PR?ENCODER_SPI_R_REG_BYTE?SEEKFREE_ABSOLUTE_ENCODER
   *DEL*:           000005H   BYTE   INSEG    CODE           ?PR?ENCODER_DELAY_US?SEEKFREE_ABSOLUTE_ENCODER
   *DEL*:           000038H   BYTE   INSEG    CODE           ?PR?ENCODER_SPI_W_REG_BYTE?SEEKFREE_ABSOLUTE_ENCODER
   *DEL*:           00001CH   BYTE   INSEG    CODE           ?PR?SIMSPI_R_REG_BYTE?SEEKFREE_ABSOLUTE_ENCODER
   *DEL*:           00001AH   BYTE   INSEG    CODE           ?PR?SIMSPI_W_REG_BYTE?SEEKFREE_ABSOLUTE_ENCODER
   *DEL*:           000029H   BYTE   INSEG    CODE           ?PR?ENCODER_INIT_SPI?SEEKFREE_ABSOLUTE_ENCODER
   *DEL*:           000004H   BYTE   INSEG    CODE           ?PR?SPI_WR_BYTE?SEEKFREE_ABSOLUTE_ENCODER
   *DEL*:           000024H   BYTE   INSEG    CODE           ?PR?SET_ZERO_POSITION_SIMSPI?SEEKFREE_ABSOLUTE_ENCODER
   *DEL*:           000023H   BYTE   INSEG    CODE           ?PR?ENCODER_ANGLE_SIMSPI?SEEKFREE_ABSOLUTE_ENCODER
   *DEL*:           00001CH   BYTE   INSEG    CODE           ?PR?SPI_R_REG_BYTE?SEEKFREE_ABSOLUTE_ENCODER
   *DEL*:           00001AH   BYTE   INSEG    CODE           ?PR?SPI_W_REG_BYTE?SEEKFREE_ABSOLUTE_ENCODER
   *DEL*:           00002FH   BYTE   INSEG    CODE           ?PR?ENCODER_SIMSPI_R_REG_BYTE?SEEKFREE_ABSOLUTE_ENCODER
   *DEL*:           000038H   BYTE   INSEG    CODE           ?PR?ENCODER_SIMSPI_W_REG_BYTE?SEEKFREE_ABSOLUTE_ENCODER
   *DEL*:           00000FH   BYTE   INSEG    CODE           ?PR?ENCODER_INIT_SIMSPI?SEEKFREE_ABSOLUTE_ENCODER
   *DEL*:           000024H   BYTE   INSEG    CODE           ?PR?SET_ZERO_POSITION_SPI?SEEKFREE_ABSOLUTE_ENCODER
   *DEL*:           00001FH   BYTE   INSEG    CODE           ?PR?SIMSPI_WR_BYTE?SEEKFREE_ABSOLUTE_ENCODER
   *DEL*:           000023H   BYTE   INSEG    CODE           ?PR?ENCODER_ANGLE_SPI?SEEKFREE_ABSOLUTE_ENCODER
   *DEL*:           000001H   BYTE   UNIT     EDATA          ?ED?ENCODER_SELF4_CHECK?SEEKFREE_ABSOLUTE_ENCODER
   *DEL*:           000001H   BYTE   UNIT     EDATA          ?ED?ENCODER_SELF5_CHECK?SEEKFREE_ABSOLUTE_ENCODER
   *DEL*:           00000FH   BYTE   INSEG    CODE           ?PR?SIMIIC_START?SEEKFREE_IIC
   *DEL*:           000066H   BYTE   INSEG    CODE           ?PR?SIMIIC_READ_REGS?SEEKFREE_IIC
   *DEL*:           000001H   BYTE   INSEG    CODE           ?PR?SIMIIC_INIT?SEEKFREE_IIC
   *DEL*:           000034H   BYTE   INSEG    CODE           ?PR?SIMIIC_READ_REG?SEEKFREE_IIC
   *DEL*:           000011H   BYTE   INSEG    CODE           ?PR?SIMIIC_STOP?SEEKFREE_IIC
   *DEL*:           000022H   BYTE   INSEG    CODE           ?PR?SIMIIC_WRITE_REG?SEEKFREE_IIC
   *DEL*:           000020H   BYTE   INSEG    CODE           ?PR?SIMIIC_SENDACK?SEEKFREE_IIC
   *DEL*:           00003BH   BYTE   INSEG    CODE           ?PR?READ_CH?SEEKFREE_IIC
   *DEL*:           00002EH   BYTE   INSEG    CODE           ?PR?SEND_CH?SEEKFREE_IIC
   *DEL*:           00001CH   BYTE   INSEG    CODE           ?PR?SCCB_WAITACK?SEEKFREE_IIC
   *DEL*:           00000BH   BYTE   INSEG    CODE           ?PR?SIMIIC_DELAY?SEEKFREE_IIC
L251 LINKER/LOCATER V4.66.93.0                                                        03/22/2024  17:44:58  PAGE 9


   *DEL*:           000005H   BYTE   UNIT     EDATA          ?ED?SIMIIC_READ_REGS?SEEKFREE_IIC
   *DEL*:           000055H   BYTE   INSEG    CODE           ?PR?MPU6050_INIT?SEEKFREE_MPU6050
   *DEL*:           00002CH   BYTE   INSEG    CODE           ?PR?MPU6050_SELF1_CHECK?SEEKFREE_MPU6050
   *DEL*:           000044H   BYTE   INSEG    CODE           ?PR?MPU6050_GET_GYRO?SEEKFREE_MPU6050
   *DEL*:           000044H   BYTE   INSEG    CODE           ?PR?MPU6050_GET_ACCDATA?SEEKFREE_MPU6050
   *DEL*:           000006H   BYTE   UNIT     EDATA          ?ED?MPU6050_GET_ACCDATA?SEEKFREE_MPU6050
   *DEL*:           000006H   BYTE   UNIT     EDATA          ?ED?MPU6050_GET_GYRO?SEEKFREE_MPU6050
   *DEL*:           000033H   BYTE   INSEG    CODE           ?PR?OLED_PUTPIXEL?SEEKFREE_OLED
   *DEL*:           000032H   BYTE   INSEG    CODE           ?PR?OLED_HEXASCII_SPI?SEEKFREE_OLED
   *DEL*:           000325H   BYTE   INSEG    CODE           ?PR?OLED_DIS_BMP_SPI?SEEKFREE_OLED
   *DEL*:           0000E8H   BYTE   INSEG    CODE           ?PR?OLED_P8X16STR_SPI?SEEKFREE_OLED
   *DEL*:           00002AH   BYTE   INSEG    CODE           ?PR?OLED_CLRPIXEL_SPI?SEEKFREE_OLED
   *DEL*:           000090H   BYTE   INSEG    CODE           ?PR?OLED_PRINT_CHINESE_SPI?SEEKFREE_OLED
   *DEL*:           000082H   BYTE   INSEG    CODE           ?PR?OLED_PRINTF_INT32?SEEKFREE_OLED
   *DEL*:           00001DH   BYTE   INSEG    CODE           ?PR?OLED_UINT16?SEEKFREE_OLED
   *DEL*:           000031H   BYTE   INSEG    CODE           ?PR?OLED_PUTPIXEL_SPI?SEEKFREE_OLED
   *DEL*:           000021H   BYTE   INSEG    CODE           ?PR?OLED_SET_POS_SPI?SEEKFREE_OLED
   *DEL*:           0000A9H   BYTE   INSEG    CODE           ?PR?OLED_P6X8STR?SEEKFREE_OLED
   *DEL*:           00004BH   BYTE   INSEG    CODE           ?PR?OLED_INT16?SEEKFREE_OLED
   *DEL*:           0000F8H   BYTE   INSEG    CODE           ?PR?OLED_PRINTF_FLOAT_SPI?SEEKFREE_OLED
   *DEL*:           00000AH   BYTE   INSEG    CODE           ?PR?OLED_WRCMD_SPI?SEEKFREE_OLED
   *DEL*:           00000AH   BYTE   INSEG    CODE           ?PR?OLED_WRDAT_SPI?SEEKFREE_OLED
   *DEL*:           000032H   BYTE   INSEG    CODE           ?PR?OLED_HEXASCII?SEEKFREE_OLED
   *DEL*:           000033H   BYTE   INSEG    CODE           ?PR?OLED_FILL_SPI?SEEKFREE_OLED
   *DEL*:           000082H   BYTE   INSEG    CODE           ?PR?OLED_PRINTF_INT32_SPI?SEEKFREE_OLED
   *DEL*:           00001DH   BYTE   INSEG    CODE           ?PR?OLED_UINT16_SPI?SEEKFREE_OLED
   *DEL*:           0000A9H   BYTE   INSEG    CODE           ?PR?OLED_P6X8STR_SPI?SEEKFREE_OLED
   *DEL*:           00004BH   BYTE   INSEG    CODE           ?PR?OLED_INT16_SPI?SEEKFREE_OLED
   *DEL*:           00033BH   BYTE   INSEG    CODE           ?PR?OLED_DIS_BMP?SEEKFREE_OLED
   *DEL*:           0000BFH   BYTE   INSEG    CODE           ?PR?OLED_INIT_SPI?SEEKFREE_OLED
   *DEL*:           00002CH   BYTE   INSEG    CODE           ?PR?OLED_CLRPIXEL?SEEKFREE_OLED
   *DEL*:           000090H   BYTE   INSEG    CODE           ?PR?OLED_PRINT_CHINESE?SEEKFREE_OLED
   *DEL*:           000005H   BYTE   UNIT     EDATA          ?ED?OLED_P6X8STR?SEEKFREE_OLED
   *DEL*:           000007H   BYTE   UNIT     EDATA          ?ED?OLED_UINT16?SEEKFREE_OLED
   *DEL*:           000007H   BYTE   UNIT     EDATA          ?ED?OLED_INT16?SEEKFREE_OLED
   *DEL*:           000028H   BYTE   UNIT     EDATA          ?ED?OLED_PRINTF_INT32?SEEKFREE_OLED
   *DEL*:           00000CH   BYTE   UNIT     EDATA          ?ED?OLED_DIS_BMP?SEEKFREE_OLED
   *DEL*:           00000AH   BYTE   UNIT     EDATA          ?ED?OLED_PRINT_CHINESE?SEEKFREE_OLED
   *DEL*:           000005H   BYTE   UNIT     EDATA          ?ED?OLED_P6X8STR_SPI?SEEKFREE_OLED
   *DEL*:           000005H   BYTE   UNIT     EDATA          ?ED?OLED_P8X16STR_SPI?SEEKFREE_OLED
   *DEL*:           000007H   BYTE   UNIT     EDATA          ?ED?OLED_UINT16_SPI?SEEKFREE_OLED
   *DEL*:           000007H   BYTE   UNIT     EDATA          ?ED?OLED_INT16_SPI?SEEKFREE_OLED
   *DEL*:           000028H   BYTE   UNIT     EDATA          ?ED?OLED_PRINTF_INT32_SPI?SEEKFREE_OLED
   *DEL*:           00002BH   BYTE   UNIT     EDATA          ?ED?OLED_PRINTF_FLOAT_SPI?SEEKFREE_OLED
   *DEL*:           00000CH   BYTE   UNIT     EDATA          ?ED?OLED_DIS_BMP_SPI?SEEKFREE_OLED
   *DEL*:           00000AH   BYTE   UNIT     EDATA          ?ED?OLED_PRINT_CHINESE_SPI?SEEKFREE_OLED
   *DEL*:           00005EH   BYTE   INSEG    CODE           ?PR?AT24C02_READ_BYTES?SEEKFREE_AT24C02
   *DEL*:           000017H   BYTE   INSEG    CODE           ?PR?AT24C02_READ_BYTE?SEEKFREE_AT24C02
   *DEL*:           00005BH   BYTE   INSEG    CODE           ?PR?AT24C02_WRITE_BYTES?SEEKFREE_AT24C02
   *DEL*:           000019H   BYTE   INSEG    CODE           ?PR?AT24C02_WRITE_BYTE?SEEKFREE_AT24C02
   *DEL*:           000002H   BYTE   UNIT     EDATA          ?ED?AT24C02_WRITE_BYTES?SEEKFREE_AT24C02
   *DEL*:           000002H   BYTE   UNIT     EDATA          ?ED?AT24C02_READ_BYTES?SEEKFREE_AT24C02
   *DEL*:           000022H   BYTE   INSEG    CODE           ?PR?BLUETOOTH_CH9141_READ_BUFF?SEEKFREE_BLUETOOTH_CH9141
   *DEL*:           0000ABH   BYTE   INSEG    CODE           ?PR?BLUETOOTH_CH9141_SEND_BUFF?SEEKFREE_BLUETOOTH_CH9141
   *DEL*:           00003CH   BYTE   INSEG    CODE           ?PR?BLUETOOTH_CH9141_INIT?SEEKFREE_BLUETOOTH_CH9141
   *DEL*:           000006H   BYTE   UNIT     EDATA          ?ED?BLUETOOTH_CH9141_SEND_BUFF?SEEKFREE_BLUETOOTH_CH9141
   *DEL*:           000004H   BYTE   UNIT     EDATA          ?ED?BLUETOOTH_CH9141_READ_BUFF?SEEKFREE_BLUETOOTH_CH9141
   *DEL*:           00001FH   BYTE   INSEG    CODE           ?PR?ICM_SIMSPI_WR_BYTE?SEEKFREE_ICM20602
   *DEL*:           000075H   BYTE   INSEG    CODE           ?PR?ICM20602_INIT_SIMIIC?SEEKFREE_ICM20602
   *DEL*:           000040H   BYTE   INSEG    CODE           ?PR?ICM_SIMSPI_R_REG_BYTES?SEEKFREE_ICM20602
   *DEL*:           00001CH   BYTE   INSEG    CODE           ?PR?ICM_SIMSPI_R_REG_BYTE?SEEKFREE_ICM20602
   *DEL*:           000013H   BYTE   INSEG    CODE           ?PR?ICM_SIMSPI_W_REG_BYTE?SEEKFREE_ICM20602
   *DEL*:           000059H   BYTE   INSEG    CODE           ?PR?ICM20602_INIT_SIMSPI?SEEKFREE_ICM20602
   *DEL*:           00002BH   BYTE   INSEG    CODE           ?PR?ICM20602_SELF1_CHECK?SEEKFREE_ICM20602
   *DEL*:           000011H   BYTE   INSEG    CODE           ?PR?ICM20602_SELF4_CHECK?SEEKFREE_ICM20602
L251 LINKER/LOCATER V4.66.93.0                                                        03/22/2024  17:44:58  PAGE 10


   *DEL*:           000044H   BYTE   INSEG    CODE           ?PR?GET_ICM20602_GYRO_SIMIIC?SEEKFREE_ICM20602
   *DEL*:           000044H   BYTE   INSEG    CODE           ?PR?GET_ICM20602_ACCDATA_SIMIIC?SEEKFREE_ICM20602
   *DEL*:           00003DH   BYTE   INSEG    CODE           ?PR?GET_ICM20602_GYRO_SIMSPI?SEEKFREE_ICM20602
   *DEL*:           00003DH   BYTE   INSEG    CODE           ?PR?GET_ICM20602_ACCDATA_SIMSPI?SEEKFREE_ICM20602
   *DEL*:           000006H   BYTE   UNIT     EDATA          ?ED?GET_ICM20602_ACCDATA_SIMIIC?SEEKFREE_ICM20602
   *DEL*:           000006H   BYTE   UNIT     EDATA          ?ED?GET_ICM20602_GYRO_SIMIIC?SEEKFREE_ICM20602
   *DEL*:           000003H   BYTE   UNIT     EDATA          ?ED?ICM_SIMSPI_R_REG_BYTES?SEEKFREE_ICM20602
   *DEL*:           000001H   BYTE   UNIT     EDATA          ?ED?ICM20602_SELF4_CHECK?SEEKFREE_ICM20602
   *DEL*:           000001H   BYTE   UNIT     EDATA          ?ED?ICM20602_INIT_SIMSPI?SEEKFREE_ICM20602
   *DEL*:           000006H   BYTE   UNIT     EDATA          ?ED?GET_ICM20602_ACCDATA_SIMSPI?SEEKFREE_ICM20602
   *DEL*:           000006H   BYTE   UNIT     EDATA          ?ED?GET_ICM20602_GYRO_SIMSPI?SEEKFREE_ICM20602
   *DEL*:           00007BH   BYTE   INSEG    CODE           ?PR?IPS114_SHOWUINT8_SIMSPI?SEEKFREE_IPS114_SPI
   *DEL*:           000077H   BYTE   INSEG    CODE           ?PR?IPS114_SHOWUINT8?SEEKFREE_IPS114_SPI
   *DEL*:           0000B9H   BYTE   INSEG    CODE           ?PR?IPS114_SHOWINT8_SIMSPI?SEEKFREE_IPS114_SPI
   *DEL*:           0000B5H   BYTE   INSEG    CODE           ?PR?IPS114_SHOWINT8?SEEKFREE_IPS114_SPI
   *DEL*:           00001FH   BYTE   INSEG    CODE           ?PR?IPS114_WRITEDATA_16BIT?SEEKFREE_IPS114_SPI
   *DEL*:           0000F8H   BYTE   INSEG    CODE           ?PR?IPS114_SHOWFLOAT_SIMSPI?SEEKFREE_IPS114_SPI
   *DEL*:           000013H   BYTE   INSEG    CODE           ?PR?IPS114_DRAWPOINT_SIMSPI?SEEKFREE_IPS114_SPI
   *DEL*:           0000F8H   BYTE   INSEG    CODE           ?PR?IPS114_SHOWFLOAT?SEEKFREE_IPS114_SPI
   *DEL*:           000013H   BYTE   INSEG    CODE           ?PR?IPS114_DRAWPOINT?SEEKFREE_IPS114_SPI
   *DEL*:           00008EH   BYTE   INSEG    CODE           ?PR?IPS114_SHOWCHAR_SIMSPI?SEEKFREE_IPS114_SPI
   *DEL*:           00008EH   BYTE   INSEG    CODE           ?PR?IPS114_SHOWCHAR?SEEKFREE_IPS114_SPI
   *DEL*:           00008BH   BYTE   INSEG    CODE           ?PR?IPS114_SHOWUINT16_SIMSPI?SEEKFREE_IPS114_SPI
   *DEL*:           00008BH   BYTE   INSEG    CODE           ?PR?IPS114_SHOWUINT16?SEEKFREE_IPS114_SPI
   *DEL*:           000082H   BYTE   INSEG    CODE           ?PR?IPS114_SHOWINT32_SIMSPI?SEEKFREE_IPS114_SPI
   *DEL*:           0000DDH   BYTE   INSEG    CODE           ?PR?IPS114_SHOWINT16_SIMSPI?SEEKFREE_IPS114_SPI
   *DEL*:           000082H   BYTE   INSEG    CODE           ?PR?IPS114_SHOWINT32?SEEKFREE_IPS114_SPI
   *DEL*:           0000D9H   BYTE   INSEG    CODE           ?PR?IPS114_SHOWINT16?SEEKFREE_IPS114_SPI
   *DEL*:           00003CH   BYTE   INSEG    CODE           ?PR?IPS114_CLEAR_SIMSPI?SEEKFREE_IPS114_SPI
   *DEL*:           00003CH   BYTE   INSEG    CODE           ?PR?IPS114_CLEAR?SEEKFREE_IPS114_SPI
   *DEL*:           00002CH   BYTE   INSEG    CODE           ?PR?IPS114_WRITEDATAI_16BIT_SIMSPI?SEEKFREE_IPS114_SPI
   *DEL*:           00004EH   BYTE   INSEG    CODE           ?PR?IPS114_SHOWSTR_SIMSPI?SEEKFREE_IPS114_SPI
   *DEL*:           00004EH   BYTE   INSEG    CODE           ?PR?IPS114_SHOWSTR?SEEKFREE_IPS114_SPI
   *DEL*:           000029H   BYTE   INSEG    CODE           ?PR?IPS114_WRITEINDEX_SIMSPI?SEEKFREE_IPS114_SPI
   *DEL*:           000029H   BYTE   INSEG    CODE           ?PR?IPS114_WRITEDATA_SIMSPI?SEEKFREE_IPS114_SPI
   *DEL*:           00000AH   BYTE   INSEG    CODE           ?PR?IPS114_WRITEINDEX?SEEKFREE_IPS114_SPI
   *DEL*:           00000AH   BYTE   INSEG    CODE           ?PR?IPS114_WRITEDATA?SEEKFREE_IPS114_SPI
   *DEL*:           000044H   BYTE   INSEG    CODE           ?PR?IPS114_SET_REGION_SIMSPI?SEEKFREE_IPS114_SPI
   *DEL*:           00014FH   BYTE   INSEG    CODE           ?PR?IPS114_INIT_SIMSPI?SEEKFREE_IPS114_SPI
   *DEL*:           000048H   BYTE   INSEG    CODE           ?PR?IPS114_SET_REGION?SEEKFREE_IPS114_SPI
   *DEL*:           00016DH   BYTE   INSEG    CODE           ?PR?IPS114_INIT?SEEKFREE_IPS114_SPI
   *DEL*:           000004H   BYTE   UNIT     EDATA          ?ED?IPS114_SET_REGION_SIMSPI?SEEKFREE_IPS114_SPI
   *DEL*:           000002H   BYTE   UNIT     EDATA          ?ED?IPS114_CLEAR_SIMSPI?SEEKFREE_IPS114_SPI
   *DEL*:           000004H   BYTE   UNIT     EDATA          ?ED?IPS114_SHOWCHAR_SIMSPI?SEEKFREE_IPS114_SPI
   *DEL*:           000006H   BYTE   UNIT     EDATA          ?ED?IPS114_SHOWSTR_SIMSPI?SEEKFREE_IPS114_SPI
   *DEL*:           000005H   BYTE   UNIT     EDATA          ?ED?IPS114_SHOWINT8_SIMSPI?SEEKFREE_IPS114_SPI
   *DEL*:           000004H   BYTE   UNIT     EDATA          ?ED?IPS114_SHOWUINT8_SIMSPI?SEEKFREE_IPS114_SPI
   *DEL*:           000008H   BYTE   UNIT     EDATA          ?ED?IPS114_SHOWINT16_SIMSPI?SEEKFREE_IPS114_SPI
   *DEL*:           000006H   BYTE   UNIT     EDATA          ?ED?IPS114_SHOWUINT16_SIMSPI?SEEKFREE_IPS114_SPI
   *DEL*:           000028H   BYTE   UNIT     EDATA          ?ED?IPS114_SHOWINT32_SIMSPI?SEEKFREE_IPS114_SPI
   *DEL*:           00002BH   BYTE   UNIT     EDATA          ?ED?IPS114_SHOWFLOAT_SIMSPI?SEEKFREE_IPS114_SPI
   *DEL*:           000002H   BYTE   UNIT     EDATA          ?ED?IPS114_WRITEDATA_16BIT?SEEKFREE_IPS114_SPI
   *DEL*:           000004H   BYTE   UNIT     EDATA          ?ED?IPS114_SET_REGION?SEEKFREE_IPS114_SPI
   *DEL*:           000002H   BYTE   UNIT     EDATA          ?ED?IPS114_CLEAR?SEEKFREE_IPS114_SPI
   *DEL*:           000004H   BYTE   UNIT     EDATA          ?ED?IPS114_SHOWCHAR?SEEKFREE_IPS114_SPI
   *DEL*:           000006H   BYTE   UNIT     EDATA          ?ED?IPS114_SHOWSTR?SEEKFREE_IPS114_SPI
   *DEL*:           000005H   BYTE   UNIT     EDATA          ?ED?IPS114_SHOWINT8?SEEKFREE_IPS114_SPI
   *DEL*:           000004H   BYTE   UNIT     EDATA          ?ED?IPS114_SHOWUINT8?SEEKFREE_IPS114_SPI
   *DEL*:           000008H   BYTE   UNIT     EDATA          ?ED?IPS114_SHOWINT16?SEEKFREE_IPS114_SPI
   *DEL*:           000006H   BYTE   UNIT     EDATA          ?ED?IPS114_SHOWUINT16?SEEKFREE_IPS114_SPI
   *DEL*:           000028H   BYTE   UNIT     EDATA          ?ED?IPS114_SHOWINT32?SEEKFREE_IPS114_SPI
   *DEL*:           00002BH   BYTE   UNIT     EDATA          ?ED?IPS114_SHOWFLOAT?SEEKFREE_IPS114_SPI
   *DEL*:           000070H   BYTE   INSEG    CODE           ?PR?CCD_SEND_DATA?SEEKFREE_TSL1401
   *DEL*:           000016H   BYTE   INSEG    CODE           ?PR?CCD_INIT?SEEKFREE_TSL1401
   *DEL*:           000035H   BYTE   INSEG    CODE           ?PR?CCD_COLLECT?SEEKFREE_TSL1401
L251 LINKER/LOCATER V4.66.93.0                                                        03/22/2024  17:44:58  PAGE 11


   *DEL*:           000003H   BYTE   UNIT     EDATA          ?ED?CCD_SEND_DATA?SEEKFREE_TSL1401
   *DEL*:           00003AH   BYTE   INSEG    CODE           ?PR?CRC_CHECK?SEEKFREE_VIRSCO
   *DEL*:           000069H   BYTE   INSEG    CODE           ?PR?DATA_CONVERSION?SEEKFREE_VIRSCO
   *DEL*:           000004H   BYTE   UNIT     EDATA          ?ED?DATA_CONVERSION?SEEKFREE_VIRSCO
   *DEL*:           000022H   BYTE   INSEG    CODE           ?PR?WIRELESS_UART_READ_BUFF?SEEKFREE_WIRELESS
   *DEL*:           00005DH   BYTE   INSEG    CODE           ?PR?WIRELESS_UART_SEND_BUFF?SEEKFREE_WIRELESS
   *DEL*:           00003CH   BYTE   INSEG    CODE           ?PR?WIRELESS_UART_INIT?SEEKFREE_WIRELESS
   *DEL*:           000002H   BYTE   UNIT     EDATA          ?ED?WIRELESS_UART_SEND_BUFF?SEEKFREE_WIRELESS
   *DEL*:           000004H   BYTE   UNIT     EDATA          ?ED?WIRELESS_UART_READ_BUFF?SEEKFREE_WIRELESS
   *DEL*:           000022H   BYTE   INSEG    CODE           ?PR?WIRELESS_CH573_READ_BUFF?SEEKFREE_WIRELESS_CH573
   *DEL*:           00005DH   BYTE   INSEG    CODE           ?PR?WIRELESS_CH573_SEND_BUFF?SEEKFREE_WIRELESS_CH573
   *DEL*:           00003CH   BYTE   INSEG    CODE           ?PR?WIRELESS_CH573_INIT?SEEKFREE_WIRELESS_CH573
   *DEL*:           000002H   BYTE   UNIT     EDATA          ?ED?WIRELESS_CH573_SEND_BUFF?SEEKFREE_WIRELESS_CH573
   *DEL*:           000004H   BYTE   UNIT     EDATA          ?ED?WIRELESS_CH573_READ_BUFF?SEEKFREE_WIRELESS_CH573
   *DEL*:           000012H   BYTE   INSEG    CODE           ?PR?MOTOR_TEST?MOTOR
   *DEL*:           000011H   BYTE   INSEG    CODE           ?PR?NUM2ABS?MOTOR
   *DEL*:           000130H   BYTE   INSEG    CODE           ?PR?PID_INCREMENTAL_CALC?PID
   *DEL*:           000081H   BYTE   INSEG    CODE           ?PR?PID_INCREMENTAL_INIT?PID
   *DEL*:           00000DH   BYTE   UNIT     EDATA          ?ED?PID_INCREMENTAL_INIT?PID
   *DEL*:           000004H   BYTE   UNIT     EDATA          ?ED?PID_INCREMENTAL_CALC?PID
   *DEL*:           000013H   BYTE   INSEG    CODE           ?PR?MPU_SET_GYRO_FSR?MPU6050
   *DEL*:           000058H   BYTE   INSEG    CODE           ?PR?MPU_GET_ACCELEROMETER?MPU6050
   *DEL*:           000041H   BYTE   INSEG    CODE           ?PR?MPU_SET_LPF?MPU6050
   *DEL*:           000016H   BYTE   INSEG    CODE           ?PR?MPU_READ_BYTE?MPU6050
   *DEL*:           000013H   BYTE   INSEG    CODE           ?PR?MPU_SET_ACCEL_FSR?MPU6050
   *DEL*:           000031H   BYTE   INSEG    CODE           ?PR?ZERO_ALL?MPU6050
   *DEL*:           000069H   BYTE   INSEG    CODE           ?PR?MPU_INIT?MPU6050
   *DEL*:           00003BH   BYTE   INSEG    CODE           ?PR?MPU_GET_TEMPERATURE?MPU6050
   *DEL*:           000037H   BYTE   INSEG    CODE           ?PR?MPU_SET_RATE?MPU6050
   *DEL*:           000001H   BYTE   UNIT     EDATA          ?ED?MPU_READ_BYTE?MPU6050
   *DEL*:           000002H   BYTE   UNIT     EDATA          ?ED?MPU_GET_TEMPERATURE?MPU6050
   *DEL*:           00000EH   BYTE   UNIT     EDATA          ?ED?MPU_GET_ACCELEROMETER?MPU6050
   *DEL*:           0000D3H   BYTE   INSEG    CODE           ?PR?ELEM_BARRIER?ELEMENT
   *DEL*:           00002DH   BYTE   INSEG    CODE           ?PR?OLED_CHANGE_VALUE?UI



OVERLAY MAP OF MODULE:   .\Out_File\SEEKFREE (board)


FUNCTION/MODULE                               EDATA_GROUP
--> CALLED FUNCTION/MODULE                    START  STOP
=========================================================
UART1_Isr/isr                                 ----- -----

*** NEW ROOT ********************************

UART2_Isr/isr                                 ----- -----

*** NEW ROOT ********************************

UART3_Isr/isr                                 ----- -----

*** NEW ROOT ********************************

UART4_Isr/isr                                 ----- -----
  +--> wireless_uart_callback/SEEKFREE_WIRELESS
  +--> bluetooth_ch9141_uart_callback/SEEKFREE_BLUETOOTH_CH9141
  +--> wireless_ch573_callback/SEEKFREE_WIRELESS_CH573

wireless_uart_callback/SEEKFREE_WIRELESS      ----- -----
  +--> fifo_write_buffer/zf_fifo

fifo_write_buffer/zf_fifo                     03FEH 0409H
  +--> memcpy?_/memcpy
L251 LINKER/LOCATER V4.66.93.0                                                        03/22/2024  17:44:58  PAGE 12


  +--> fifo_head_offset/zf_fifo

memcpy?_/memcpy                               ----- -----

fifo_head_offset/zf_fifo                      ----- -----

bluetooth_ch9141_uart_callback/SEEKFREE_+     ----- -----
... BLUETOOTH_CH9141
  +--> fifo_write_buffer/zf_fifo

wireless_ch573_callback/SEEKFREE_WIRELES+     ----- -----
... S_CH573
  +--> fifo_write_buffer/zf_fifo

*** NEW ROOT ********************************

INT0_Isr/isr                                  ----- -----

*** NEW ROOT ********************************

INT1_Isr/isr                                  ----- -----

*** NEW ROOT ********************************

INT2_Isr/isr                                  ----- -----

*** NEW ROOT ********************************

INT3_Isr/isr                                  ----- -----

*** NEW ROOT ********************************

INT4_Isr/isr                                  ----- -----

*** NEW ROOT ********************************

TM0_Isr/isr                                   ----- -----

*** NEW ROOT ********************************

TM1_Isr/isr                                   ----- -----

*** NEW ROOT ********************************

TM2_Isr/isr                                   ----- -----

*** NEW ROOT ********************************

TM3_Isr/isr                                   ----- -----

*** NEW ROOT ********************************

TM4_Isr/isr                                   ----- -----
  +--> pwm_duty/zf_pwm

pwm_duty/zf_pwm                               ----- -----

*** NEW ROOT ********************************

?C_C51STARTUP                                 ----- -----

*** NEW ROOT ********************************

?C_C51STARTUP?3                               ----- -----
  +--> main/main
L251 LINKER/LOCATER V4.66.93.0                                                        03/22/2024  17:44:58  PAGE 13



main/main                                     ----- -----
  +--> Init_all/main
  +--> EnableGlobalIRQ/board
  +--> PRINTF/PRINTF
  +--> ui_show/UI
  +--> GetKey_Value/Key
  +--> oled_all_static_state/UI
  +--> ADC_GetValue/ADC
  +--> MPU6050_Refresh_DMP/MPU6050
  +--> MPU_Get_Gyroscope/MPU6050
  +--> Get_Ratio/main
  +--> vl53l0x_get_distance/TOF
  +--> Elem_Circle/Element
  +--> PID_Calculate/PID
  +--> Limit_Out/motor
  +--> Elem_Up_Down/Element
  +--> Get_Speed/motor
  +--> Left_SetSpeed/motor
  +--> Right_SetSpeed/motor

Init_all/main                                 ----- -----
  +--> DisableGlobalIRQ/board
  +--> board_init/board
  +--> gpio_mode/zf_gpio
  +--> Key_Init/Key
  +--> vl53l0x_init/TOF
  +--> ui_init/UI
  +--> MPU6050_DMP_Init/MPU6050
  +--> pit_timer_ms/zf_tim
  +--> ctimer_count_init/zf_tim
  +--> Motor_Init/motor
  +--> Buzzer_Init/Buzzer
  +--> ADC_InitAll/ADC
  +--> PID_Init/PID

DisableGlobalIRQ/board                        ----- -----

board_init/board                              ----- -----
  +--> delay_init/zf_delay
  +--> uart_init/zf_uart

delay_init/zf_delay                           ----- -----
  +--> ?C?SLDIV/?C?SLDIV

?C?SLDIV/?C?SLDIV                             ----- -----
  +--> ?C?ULIDIV/?C?ULDIV

?C?ULIDIV/?C?ULDIV                            ----- -----

uart_init/zf_uart                             040AH 040FH
  +--> ?C?ULIDIV/?C?ULDIV

gpio_mode/zf_gpio                             ----- -----

Key_Init/Key                                  ----- -----
  +--> gpio_mode/zf_gpio

vl53l0x_init/TOF                              040AH 041BH
  +--> memset?_/memset
  +--> delay_ms/zf_delay
  +--> vl53l0x_simiic_read_reg/TOF
  +--> vl53l0x_simiic_write_reg/TOF
  +--> vl53l0x_simiic_read_regs/TOF
  +--> vl53l0x_set_signal_rate_limit/TOF
L251 LINKER/LOCATER V4.66.93.0                                                        03/22/2024  17:44:58  PAGE 14


  +--> vl53l0x_get_spad_info/TOF
  +--> PRINTF/PRINTF
  +--> vl53l0x_simiic_write_dats/TOF
  +--> vl53l0x_get_measurement_timing_budget/TOF
  +--> vl53l0x_set_measurement_timing_budget/TOF
  +--> vl53l0x_perform_single_ref_calibration/TOF

memset?_/memset                               ----- -----

delay_ms/zf_delay                             ----- -----

vl53l0x_simiic_read_reg/TOF                   ----- -----
  +--> vl53l0x_simiic_start/TOF
  +--> vl53l0x_send_ch/TOF
  +--> vl53l0x_read_ch/TOF
  +--> vl53l0x_simiic_stop/TOF

vl53l0x_simiic_start/TOF                      ----- -----
  +--> vl53l0x_simiic_delay/TOF

vl53l0x_simiic_delay/TOF                      ----- -----

vl53l0x_send_ch/TOF                           ----- -----
  +--> vl53l0x_simiic_delay/TOF
  +--> vl53l0x_sccb_waitack/TOF

vl53l0x_sccb_waitack/TOF                      ----- -----
  +--> vl53l0x_simiic_delay/TOF

vl53l0x_read_ch/TOF                           ----- -----
  +--> vl53l0x_simiic_delay/TOF
  +--> vl53l0x_simiic_sendack/TOF

vl53l0x_simiic_sendack/TOF                    ----- -----
  +--> vl53l0x_simiic_delay/TOF

vl53l0x_simiic_stop/TOF                       ----- -----
  +--> vl53l0x_simiic_delay/TOF

vl53l0x_simiic_write_reg/TOF                  ----- -----
  +--> vl53l0x_simiic_start/TOF
  +--> vl53l0x_send_ch/TOF
  +--> vl53l0x_simiic_stop/TOF

vl53l0x_simiic_read_regs/TOF                  0446H 044BH
  +--> vl53l0x_simiic_start/TOF
  +--> vl53l0x_send_ch/TOF
  +--> vl53l0x_read_ch/TOF
  +--> vl53l0x_simiic_stop/TOF

vl53l0x_set_signal_rate_limit/TOF             041CH 041EH
  +--> vl53l0x_simiic_write_dats/TOF

vl53l0x_simiic_write_dats/TOF                 043FH 0443H
  +--> vl53l0x_simiic_start/TOF
  +--> vl53l0x_send_ch/TOF
  +--> vl53l0x_simiic_stop/TOF

vl53l0x_get_spad_info/TOF                     041CH 0423H
  +--> vl53l0x_simiic_write_reg/TOF
  +--> vl53l0x_simiic_read_regs/TOF

PRINTF/PRINTF                                 041CH 0443H
  +--> OUT/PRINTF

L251 LINKER/LOCATER V4.66.93.0                                                        03/22/2024  17:44:58  PAGE 15


OUT/PRINTF                                    ----- -----
  +--> PUTCH/PRINTF

PUTCH/PRINTF                                  ----- -----
  +--> putchar/board
  +--> OUT/PRINTF

putchar/board                                 ----- -----
  +--> uart_putchar/zf_uart

uart_putchar/zf_uart                          ----- -----

vl53l0x_get_measurement_timing_budget/TO+     041CH 0436H
... F
  +--> vl53l0x_get_sequence_step_enables/TOF
  +--> vl53l0x_get_sequence_step_timeouts/TOF

vl53l0x_get_sequence_step_enables/TOF         043FH 043FH
  +--> vl53l0x_simiic_read_regs/TOF

vl53l0x_get_sequence_step_timeouts/TOF        043FH 0444H
  +--> vl53l0x_get_vcsel_pulse_period/TOF
  +--> vl53l0x_simiic_read_regs/TOF
  +--> vl53l0x_timeout_mclks_to_microseconds/TOF
  +--> vl53l0x_decode_timeout/TOF

vl53l0x_get_vcsel_pulse_period/TOF            0445H 0445H
  +--> vl53l0x_simiic_read_regs/TOF

vl53l0x_timeout_mclks_to_microseconds/TO+     ----- -----
... F
  +--> ?C?ULIDIV/?C?ULDIV

vl53l0x_decode_timeout/TOF                    ----- -----

vl53l0x_set_measurement_timing_budget/TO+     041CH 043EH
... F
  +--> vl53l0x_get_sequence_step_enables/TOF
  +--> vl53l0x_get_sequence_step_timeouts/TOF
  +--> vl53l0x_timeout_microseconds_to_mclks/TOF
  +--> vl53l0x_encode_timeout/TOF
  +--> vl53l0x_simiic_write_dats/TOF

vl53l0x_timeout_microseconds_to_mclks/TO+     ----- -----
... F
  +--> ?C?ULIDIV/?C?ULDIV

vl53l0x_encode_timeout/TOF                    ----- -----

vl53l0x_perform_single_ref_calibration/T+     041CH 041EH
... OF
  +--> vl53l0x_simiic_write_reg/TOF
  +--> vl53l0x_simiic_read_regs/TOF

ui_init/UI                                    ----- -----
  +--> oled_init/SEEKFREE_OLED
  +--> value_name_init/UI
  +--> oled_all_static_state/UI

oled_init/SEEKFREE_OLED                       ----- -----
  +--> delay_ms/zf_delay
  +--> oled_wrcmd/SEEKFREE_OLED
  +--> oled_fill/SEEKFREE_OLED
  +--> oled_set_pos/SEEKFREE_OLED

L251 LINKER/LOCATER V4.66.93.0                                                        03/22/2024  17:44:58  PAGE 16


oled_wrcmd/SEEKFREE_OLED                      ----- -----

oled_fill/SEEKFREE_OLED                       ----- -----
  +--> oled_wrcmd/SEEKFREE_OLED
  +--> oled_wrdat/SEEKFREE_OLED

oled_wrdat/SEEKFREE_OLED                      ----- -----

oled_set_pos/SEEKFREE_OLED                    ----- -----
  +--> oled_wrcmd/SEEKFREE_OLED

value_name_init/UI                            ----- -----
  +--> STRCPY?_/STRCPY?_

STRCPY?_/STRCPY?_                             ----- -----

oled_all_static_state/UI                      ----- -----
  +--> oled_p8x16str/SEEKFREE_OLED

oled_p8x16str/SEEKFREE_OLED                   0435H 0439H
  +--> oled_set_pos/SEEKFREE_OLED
  +--> oled_wrdat/SEEKFREE_OLED

MPU6050_DMP_Init/MPU6050                      ----- -----
  +--> initMPU6050/MPU6050
  +--> getDeviceID/MPU6050
  +--> dmpInitialize/MPU6050
  +--> MPU_Write_Bit/MPU6050

initMPU6050/MPU6050                           ----- -----
  +--> MPU_Write_Bits/MPU6050
  +--> MPU_Write_Bit/MPU6050

MPU_Write_Bits/MPU6050                        ----- -----
  +--> i2c_write_bits/MPU6050

i2c_write_bits/MPU6050                        0410H 0410H
  +--> i2c_mem_read/MPU6050
  +--> i2c_mem_write/MPU6050

i2c_mem_read/MPU6050                          0418H 041BH
  +--> i2c_start/MPU6050
  +--> i2c_write_byte/MPU6050
  +--> i2c_wait_ack/MPU6050
  +--> i2c_read_byte/MPU6050
  +--> i2c_stop/MPU6050

i2c_start/MPU6050                             ----- -----
  +--> I2C_SDA_H/MPU6050
  +--> I2C_SCL_H/MPU6050
  +--> i2c_delay/MPU6050
  +--> I2C_SDA_L/MPU6050
  +--> I2C_SCL_L/MPU6050

I2C_SDA_H/MPU6050                             ----- -----

I2C_SCL_H/MPU6050                             ----- -----

i2c_delay/MPU6050                             ----- -----

I2C_SDA_L/MPU6050                             ----- -----

I2C_SCL_L/MPU6050                             ----- -----

i2c_write_byte/MPU6050                        ----- -----
L251 LINKER/LOCATER V4.66.93.0                                                        03/22/2024  17:44:58  PAGE 17


  +--> I2C_SCL_L/MPU6050
  +--> I2C_SDA_H/MPU6050
  +--> I2C_SDA_L/MPU6050
  +--> i2c_delay/MPU6050
  +--> I2C_SCL_H/MPU6050

i2c_wait_ack/MPU6050                          ----- -----
  +--> I2C_SCL_H/MPU6050
  +--> i2c_delay/MPU6050
  +--> i2c_timeout_delay/MPU6050
  +--> i2c_stop/MPU6050
  +--> I2C_SDA_Read/MPU6050
  +--> I2C_SCL_L/MPU6050

i2c_timeout_delay/MPU6050                     ----- -----

i2c_stop/MPU6050                              ----- -----
  +--> I2C_SDA_L/MPU6050
  +--> I2C_SCL_H/MPU6050
  +--> i2c_delay/MPU6050
  +--> I2C_SDA_H/MPU6050

I2C_SDA_Read/MPU6050                          ----- -----

i2c_read_byte/MPU6050                         ----- -----
  +--> I2C_SCL_L/MPU6050
  +--> i2c_delay/MPU6050
  +--> I2C_SCL_H/MPU6050
  +--> I2C_SDA_Read/MPU6050
  +--> i2c_nack/MPU6050
  +--> i2c_ack/MPU6050

i2c_nack/MPU6050                              ----- -----
  +--> I2C_SCL_L/MPU6050
  +--> I2C_SDA_H/MPU6050
  +--> i2c_delay/MPU6050
  +--> I2C_SCL_H/MPU6050

i2c_ack/MPU6050                               ----- -----
  +--> I2C_SCL_L/MPU6050
  +--> I2C_SDA_L/MPU6050
  +--> i2c_delay/MPU6050
  +--> I2C_SCL_H/MPU6050
  +--> I2C_SDA_H/MPU6050

i2c_mem_write/MPU6050                         0413H 0416H
  +--> i2c_start/MPU6050
  +--> i2c_write_byte/MPU6050
  +--> i2c_wait_ack/MPU6050
  +--> i2c_stop/MPU6050

MPU_Write_Bit/MPU6050                         ----- -----
  +--> i2c_write_bit/MPU6050

i2c_write_bit/MPU6050                         0410H 0410H
  +--> i2c_mem_read/MPU6050
  +--> i2c_mem_write/MPU6050

getDeviceID/MPU6050                           040AH 040AH
  +--> MPU_Read_Bits/MPU6050

MPU_Read_Bits/MPU6050                         ----- -----
  +--> i2c_read_bits/MPU6050

i2c_read_bits/MPU6050                         0410H 0413H
L251 LINKER/LOCATER V4.66.93.0                                                        03/22/2024  17:44:58  PAGE 18


  +--> i2c_mem_read/MPU6050

dmpInitialize/MPU6050                         040AH 040FH
  +--> MPU_Write_Bit/MPU6050
  +--> MPU_Delay_Ms/MPU6050
  +--> MPU_Write_Byte/MPU6050
  +--> MPU_Read_Len/MPU6050
  +--> MPU_Read_Bit/MPU6050
  +--> MPU_Read_Bits/MPU6050
  +--> loadfirmware/MPU6050
  +--> loadcfgupd/MPU6050
  +--> MPU_Write_Bits/MPU6050
  +--> xdmpUpdates/MPU6050
  +--> getFIFOCount/MPU6050

MPU_Delay_Ms/MPU6050                          ----- -----
  +--> Delay1ms/MPU6050

Delay1ms/MPU6050                              ----- -----

MPU_Write_Byte/MPU6050                        0412H 0412H
  +--> i2c_mem_write/MPU6050

MPU_Read_Len/MPU6050                          ----- -----
  +--> i2c_mem_read/MPU6050

MPU_Read_Bit/MPU6050                          ----- -----
  +--> i2c_read_bit/MPU6050

i2c_read_bit/MPU6050                          0410H 0411H
  +--> i2c_mem_read/MPU6050

loadfirmware/MPU6050                          0410H 0411H
  +--> MPU_Write_Byte/MPU6050
  +--> MPU_Write_Len/MPU6050

MPU_Write_Len/MPU6050                         ----- -----
  +--> i2c_mem_write/MPU6050

loadcfgupd/MPU6050                            0410H 0411H
  +--> MPU_Write_Byte/MPU6050
  +--> MPU_Write_Len/MPU6050

xdmpUpdates/MPU6050                           0410H 0410H
  +--> MPU_Write_Byte/MPU6050
  +--> MPU_Write_Len/MPU6050

getFIFOCount/MPU6050                          0410H 0411H
  +--> MPU_Read_Len/MPU6050

pit_timer_ms/zf_tim                           ----- -----
  +--> ?C?SLDIV/?C?SLDIV

ctimer_count_init/zf_tim                      ----- -----

Motor_Init/motor                              ----- -----
  +--> pwm_init/zf_pwm

pwm_init/zf_pwm                               040AH 0411H
  +--> pwm_set_gpio/zf_pwm
  +--> ?C?ULIDIV/?C?ULDIV

pwm_set_gpio/zf_pwm                           ----- -----
  +--> gpio_mode/zf_gpio

L251 LINKER/LOCATER V4.66.93.0                                                        03/22/2024  17:44:58  PAGE 19


Buzzer_Init/Buzzer                            ----- -----
  +--> pwm_init/zf_pwm

ADC_InitAll/ADC                               ----- -----
  +--> adc_init/zf_adc

adc_init/zf_adc                               ----- -----

PID_Init/PID                                  040AH 0419H

EnableGlobalIRQ/board                         ----- -----

ui_show/UI                                    ----- -----
  +--> refresh_value/UI
  +--> oled_show/UI

refresh_value/UI                              ----- -----

oled_show/UI                                  ----- -----
  +--> refresh_value/UI
  +--> oled_printf_float/SEEKFREE_OLED

oled_printf_float/SEEKFREE_OLED               040AH 0434H
  +--> zf_sprintf/SEEKFREE_PRINTF
  +--> oled_p8x16str/SEEKFREE_OLED

zf_sprintf/SEEKFREE_PRINTF                    0435H 0493H
  +--> number_conversion_ascii/SEEKFREE_PRINTF
  +--> printf_reverse_order/SEEKFREE_PRINTF
  +--> memcpy?_/memcpy

number_conversion_ascii/SEEKFREE_PRINTF       0494H 0494H
  +--> ?C?SLDIV/?C?SLDIV
  +--> ?C?ULIDIV/?C?ULDIV

printf_reverse_order/SEEKFREE_PRINTF          ----- -----

GetKey_Value/Key                              ----- -----

ADC_GetValue/ADC                              ----- -----
  +--> adc_once/zf_adc

adc_once/zf_adc                               ----- -----

MPU6050_Refresh_DMP/MPU6050                   ----- -----
  +--> getFIFOCount/MPU6050
  +--> MPU_Read_Len/MPU6050
  +--> MPU_Write_Bit/MPU6050
  +--> readdmp/MPU6050
  +--> atan2?_/atan2

readdmp/MPU6050                               ----- -----
  +--> MPU_Read_Len/MPU6050

atan2?_/atan2                                 ----- -----

MPU_Get_Gyroscope/MPU6050                     040AH 0417H
  +--> MPU_Read_Len/MPU6050

Get_Ratio/main                                ----- -----
  +--> Limit_Out/motor

Limit_Out/motor                               040EH 0411H

vl53l0x_get_distance/TOF                      040AH 040CH
L251 LINKER/LOCATER V4.66.93.0                                                        03/22/2024  17:44:58  PAGE 20


  +--> vl53l0x_simiic_read_regs_1/TOF
  +--> vl53l0x_simiic_write_reg/TOF

vl53l0x_simiic_read_regs_1/TOF                040DH 0412H
  +--> vl53l0x_simiic_start/TOF
  +--> vl53l0x_send_ch/TOF
  +--> vl53l0x_read_ch/TOF
  +--> vl53l0x_simiic_stop/TOF

Elem_Circle/Element                           ----- -----

PID_Calculate/PID                             040AH 040DH
  +--> Limit_Out/motor

Elem_Up_Down/Element                          ----- -----

Get_Speed/motor                               ----- -----
  +--> ctimer_count_read/zf_tim
  +--> ctimer_count_clean/zf_tim

ctimer_count_read/zf_tim                      ----- -----

ctimer_count_clean/zf_tim                     ----- -----

Left_SetSpeed/motor                           ----- -----
  +--> abs?_/ABS
  +--> pwm_duty/zf_pwm

abs?_/ABS                                     ----- -----

Right_SetSpeed/motor                          ----- -----
  +--> abs?_/ABS
  +--> pwm_duty/zf_pwm

*** NEW ROOT ********************************

?C_C51STARTUP?2                               ----- -----



PUBLIC SYMBOLS OF MODULE:  .\Out_File\SEEKFREE (board)


      VALUE       CLASS    TYPE      PUBLIC SYMBOL NAME
      =================================================
      00FF111EH   CODE     NEAR LAB  ?C?CASTF
      000000FFH   NUMBER   ---       ?C?CODESEG
      00FF10EBH   CODE     NEAR LAB  ?C?FCASTC
      00FF10E6H   CODE     NEAR LAB  ?C?FCASTI
      00FF10E1H   CODE     NEAR LAB  ?C?FCASTL
      00FF18BFH   CODE     ---       ?C?FP2SERIES
      00FF0EB4H   CODE     ---       ?C?FPADD
      00FF108FH   CODE     ---       ?C?FPCMP
      00FF108DH   CODE     ---       ?C?FPCMP3
      00FF17C4H   CODE     ---       ?C?FPCONVERT
      00FF100CH   CODE     ---       ?C?FPDIV
      00FF1237H   CODE     ---       ?C?FPGETOPN2
      00FF0F6CH   CODE     ---       ?C?FPMUL
      00FF1274H   CODE     ---       ?C?FPNANRESULT
      00FF10D3H   CODE     ---       ?C?FPNEG
      00FF127CH   CODE     ---       ?C?FPOVERFLOW
      00FF1250H   CODE     ---       ?C?FPRESULT
      00FF1266H   CODE     ---       ?C?FPRESULT2
      00FF187CH   CODE     ---       ?C?FPROUND
      00FF18C8H   CODE     ---       ?C?FPSERIES
L251 LINKER/LOCATER V4.66.93.0                                                        03/22/2024  17:44:58  PAGE 21


      00FF0EB1H   CODE     ---       ?C?FPSUB
      00FF1279H   CODE     ---       ?C?FPUNDERFLOW
      00FF191CH   CODE     ---       ?C?FTNPWR
      00FF5E20H   CODE     ---       ?C?INITEDATA
      00FF676FH   HCONST   WORD      ?C?INITEDATA_END
      00FF1996H   CODE     ---       ?C?LIMUL
      00FF1985H   CODE     ---       ?C?LMUL
      00FF12B5H   CODE     ---       ?C?PRNFMT
      00FF1953H   CODE     ---       ?C?SIDIV
      00FF19F2H   CODE     NEAR LAB  ?C?SLDIV
      00FF0000H   CODE     ---       ?C?STARTUP
      00FF19A1H   CODE     NEAR LAB  ?C?ULDIV
      00FF199FH   CODE     NEAR LAB  ?C?ULIDIV
      00000001H   NUMBER   ---       ?C?XDATASEG
      00FF0000H   CODE     ---       ?C_STARTUP
*DEL*:1FFFFFF8H   EDATA    BYTE      ?data_conversion?BYTE
*DEL*:1FFFFFF8H   EDATA    BYTE      ?fifo_init?BYTE
*DEL*:1FFFFFFCH   EDATA    BYTE      ?fifo_read_buffer?BYTE
      000003FAH   EDATA    BYTE      ?fifo_write_buffer?BYTE
*DEL*:1FFFFFFAH   EDATA    BYTE      ?iic_init?BYTE
*DEL*:1FFFFFFCH   EDATA    BYTE      ?ips114_showfloat?BYTE
*DEL*:1FFFFFFCH   EDATA    BYTE      ?ips114_showfloat_simspi?BYTE
*DEL*:1FFFFFFCH   EDATA    BYTE      ?lcd_showfloat?BYTE
*DEL*:1FFFFFFCH   EDATA    BYTE      ?lcd_showfloat_simspi?BYTE
      00000406H   EDATA    BYTE      ?Limit_Out?BYTE
*DEL*:1FFFFFFCH   EDATA    BYTE      ?MPU_Get_Accelerometer?BYTE
      00000406H   EDATA    BYTE      ?MPU_Get_Gyroscope?BYTE
      0000048BH   EDATA    BYTE      ?number_conversion_ascii?BYTE
      00000406H   EDATA    BYTE      ?oled_printf_float?BYTE
*DEL*:1FFFFFFCH   EDATA    BYTE      ?oled_printf_float_spi?BYTE
      00000402H   EDATA    BYTE      ?PID_Calculate?BYTE
*DEL*:1FFFFFF8H   EDATA    BYTE      ?PID_Incremental_Calc?BYTE
*DEL*:1FFFFFF8H   EDATA    BYTE      ?PID_Incremental_Init?BYTE
      00000402H   EDATA    BYTE      ?PID_Init?BYTE
      00000444H   EDATA    ---       ?printf?BYTE
*DEL*:1FFFFFFAH   EDATA    BYTE      ?pwm_freq?BYTE
      00000408H   EDATA    BYTE      ?pwm_init?BYTE
*DEL*:1FFFFFF7H   EDATA    BYTE      ?spi_init?BYTE
      00000404H   EDATA    BYTE      ?uart_init?BYTE
      0000045DH   EDATA    BYTE      ?zf_sprintf?BYTE
      000006BCH   EDATA    CHAR      A
      000006BDH   EDATA    CHAR      A1
      00FF652BH   CODE     ---       abs?_
      000005FFH   EDATA    ---       ADC_Array_Original
*SFR* 000000BCH   DATA     BYTE      ADC_CONTR
      00FF4458H   CODE     ---       ADC_GetValue
      00FF5877H   CODE     ---       adc_init
      00FF61E4H   CODE     ---       ADC_InitAll
      00FF615DH   CODE     ---       adc_once
      0000063BH   EDATA    ---       ADC_proc
*SFR* 000000BDH   DATA     BYTE      ADC_RES
*SFR* 000000BEH   DATA     BYTE      ADC_RESL
*SFR* 000000DEH   DATA     BYTE      ADCCFG
      00000683H   EDATA    FLOAT     Adjust_Val
      00FF1217H   CODE     ---       asin?_
*DEL*:00000000H   CODE     ---       at24c02_read_byte
*DEL*:00000000H   CODE     ---       at24c02_read_bytes
*DEL*:00000000H   CODE     ---       at24c02_write_byte
*DEL*:00000000H   CODE     ---       at24c02_write_bytes
      00FF5CC3H   CODE     ---       atan2?_
      00FF16E4H   CODE     ---       ATAN?_
*SFR* 000000EFH   DATA     BYTE      AUXINTIF
*SFR* 0000008EH   DATA     BYTE      AUXR
      000006AFH   EDATA    CHAR      Avoid_ON
      000006A6H   EDATA    CHAR      Barrier_Executed
L251 LINKER/LOCATER V4.66.93.0                                                        03/22/2024  17:44:58  PAGE 22


      000006A1H   EDATA    CHAR      Barrier_Flag1
      000006A2H   EDATA    CHAR      Barrier_Flag2
      000006A3H   EDATA    CHAR      Barrier_Flag3
      000006A4H   EDATA    CHAR      Barrier_Flag4
*DEL*:00000000H   CODE     ---       bluetooth_ch9141_init
*DEL*:00000000H   CODE     ---       bluetooth_ch9141_read_buff
*DEL*:00000000H   CODE     ---       bluetooth_ch9141_send_buff
      00FF6422H   CODE     ---       bluetooth_ch9141_uart_callback
      00FF5308H   CODE     ---       board_init
      000003F9H   EDATA    ---       busy
      00FF650AH   CODE     ---       Buzzer_Init
*DEL*:00000000H   CODE     ---       ccd_collect
      0000013EH   EDATA    ---       ccd_data
*DEL*:00000000H   CODE     ---       ccd_init
*DEL*:00000000H   CODE     ---       ccd_send_data
      00000698H   EDATA    FLOAT     Circle_Flag
      000006A5H   EDATA    CHAR      Circle_Flag2
      000006F7H   EDATA    CHAR      clear_Num
      000006FBH   EDATA    CHAR      count
*DEL*:00000000H   CODE     ---       CRC_CHECK
      00FF5B8EH   CODE     ---       ctimer_count_clean
      00FF5C79H   CODE     ---       ctimer_count_init
      00FF5BDFH   CODE     ---       ctimer_count_read
*DEL*:00000000H   CODE     ---       data_conversion
      00FF65C9H   CODE     ---       Delay1ms
      0000069CH   EDATA    CHAR      delay_10ms
      00FF5FB8H   CODE     ---       delay_init
      00FF646DH   CODE     ---       delay_ms
*DEL*:00000000H   CODE     ---       delay_us
      0000068BH   EDATA    FLOAT     Diff
      00000687H   EDATA    FLOAT     Diff_Mid
      00FF0016H   CODE     ---       DisableGlobalIRQ
      00FF1A55H   CODE     ---       dmpcfgupddata
      000004C5H   EDATA    ---       dmpdatas
      00FF3D31H   CODE     ---       dmpInitialize
      00FF1B15H   CODE     ---       dmpmemorydata
      00FF1A26H   CODE     ---       dmpUpdates
*SFR* 000000A8H.7 DATA     BIT       EA
*DEL*:00000000H   CODE     ---       eeprom_trig
*DEL*:00000000H   CODE     ---       Elem_Barrier
      00FF3F5DH   CODE     ---       Elem_Circle
      00FF5F41H   CODE     ---       Elem_Up_Down
      00FF000EH   CODE     ---       EnableGlobalIRQ
*DEL*:00000000H   CODE     ---       encoder_angle_simspi
*DEL*:00000000H   CODE     ---       encoder_angle_spi
*DEL*:00000000H   CODE     ---       encoder_delay_us
*DEL*:00000000H   CODE     ---       encoder_init_simspi
*DEL*:00000000H   CODE     ---       encoder_init_spi
*DEL*:00000000H   CODE     ---       encoder_self4_check
*DEL*:00000000H   CODE     ---       encoder_self5_check
*DEL*:00000000H   CODE     ---       encoder_simspi_r_reg_byte
*DEL*:00000000H   CODE     ---       encoder_simspi_w_reg_byte
*DEL*:00000000H   CODE     ---       encoder_spi_r_reg_byte
*DEL*:00000000H   CODE     ---       encoder_spi_w_reg_byte
*SFR* 000000A8H.4 DATA     BIT       ES
*SFR* 000000A8H.1 DATA     BIT       ET0
*SFR* 000000A8H.3 DATA     BIT       ET1
*SFR* 000000A8H.0 DATA     BIT       EX0
*SFR* 000000A8H.2 DATA     BIT       EX1
*DEL*:00000000H   CODE     ---       exit_init
      00000653H   EDATA    FLOAT     Exp_Speed
      0000066CH   EDATA    FLOAT     Exp_Speed_L
      00000670H   EDATA    FLOAT     Exp_Speed_R
*DEL*:00000000H   CODE     ---       extern_iap_write_bytes
*SFR* 000000D0H.5 DATA     BIT       F0
L251 LINKER/LOCATER V4.66.93.0                                                        03/22/2024  17:44:58  PAGE 23


*DEL*:00000000H   CODE     ---       fifo_clear
*DEL*:00000000H   CODE     ---       fifo_end_offset
      00FF5D4CH   CODE     ---       fifo_head_offset
*DEL*:00000000H   CODE     ---       fifo_init
*DEL*:00000000H   CODE     ---       fifo_read_buffer
*DEL*:00000000H   CODE     ---       fifo_used
      00FF4957H   CODE     ---       fifo_write_buffer
*DEL*:00000000H   CODE     ---       get_icm20602_accdata_simiic
*DEL*:00000000H   CODE     ---       get_icm20602_accdata_simspi
*DEL*:00000000H   CODE     ---       get_icm20602_gyro_simiic
*DEL*:00000000H   CODE     ---       get_icm20602_gyro_simspi
      00FF4EDEH   CODE     ---       Get_Ratio
      00FF57B5H   CODE     ---       Get_Speed
      00FF638CH   CODE     ---       getDeviceID
      00FF0026H   CODE     ---       getFIFOCount
      00FF55F8H   CODE     ---       GetKey_Value
      00FF2DB3H   CODE     ---       gpio_mode
*DEL*:00000000H   CODE     ---       gpio_pull_set
      00000678H   EDATA    INT       gx
      0000067AH   EDATA    INT       gy
      0000067CH   EDATA    INT       gz
      00FF6484H   CODE     ---       i2c_ack
      00FF65BEH   CODE     ---       i2c_delay
      00FF5507H   CODE     ---       i2c_mem_read
      00FF5818H   CODE     ---       i2c_mem_write
      00FF64D5H   CODE     ---       i2c_nack
      00FF60C4H   CODE     ---       i2c_read_bit
      00FF56E1H   CODE     ---       i2c_read_bits
      00FF5FF1H   CODE     ---       i2c_read_byte
      00FF005EH   CODE     ---       I2C_SCL_H
      00FF0086H   CODE     ---       I2C_SCL_L
      00FF001EH   CODE     ---       I2C_SDA_H
      00FF0056H   CODE     ---       I2C_SDA_L
      00FF0006H   CODE     ---       I2C_SDA_Read
      00FF64E7H   CODE     ---       i2c_start
      00FF653BH   CODE     ---       i2c_stop
      00FF65A8H   CODE     ---       i2c_timeout_delay
      00FF620FH   CODE     ---       i2c_wait_ack
      00FF5932H   CODE     ---       i2c_write_bit
      00FF548AH   CODE     ---       i2c_write_bits
      00FF60F7H   CODE     ---       i2c_write_byte
*SFR* 000000F6H   DATA     BYTE      IAP_ADDRE
*SFR* 000000C3H   DATA     BYTE      IAP_ADDRH
*SFR* 000000C4H   DATA     BYTE      IAP_ADDRL
*SFR* 000000C5H   DATA     BYTE      IAP_CMD
*SFR* 000000C7H   DATA     BYTE      IAP_CONTR
*SFR* 000000C2H   DATA     BYTE      IAP_DATA
*DEL*:00000000H   CODE     ---       iap_erase_page
*DEL*:00000000H   CODE     ---       iap_get_cmd_state
*DEL*:00000000H   CODE     ---       iap_idle
*DEL*:00000000H   CODE     ---       iap_init
*DEL*:00000000H   CODE     ---       iap_read_bytes
*DEL*:00000000H   CODE     ---       iap_set_tps
*SFR* 000000F5H   DATA     BYTE      IAP_TPS
*SFR* 000000C6H   DATA     BYTE      IAP_TRIG
*DEL*:00000000H   CODE     ---       iap_write_bytes
*DEL*:00000000H   CODE     ---       icm20602_init_simiic
*DEL*:00000000H   CODE     ---       icm20602_init_simspi
*DEL*:00000000H   CODE     ---       icm20602_self1_check
*DEL*:00000000H   CODE     ---       icm20602_self4_check
      000006CEH   EDATA    INT       icm_acc_x
      000006D0H   EDATA    INT       icm_acc_y
      000006D2H   EDATA    INT       icm_acc_z
      000006D4H   EDATA    INT       icm_gyro_x
      000006D6H   EDATA    INT       icm_gyro_y
L251 LINKER/LOCATER V4.66.93.0                                                        03/22/2024  17:44:58  PAGE 24


      000006D8H   EDATA    INT       icm_gyro_z
*DEL*:00000000H   CODE     ---       icm_simspi_r_reg_byte
*DEL*:00000000H   CODE     ---       icm_simspi_r_reg_bytes
*DEL*:00000000H   CODE     ---       icm_simspi_w_reg_byte
*DEL*:00000000H   CODE     ---       icm_simspi_wr_byte
*SFR* 000000A8H   DATA     BYTE      IE
*SFR* 000000AFH   DATA     BYTE      IE2
      000006E4H   EDATA    BYTE      IIC_ad_main
      000006E6H   EDATA    BYTE      IIC_ad_sub
      000006E7H   EDATA    ---       IIC_buf
*DEL*:00000000H   CODE     ---       iic_change_pin
*DEL*:00000000H   CODE     ---       iic_delay_us
*DEL*:00000000H   CODE     ---       iic_init
      000006E5H   EDATA    BYTE      IIC_num
*DEL*:00000000H   CODE     ---       iic_read_reg
*DEL*:00000000H   CODE     ---       iic_read_reg_bytes
*DEL*:00000000H   CODE     ---       iic_write_reg
      00FF4B12H   CODE     ---       Init_all
      00FF612AH   CODE     ---       initMPU6050
      00FF660DH   CODE     ---       INT0_Isr
      00FF0011H   CODE     ---       INT1_Isr
      00FF65E5H   CODE     ---       INT2_Isr
      00FF65EDH   CODE     ---       INT3_Isr
      00FF65F5H   CODE     ---       INT4_Isr
*SFR* 0000008FH   DATA     BYTE      INTCLKO
*SFR* 000000B8H   DATA     BYTE      IP
*SFR* 000000B5H   DATA     BYTE      IP2
*SFR* 000000B6H   DATA     BYTE      IP2H
*SFR* 000000B7H   DATA     BYTE      IPH
*DEL*:00000000H   CODE     ---       ips114_clear
*DEL*:00000000H   CODE     ---       ips114_clear_simspi
*DEL*:00000000H   CODE     ---       ips114_drawpoint
*DEL*:00000000H   CODE     ---       ips114_drawpoint_simspi
*DEL*:00000000H   CODE     ---       ips114_init
*DEL*:00000000H   CODE     ---       ips114_init_simspi
*DEL*:00000000H   CODE     ---       ips114_set_region
*DEL*:00000000H   CODE     ---       ips114_set_region_simspi
*DEL*:00000000H   CODE     ---       ips114_showchar
*DEL*:00000000H   CODE     ---       ips114_showchar_simspi
*DEL*:00000000H   CODE     ---       ips114_showfloat
*DEL*:00000000H   CODE     ---       ips114_showfloat_simspi
*DEL*:00000000H   CODE     ---       ips114_showint16
*DEL*:00000000H   CODE     ---       ips114_showint16_simspi
*DEL*:00000000H   CODE     ---       ips114_showint32
*DEL*:00000000H   CODE     ---       ips114_showint32_simspi
*DEL*:00000000H   CODE     ---       ips114_showint8
*DEL*:00000000H   CODE     ---       ips114_showint8_simspi
*DEL*:00000000H   CODE     ---       ips114_showstr
*DEL*:00000000H   CODE     ---       ips114_showstr_simspi
*DEL*:00000000H   CODE     ---       ips114_showuint16
*DEL*:00000000H   CODE     ---       ips114_showuint16_simspi
*DEL*:00000000H   CODE     ---       ips114_showuint8
*DEL*:00000000H   CODE     ---       ips114_showuint8_simspi
*DEL*:00000000H   CODE     ---       ips114_writeData
*DEL*:00000000H   CODE     ---       ips114_writedata_16bit
*DEL*:00000000H   CODE     ---       ips114_writeData_simspi
*DEL*:00000000H   CODE     ---       ips114_writeDatai_16bit_simspi
*DEL*:00000000H   CODE     ---       ips114_writeIndex
*DEL*:00000000H   CODE     ---       ips114_writeIndex_simspi
      00000682H   EDATA    CHAR      Isr_flag_10
*SFR* 00000088H.0 DATA     BIT       IT0
*SFR* 00000088H.2 DATA     BIT       IT1
      00FF6300H   CODE     ---       Key_Init
      0000066BH   EDATA    CHAR      KeyValue
*DEL*:00000000H   CODE     ---       lcd_clear
L251 LINKER/LOCATER V4.66.93.0                                                        03/22/2024  17:44:58  PAGE 25


*DEL*:00000000H   CODE     ---       lcd_clear_simspi
*DEL*:00000000H   CODE     ---       lcd_drawpoint
*DEL*:00000000H   CODE     ---       lcd_drawpoint_simspi
*DEL*:00000000H   CODE     ---       lcd_init
*DEL*:00000000H   CODE     ---       lcd_init_simspi
*DEL*:00000000H   CODE     ---       lcd_set_region
*DEL*:00000000H   CODE     ---       lcd_set_region_simspi
*DEL*:00000000H   CODE     ---       lcd_showchar
*DEL*:00000000H   CODE     ---       lcd_showchar_simspi
*DEL*:00000000H   CODE     ---       lcd_showfloat
*DEL*:00000000H   CODE     ---       lcd_showfloat_simspi
*DEL*:00000000H   CODE     ---       lcd_showint16
*DEL*:00000000H   CODE     ---       lcd_showint16_simspi
*DEL*:00000000H   CODE     ---       lcd_showint32
*DEL*:00000000H   CODE     ---       lcd_showint32_simspi
*DEL*:00000000H   CODE     ---       lcd_showint8
*DEL*:00000000H   CODE     ---       lcd_showint8_simspi
*DEL*:00000000H   CODE     ---       lcd_showstr
*DEL*:00000000H   CODE     ---       lcd_showstr_simspi
*DEL*:00000000H   CODE     ---       lcd_showuint16
*DEL*:00000000H   CODE     ---       lcd_showuint16_simspi
*DEL*:00000000H   CODE     ---       lcd_showuint8
*DEL*:00000000H   CODE     ---       lcd_showuint8_simspi
*DEL*:00000000H   CODE     ---       lcd_writeData
*DEL*:00000000H   CODE     ---       lcd_writedata_16bit
*DEL*:00000000H   CODE     ---       lcd_writeData_16bit_simspi
*DEL*:00000000H   CODE     ---       lcd_writeData_simspi
*DEL*:00000000H   CODE     ---       lcd_writeIndex
*DEL*:00000000H   CODE     ---       lcd_writeIndex_simspi
      00FF4CB3H   CODE     ---       Left_SetSpeed
      000002E0H   EDATA    ---       Left_Wheel
      00000262H   EDATA    ---       Left_Wheel_PID
      00FF61B9H   CODE     ---       Limit_Out
      00FF4F84H   CODE     ---       loadcfgupd
      00FF5389H   CODE     ---       loadfirmware
      00FF31AAH   CODE     ---       main
      00FF62DBH   CODE     ---       memcpy?_
      00FF6408H   CODE     ---       memset?_
      000006F6H   EDATA    CHAR      Mode
      00FF5D08H   CODE     ---       Motor_Init
*DEL*:00000000H   CODE     ---       Motor_Test
      00FF6347H   CODE     ---       MPU6050_DMP_Init
*DEL*:00000000H   CODE     ---       mpu6050_get_accdata
*DEL*:00000000H   CODE     ---       mpu6050_get_gyro
*DEL*:00000000H   CODE     ---       mpu6050_init
      00FF3A97H   CODE     ---       MPU6050_Refresh_DMP
*DEL*:00000000H   CODE     ---       mpu6050_self1_check
      000006C2H   EDATA    INT       mpu_acc_x
      000006C4H   EDATA    INT       mpu_acc_y
      000006C6H   EDATA    INT       mpu_acc_z
      00FF64AEH   CODE     ---       MPU_Delay_Ms
*DEL*:00000000H   CODE     ---       MPU_Get_Accelerometer
      00FF598EH   CODE     ---       MPU_Get_Gyroscope
*DEL*:00000000H   CODE     ---       MPU_Get_Temperature
      000006C8H   EDATA    INT       mpu_gyro_x
      000006CAH   EDATA    INT       mpu_gyro_y
      000006CCH   EDATA    INT       mpu_gyro_z
*DEL*:00000000H   CODE     ---       MPU_Init
      00FF65D3H   CODE     ---       MPU_Read_Bit
      00FF0046H   CODE     ---       MPU_Read_Bits
*DEL*:00000000H   CODE     ---       MPU_Read_Byte
      00FF659DH   CODE     ---       MPU_Read_Len
*DEL*:00000000H   CODE     ---       MPU_Set_Accel_Fsr
*DEL*:00000000H   CODE     ---       MPU_Set_Gyro_Fsr
*DEL*:00000000H   CODE     ---       MPU_Set_LPF
L251 LINKER/LOCATER V4.66.93.0                                                        03/22/2024  17:44:58  PAGE 26


*DEL*:00000000H   CODE     ---       MPU_Set_Rate
      000004EFH   EDATA    CHAR      mpu_state
      00FF6583H   CODE     ---       MPU_Write_Bit
      00FF6576H   CODE     ---       MPU_Write_Bits
      00FF6499H   CODE     ---       MPU_Write_Byte
      00FF65B3H   CODE     ---       MPU_Write_Len
      0000067EH   EDATA    FLOAT     Num1
*DEL*:00000000H   CODE     ---       Num2Abs
      00FF5161H   CODE     ---       number_conversion_ascii
*DEL*:00000000H   CODE     ---       NVIC_SetPriority
      00FF0C86H   CODE     ---       oled_6x8
      00FF00A6H   CODE     ---       oled_8x16
      00FF5DCEH   CODE     ---       oled_all_static_state
*DEL*:00000000H   CODE     ---       oled_change_value
*DEL*:00000000H   CODE     ---       oled_clrpixel
*DEL*:00000000H   CODE     ---       oled_clrpixel_spi
*DEL*:00000000H   CODE     ---       oled_dis_bmp
*DEL*:00000000H   CODE     ---       oled_dis_bmp_spi
      00FF6091H   CODE     ---       oled_fill
*DEL*:00000000H   CODE     ---       oled_fill_spi
*DEL*:00000000H   CODE     ---       oled_hexascii
*DEL*:00000000H   CODE     ---       oled_hexascii_spi
      00FF502AH   CODE     ---       oled_init
*DEL*:00000000H   CODE     ---       oled_init_spi
*DEL*:00000000H   CODE     ---       oled_int16
*DEL*:00000000H   CODE     ---       oled_int16_spi
*DEL*:00000000H   CODE     ---       oled_p6x8str
*DEL*:00000000H   CODE     ---       oled_p6x8str_spi
      00FF478BH   CODE     ---       oled_p8x16str
*DEL*:00000000H   CODE     ---       oled_p8x16str_spi
*DEL*:00000000H   CODE     ---       oled_print_chinese
*DEL*:00000000H   CODE     ---       oled_print_chinese_spi
      00FF45A3H   CODE     ---       oled_printf_float
*DEL*:00000000H   CODE     ---       oled_printf_float_spi
*DEL*:00000000H   CODE     ---       oled_printf_int32
*DEL*:00000000H   CODE     ---       oled_printf_int32_spi
*DEL*:00000000H   CODE     ---       oled_putpixel
*DEL*:00000000H   CODE     ---       oled_putpixel_spi
      00FF6324H   CODE     ---       oled_set_pos
*DEL*:00000000H   CODE     ---       oled_set_pos_spi
      00FF5D8EH   CODE     ---       oled_show
*DEL*:00000000H   CODE     ---       oled_uint16
*DEL*:00000000H   CODE     ---       oled_uint16_spi
      00FF6239H   CODE     ---       oled_wrcmd
*DEL*:00000000H   CODE     ---       oled_wrcmd_spi
      00FF6262H   CODE     ---       oled_wrdat
*DEL*:00000000H   CODE     ---       oled_wrdat_spi
*SFR* 00000080H   DATA     BYTE      P0
*SFR* 00000080H.7 DATA     BIT       P07
*SFR* 00000094H   DATA     BYTE      P0M0
*SFR* 00000093H   DATA     BYTE      P0M1
*SFR* 00000090H   DATA     BYTE      P1
*SFR* 00000092H   DATA     BYTE      P1M0
*SFR* 00000091H   DATA     BYTE      P1M1
*SFR* 000000A0H   DATA     BYTE      P2
*SFR* 000000A0H.0 DATA     BIT       P20
*SFR* 000000A0H.1 DATA     BIT       P21
*SFR* 000000A0H.2 DATA     BIT       P22
*SFR* 000000A0H.3 DATA     BIT       P23
*SFR* 000000A0H.4 DATA     BIT       P24
*SFR* 000000A0H.5 DATA     BIT       P25
*SFR* 000000A0H.6 DATA     BIT       P26
*SFR* 000000A0H.7 DATA     BIT       P27
*SFR* 00000096H   DATA     BYTE      P2M0
*SFR* 00000095H   DATA     BYTE      P2M1
L251 LINKER/LOCATER V4.66.93.0                                                        03/22/2024  17:44:58  PAGE 27


*SFR* 000000B0H   DATA     BYTE      P3
*SFR* 000000B0H.2 DATA     BIT       P32
*SFR* 000000B0H.3 DATA     BIT       P33
*SFR* 000000B0H.5 DATA     BIT       P35
*SFR* 000000B2H   DATA     BYTE      P3M0
*SFR* 000000B1H   DATA     BYTE      P3M1
*SFR* 000000C0H   DATA     BYTE      P4
*SFR* 000000C0H.0 DATA     BIT       P40
*SFR* 000000C0H.1 DATA     BIT       P41
*SFR* 000000C0H.2 DATA     BIT       P42
*SFR* 000000C0H.3 DATA     BIT       P43
*SFR* 000000C0H.7 DATA     BIT       P47
*SFR* 000000B4H   DATA     BYTE      P4M0
*SFR* 000000B3H   DATA     BYTE      P4M1
*SFR* 000000C8H   DATA     BYTE      P5
*SFR* 000000C8H.0 DATA     BIT       P50
*SFR* 000000C8H.1 DATA     BIT       P51
*SFR* 000000C8H.2 DATA     BIT       P52
*SFR* 000000C8H.3 DATA     BIT       P53
*SFR* 000000CAH   DATA     BYTE      P5M0
*SFR* 000000C9H   DATA     BYTE      P5M1
*SFR* 000000E8H   DATA     BYTE      P6
*SFR* 000000CCH   DATA     BYTE      P6M0
*SFR* 000000CBH   DATA     BYTE      P6M1
*SFR* 000000F8H   DATA     BYTE      P7
*SFR* 000000F8H.0 DATA     BIT       P70
*SFR* 000000F8H.1 DATA     BIT       P71
*SFR* 000000F8H.2 DATA     BIT       P72
*SFR* 000000F8H.3 DATA     BIT       P73
*SFR* 000000E2H   DATA     BYTE      P7M0
*SFR* 000000E1H   DATA     BYTE      P7M1
*SFR* 000000A2H   DATA     BYTE      P_SW1
*SFR* 000000BAH   DATA     BYTE      P_SW2
      00000008H   EDATA    BYTE      page
      00FF4BECH   CODE     ---       PID_Calculate
*DEL*:00000000H   CODE     ---       PID_Incremental_Calc
*DEL*:00000000H   CODE     ---       PID_Incremental_Init
      00FF5A92H   CODE     ---       PID_Init
      00FF50CDH   CODE     ---       pit_timer_ms
      000004F0H   EDATA    FLOAT     Pitch
      00000667H   EDATA    FLOAT     Plus
      00000663H   EDATA    FLOAT     Plus_Mid
      00FF115BH   CODE     NEAR LAB  printf
      00FF5E4CH   CODE     ---       printf_reverse_order
*SFR* 000000D0H   DATA     BYTE      PSW
      00FF6568H   CODE     ---       putchar
      00FF6803H   HCONST   ---       PWM_ARR_ADDR
      00FF680BH   HCONST   ---       PWM_CCER_ADDR
      00FF681BH   HCONST   ---       PWM_CCMR_ADDR
      00FF67E3H   HCONST   ---       PWM_CCR_ADDR
      00FF4D76H   CODE     ---       pwm_duty
*DEL*:00000000H   CODE     ---       pwm_freq
      00FF3512H   CODE     ---       pwm_init
      00FF37F6H   CODE     ---       pwm_set_gpio
      000004B5H   EDATA    ---       Q
      0000064FH   EDATA    FLOAT     Ratio
      0000068FH   EDATA    FLOAT     Ratio_Mid
*DEL*:00000000H   CODE     ---       read_ch
      00FF654AH   CODE     ---       readdmp
*DEL*:00000000H   CODE     ---       recv_ack
*DEL*:00000000H   CODE     ---       recv_data
      00FF527EH   CODE     ---       refresh_value
      00FF4E2EH   CODE     ---       Right_SetSpeed
      000002B3H   EDATA    ---       Right_Wheel
      0000023EH   EDATA    ---       Right_Wheel_PID
L251 LINKER/LOCATER V4.66.93.0                                                        03/22/2024  17:44:58  PAGE 28


      0000049DH   EDATA    FLOAT     Roll
*SFR* 000000FFH   DATA     BYTE      RSTCFG
*SFR* 0000009BH   DATA     BYTE      S2BUF
*SFR* 0000009AH   DATA     BYTE      S2CON
*SFR* 000000ADH   DATA     BYTE      S3BUF
*SFR* 000000ACH   DATA     BYTE      S3CON
*SFR* 000000FEH   DATA     BYTE      S4BUF
*SFR* 000000FDH   DATA     BYTE      S4CON
*SFR* 00000099H   DATA     BYTE      SBUF
*SFR* 00000098H   DATA     BYTE      SCON
*DEL*:00000000H   CODE     ---       send_ack
*DEL*:00000000H   CODE     ---       send_ch
*DEL*:00000000H   CODE     ---       send_data
*DEL*:00000000H   CODE     ---       send_nak
*DEL*:00000000H   CODE     ---       set_zero_position_simspi
*DEL*:00000000H   CODE     ---       set_zero_position_spi
*DEL*:00000000H   CODE     ---       showimage
*DEL*:00000000H   CODE     ---       simiic_delay
*DEL*:00000000H   CODE     ---       simiic_init
*DEL*:00000000H   CODE     ---       simiic_read_reg
*DEL*:00000000H   CODE     ---       simiic_read_regs
*DEL*:00000000H   CODE     ---       simiic_sendack
*DEL*:00000000H   CODE     ---       simiic_start
*DEL*:00000000H   CODE     ---       simiic_stop
*DEL*:00000000H   CODE     ---       simiic_write_reg
*DEL*:00000000H   CODE     ---       simspi_r_reg_byte
*DEL*:00000000H   CODE     ---       simspi_w_reg_byte
*DEL*:00000000H   CODE     ---       simspi_wr_byte
*SFR* 000000CEH   DATA     BYTE      SPCTL
*SFR* 000000CFH   DATA     BYTE      SPDAT
      000006B4H   EDATA    FLOAT     Speed_L
      000006B8H   EDATA    FLOAT     Speed_R
*DEL*:00000000H   CODE     ---       spi_change_mode
*DEL*:00000000H   CODE     ---       spi_change_pin
*DEL*:00000000H   CODE     ---       spi_init
*DEL*:00000000H   CODE     ---       spi_mosi
*DEL*:00000000H   CODE     ---       spi_r_reg_byte
*DEL*:00000000H   CODE     ---       spi_w_reg_byte
*DEL*:00000000H   CODE     ---       spi_wr_byte
*SFR* 000000CDH   DATA     BYTE      SPSTAT
      00FF1187H   CODE     ---       sqrt?_
*DEL*:00000000H   CODE     ---       start
*DEL*:00000000H   CODE     ---       stop
      00FF64C2H   CODE     NEAR LAB  strcpy?_
      00000674H   EDATA    FLOAT     sum
      00000693H   EDATA    FLOAT     Sum_Angle
      0000069DH   EDATA    FLOAT     Sum_Angle_C1
      000006A7H   EDATA    FLOAT     Sum_Dis1
      000006ABH   EDATA    FLOAT     Sum_Dis2
      00000657H   EDATA    FLOAT     sum_L
      0000065BH   EDATA    FLOAT     sum_R
      000006EBH   EDATA    LONG      sys_clk
*SFR* 000000D6H   DATA     BYTE      T2H
*SFR* 000000D7H   DATA     BYTE      T2L
*SFR* 000000D4H   DATA     BYTE      T3H
*SFR* 000000D5H   DATA     BYTE      T3L
*SFR* 000000D2H   DATA     BYTE      T4H
*SFR* 000000D3H   DATA     BYTE      T4L
*SFR* 000000DDH   DATA     BYTE      T4T3M
*SFR* 00000088H   DATA     BYTE      TCON
      0000065FH   EDATA    FLOAT     temp_Speed
      00FF0696H   CODE     ---       tft_ascii
*SFR* 0000008CH   DATA     BYTE      TH0
*SFR* 0000008DH   DATA     BYTE      TH1
*SFR* 0000008AH   DATA     BYTE      TL0
L251 LINKER/LOCATER V4.66.93.0                                                        03/22/2024  17:44:58  PAGE 29


*SFR* 0000008BH   DATA     BYTE      TL1
      00FF0012H   CODE     ---       TM0_Isr
      00FF0019H   CODE     ---       TM1_Isr
      00FF65FDH   CODE     ---       TM2_Isr
      00FF6605H   CODE     ---       TM3_Isr
      00FF540AH   CODE     ---       TM4_Isr
*SFR* 00000089H   DATA     BYTE      TMOD
*SFR* 00000088H.4 DATA     BIT       TR0
*SFR* 00000088H.6 DATA     BIT       TR1
      0000013DH   EDATA    BYTE      tsl1401_finish_flag
      00000286H   EDATA    ---       Turn
      0000030DH   EDATA    ---       Turn_PID
      00FF5EC8H   CODE     ---       UART1_Isr
      00000331H   EDATA    ---       uart1_rx_buff
      00000395H   EDATA    ---       uart1_tx_buff
      00FF63CCH   CODE     ---       UART2_Isr
      00FF63EAH   CODE     ---       UART3_Isr
      00FF574CH   CODE     ---       UART4_Isr
      00FF411DH   CODE     ---       uart_init
*DEL*:00000000H   CODE     ---       uart_putbuff
      00FF5A3EH   CODE     ---       uart_putchar
*DEL*:00000000H   CODE     ---       uart_putstr
      00FF65DCH   CODE     ---       ui_init
      00FF6614H   CODE     ---       ui_show
      00000697H   EDATA    CHAR      Up_Down_Flag
      00000009H   EDATA    ---       value
      00000079H   EDATA    ---       value_name
      00FF469BH   CODE     ---       value_name_init
      000006DAH   EDATA    ---       virtual_scope_data
      000006F3H   EDATA    WORD      vl53l0x_distance_mm
      000006F5H   EDATA    BYTE      vl53l0x_finsh_flag
      00FF58D5H   CODE     ---       vl53l0x_get_distance
      00FF229EH   CODE     ---       vl53l0x_init
*DEL*:00000000H   CODE     ---       wait
      00FF6454H   CODE     ---       wireless_ch573_callback
*DEL*:00000000H   CODE     ---       wireless_ch573_init
*DEL*:00000000H   CODE     ---       wireless_ch573_read_buff
*DEL*:00000000H   CODE     ---       wireless_ch573_send_buff
      000006F9H   EDATA    INT       wireless_type
      00FF643BH   CODE     ---       wireless_uart_callback
*DEL*:00000000H   CODE     ---       wireless_uart_init
*DEL*:00000000H   CODE     ---       wireless_uart_read_buff
*DEL*:00000000H   CODE     ---       wireless_uart_send_buff
*SFR* 000000E9H   DATA     BYTE      WTST
      000004A1H   EDATA    FLOAT     x1
      000006FDH   EDATA    WORD      x10_ms
      00FF51F3H   CODE     ---       xdmpUpdates
      000004A5H   EDATA    FLOAT     y1
      000004B1H   EDATA    FLOAT     Yaw
      000004A9H   EDATA    FLOAT     z1
      00000495H   EDATA    FLOAT     z_add
      00000499H   EDATA    FLOAT     z_last
      000004ADH   EDATA    FLOAT     z_now
*DEL*:00000000H   CODE     ---       zero_all
      000006EFH   EDATA    WORD      zf_delay_ms
      000006F1H   EDATA    WORD      zf_delay_us
      00FF28B9H   CODE     ---       zf_sprintf



SYMBOL TABLE OF MODULE:  .\Out_File\SEEKFREE (board)

      VALUE       REP       CLASS    TYPE      SYMBOL NAME
      ====================================================
      ---         MODULE    ---      ---       board
L251 LINKER/LOCATER V4.66.93.0                                                        03/22/2024  17:44:58  PAGE 30


      00FF000EH   PUBLIC    CODE     ---       EnableGlobalIRQ
      00FF5308H   PUBLIC    CODE     ---       board_init
      00FF0016H   PUBLIC    CODE     ---       DisableGlobalIRQ
      00FF6568H   PUBLIC    CODE     ---       putchar
      000006EBH   PUBLIC    EDATA    LONG      sys_clk
      00000094H   SFRSYM    DATA     BYTE      P0M0
      000000D0H   SFRSYM    DATA     BYTE      PSW
      000000FDH   SFRSYM    DATA     BYTE      S4CON
      000000ACH   SFRSYM    DATA     BYTE      S3CON
      0000009AH   SFRSYM    DATA     BYTE      S2CON
      000000B7H   SFRSYM    DATA     BYTE      IPH
      000000E9H   SFRSYM    DATA     BYTE      WTST
      000000FFH   SFRSYM    DATA     BYTE      RSTCFG
      0000008EH   SFRSYM    DATA     BYTE      AUXR
      000000AFH   SFRSYM    DATA     BYTE      IE2
      00000088H   SFRSYM    DATA     BYTE      TCON
      00000089H   SFRSYM    DATA     BYTE      TMOD
      00000098H   SFRSYM    DATA     BYTE      SCON
      000000BCH   SFRSYM    DATA     BYTE      ADC_CONTR
      000000DEH   SFRSYM    DATA     BYTE      ADCCFG
      000000B8H   SFRSYM    DATA     BYTE      IP
      000000A8H   SFRSYM    DATA     BYTE      IE
      000000BAH   SFRSYM    DATA     BYTE      P_SW2
      000000A2H   SFRSYM    DATA     BYTE      P_SW1
      000000F8H   SFRSYM    DATA     BYTE      P7
      000000A8H.7 SFRSYM    DATA     BIT       EA
      000000E1H   SFRSYM    DATA     BYTE      P7M1
      000000E8H   SFRSYM    DATA     BYTE      P6
      000000C8H   SFRSYM    DATA     BYTE      P5
      000000CBH   SFRSYM    DATA     BYTE      P6M1
      000000E2H   SFRSYM    DATA     BYTE      P7M0
      000000C0H   SFRSYM    DATA     BYTE      P4
      000000C9H   SFRSYM    DATA     BYTE      P5M1
      000000CCH   SFRSYM    DATA     BYTE      P6M0
      000000B0H   SFRSYM    DATA     BYTE      P3
      000000B3H   SFRSYM    DATA     BYTE      P4M1
      000000CAH   SFRSYM    DATA     BYTE      P5M0
      000000A0H   SFRSYM    DATA     BYTE      P2
      000000B1H   SFRSYM    DATA     BYTE      P3M1
      000000B4H   SFRSYM    DATA     BYTE      P4M0
      00000090H   SFRSYM    DATA     BYTE      P1
      00000095H   SFRSYM    DATA     BYTE      P2M1
      000000B2H   SFRSYM    DATA     BYTE      P3M0
      00000080H   SFRSYM    DATA     BYTE      P0
      00000091H   SFRSYM    DATA     BYTE      P1M1
      00000096H   SFRSYM    DATA     BYTE      P2M0
      00000092H   SFRSYM    DATA     BYTE      P1M0
      00000093H   SFRSYM    DATA     BYTE      P0M1

      00FF5308H   BLOCK     CODE     ---       LVL=0
      00FF5308H   LINE      CODE     ---       #177
      00FF5308H   LINE      CODE     ---       #179
      00FF530BH   LINE      CODE     ---       #197
      00FF530EH   LINE      CODE     ---       #199
      00FF5311H   LINE      CODE     ---       #200
      00FF5314H   LINE      CODE     ---       #201
      00FF5320H   LINE      CODE     ---       #203
      00FF5323H   LINE      CODE     ---       #204
      00FF5326H   LINE      CODE     ---       #205
      00FF5329H   LINE      CODE     ---       #206
      00FF532CH   LINE      CODE     ---       #207
      00FF532FH   LINE      CODE     ---       #208
      00FF5332H   LINE      CODE     ---       #209
      00FF5335H   LINE      CODE     ---       #210
      00FF5338H   LINE      CODE     ---       #211
L251 LINKER/LOCATER V4.66.93.0                                                        03/22/2024  17:44:58  PAGE 31


      00FF533BH   LINE      CODE     ---       #212
      00FF533EH   LINE      CODE     ---       #213
      00FF5341H   LINE      CODE     ---       #214
      00FF5344H   LINE      CODE     ---       #215
      00FF5347H   LINE      CODE     ---       #216
      00FF534AH   LINE      CODE     ---       #217
      00FF534DH   LINE      CODE     ---       #218
      00FF5350H   LINE      CODE     ---       #220
      00FF5353H   LINE      CODE     ---       #221
      00FF5356H   LINE      CODE     ---       #222
      00FF5359H   LINE      CODE     ---       #223
      00FF535CH   LINE      CODE     ---       #224
      00FF535FH   LINE      CODE     ---       #225
      00FF5362H   LINE      CODE     ---       #226
      00FF5365H   LINE      CODE     ---       #227
      00FF5368H   LINE      CODE     ---       #228
      00FF536BH   LINE      CODE     ---       #229
      00FF536EH   LINE      CODE     ---       #231
      ---         BLOCKEND  ---      ---       LVL=0

      00FF6568H   BLOCK     CODE     ---       LVL=0
      R15         REGSYM    ---      CHAR      c
      00FF6568H   LINE      CODE     ---       #237
      00FF656CH   LINE      CODE     ---       #239
      00FF6571H   LINE      CODE     ---       #241
      00FF6573H   LINE      CODE     ---       #242
      ---         BLOCKEND  ---      ---       LVL=0

      00FF0016H   BLOCK     CODE     ---       LVL=0
      00FF0016H   LINE      CODE     ---       #245
      00FF0016H   LINE      CODE     ---       #247
      00FF0018H   LINE      CODE     ---       #248
      ---         BLOCKEND  ---      ---       LVL=0

      00FF000EH   BLOCK     CODE     ---       LVL=0
      00FF000EH   LINE      CODE     ---       #251
      00FF000EH   LINE      CODE     ---       #253
      00FF0010H   LINE      CODE     ---       #254
      ---         BLOCKEND  ---      ---       LVL=0

      ---         MODULE    ---      ---       common
      000006F9H   PUBLIC    EDATA    INT       wireless_type
      000000D0H   SFRSYM    DATA     BYTE      PSW
      000000B7H   SFRSYM    DATA     BYTE      IPH
      00000088H   SFRSYM    DATA     BYTE      TCON
      00000098H   SFRSYM    DATA     BYTE      SCON
      000000BCH   SFRSYM    DATA     BYTE      ADC_CONTR
      000000DEH   SFRSYM    DATA     BYTE      ADCCFG
      000000B8H   SFRSYM    DATA     BYTE      IP
      000000A8H   SFRSYM    DATA     BYTE      IE
      000000F8H   SFRSYM    DATA     BYTE      P7
      000000E8H   SFRSYM    DATA     BYTE      P6
      000000C8H   SFRSYM    DATA     BYTE      P5
      000000C0H   SFRSYM    DATA     BYTE      P4
      000000B0H   SFRSYM    DATA     BYTE      P3
      000000A0H   SFRSYM    DATA     BYTE      P2
      00000090H   SFRSYM    DATA     BYTE      P1
      00000080H   SFRSYM    DATA     BYTE      P0

      ---         MODULE    ---      ---       SEEKFREE_PRINTF
      00FF5161H   PUBLIC    CODE     ---       number_conversion_ascii
      00FF28B9H   PUBLIC    CODE     ---       zf_sprintf
      00FF5E4CH   PUBLIC    CODE     ---       printf_reverse_order
      0000048BH   PUBLIC    EDATA    BYTE      ?number_conversion_ascii?BYTE
      0000045DH   PUBLIC    EDATA    BYTE      ?zf_sprintf?BYTE
L251 LINKER/LOCATER V4.66.93.0                                                        03/22/2024  17:44:58  PAGE 32


      000000D0H   SFRSYM    DATA     BYTE      PSW
      000000B7H   SFRSYM    DATA     BYTE      IPH
      00000088H   SFRSYM    DATA     BYTE      TCON
      00000098H   SFRSYM    DATA     BYTE      SCON
      000000BCH   SFRSYM    DATA     BYTE      ADC_CONTR
      000000DEH   SFRSYM    DATA     BYTE      ADCCFG
      000000B8H   SFRSYM    DATA     BYTE      IP
      000000A8H   SFRSYM    DATA     BYTE      IE
      000000F8H   SFRSYM    DATA     BYTE      P7
      000000E8H   SFRSYM    DATA     BYTE      P6
      000000C8H   SFRSYM    DATA     BYTE      P5
      000000C0H   SFRSYM    DATA     BYTE      P4
      000000B0H   SFRSYM    DATA     BYTE      P3
      000000A0H   SFRSYM    DATA     BYTE      P2
      00000090H   SFRSYM    DATA     BYTE      P1
      00000080H   SFRSYM    DATA     BYTE      P0

      00FF5161H   BLOCK     CODE     ---       LVL=0
      DR24        REGSYM    ---      DWORD     dat
      REG=7       REGSYM    ---      ---       p
      R10         REGSYM    ---      BYTE      neg_type
      00000494H   SYMBOL    EDATA    BYTE      radix
      00FF5169H   BLOCK     CODE     NEAR LAB  LVL=1
      DR20        REGSYM    ---      LONG      neg_dat
      DR24        REGSYM    ---      DWORD     pos_dat
      R14         REGSYM    ---      BYTE      temp_data
      R15         REGSYM    ---      BYTE      valid_num
      ---         BLOCKEND  ---      ---       LVL=1
      00FF5161H   LINE      CODE     ---       #25
      00FF5169H   LINE      CODE     ---       #26
      00FF5169H   LINE      CODE     ---       #29
      00FF5169H   LINE      CODE     ---       #30
      00FF516BH   LINE      CODE     ---       #32
      00FF516FH   LINE      CODE     ---       #34
      00FF5171H   LINE      CODE     ---       #35
      00FF5181H   LINE      CODE     ---       #36
      00FF5181H   LINE      CODE     ---       #38
      00FF5197H   LINE      CODE     ---       #39
      00FF51A6H   LINE      CODE     ---       #40
      00FF51A8H   LINE      CODE     ---       #42
      00FF51AEH   LINE      CODE     ---       #43
      00FF51B0H   LINE      CODE     ---       #44
      00FF51B2H   LINE      CODE     ---       #45
      00FF51B4H   LINE      CODE     ---       #48
      00FF51B4H   LINE      CODE     ---       #49
      00FF51B4H   LINE      CODE     ---       #51
      00FF51C3H   LINE      CODE     ---       #52
      00FF51CDH   LINE      CODE     ---       #53
      00FF51D0H   LINE      CODE     ---       #55
      00FF51D3H   LINE      CODE     ---       #57
      00FF51E2H   LINE      CODE     ---       #58
      00FF51E4H   LINE      CODE     ---       #60
      00FF51EAH   LINE      CODE     ---       #61
      00FF51ECH   LINE      CODE     ---       #62
      00FF51EEH   LINE      CODE     ---       #63
      00FF51EEH   LINE      CODE     ---       #64
      00FF51F0H   LINE      CODE     ---       #65
      ---         BLOCKEND  ---      ---       LVL=0

      00FF5E4CH   BLOCK     CODE     ---       LVL=0
      REG=7       REGSYM    ---      ---       d_buff
      DR24        REGSYM    ---      DWORD     len
      00FF5E50H   BLOCK     CODE     NEAR LAB  LVL=1
      DR4         REGSYM    ---      DWORD     i
      R3          REGSYM    ---      CHAR      temp_data
L251 LINKER/LOCATER V4.66.93.0                                                        03/22/2024  17:44:58  PAGE 33


      ---         BLOCKEND  ---      ---       LVL=1
      00FF5E4CH   LINE      CODE     ---       #67
      00FF5E50H   LINE      CODE     ---       #68
      00FF5E50H   LINE      CODE     ---       #71
      00FF5E54H   LINE      CODE     ---       #73
      00FF5E63H   LINE      CODE     ---       #74
      00FF5E71H   LINE      CODE     ---       #75
      00FF5E78H   LINE      CODE     ---       #76
      00FF5E89H   LINE      CODE     ---       #77
      ---         BLOCKEND  ---      ---       LVL=0

      00FF28B9H   BLOCK     CODE     ---       LVL=0
      REG=3       REGSYM    ---      ---       buff
      00000461H   SYMBOL    EDATA    ---       format
      00FF28C1H   BLOCK     CODE     NEAR LAB  LVL=1
      00000465H   SYMBOL    EDATA    DWORD     buff_len
      00000469H   SYMBOL    EDATA    ---       arg
      00FF28D6H   BLOCK     CODE     NEAR LAB  LVL=2
      0000046DH   SYMBOL    EDATA    CHAR      ret
      00FF2A00H   BLOCK     CODE     NEAR LAB  LVL=3
      0000046EH   SYMBOL    EDATA    CHAR      ch
      ---         BLOCKEND  ---      ---       LVL=3
      00FF2A19H   BLOCK     CODE     NEAR LAB  LVL=3
      0000046EH   SYMBOL    EDATA    ---       vstr
      0000048FH   SYMBOL    EDATA    LONG      ival
      00000493H   SYMBOL    EDATA    BYTE      vlen
      ---         BLOCKEND  ---      ---       LVL=3
      00FF2A92H   BLOCK     CODE     NEAR LAB  LVL=3
      0000046EH   SYMBOL    EDATA    ---       vstr
      0000048FH   SYMBOL    EDATA    FLOAT     ival
      00000493H   SYMBOL    EDATA    BYTE      vlen
      ---         BLOCKEND  ---      ---       LVL=3
      00FF2BCDH   BLOCK     CODE     NEAR LAB  LVL=3
      0000046EH   SYMBOL    EDATA    ---       vstr
      0000048FH   SYMBOL    EDATA    DWORD     ival
      00000493H   SYMBOL    EDATA    BYTE      vlen
      ---         BLOCKEND  ---      ---       LVL=3
      00FF2C25H   BLOCK     CODE     NEAR LAB  LVL=3
      0000046EH   SYMBOL    EDATA    ---       vstr
      0000048FH   SYMBOL    EDATA    DWORD     ival
      00000493H   SYMBOL    EDATA    BYTE      vlen
      ---         BLOCKEND  ---      ---       LVL=3
      00FF2C7CH   BLOCK     CODE     NEAR LAB  LVL=3
      0000046EH   SYMBOL    EDATA    ---       vstr
      0000048FH   SYMBOL    EDATA    DWORD     ival
      00000493H   SYMBOL    EDATA    BYTE      vlen
      ---         BLOCKEND  ---      ---       LVL=3
      00FF2CDEH   BLOCK     CODE     NEAR LAB  LVL=3
      0000046EH   SYMBOL    EDATA    ---       pc
      ---         BLOCKEND  ---      ---       LVL=3
      00FF2D20H   BLOCK     CODE     NEAR LAB  LVL=3
      0000046EH   SYMBOL    EDATA    ---       vstr
      0000048FH   SYMBOL    EDATA    DWORD     ival
      ---         BLOCKEND  ---      ---       LVL=3
      ---         BLOCKEND  ---      ---       LVL=2
      ---         BLOCKEND  ---      ---       LVL=1
      00FF28B9H   LINE      CODE     ---       #212
      00FF28C1H   LINE      CODE     ---       #213
      00FF28C1H   LINE      CODE     ---       #214
      00FF28C7H   LINE      CODE     ---       #216
      00FF28D3H   LINE      CODE     ---       #218
      00FF28D6H   LINE      CODE     ---       #219
      00FF28D6H   LINE      CODE     ---       #220
      00FF28E1H   LINE      CODE     ---       #221
      00FF28E9H   LINE      CODE     ---       #223
L251 LINKER/LOCATER V4.66.93.0                                                        03/22/2024  17:44:58  PAGE 34


      00FF2A00H   LINE      CODE     ---       #225
      00FF2A00H   LINE      CODE     ---       #229
      00FF2A00H   LINE      CODE     ---       #232
      00FF2A00H   LINE      CODE     ---       #233
      00FF2A00H   LINE      CODE     ---       #234
      00FF2A16H   LINE      CODE     ---       #235
      00FF2A16H   LINE      CODE     ---       #236
      00FF2A16H   LINE      CODE     ---       #237
      00FF2A16H   LINE      CODE     ---       #239
      00FF2A19H   LINE      CODE     ---       #242
      00FF2A19H   LINE      CODE     ---       #243
      00FF2A19H   LINE      CODE     ---       #244
      00FF2A19H   LINE      CODE     ---       #246
      00FF2A32H   LINE      CODE     ---       #247
      00FF2A45H   LINE      CODE     ---       #249
      00FF2A4FH   LINE      CODE     ---       #251
      00FF2A5CH   LINE      CODE     ---       #252
      00FF2A61H   LINE      CODE     ---       #253
      00FF2A61H   LINE      CODE     ---       #254
      00FF2A70H   LINE      CODE     ---       #255
      00FF2A83H   LINE      CODE     ---       #256
      00FF2A8BH   LINE      CODE     ---       #257
      00FF2A8FH   LINE      CODE     ---       #260
      00FF2A92H   LINE      CODE     ---       #262
      00FF2A92H   LINE      CODE     ---       #263
      00FF2A92H   LINE      CODE     ---       #264
      00FF2A92H   LINE      CODE     ---       #266
      00FF2AABH   LINE      CODE     ---       #267
      00FF2AC1H   LINE      CODE     ---       #269
      00FF2ACCH   LINE      CODE     ---       #271
      00FF2AD9H   LINE      CODE     ---       #272
      00FF2ADEH   LINE      CODE     ---       #273
      00FF2ADEH   LINE      CODE     ---       #274
      00FF2AEDH   LINE      CODE     ---       #275
      00FF2B00H   LINE      CODE     ---       #276
      00FF2B08H   LINE      CODE     ---       #277
      00FF2B1AH   LINE      CODE     ---       #279
      00FF2B3EH   LINE      CODE     ---       #280
      00FF2B44H   LINE      CODE     ---       #282
      00FF2B56H   LINE      CODE     ---       #283
      00FF2B58H   LINE      CODE     ---       #286
      00FF2B72H   LINE      CODE     ---       #287
      00FF2B78H   LINE      CODE     ---       #288
      00FF2B78H   LINE      CODE     ---       #290
      00FF2B7DH   LINE      CODE     ---       #292
      00FF2B87H   LINE      CODE     ---       #293
      00FF2B8CH   LINE      CODE     ---       #294
      00FF2B95H   LINE      CODE     ---       #296
      00FF2B9DH   LINE      CODE     ---       #297
      00FF2BA4H   LINE      CODE     ---       #299
      00FF2BB3H   LINE      CODE     ---       #300
      00FF2BC6H   LINE      CODE     ---       #301
      00FF2BCAH   LINE      CODE     ---       #303
      00FF2BCDH   LINE      CODE     ---       #306
      00FF2BCDH   LINE      CODE     ---       #307
      00FF2BCDH   LINE      CODE     ---       #309
      00FF2BE6H   LINE      CODE     ---       #310
      00FF2BF8H   LINE      CODE     ---       #312
      00FF2C03H   LINE      CODE     ---       #313
      00FF2C16H   LINE      CODE     ---       #314
      00FF2C1EH   LINE      CODE     ---       #315
      00FF2C22H   LINE      CODE     ---       #316
      00FF2C25H   LINE      CODE     ---       #318
      00FF2C25H   LINE      CODE     ---       #319
      00FF2C25H   LINE      CODE     ---       #321
L251 LINKER/LOCATER V4.66.93.0                                                        03/22/2024  17:44:58  PAGE 35


      00FF2C3EH   LINE      CODE     ---       #322
      00FF2C50H   LINE      CODE     ---       #324
      00FF2C5BH   LINE      CODE     ---       #325
      00FF2C6EH   LINE      CODE     ---       #326
      00FF2C76H   LINE      CODE     ---       #327
      00FF2C7AH   LINE      CODE     ---       #329
      00FF2C7CH   LINE      CODE     ---       #331
      00FF2C7CH   LINE      CODE     ---       #332
      00FF2C7CH   LINE      CODE     ---       #333
      00FF2C7CH   LINE      CODE     ---       #335
      00FF2C95H   LINE      CODE     ---       #336
      00FF2CA7H   LINE      CODE     ---       #338
      00FF2CB2H   LINE      CODE     ---       #339
      00FF2CC5H   LINE      CODE     ---       #340
      00FF2CCDH   LINE      CODE     ---       #341
      00FF2CDBH   LINE      CODE     ---       #342
      00FF2CDEH   LINE      CODE     ---       #345
      00FF2CDEH   LINE      CODE     ---       #346
      00FF2CDEH   LINE      CODE     ---       #347
      00FF2CF3H   LINE      CODE     ---       #348
      00FF2CF5H   LINE      CODE     ---       #350
      00FF2CFFH   LINE      CODE     ---       #351
      00FF2D01H   LINE      CODE     ---       #352
      00FF2D0BH   LINE      CODE     ---       #353
      00FF2D15H   LINE      CODE     ---       #354
      00FF2D1EH   LINE      CODE     ---       #355
      00FF2D20H   LINE      CODE     ---       #357
      00FF2D20H   LINE      CODE     ---       #358
      00FF2D20H   LINE      CODE     ---       #360
      00FF2D39H   LINE      CODE     ---       #362
      00FF2D47H   LINE      CODE     ---       #364
      00FF2D52H   LINE      CODE     ---       #365
      00FF2D63H   LINE      CODE     ---       #366
      00FF2D67H   LINE      CODE     ---       #367
      00FF2D6FH   LINE      CODE     ---       #369
      00FF2D71H   LINE      CODE     ---       #372
      00FF2D71H   LINE      CODE     ---       #374
      00FF2D76H   LINE      CODE     ---       #375
      00FF2D78H   LINE      CODE     ---       #376
      00FF2D7EH   LINE      CODE     ---       #377
      00FF2D80H   LINE      CODE     ---       #379
      00FF2D80H   LINE      CODE     ---       #380
      00FF2D80H   LINE      CODE     ---       #381
      00FF2D80H   LINE      CODE     ---       #384
      00FF2D8AH   LINE      CODE     ---       #385
      00FF2D8CH   LINE      CODE     ---       #386
      00FF2D96H   LINE      CODE     ---       #387
      00FF2D96H   LINE      CODE     ---       #388
      00FF2DA0H   LINE      CODE     ---       #389
      00FF2DACH   LINE      CODE     ---       #392
      00FF2DB0H   LINE      CODE     ---       #393
      ---         BLOCKEND  ---      ---       LVL=0

      ---         MODULE    ---      ---       zf_adc
      00FF615DH   PUBLIC    CODE     ---       adc_once
      00FF5877H   PUBLIC    CODE     ---       adc_init
      00000094H   SFRSYM    DATA     BYTE      P0M0
      000000D0H   SFRSYM    DATA     BYTE      PSW
      000000B7H   SFRSYM    DATA     BYTE      IPH
      000000BEH   SFRSYM    DATA     BYTE      ADC_RESL
      00000088H   SFRSYM    DATA     BYTE      TCON
      00000098H   SFRSYM    DATA     BYTE      SCON
      000000BCH   SFRSYM    DATA     BYTE      ADC_CONTR
      000000DEH   SFRSYM    DATA     BYTE      ADCCFG
      000000B8H   SFRSYM    DATA     BYTE      IP
L251 LINKER/LOCATER V4.66.93.0                                                        03/22/2024  17:44:58  PAGE 36


      000000BDH   SFRSYM    DATA     BYTE      ADC_RES
      000000A8H   SFRSYM    DATA     BYTE      IE
      000000F8H   SFRSYM    DATA     BYTE      P7
      000000E8H   SFRSYM    DATA     BYTE      P6
      000000C8H   SFRSYM    DATA     BYTE      P5
      000000C0H   SFRSYM    DATA     BYTE      P4
      000000B0H   SFRSYM    DATA     BYTE      P3
      000000A0H   SFRSYM    DATA     BYTE      P2
      00000090H   SFRSYM    DATA     BYTE      P1
      00000080H   SFRSYM    DATA     BYTE      P0
      00000091H   SFRSYM    DATA     BYTE      P1M1
      00000092H   SFRSYM    DATA     BYTE      P1M0
      00000093H   SFRSYM    DATA     BYTE      P0M1

      00FF5877H   BLOCK     CODE     ---       LVL=0
      WR4         REGSYM    ---      INT       adcn
      WR2         REGSYM    ---      INT       speed
      00FF5877H   LINE      CODE     ---       #32
      00FF587BH   LINE      CODE     ---       #34
      00FF587EH   LINE      CODE     ---       #36
      00FF5881H   LINE      CODE     ---       #37
      00FF5887H   LINE      CODE     ---       #39
      00FF5893H   LINE      CODE     ---       #42
      00FF58A8H   LINE      CODE     ---       #43
      00FF58ACH   LINE      CODE     ---       #44
      00FF58AEH   LINE      CODE     ---       #45
      00FF58B2H   LINE      CODE     ---       #48
      00FF58C7H   LINE      CODE     ---       #49
      00FF58CBH   LINE      CODE     ---       #50
      00FF58CBH   LINE      CODE     ---       #52
      00FF58D1H   LINE      CODE     ---       #54
      00FF58D4H   LINE      CODE     ---       #55
      ---         BLOCKEND  ---      ---       LVL=0

      00FF615DH   BLOCK     CODE     ---       LVL=0
      WR6         REGSYM    ---      INT       adcn
      WR4         REGSYM    ---      INT       resolution
      WR6         REGSYM    ---      WORD      adc_value
      00FF615DH   LINE      CODE     ---       #66
      00FF615DH   LINE      CODE     ---       #67
      00FF615DH   LINE      CODE     ---       #70
      00FF6160H   LINE      CODE     ---       #71
      00FF6164H   LINE      CODE     ---       #73
      00FF6167H   LINE      CODE     ---       #74
      00FF616CH   LINE      CODE     ---       #75
      00FF616FH   LINE      CODE     ---       #77
      00FF6171H   LINE      CODE     ---       #78
      00FF6175H   LINE      CODE     ---       #79
      00FF617BH   LINE      CODE     ---       #81
      00FF617EH   LINE      CODE     ---       #82
      00FF6181H   LINE      CODE     ---       #84
      00FF618AH   LINE      CODE     ---       #87
      00FF618AH   LINE      CODE     ---       #88
      ---         BLOCKEND  ---      ---       LVL=0

      ---         MODULE    ---      ---       zf_delay
      00FF5FB8H   PUBLIC    CODE     ---       delay_init
      00FF646DH   PUBLIC    CODE     ---       delay_ms
      000006EFH   PUBLIC    EDATA    WORD      zf_delay_ms
      000006F1H   PUBLIC    EDATA    WORD      zf_delay_us
      000000D0H   SFRSYM    DATA     BYTE      PSW
      000000B7H   SFRSYM    DATA     BYTE      IPH
      00000088H   SFRSYM    DATA     BYTE      TCON
      00000098H   SFRSYM    DATA     BYTE      SCON
      000000BCH   SFRSYM    DATA     BYTE      ADC_CONTR
L251 LINKER/LOCATER V4.66.93.0                                                        03/22/2024  17:44:58  PAGE 37


      000000DEH   SFRSYM    DATA     BYTE      ADCCFG
      000000B8H   SFRSYM    DATA     BYTE      IP
      000000A8H   SFRSYM    DATA     BYTE      IE
      000000F8H   SFRSYM    DATA     BYTE      P7
      000000E8H   SFRSYM    DATA     BYTE      P6
      000000C8H   SFRSYM    DATA     BYTE      P5
      000000C0H   SFRSYM    DATA     BYTE      P4
      000000B0H   SFRSYM    DATA     BYTE      P3
      000000A0H   SFRSYM    DATA     BYTE      P2
      00000090H   SFRSYM    DATA     BYTE      P1
      00000080H   SFRSYM    DATA     BYTE      P0

      00FF5FB8H   BLOCK     CODE     ---       LVL=0
      00FF5FB8H   LINE      CODE     ---       #34
      00FF5FB8H   LINE      CODE     ---       #36
      00FF5FC9H   LINE      CODE     ---       #37
      00FF5FDAH   LINE      CODE     ---       #38
      00FF5FF0H   LINE      CODE     ---       #40
      ---         BLOCKEND  ---      ---       LVL=0

      00FF646DH   BLOCK     CODE     ---       LVL=0
      WR4         REGSYM    ---      WORD      ms
      00FF646FH   BLOCK     CODE     NEAR LAB  LVL=1
      WR6         REGSYM    ---      WORD      i
      ---         BLOCKEND  ---      ---       LVL=1
      00FF646DH   LINE      CODE     ---       #48
      00FF646FH   LINE      CODE     ---       #49
      00FF646FH   LINE      CODE     ---       #51
      00FF646FH   LINE      CODE     ---       #52
      00FF6473H   LINE      CODE     ---       #54
      00FF647BH   LINE      CODE     ---       #55
      00FF6483H   LINE      CODE     ---       #56
      ---         BLOCKEND  ---      ---       LVL=0
      DR0         REGSYM    ---      DWORD     us
      WR6         REGSYM    ---      WORD      i

      ---         MODULE    ---      ---       zf_eeprom
      000000D0H   SFRSYM    DATA     BYTE      PSW
      000000D0H.5 SFRSYM    DATA     BIT       F0
      000000C6H   SFRSYM    DATA     BYTE      IAP_TRIG
      000000B7H   SFRSYM    DATA     BYTE      IPH
      000000C2H   SFRSYM    DATA     BYTE      IAP_DATA
      000000C7H   SFRSYM    DATA     BYTE      IAP_CONTR
      00000088H   SFRSYM    DATA     BYTE      TCON
      00000098H   SFRSYM    DATA     BYTE      SCON
      000000F5H   SFRSYM    DATA     BYTE      IAP_TPS
      000000BCH   SFRSYM    DATA     BYTE      ADC_CONTR
      000000C4H   SFRSYM    DATA     BYTE      IAP_ADDRL
      000000C3H   SFRSYM    DATA     BYTE      IAP_ADDRH
      000000F6H   SFRSYM    DATA     BYTE      IAP_ADDRE
      000000DEH   SFRSYM    DATA     BYTE      ADCCFG
      000000B8H   SFRSYM    DATA     BYTE      IP
      000000C5H   SFRSYM    DATA     BYTE      IAP_CMD
      000000A8H   SFRSYM    DATA     BYTE      IE
      000000F8H   SFRSYM    DATA     BYTE      P7
      000000A8H.7 SFRSYM    DATA     BIT       EA
      000000E8H   SFRSYM    DATA     BYTE      P6
      000000C8H   SFRSYM    DATA     BYTE      P5
      000000C0H   SFRSYM    DATA     BYTE      P4
      000000B0H   SFRSYM    DATA     BYTE      P3
      000000A0H   SFRSYM    DATA     BYTE      P2
      00000090H   SFRSYM    DATA     BYTE      P1
      00000080H   SFRSYM    DATA     BYTE      P0
      R11         REGSYM    ---      BYTE      write_time
      REG=3       REGSYM    ---      ---       buf
L251 LINKER/LOCATER V4.66.93.0                                                        03/22/2024  17:44:58  PAGE 38


      REG=3       REGSYM    ---      ---       buf
      WR6         REGSYM    ---      WORD      addr
      REG=3       REGSYM    ---      ---       buf
      WR6         REGSYM    ---      WORD      i

      ---         MODULE    ---      ---       zf_exti
      000000D0H   SFRSYM    DATA     BYTE      PSW
      000000B7H   SFRSYM    DATA     BYTE      IPH
      00000088H.2 SFRSYM    DATA     BIT       IT1
      000000A8H.2 SFRSYM    DATA     BIT       EX1
      00000088H.0 SFRSYM    DATA     BIT       IT0
      000000A8H.0 SFRSYM    DATA     BIT       EX0
      00000088H   SFRSYM    DATA     BYTE      TCON
      00000098H   SFRSYM    DATA     BYTE      SCON
      000000BCH   SFRSYM    DATA     BYTE      ADC_CONTR
      000000DEH   SFRSYM    DATA     BYTE      ADCCFG
      000000B8H   SFRSYM    DATA     BYTE      IP
      0000008FH   SFRSYM    DATA     BYTE      INTCLKO
      000000A8H   SFRSYM    DATA     BYTE      IE
      000000F8H   SFRSYM    DATA     BYTE      P7
      000000E8H   SFRSYM    DATA     BYTE      P6
      000000C8H   SFRSYM    DATA     BYTE      P5
      000000C0H   SFRSYM    DATA     BYTE      P4
      000000B0H   SFRSYM    DATA     BYTE      P3
      000000A0H   SFRSYM    DATA     BYTE      P2
      00000090H   SFRSYM    DATA     BYTE      P1
      00000080H   SFRSYM    DATA     BYTE      P0
      WR4         REGSYM    ---      INT       int_n
      WR2         REGSYM    ---      INT       mode

      ---         MODULE    ---      ---       zf_gpio
      00FF2DB3H   PUBLIC    CODE     ---       gpio_mode
      00000094H   SFRSYM    DATA     BYTE      P0M0
      000000D0H   SFRSYM    DATA     BYTE      PSW
      000000B7H   SFRSYM    DATA     BYTE      IPH
      00000088H   SFRSYM    DATA     BYTE      TCON
      00000098H   SFRSYM    DATA     BYTE      SCON
      000000BCH   SFRSYM    DATA     BYTE      ADC_CONTR
      000000DEH   SFRSYM    DATA     BYTE      ADCCFG
      000000B8H   SFRSYM    DATA     BYTE      IP
      000000A8H   SFRSYM    DATA     BYTE      IE
      000000F8H   SFRSYM    DATA     BYTE      P7
      000000E1H   SFRSYM    DATA     BYTE      P7M1
      000000E8H   SFRSYM    DATA     BYTE      P6
      000000C8H   SFRSYM    DATA     BYTE      P5
      000000CBH   SFRSYM    DATA     BYTE      P6M1
      000000E2H   SFRSYM    DATA     BYTE      P7M0
      000000C0H   SFRSYM    DATA     BYTE      P4
      000000C9H   SFRSYM    DATA     BYTE      P5M1
      000000CCH   SFRSYM    DATA     BYTE      P6M0
      000000B0H   SFRSYM    DATA     BYTE      P3
      000000B3H   SFRSYM    DATA     BYTE      P4M1
      000000CAH   SFRSYM    DATA     BYTE      P5M0
      000000A0H   SFRSYM    DATA     BYTE      P2
      000000B1H   SFRSYM    DATA     BYTE      P3M1
      000000B4H   SFRSYM    DATA     BYTE      P4M0
      00000090H   SFRSYM    DATA     BYTE      P1
      00000095H   SFRSYM    DATA     BYTE      P2M1
      000000B2H   SFRSYM    DATA     BYTE      P3M0
      00000080H   SFRSYM    DATA     BYTE      P0
      00000091H   SFRSYM    DATA     BYTE      P1M1
      00000096H   SFRSYM    DATA     BYTE      P2M0
      00000092H   SFRSYM    DATA     BYTE      P1M0
      00000093H   SFRSYM    DATA     BYTE      P0M1
      WR4         REGSYM    ---      INT       pin
L251 LINKER/LOCATER V4.66.93.0                                                        03/22/2024  17:44:58  PAGE 39


      WR2         REGSYM    ---      INT       pull

      00FF2DB3H   BLOCK     CODE     ---       LVL=0
      WR4         REGSYM    ---      INT       pin
      WR2         REGSYM    ---      INT       mode
      00FF2DB3H   LINE      CODE     ---       #54
      00FF2DB7H   LINE      CODE     ---       #56
      00FF2DBEH   LINE      CODE     ---       #58
      00FF2DC6H   LINE      CODE     ---       #60
      00FF2DDEH   LINE      CODE     ---       #61
      00FF2DE0H   LINE      CODE     ---       #62
      00FF2DE0H   LINE      CODE     ---       #63
      00FF2DE6H   LINE      CODE     ---       #65
      00FF2DFEH   LINE      CODE     ---       #66
      00FF2E00H   LINE      CODE     ---       #67
      00FF2E00H   LINE      CODE     ---       #68
      00FF2E06H   LINE      CODE     ---       #70
      00FF2E1EH   LINE      CODE     ---       #71
      00FF2E20H   LINE      CODE     ---       #72
      00FF2E20H   LINE      CODE     ---       #74
      00FF2E26H   LINE      CODE     ---       #76
      00FF2E3EH   LINE      CODE     ---       #77
      00FF2E40H   LINE      CODE     ---       #78
      00FF2E40H   LINE      CODE     ---       #79
      00FF2E46H   LINE      CODE     ---       #81
      00FF2E5EH   LINE      CODE     ---       #82
      00FF2E60H   LINE      CODE     ---       #83
      00FF2E60H   LINE      CODE     ---       #84
      00FF2E66H   LINE      CODE     ---       #86
      00FF2E7EH   LINE      CODE     ---       #87
      00FF2E80H   LINE      CODE     ---       #88
      00FF2E80H   LINE      CODE     ---       #89
      00FF2E86H   LINE      CODE     ---       #91
      00FF2E9EH   LINE      CODE     ---       #92
      00FF2EA0H   LINE      CODE     ---       #93
      00FF2EA0H   LINE      CODE     ---       #94
      00FF2EA9H   LINE      CODE     ---       #96
      00FF2EC1H   LINE      CODE     ---       #97
      00FF2EC3H   LINE      CODE     ---       #98
      00FF2EC4H   LINE      CODE     ---       #100
      00FF2ECDH   LINE      CODE     ---       #102
      00FF2ED5H   LINE      CODE     ---       #104
      00FF2EEAH   LINE      CODE     ---       #105
      00FF2EEEH   LINE      CODE     ---       #106
      00FF2EEEH   LINE      CODE     ---       #107
      00FF2EF4H   LINE      CODE     ---       #109
      00FF2F09H   LINE      CODE     ---       #110
      00FF2F0DH   LINE      CODE     ---       #111
      00FF2F0DH   LINE      CODE     ---       #112
      00FF2F13H   LINE      CODE     ---       #114
      00FF2F28H   LINE      CODE     ---       #115
      00FF2F2CH   LINE      CODE     ---       #116
      00FF2F2CH   LINE      CODE     ---       #118
      00FF2F32H   LINE      CODE     ---       #120
      00FF2F47H   LINE      CODE     ---       #121
      00FF2F4BH   LINE      CODE     ---       #122
      00FF2F4BH   LINE      CODE     ---       #123
      00FF2F51H   LINE      CODE     ---       #125
      00FF2F66H   LINE      CODE     ---       #126
      00FF2F6AH   LINE      CODE     ---       #127
      00FF2F6AH   LINE      CODE     ---       #128
      00FF2F70H   LINE      CODE     ---       #130
      00FF2F85H   LINE      CODE     ---       #131
      00FF2F89H   LINE      CODE     ---       #132
      00FF2F89H   LINE      CODE     ---       #133
L251 LINKER/LOCATER V4.66.93.0                                                        03/22/2024  17:44:58  PAGE 40


      00FF2F8FH   LINE      CODE     ---       #135
      00FF2FA4H   LINE      CODE     ---       #136
      00FF2FA8H   LINE      CODE     ---       #137
      00FF2FA8H   LINE      CODE     ---       #138
      00FF2FB1H   LINE      CODE     ---       #140
      00FF2FC8H   LINE      CODE     ---       #141
      00FF2FC8H   LINE      CODE     ---       #142
      00FF2FCBH   LINE      CODE     ---       #145
      00FF2FD4H   LINE      CODE     ---       #147
      00FF2FDCH   LINE      CODE     ---       #149
      00FF2FEFH   LINE      CODE     ---       #150
      00FF2FF3H   LINE      CODE     ---       #151
      00FF2FF3H   LINE      CODE     ---       #152
      00FF2FF9H   LINE      CODE     ---       #154
      00FF300CH   LINE      CODE     ---       #155
      00FF3010H   LINE      CODE     ---       #156
      00FF3010H   LINE      CODE     ---       #157
      00FF3016H   LINE      CODE     ---       #159
      00FF3029H   LINE      CODE     ---       #160
      00FF302DH   LINE      CODE     ---       #161
      00FF302DH   LINE      CODE     ---       #163
      00FF3033H   LINE      CODE     ---       #165
      00FF3046H   LINE      CODE     ---       #166
      00FF304AH   LINE      CODE     ---       #167
      00FF304AH   LINE      CODE     ---       #168
      00FF3050H   LINE      CODE     ---       #170
      00FF3063H   LINE      CODE     ---       #171
      00FF3067H   LINE      CODE     ---       #172
      00FF3067H   LINE      CODE     ---       #173
      00FF306DH   LINE      CODE     ---       #175
      00FF3080H   LINE      CODE     ---       #176
      00FF3084H   LINE      CODE     ---       #177
      00FF3084H   LINE      CODE     ---       #178
      00FF308AH   LINE      CODE     ---       #180
      00FF309DH   LINE      CODE     ---       #181
      00FF30A1H   LINE      CODE     ---       #182
      00FF30A1H   LINE      CODE     ---       #183
      00FF30AAH   LINE      CODE     ---       #185
      00FF30BDH   LINE      CODE     ---       #186
      00FF30C1H   LINE      CODE     ---       #187
      00FF30C2H   LINE      CODE     ---       #189
      00FF30CBH   LINE      CODE     ---       #191
      00FF30D3H   LINE      CODE     ---       #193
      00FF30E6H   LINE      CODE     ---       #194
      00FF30E8H   LINE      CODE     ---       #195
      00FF30E8H   LINE      CODE     ---       #196
      00FF30EEH   LINE      CODE     ---       #198
      00FF3101H   LINE      CODE     ---       #199
      00FF3103H   LINE      CODE     ---       #200
      00FF3103H   LINE      CODE     ---       #201
      00FF3109H   LINE      CODE     ---       #203
      00FF311CH   LINE      CODE     ---       #204
      00FF311EH   LINE      CODE     ---       #205
      00FF311EH   LINE      CODE     ---       #207
      00FF3124H   LINE      CODE     ---       #209
      00FF3137H   LINE      CODE     ---       #210
      00FF3139H   LINE      CODE     ---       #211
      00FF3139H   LINE      CODE     ---       #212
      00FF313FH   LINE      CODE     ---       #214
      00FF3152H   LINE      CODE     ---       #215
      00FF3154H   LINE      CODE     ---       #216
      00FF3154H   LINE      CODE     ---       #217
      00FF315AH   LINE      CODE     ---       #219
      00FF316DH   LINE      CODE     ---       #220
      00FF316FH   LINE      CODE     ---       #221
L251 LINKER/LOCATER V4.66.93.0                                                        03/22/2024  17:44:58  PAGE 41


      00FF316FH   LINE      CODE     ---       #222
      00FF3175H   LINE      CODE     ---       #224
      00FF3188H   LINE      CODE     ---       #225
      00FF318AH   LINE      CODE     ---       #226
      00FF318AH   LINE      CODE     ---       #227
      00FF3190H   LINE      CODE     ---       #229
      00FF31A5H   LINE      CODE     ---       #230
      00FF31A9H   LINE      CODE     ---       #231
      00FF31A9H   LINE      CODE     ---       #233
      ---         BLOCKEND  ---      ---       LVL=0

      ---         MODULE    ---      ---       zf_iic
      000000D0H   SFRSYM    DATA     BYTE      PSW
      000000B7H   SFRSYM    DATA     BYTE      IPH
      00000088H   SFRSYM    DATA     BYTE      TCON
      00000098H   SFRSYM    DATA     BYTE      SCON
      000000BCH   SFRSYM    DATA     BYTE      ADC_CONTR
      000000DEH   SFRSYM    DATA     BYTE      ADCCFG
      000000B8H   SFRSYM    DATA     BYTE      IP
      000000A8H   SFRSYM    DATA     BYTE      IE
      000000BAH   SFRSYM    DATA     BYTE      P_SW2
      000000F8H   SFRSYM    DATA     BYTE      P7
      000000E8H   SFRSYM    DATA     BYTE      P6
      000000C8H   SFRSYM    DATA     BYTE      P5
      000000C0H   SFRSYM    DATA     BYTE      P4
      000000B0H   SFRSYM    DATA     BYTE      P3
      000000A0H   SFRSYM    DATA     BYTE      P2
      00000090H   SFRSYM    DATA     BYTE      P1
      00000080H   SFRSYM    DATA     BYTE      P0
      WR6         REGSYM    ---      WORD      x
      R10         REGSYM    ---      BYTE      i
      WR12        REGSYM    ---      WORD      count
      R15         REGSYM    ---      BYTE      ret
      R11         REGSYM    ---      BYTE      ret
      R11         REGSYM    ---      CHAR      dat
      R11         REGSYM    ---      BYTE      ret
      R11         REGSYM    ---      BYTE      ret
      R11         REGSYM    ---      BYTE      ret
      R11         REGSYM    ---      BYTE      ret
      WR6         REGSYM    ---      INT       iic_n
      R13         REGSYM    ---      BYTE      dev_add
      R14         REGSYM    ---      BYTE      reg
      R15         REGSYM    ---      BYTE      dat
      R15         REGSYM    ---      BYTE      dev_add
      R14         REGSYM    ---      BYTE      reg
      REG=3       REGSYM    ---      ---       dat
      WR6         REGSYM    ---      INT       iic_n

      ---         MODULE    ---      ---       zf_nvic
      000000D0H   SFRSYM    DATA     BYTE      PSW
      000000B7H   SFRSYM    DATA     BYTE      IPH
      000000B5H   SFRSYM    DATA     BYTE      IP2
      00000088H   SFRSYM    DATA     BYTE      TCON
      00000098H   SFRSYM    DATA     BYTE      SCON
      000000BCH   SFRSYM    DATA     BYTE      ADC_CONTR
      000000DEH   SFRSYM    DATA     BYTE      ADCCFG
      000000B8H   SFRSYM    DATA     BYTE      IP
      000000B6H   SFRSYM    DATA     BYTE      IP2H
      000000A8H   SFRSYM    DATA     BYTE      IE
      000000F8H   SFRSYM    DATA     BYTE      P7
      000000E8H   SFRSYM    DATA     BYTE      P6
      000000C8H   SFRSYM    DATA     BYTE      P5
      000000C0H   SFRSYM    DATA     BYTE      P4
      000000B0H   SFRSYM    DATA     BYTE      P3
      000000A0H   SFRSYM    DATA     BYTE      P2
L251 LINKER/LOCATER V4.66.93.0                                                        03/22/2024  17:44:58  PAGE 42


      00000090H   SFRSYM    DATA     BYTE      P1
      00000080H   SFRSYM    DATA     BYTE      P0
      WR4         REGSYM    ---      INT       irqn
      R3          REGSYM    ---      BYTE      priority

      ---         MODULE    ---      ---       zf_pwm
      00FF4D76H   PUBLIC    CODE     ---       pwm_duty
      00FF37F6H   PUBLIC    CODE     ---       pwm_set_gpio
      00FF3512H   PUBLIC    CODE     ---       pwm_init
      00FF67E3H   PUBLIC    HCONST   ---       PWM_CCR_ADDR
      00FF6803H   PUBLIC    HCONST   ---       PWM_ARR_ADDR
      00FF680BH   PUBLIC    HCONST   ---       PWM_CCER_ADDR
      00FF681BH   PUBLIC    HCONST   ---       PWM_CCMR_ADDR
      00000408H   PUBLIC    EDATA    BYTE      ?pwm_init?BYTE
      000000D0H   SFRSYM    DATA     BYTE      PSW
      000000B7H   SFRSYM    DATA     BYTE      IPH
      00000088H   SFRSYM    DATA     BYTE      TCON
      00000098H   SFRSYM    DATA     BYTE      SCON
      000000BCH   SFRSYM    DATA     BYTE      ADC_CONTR
      000000DEH   SFRSYM    DATA     BYTE      ADCCFG
      000000B8H   SFRSYM    DATA     BYTE      IP
      000000A8H   SFRSYM    DATA     BYTE      IE
      000000BAH   SFRSYM    DATA     BYTE      P_SW2
      000000F8H   SFRSYM    DATA     BYTE      P7
      000000E8H   SFRSYM    DATA     BYTE      P6
      000000C8H   SFRSYM    DATA     BYTE      P5
      000000C0H   SFRSYM    DATA     BYTE      P4
      000000B0H   SFRSYM    DATA     BYTE      P3
      000000A0H   SFRSYM    DATA     BYTE      P2
      00000090H   SFRSYM    DATA     BYTE      P1
      00000080H   SFRSYM    DATA     BYTE      P0

      00FF37F6H   BLOCK     CODE     ---       LVL=0
      WR6         REGSYM    ---      INT       pwmch
      00FF37F6H   LINE      CODE     ---       #49
      00FF37F6H   LINE      CODE     ---       #51
      00FF3969H   LINE      CODE     ---       #53
      00FF3969H   LINE      CODE     ---       #55
      00FF396DH   LINE      CODE     ---       #56
      00FF3970H   LINE      CODE     ---       #58
      00FF3970H   LINE      CODE     ---       #60
      00FF3974H   LINE      CODE     ---       #61
      00FF3977H   LINE      CODE     ---       #63
      00FF3977H   LINE      CODE     ---       #65
      00FF397BH   LINE      CODE     ---       #66
      00FF397EH   LINE      CODE     ---       #68
      00FF397EH   LINE      CODE     ---       #70
      00FF3982H   LINE      CODE     ---       #71
      00FF3985H   LINE      CODE     ---       #73
      00FF3985H   LINE      CODE     ---       #75
      00FF3989H   LINE      CODE     ---       #76
      00FF398CH   LINE      CODE     ---       #78
      00FF398CH   LINE      CODE     ---       #80
      00FF3990H   LINE      CODE     ---       #81
      00FF3993H   LINE      CODE     ---       #84
      00FF3993H   LINE      CODE     ---       #86
      00FF3997H   LINE      CODE     ---       #87
      00FF399AH   LINE      CODE     ---       #89
      00FF399AH   LINE      CODE     ---       #91
      00FF399EH   LINE      CODE     ---       #92
      00FF39A1H   LINE      CODE     ---       #94
      00FF39A1H   LINE      CODE     ---       #96
      00FF39A5H   LINE      CODE     ---       #97
      00FF39A8H   LINE      CODE     ---       #99
      00FF39A8H   LINE      CODE     ---       #101
L251 LINKER/LOCATER V4.66.93.0                                                        03/22/2024  17:44:58  PAGE 43


      00FF39ACH   LINE      CODE     ---       #102
      00FF39AFH   LINE      CODE     ---       #104
      00FF39AFH   LINE      CODE     ---       #106
      00FF39B3H   LINE      CODE     ---       #107
      00FF39B6H   LINE      CODE     ---       #109
      00FF39B6H   LINE      CODE     ---       #111
      00FF39BAH   LINE      CODE     ---       #112
      00FF39BDH   LINE      CODE     ---       #115
      00FF39BDH   LINE      CODE     ---       #117
      00FF39C1H   LINE      CODE     ---       #118
      00FF39C3H   LINE      CODE     ---       #120
      00FF39C3H   LINE      CODE     ---       #122
      00FF39C7H   LINE      CODE     ---       #123
      00FF39C9H   LINE      CODE     ---       #125
      00FF39C9H   LINE      CODE     ---       #127
      00FF39CDH   LINE      CODE     ---       #128
      00FF39CFH   LINE      CODE     ---       #130
      00FF39CFH   LINE      CODE     ---       #132
      00FF39D3H   LINE      CODE     ---       #133
      00FF39D5H   LINE      CODE     ---       #135
      00FF39D5H   LINE      CODE     ---       #137
      00FF39D9H   LINE      CODE     ---       #138
      00FF39DBH   LINE      CODE     ---       #140
      00FF39DBH   LINE      CODE     ---       #142
      00FF39DFH   LINE      CODE     ---       #143
      00FF39E1H   LINE      CODE     ---       #147
      00FF39E1H   LINE      CODE     ---       #149
      00FF39E5H   LINE      CODE     ---       #150
      00FF39E7H   LINE      CODE     ---       #152
      00FF39E7H   LINE      CODE     ---       #154
      00FF39EBH   LINE      CODE     ---       #155
      00FF39EDH   LINE      CODE     ---       #157
      00FF39EDH   LINE      CODE     ---       #159
      00FF39F1H   LINE      CODE     ---       #160
      00FF39F3H   LINE      CODE     ---       #162
      00FF39F3H   LINE      CODE     ---       #164
      00FF39F7H   LINE      CODE     ---       #165
      00FF39F9H   LINE      CODE     ---       #167
      00FF39F9H   LINE      CODE     ---       #169
      00FF39FDH   LINE      CODE     ---       #170
      00FF39FFH   LINE      CODE     ---       #172
      00FF39FFH   LINE      CODE     ---       #174
      00FF3A03H   LINE      CODE     ---       #175
      00FF3A05H   LINE      CODE     ---       #177
      00FF3A05H   LINE      CODE     ---       #179
      00FF3A09H   LINE      CODE     ---       #180
      00FF3A0BH   LINE      CODE     ---       #182
      00FF3A0BH   LINE      CODE     ---       #184
      00FF3A0FH   LINE      CODE     ---       #185
      00FF3A11H   LINE      CODE     ---       #189
      00FF3A11H   LINE      CODE     ---       #191
      00FF3A15H   LINE      CODE     ---       #192
      00FF3A17H   LINE      CODE     ---       #194
      00FF3A17H   LINE      CODE     ---       #196
      00FF3A1BH   LINE      CODE     ---       #197
      00FF3A1DH   LINE      CODE     ---       #199
      00FF3A1DH   LINE      CODE     ---       #201
      00FF3A1FH   LINE      CODE     ---       #202
      00FF3A21H   LINE      CODE     ---       #204
      00FF3A21H   LINE      CODE     ---       #206
      00FF3A25H   LINE      CODE     ---       #207
      00FF3A27H   LINE      CODE     ---       #210
      00FF3A27H   LINE      CODE     ---       #212
      00FF3A2BH   LINE      CODE     ---       #213
      00FF3A2DH   LINE      CODE     ---       #215
L251 LINKER/LOCATER V4.66.93.0                                                        03/22/2024  17:44:58  PAGE 44


      00FF3A2DH   LINE      CODE     ---       #217
      00FF3A31H   LINE      CODE     ---       #218
      00FF3A33H   LINE      CODE     ---       #220
      00FF3A33H   LINE      CODE     ---       #222
      00FF3A39H   LINE      CODE     ---       #223
      00FF3A3BH   LINE      CODE     ---       #225
      00FF3A3BH   LINE      CODE     ---       #227
      00FF3A43H   LINE      CODE     ---       #228
      00FF3A45H   LINE      CODE     ---       #232
      00FF3A45H   LINE      CODE     ---       #234
      00FF3A4DH   LINE      CODE     ---       #235
      00FF3A4FH   LINE      CODE     ---       #237
      00FF3A4FH   LINE      CODE     ---       #239
      00FF3A57H   LINE      CODE     ---       #240
      00FF3A59H   LINE      CODE     ---       #242
      00FF3A59H   LINE      CODE     ---       #244
      00FF3A61H   LINE      CODE     ---       #245
      00FF3A63H   LINE      CODE     ---       #247
      00FF3A63H   LINE      CODE     ---       #249
      00FF3A6BH   LINE      CODE     ---       #250
      00FF3A6DH   LINE      CODE     ---       #254
      00FF3A6DH   LINE      CODE     ---       #256
      00FF3A75H   LINE      CODE     ---       #257
      00FF3A77H   LINE      CODE     ---       #259
      00FF3A77H   LINE      CODE     ---       #261
      00FF3A7FH   LINE      CODE     ---       #262
      00FF3A81H   LINE      CODE     ---       #264
      00FF3A81H   LINE      CODE     ---       #266
      00FF3A89H   LINE      CODE     ---       #267
      00FF3A8BH   LINE      CODE     ---       #269
      00FF3A8BH   LINE      CODE     ---       #271
      00FF3A96H   LINE      CODE     ---       #272
      00FF3A96H   LINE      CODE     ---       #275
      00FF3A96H   LINE      CODE     ---       #277
      ---         BLOCKEND  ---      ---       LVL=0

      00FF3512H   BLOCK     CODE     ---       LVL=0
      WR14        REGSYM    ---      INT       pwmch
      0000040AH   SYMBOL    EDATA    DWORD     freq
      0000040EH   SYMBOL    EDATA    DWORD     duty
      00FF351AH   BLOCK     CODE     NEAR LAB  LVL=1
      DR4         REGSYM    ---      DWORD     match_temp
      DR28        REGSYM    ---      DWORD     period_temp
      WR26        REGSYM    ---      WORD      freq_div
      ---         BLOCKEND  ---      ---       LVL=1
      00FF3512H   LINE      CODE     ---       #290
      00FF351AH   LINE      CODE     ---       #291
      00FF351AH   LINE      CODE     ---       #295
      00FF351AH   LINE      CODE     ---       #298
      00FF351DH   LINE      CODE     ---       #301
      00FF3520H   LINE      CODE     ---       #305
      00FF3531H   LINE      CODE     ---       #306
      00FF3531H   LINE      CODE     ---       #307
      00FF353AH   LINE      CODE     ---       #309
      00FF355BH   LINE      CODE     ---       #312
      00FF3564H   LINE      CODE     ---       #315
      00FF358FH   LINE      CODE     ---       #316
      00FF35B0H   LINE      CODE     ---       #319
      00FF35FCH   LINE      CODE     ---       #322
      00FF360BH   LINE      CODE     ---       #323
      00FF3616H   LINE      CODE     ---       #325
      00FF361FH   LINE      CODE     ---       #326
      00FF3625H   LINE      CODE     ---       #327
      00FF3628H   LINE      CODE     ---       #330
      00FF3660H   LINE      CODE     ---       #331
L251 LINKER/LOCATER V4.66.93.0                                                        03/22/2024  17:44:58  PAGE 45


      00FF3683H   LINE      CODE     ---       #334
      00FF36D5H   LINE      CODE     ---       #338
      00FF36E4H   LINE      CODE     ---       #339
      00FF36EFH   LINE      CODE     ---       #341
      00FF36F8H   LINE      CODE     ---       #342
      00FF3705H   LINE      CODE     ---       #343
      00FF3705H   LINE      CODE     ---       #346
      00FF3731H   LINE      CODE     ---       #347
      00FF375FH   LINE      CODE     ---       #350
      00FF3785H   LINE      CODE     ---       #351
      00FF37B1H   LINE      CODE     ---       #354
      00FF37C8H   LINE      CODE     ---       #355
      00FF37F3H   LINE      CODE     ---       #360
      ---         BLOCKEND  ---      ---       LVL=0

      00FF4D76H   BLOCK     CODE     ---       LVL=0
      WR30        REGSYM    ---      INT       pwmch
      DR24        REGSYM    ---      DWORD     duty
      00FF4D7AH   BLOCK     CODE     NEAR LAB  LVL=1
      DR0         REGSYM    ---      DWORD     match_temp
      DR20        REGSYM    ---      DWORD     arr
      ---         BLOCKEND  ---      ---       LVL=1
      00FF4D76H   LINE      CODE     ---       #370
      00FF4D7AH   LINE      CODE     ---       #371
      00FF4D7AH   LINE      CODE     ---       #373
      00FF4DBEH   LINE      CODE     ---       #377
      00FF4DDFH   LINE      CODE     ---       #381
      00FF4E05H   LINE      CODE     ---       #382
      00FF4E2DH   LINE      CODE     ---       #386
      ---         BLOCKEND  ---      ---       LVL=0
      WR30        REGSYM    ---      INT       pwmch
      DR24        REGSYM    ---      DWORD     freq
      DR0         REGSYM    ---      DWORD     match_temp
      DR24        REGSYM    ---      DWORD     period_temp
      WR28        REGSYM    ---      WORD      freq_div

      ---         MODULE    ---      ---       zf_spi
      000000CFH   SFRSYM    DATA     BYTE      SPDAT
      000000D0H   SFRSYM    DATA     BYTE      PSW
      000000B7H   SFRSYM    DATA     BYTE      IPH
      000000CDH   SFRSYM    DATA     BYTE      SPSTAT
      00000088H   SFRSYM    DATA     BYTE      TCON
      00000098H   SFRSYM    DATA     BYTE      SCON
      000000BCH   SFRSYM    DATA     BYTE      ADC_CONTR
      000000DEH   SFRSYM    DATA     BYTE      ADCCFG
      000000B8H   SFRSYM    DATA     BYTE      IP
      000000A8H   SFRSYM    DATA     BYTE      IE
      000000A2H   SFRSYM    DATA     BYTE      P_SW1
      000000CEH   SFRSYM    DATA     BYTE      SPCTL
      000000F8H   SFRSYM    DATA     BYTE      P7
      000000E8H   SFRSYM    DATA     BYTE      P6
      000000C8H   SFRSYM    DATA     BYTE      P5
      000000C0H   SFRSYM    DATA     BYTE      P4
      000000B0H   SFRSYM    DATA     BYTE      P3
      000000A0H   SFRSYM    DATA     BYTE      P2
      00000090H   SFRSYM    DATA     BYTE      P1
      00000080H   SFRSYM    DATA     BYTE      P0
      WR14        REGSYM    ---      INT       spi_n
      R13         REGSYM    ---      BYTE      mode
      R11         REGSYM    ---      BYTE      dat
      WR14        REGSYM    ---      INT       spi_n
      R7          REGSYM    ---      BYTE      mode

      ---         MODULE    ---      ---       zf_tim
      00FF5BDFH   PUBLIC    CODE     ---       ctimer_count_read
L251 LINKER/LOCATER V4.66.93.0                                                        03/22/2024  17:44:58  PAGE 46


      00FF50CDH   PUBLIC    CODE     ---       pit_timer_ms
      00FF5C79H   PUBLIC    CODE     ---       ctimer_count_init
      00FF5B8EH   PUBLIC    CODE     ---       ctimer_count_clean
      000000D0H   SFRSYM    DATA     BYTE      PSW
      000000B7H   SFRSYM    DATA     BYTE      IPH
      000000DDH   SFRSYM    DATA     BYTE      T4T3M
      00000088H.6 SFRSYM    DATA     BIT       TR1
      00000088H.4 SFRSYM    DATA     BIT       TR0
      000000D3H   SFRSYM    DATA     BYTE      T4L
      000000D5H   SFRSYM    DATA     BYTE      T3L
      000000D7H   SFRSYM    DATA     BYTE      T2L
      0000008BH   SFRSYM    DATA     BYTE      TL1
      0000008AH   SFRSYM    DATA     BYTE      TL0
      000000D2H   SFRSYM    DATA     BYTE      T4H
      000000D4H   SFRSYM    DATA     BYTE      T3H
      000000D6H   SFRSYM    DATA     BYTE      T2H
      0000008DH   SFRSYM    DATA     BYTE      TH1
      0000008CH   SFRSYM    DATA     BYTE      TH0
      000000A8H.3 SFRSYM    DATA     BIT       ET1
      000000A8H.1 SFRSYM    DATA     BIT       ET0
      0000008EH   SFRSYM    DATA     BYTE      AUXR
      000000AFH   SFRSYM    DATA     BYTE      IE2
      00000088H   SFRSYM    DATA     BYTE      TCON
      00000089H   SFRSYM    DATA     BYTE      TMOD
      00000098H   SFRSYM    DATA     BYTE      SCON
      000000BCH   SFRSYM    DATA     BYTE      ADC_CONTR
      000000DEH   SFRSYM    DATA     BYTE      ADCCFG
      000000B8H   SFRSYM    DATA     BYTE      IP
      000000A8H   SFRSYM    DATA     BYTE      IE
      000000F8H   SFRSYM    DATA     BYTE      P7
      000000E8H   SFRSYM    DATA     BYTE      P6
      000000C8H   SFRSYM    DATA     BYTE      P5
      000000C0H   SFRSYM    DATA     BYTE      P4
      000000B0H   SFRSYM    DATA     BYTE      P3
      000000A0H   SFRSYM    DATA     BYTE      P2
      00000090H   SFRSYM    DATA     BYTE      P1
      00000080H   SFRSYM    DATA     BYTE      P0

      00FF5C79H   BLOCK     CODE     ---       LVL=0
      WR6         REGSYM    ---      INT       tim_n
      00FF5C79H   LINE      CODE     ---       #39
      00FF5C79H   LINE      CODE     ---       #42
      00FF5C8DH   LINE      CODE     ---       #44
      00FF5C8DH   LINE      CODE     ---       #46
      00FF5C90H   LINE      CODE     ---       #47
      00FF5C93H   LINE      CODE     ---       #48
      00FF5C96H   LINE      CODE     ---       #49
      00FF5C98H   LINE      CODE     ---       #50
      00FF5C99H   LINE      CODE     ---       #53
      00FF5C99H   LINE      CODE     ---       #55
      00FF5C9CH   LINE      CODE     ---       #56
      00FF5C9FH   LINE      CODE     ---       #57
      00FF5CA2H   LINE      CODE     ---       #58
      00FF5CA4H   LINE      CODE     ---       #59
      00FF5CA5H   LINE      CODE     ---       #62
      00FF5CA5H   LINE      CODE     ---       #64
      00FF5CA8H   LINE      CODE     ---       #65
      00FF5CABH   LINE      CODE     ---       #66
      00FF5CAEH   LINE      CODE     ---       #67
      00FF5CAFH   LINE      CODE     ---       #70
      00FF5CAFH   LINE      CODE     ---       #72
      00FF5CB2H   LINE      CODE     ---       #73
      00FF5CB5H   LINE      CODE     ---       #74
      00FF5CB8H   LINE      CODE     ---       #75
      00FF5CB9H   LINE      CODE     ---       #78
L251 LINKER/LOCATER V4.66.93.0                                                        03/22/2024  17:44:58  PAGE 47


      00FF5CB9H   LINE      CODE     ---       #80
      00FF5CBCH   LINE      CODE     ---       #81
      00FF5CBFH   LINE      CODE     ---       #82
      00FF5CC2H   LINE      CODE     ---       #83
      00FF5CC2H   LINE      CODE     ---       #86
      00FF5CC2H   LINE      CODE     ---       #87
      ---         BLOCKEND  ---      ---       LVL=0

      00FF5BDFH   BLOCK     CODE     ---       LVL=0
      WR4         REGSYM    ---      INT       tim_n
      00FF5BE1H   BLOCK     CODE     NEAR LAB  LVL=1
      WR6         REGSYM    ---      WORD      dat
      ---         BLOCKEND  ---      ---       LVL=1
      00FF5BDFH   LINE      CODE     ---       #95
      00FF5BE1H   LINE      CODE     ---       #96
      00FF5BE1H   LINE      CODE     ---       #97
      00FF5BE3H   LINE      CODE     ---       #99
      00FF5BF7H   LINE      CODE     ---       #101
      00FF5BF7H   LINE      CODE     ---       #103
      00FF5BFDH   LINE      CODE     ---       #104
      00FF5BFFH   LINE      CODE     ---       #105
      00FF5C01H   LINE      CODE     ---       #107
      00FF5C01H   LINE      CODE     ---       #109
      00FF5C07H   LINE      CODE     ---       #110
      00FF5C09H   LINE      CODE     ---       #111
      00FF5C0BH   LINE      CODE     ---       #113
      00FF5C0BH   LINE      CODE     ---       #115
      00FF5C11H   LINE      CODE     ---       #116
      00FF5C13H   LINE      CODE     ---       #117
      00FF5C15H   LINE      CODE     ---       #119
      00FF5C15H   LINE      CODE     ---       #121
      00FF5C1BH   LINE      CODE     ---       #122
      00FF5C1DH   LINE      CODE     ---       #123
      00FF5C1FH   LINE      CODE     ---       #125
      00FF5C1FH   LINE      CODE     ---       #127
      00FF5C25H   LINE      CODE     ---       #128
      00FF5C2BH   LINE      CODE     ---       #129
      00FF5C2BH   LINE      CODE     ---       #132
      00FF5C2BH   LINE      CODE     ---       #133
      00FF5C2BH   LINE      CODE     ---       #134
      ---         BLOCKEND  ---      ---       LVL=0

      00FF5B8EH   BLOCK     CODE     ---       LVL=0
      WR6         REGSYM    ---      INT       tim_n
      00FF5B8EH   LINE      CODE     ---       #143
      00FF5B8EH   LINE      CODE     ---       #145
      00FF5BA2H   LINE      CODE     ---       #147
      00FF5BA2H   LINE      CODE     ---       #149
      00FF5BA4H   LINE      CODE     ---       #150
      00FF5BA7H   LINE      CODE     ---       #151
      00FF5BAAH   LINE      CODE     ---       #152
      00FF5BACH   LINE      CODE     ---       #153
      00FF5BADH   LINE      CODE     ---       #155
      00FF5BADH   LINE      CODE     ---       #157
      00FF5BAFH   LINE      CODE     ---       #158
      00FF5BB2H   LINE      CODE     ---       #159
      00FF5BB5H   LINE      CODE     ---       #160
      00FF5BB7H   LINE      CODE     ---       #161
      00FF5BB8H   LINE      CODE     ---       #163
      00FF5BB8H   LINE      CODE     ---       #165
      00FF5BBBH   LINE      CODE     ---       #166
      00FF5BBEH   LINE      CODE     ---       #167
      00FF5BC1H   LINE      CODE     ---       #168
      00FF5BC4H   LINE      CODE     ---       #169
      00FF5BC5H   LINE      CODE     ---       #171
L251 LINKER/LOCATER V4.66.93.0                                                        03/22/2024  17:44:58  PAGE 48


      00FF5BC5H   LINE      CODE     ---       #173
      00FF5BC8H   LINE      CODE     ---       #174
      00FF5BCBH   LINE      CODE     ---       #175
      00FF5BCEH   LINE      CODE     ---       #176
      00FF5BD1H   LINE      CODE     ---       #177
      00FF5BD2H   LINE      CODE     ---       #179
      00FF5BD2H   LINE      CODE     ---       #181
      00FF5BD5H   LINE      CODE     ---       #182
      00FF5BD8H   LINE      CODE     ---       #183
      00FF5BDBH   LINE      CODE     ---       #184
      00FF5BDEH   LINE      CODE     ---       #185
      00FF5BDEH   LINE      CODE     ---       #187
      00FF5BDEH   LINE      CODE     ---       #188
      ---         BLOCKEND  ---      ---       LVL=0

      00FF50CDH   BLOCK     CODE     ---       LVL=0
      WR30        REGSYM    ---      INT       tim_n
      WR28        REGSYM    ---      WORD      time_ms
      00FF50CFH   BLOCK     CODE     NEAR LAB  LVL=1
      WR28        REGSYM    ---      WORD      temp
      ---         BLOCKEND  ---      ---       LVL=1
      00FF50CDH   LINE      CODE     ---       #198
      00FF50CFH   LINE      CODE     ---       #199
      00FF50CFH   LINE      CODE     ---       #201
      00FF50ECH   LINE      CODE     ---       #203
      00FF50F0H   LINE      CODE     ---       #205
      00FF50F4H   LINE      CODE     ---       #206
      00FF50FAH   LINE      CODE     ---       #207
      00FF50FEH   LINE      CODE     ---       #208
      00FF5100H   LINE      CODE     ---       #209
      00FF5102H   LINE      CODE     ---       #210
      00FF5103H   LINE      CODE     ---       #211
      00FF5109H   LINE      CODE     ---       #213
      00FF510DH   LINE      CODE     ---       #214
      00FF5113H   LINE      CODE     ---       #215
      00FF5117H   LINE      CODE     ---       #216
      00FF5119H   LINE      CODE     ---       #217
      00FF511BH   LINE      CODE     ---       #218
      00FF511CH   LINE      CODE     ---       #219
      00FF5122H   LINE      CODE     ---       #221
      00FF5128H   LINE      CODE     ---       #222
      00FF512CH   LINE      CODE     ---       #223
      00FF512FH   LINE      CODE     ---       #224
      00FF5132H   LINE      CODE     ---       #225
      00FF5133H   LINE      CODE     ---       #226
      00FF5139H   LINE      CODE     ---       #228
      00FF513FH   LINE      CODE     ---       #229
      00FF5143H   LINE      CODE     ---       #230
      00FF5146H   LINE      CODE     ---       #231
      00FF5149H   LINE      CODE     ---       #232
      00FF514AH   LINE      CODE     ---       #233
      00FF5150H   LINE      CODE     ---       #235
      00FF5156H   LINE      CODE     ---       #236
      00FF515AH   LINE      CODE     ---       #237
      00FF515DH   LINE      CODE     ---       #238
      00FF5160H   LINE      CODE     ---       #239
      ---         BLOCKEND  ---      ---       LVL=0

      ---         MODULE    ---      ---       zf_uart
      00FF5A3EH   PUBLIC    CODE     ---       uart_putchar
      00FF411DH   PUBLIC    CODE     ---       uart_init
      00000331H   PUBLIC    EDATA    ---       uart1_rx_buff
      00000395H   PUBLIC    EDATA    ---       uart1_tx_buff
      000003F9H   PUBLIC    EDATA    ---       busy
      00000404H   PUBLIC    EDATA    BYTE      ?uart_init?BYTE
L251 LINKER/LOCATER V4.66.93.0                                                        03/22/2024  17:44:58  PAGE 49


      000000D0H   SFRSYM    DATA     BYTE      PSW
      000000FDH   SFRSYM    DATA     BYTE      S4CON
      000000ACH   SFRSYM    DATA     BYTE      S3CON
      0000009AH   SFRSYM    DATA     BYTE      S2CON
      000000FEH   SFRSYM    DATA     BYTE      S4BUF
      000000ADH   SFRSYM    DATA     BYTE      S3BUF
      0000009BH   SFRSYM    DATA     BYTE      S2BUF
      000000B7H   SFRSYM    DATA     BYTE      IPH
      000000DDH   SFRSYM    DATA     BYTE      T4T3M
      00000088H.6 SFRSYM    DATA     BIT       TR1
      000000D3H   SFRSYM    DATA     BYTE      T4L
      000000D5H   SFRSYM    DATA     BYTE      T3L
      000000D7H   SFRSYM    DATA     BYTE      T2L
      0000008BH   SFRSYM    DATA     BYTE      TL1
      000000D2H   SFRSYM    DATA     BYTE      T4H
      000000D4H   SFRSYM    DATA     BYTE      T3H
      000000D6H   SFRSYM    DATA     BYTE      T2H
      0000008DH   SFRSYM    DATA     BYTE      TH1
      0000008EH   SFRSYM    DATA     BYTE      AUXR
      000000AFH   SFRSYM    DATA     BYTE      IE2
      00000088H   SFRSYM    DATA     BYTE      TCON
      00000089H   SFRSYM    DATA     BYTE      TMOD
      00000098H   SFRSYM    DATA     BYTE      SCON
      00000099H   SFRSYM    DATA     BYTE      SBUF
      000000BCH   SFRSYM    DATA     BYTE      ADC_CONTR
      000000DEH   SFRSYM    DATA     BYTE      ADCCFG
      000000B8H   SFRSYM    DATA     BYTE      IP
      000000A8H.4 SFRSYM    DATA     BIT       ES
      000000A8H   SFRSYM    DATA     BYTE      IE
      000000BAH   SFRSYM    DATA     BYTE      P_SW2
      000000A2H   SFRSYM    DATA     BYTE      P_SW1
      000000F8H   SFRSYM    DATA     BYTE      P7
      000000E8H   SFRSYM    DATA     BYTE      P6
      000000C8H   SFRSYM    DATA     BYTE      P5
      000000C0H   SFRSYM    DATA     BYTE      P4
      000000C9H   SFRSYM    DATA     BYTE      P5M1
      000000B0H   SFRSYM    DATA     BYTE      P3
      000000CAH   SFRSYM    DATA     BYTE      P5M0
      000000A0H   SFRSYM    DATA     BYTE      P2
      00000090H   SFRSYM    DATA     BYTE      P1
      00000080H   SFRSYM    DATA     BYTE      P0

      00FF411DH   BLOCK     CODE     ---       LVL=0
      WR24        REGSYM    ---      INT       uart_n
      WR28        REGSYM    ---      INT       uart_rx_pin
      WR30        REGSYM    ---      INT       uart_tx_pin
      0000040AH   SYMBOL    EDATA    DWORD     baud
      WR26        REGSYM    ---      INT       tim_n
      00FF4125H   BLOCK     CODE     NEAR LAB  LVL=1
      WR6         REGSYM    ---      WORD      brt
      ---         BLOCKEND  ---      ---       LVL=1
      00FF411DH   LINE      CODE     ---       #48
      00FF4125H   LINE      CODE     ---       #49
      00FF4125H   LINE      CODE     ---       #52
      00FF4148H   LINE      CODE     ---       #55
      00FF4166H   LINE      CODE     ---       #57
      00FF4166H   LINE      CODE     ---       #59
      00FF416CH   LINE      CODE     ---       #61
      00FF416FH   LINE      CODE     ---       #62
      00FF4173H   LINE      CODE     ---       #63
      00FF4177H   LINE      CODE     ---       #64
      00FF417BH   LINE      CODE     ---       #65
      00FF417EH   LINE      CODE     ---       #66
      00FF4180H   LINE      CODE     ---       #67
      00FF4185H   LINE      CODE     ---       #68
L251 LINKER/LOCATER V4.66.93.0                                                        03/22/2024  17:44:58  PAGE 50


      00FF4187H   LINE      CODE     ---       #69
      00FF418DH   LINE      CODE     ---       #71
      00FF4190H   LINE      CODE     ---       #72
      00FF4194H   LINE      CODE     ---       #73
      00FF4198H   LINE      CODE     ---       #74
      00FF419BH   LINE      CODE     ---       #75
      00FF419BH   LINE      CODE     ---       #76
      00FF419EH   LINE      CODE     ---       #77
      00FF41A8H   LINE      CODE     ---       #79
      00FF41ACH   LINE      CODE     ---       #80
      00FF41AEH   LINE      CODE     ---       #81
      00FF41BAH   LINE      CODE     ---       #83
      00FF41BDH   LINE      CODE     ---       #84
      00FF41BFH   LINE      CODE     ---       #85
      00FF41CBH   LINE      CODE     ---       #87
      00FF41CEH   LINE      CODE     ---       #88
      00FF41D0H   LINE      CODE     ---       #89
      00FF41DCH   LINE      CODE     ---       #91
      00FF41DFH   LINE      CODE     ---       #92
      00FF41DFH   LINE      CODE     ---       #93
      00FF41E4H   LINE      CODE     ---       #94
      00FF41E6H   LINE      CODE     ---       #95
      00FF41E7H   LINE      CODE     ---       #98
      00FF41E7H   LINE      CODE     ---       #100
      00FF41EDH   LINE      CODE     ---       #102
      00FF41F0H   LINE      CODE     ---       #103
      00FF41F4H   LINE      CODE     ---       #104
      00FF41F8H   LINE      CODE     ---       #105
      00FF41FBH   LINE      CODE     ---       #106
      00FF41FBH   LINE      CODE     ---       #108
      00FF41FEH   LINE      CODE     ---       #109
      00FF420AH   LINE      CODE     ---       #111
      00FF420EH   LINE      CODE     ---       #112
      00FF4210H   LINE      CODE     ---       #113
      00FF421CH   LINE      CODE     ---       #115
      00FF421FH   LINE      CODE     ---       #116
      00FF421FH   LINE      CODE     ---       #118
      00FF4222H   LINE      CODE     ---       #119
      00FF4227H   LINE      CODE     ---       #120
      00FF4228H   LINE      CODE     ---       #123
      00FF4228H   LINE      CODE     ---       #125
      00FF422EH   LINE      CODE     ---       #127
      00FF4231H   LINE      CODE     ---       #128
      00FF4235H   LINE      CODE     ---       #129
      00FF4239H   LINE      CODE     ---       #130
      00FF423CH   LINE      CODE     ---       #131
      00FF423EH   LINE      CODE     ---       #132
      00FF4244H   LINE      CODE     ---       #134
      00FF4247H   LINE      CODE     ---       #135
      00FF424BH   LINE      CODE     ---       #136
      00FF424FH   LINE      CODE     ---       #137
      00FF4252H   LINE      CODE     ---       #138
      00FF4252H   LINE      CODE     ---       #140
      00FF4255H   LINE      CODE     ---       #141
      00FF4261H   LINE      CODE     ---       #143
      00FF4265H   LINE      CODE     ---       #144
      00FF4267H   LINE      CODE     ---       #145
      00FF4273H   LINE      CODE     ---       #147
      00FF4276H   LINE      CODE     ---       #148
      00FF4276H   LINE      CODE     ---       #150
      00FF4279H   LINE      CODE     ---       #151
      00FF427EH   LINE      CODE     ---       #152
      00FF427FH   LINE      CODE     ---       #155
      00FF427FH   LINE      CODE     ---       #157
      00FF4285H   LINE      CODE     ---       #159
L251 LINKER/LOCATER V4.66.93.0                                                        03/22/2024  17:44:58  PAGE 51


      00FF4288H   LINE      CODE     ---       #160
      00FF428CH   LINE      CODE     ---       #161
      00FF4290H   LINE      CODE     ---       #162
      00FF4293H   LINE      CODE     ---       #163
      00FF4295H   LINE      CODE     ---       #164
      00FF429BH   LINE      CODE     ---       #166
      00FF429EH   LINE      CODE     ---       #167
      00FF42A2H   LINE      CODE     ---       #168
      00FF42A6H   LINE      CODE     ---       #169
      00FF42A9H   LINE      CODE     ---       #170
      00FF42A9H   LINE      CODE     ---       #172
      00FF42ACH   LINE      CODE     ---       #173
      00FF42B8H   LINE      CODE     ---       #175
      00FF42BCH   LINE      CODE     ---       #176
      00FF42BEH   LINE      CODE     ---       #177
      00FF42CAH   LINE      CODE     ---       #179
      00FF42CDH   LINE      CODE     ---       #180
      00FF42D0H   LINE      CODE     ---       #181
      00FF42D3H   LINE      CODE     ---       #182
      00FF42D3H   LINE      CODE     ---       #183
      00FF42D6H   LINE      CODE     ---       #184
      00FF42DBH   LINE      CODE     ---       #185
      00FF42DBH   LINE      CODE     ---       #188
      00FF42DBH   LINE      CODE     ---       #190
      ---         BLOCKEND  ---      ---       LVL=0

      00FF5A3EH   BLOCK     CODE     ---       LVL=0
      WR6         REGSYM    ---      INT       uart_n
      R10         REGSYM    ---      BYTE      dat
      00FF5A3EH   LINE      CODE     ---       #199
      00FF5A40H   LINE      CODE     ---       #201
      00FF5A52H   LINE      CODE     ---       #203
      00FF5A52H   LINE      CODE     ---       #204
      00FF5A58H   LINE      CODE     ---       #205
      00FF5A5EH   LINE      CODE     ---       #206
      00FF5A61H   LINE      CODE     ---       #207
      00FF5A62H   LINE      CODE     ---       #208
      00FF5A62H   LINE      CODE     ---       #209
      00FF5A68H   LINE      CODE     ---       #210
      00FF5A6EH   LINE      CODE     ---       #211
      00FF5A71H   LINE      CODE     ---       #212
      00FF5A72H   LINE      CODE     ---       #213
      00FF5A72H   LINE      CODE     ---       #214
      00FF5A78H   LINE      CODE     ---       #215
      00FF5A7EH   LINE      CODE     ---       #216
      00FF5A81H   LINE      CODE     ---       #217
      00FF5A82H   LINE      CODE     ---       #218
      00FF5A82H   LINE      CODE     ---       #219
      00FF5A88H   LINE      CODE     ---       #220
      00FF5A8EH   LINE      CODE     ---       #221
      00FF5A91H   LINE      CODE     ---       #222
      00FF5A91H   LINE      CODE     ---       #223
      00FF5A91H   LINE      CODE     ---       #224
      ---         BLOCKEND  ---      ---       LVL=0
      REG=3       REGSYM    ---      ---       p
      REG=3       REGSYM    ---      ---       str

      ---         MODULE    ---      ---       zf_fifo
      00FF5D4CH   PUBLIC    CODE     ---       fifo_head_offset
      00FF4957H   PUBLIC    CODE     ---       fifo_write_buffer
      000003FAH   PUBLIC    EDATA    BYTE      ?fifo_write_buffer?BYTE
      000000D0H   SFRSYM    DATA     BYTE      PSW
      000000B7H   SFRSYM    DATA     BYTE      IPH
      00000088H   SFRSYM    DATA     BYTE      TCON
      00000098H   SFRSYM    DATA     BYTE      SCON
L251 LINKER/LOCATER V4.66.93.0                                                        03/22/2024  17:44:58  PAGE 52


      000000BCH   SFRSYM    DATA     BYTE      ADC_CONTR
      000000DEH   SFRSYM    DATA     BYTE      ADCCFG
      000000B8H   SFRSYM    DATA     BYTE      IP
      000000A8H   SFRSYM    DATA     BYTE      IE
      000000F8H   SFRSYM    DATA     BYTE      P7
      000000E8H   SFRSYM    DATA     BYTE      P6
      000000C8H   SFRSYM    DATA     BYTE      P5
      000000C0H   SFRSYM    DATA     BYTE      P4
      000000B0H   SFRSYM    DATA     BYTE      P3
      000000A0H   SFRSYM    DATA     BYTE      P2
      00000090H   SFRSYM    DATA     BYTE      P1
      00000080H   SFRSYM    DATA     BYTE      P0
      REG=2       REGSYM    ---      ---       fifo
      REG=7       REGSYM    ---      ---       buffer_addr

      00FF5D4CH   BLOCK     CODE     ---       LVL=0
      REG=7       REGSYM    ---      ---       fifo
      DR24        REGSYM    ---      DWORD     offset
      00FF5D4CH   LINE      CODE     ---       #61
      00FF5D50H   LINE      CODE     ---       #63
      00FF5D5BH   LINE      CODE     ---       #65
      00FF5D5DH   LINE      CODE     ---       #67
      00FF5D79H   LINE      CODE     ---       #68
      00FF5D8DH   LINE      CODE     ---       #69
      ---         BLOCKEND  ---      ---       LVL=0
      REG=7       REGSYM    ---      ---       fifo
      DR24        REGSYM    ---      DWORD     offset
      REG=2       REGSYM    ---      ---       fifo
      REG=7       REGSYM    ---      ---       fifo

      00FF4957H   BLOCK     CODE     ---       LVL=0
      REG=3       REGSYM    ---      ---       fifo
      000003FEH   SYMBOL    EDATA    ---       dat
      00000402H   SYMBOL    EDATA    DWORD     length
      00FF495FH   BLOCK     CODE     NEAR LAB  LVL=1
      00000406H   SYMBOL    EDATA    DWORD     temp_length
      ---         BLOCKEND  ---      ---       LVL=1
      00FF4957H   LINE      CODE     ---       #120
      00FF495FH   LINE      CODE     ---       #121
      00FF495FH   LINE      CODE     ---       #124
      00FF4972H   LINE      CODE     ---       #126
      00FF4988H   LINE      CODE     ---       #128
      00FF498CH   LINE      CODE     ---       #130
      00FF49A4H   LINE      CODE     ---       #131
      00FF49ADH   LINE      CODE     ---       #132
      00FF49BDH   LINE      CODE     ---       #133
      00FF49DDH   LINE      CODE     ---       #134
      00FF49E9H   LINE      CODE     ---       #135
      00FF49EBH   LINE      CODE     ---       #138
      00FF4A07H   LINE      CODE     ---       #139
      00FF4A10H   LINE      CODE     ---       #140
      00FF4A10H   LINE      CODE     ---       #142
      00FF4A2AH   LINE      CODE     ---       #143
      00FF4A2CH   LINE      CODE     ---       #146
      00FF4A32H   LINE      CODE     ---       #147
      00FF4A32H   LINE      CODE     ---       #149
      00FF4A34H   LINE      CODE     ---       #150
      ---         BLOCKEND  ---      ---       LVL=0
      REG=3       REGSYM    ---      ---       fifo

      ---         MODULE    ---      ---       SEEKFREE_18TFT
      000000D0H   SFRSYM    DATA     BYTE      PSW
      000000B7H   SFRSYM    DATA     BYTE      IPH
      000000A0H.5 SFRSYM    DATA     BIT       P25
      00000088H   SFRSYM    DATA     BYTE      TCON
L251 LINKER/LOCATER V4.66.93.0                                                        03/22/2024  17:44:58  PAGE 53


      000000A0H.3 SFRSYM    DATA     BIT       P23
      00000098H   SFRSYM    DATA     BYTE      SCON
      000000A0H.2 SFRSYM    DATA     BIT       P22
      000000A0H.1 SFRSYM    DATA     BIT       P21
      000000A0H.0 SFRSYM    DATA     BIT       P20
      000000BCH   SFRSYM    DATA     BYTE      ADC_CONTR
      000000DEH   SFRSYM    DATA     BYTE      ADCCFG
      000000B8H   SFRSYM    DATA     BYTE      IP
      000000A8H   SFRSYM    DATA     BYTE      IE
      000000F8H   SFRSYM    DATA     BYTE      P7
      000000E8H   SFRSYM    DATA     BYTE      P6
      000000C8H   SFRSYM    DATA     BYTE      P5
      000000C0H   SFRSYM    DATA     BYTE      P4
      000000B0H   SFRSYM    DATA     BYTE      P3
      000000A0H   SFRSYM    DATA     BYTE      P2
      00000090H   SFRSYM    DATA     BYTE      P1
      00000080H   SFRSYM    DATA     BYTE      P0
      R7          REGSYM    ---      BYTE      dat
      R6          REGSYM    ---      BYTE      i
      R7          REGSYM    ---      BYTE      dat
      R6          REGSYM    ---      BYTE      i
      WR4         REGSYM    ---      WORD      dat
      R10         REGSYM    ---      BYTE      i
      WR12        REGSYM    ---      WORD      x_end
      WR14        REGSYM    ---      WORD      y_end
      WR14        REGSYM    ---      INT       color
      R13         REGSYM    ---      BYTE      i
      R12         REGSYM    ---      BYTE      j
      WR2         REGSYM    ---      WORD      x
      WR0         REGSYM    ---      WORD      y
      WR14        REGSYM    ---      WORD      color
      WR12        REGSYM    ---      WORD      x
      WR14        REGSYM    ---      WORD      y
      REG=3       REGSYM    ---      ---       dat
      WR12        REGSYM    ---      WORD      x
      WR14        REGSYM    ---      WORD      y
      WR12        REGSYM    ---      WORD      x
      WR14        REGSYM    ---      WORD      y
      R10         REGSYM    ---      BYTE      dat
      WR12        REGSYM    ---      WORD      x
      WR14        REGSYM    ---      WORD      y
      WR12        REGSYM    ---      WORD      x
      WR14        REGSYM    ---      WORD      y
      WR2         REGSYM    ---      WORD      dat
      WR12        REGSYM    ---      WORD      y
      R15         REGSYM    ---      BYTE      num
      R14         REGSYM    ---      BYTE      length
      DR12        REGSYM    ---      FLOAT     dat
      R7          REGSYM    ---      CHAR      point
      R7          REGSYM    ---      BYTE      dat
      R7          REGSYM    ---      BYTE      dat
      WR4         REGSYM    ---      WORD      dat
      WR12        REGSYM    ---      WORD      x_end
      WR14        REGSYM    ---      WORD      y_end
      WR14        REGSYM    ---      INT       color
      R13         REGSYM    ---      BYTE      i
      R12         REGSYM    ---      BYTE      j
      WR2         REGSYM    ---      WORD      x
      WR0         REGSYM    ---      WORD      y
      WR14        REGSYM    ---      WORD      color
      WR12        REGSYM    ---      WORD      x
      WR14        REGSYM    ---      WORD      y
      REG=3       REGSYM    ---      ---       dat
      WR12        REGSYM    ---      WORD      x
      WR14        REGSYM    ---      WORD      y
L251 LINKER/LOCATER V4.66.93.0                                                        03/22/2024  17:44:58  PAGE 54


      WR12        REGSYM    ---      WORD      x
      WR14        REGSYM    ---      WORD      y
      R10         REGSYM    ---      BYTE      dat
      WR12        REGSYM    ---      WORD      x
      WR14        REGSYM    ---      WORD      y
      WR12        REGSYM    ---      WORD      x
      WR14        REGSYM    ---      WORD      y
      WR2         REGSYM    ---      WORD      dat
      WR12        REGSYM    ---      WORD      y
      R15         REGSYM    ---      BYTE      num
      R14         REGSYM    ---      BYTE      length
      DR12        REGSYM    ---      FLOAT     dat
      R7          REGSYM    ---      CHAR      point
      REG=3       REGSYM    ---      ---       p

      ---         MODULE    ---      ---       SEEKFREE_ABSOLUTE_ENCODER
      000000D0H   SFRSYM    DATA     BYTE      PSW
      000000B7H   SFRSYM    DATA     BYTE      IPH
      000000A0H.7 SFRSYM    DATA     BIT       P27
      000000A0H.6 SFRSYM    DATA     BIT       P26
      000000A0H.5 SFRSYM    DATA     BIT       P25
      000000A0H.4 SFRSYM    DATA     BIT       P24
      00000088H   SFRSYM    DATA     BYTE      TCON
      00000098H   SFRSYM    DATA     BYTE      SCON
      000000A0H.2 SFRSYM    DATA     BIT       P22
      000000BCH   SFRSYM    DATA     BYTE      ADC_CONTR
      000000DEH   SFRSYM    DATA     BYTE      ADCCFG
      000000B8H   SFRSYM    DATA     BYTE      IP
      000000A8H   SFRSYM    DATA     BYTE      IE
      000000F8H   SFRSYM    DATA     BYTE      P7
      000000E8H   SFRSYM    DATA     BYTE      P6
      000000C8H   SFRSYM    DATA     BYTE      P5
      000000C0H   SFRSYM    DATA     BYTE      P4
      000000B0H   SFRSYM    DATA     BYTE      P3
      000000A0H   SFRSYM    DATA     BYTE      P2
      00000090H   SFRSYM    DATA     BYTE      P1
      00000080H   SFRSYM    DATA     BYTE      P0
      WR6         REGSYM    ---      WORD      x
      R6          REGSYM    ---      BYTE      byte
      R7          REGSYM    ---      BYTE      i
      R7          REGSYM    ---      BYTE      cmd
      R15         REGSYM    ---      BYTE      val
      R7          REGSYM    ---      BYTE      cmd
      REG=3       REGSYM    ---      ---       val
      R7          REGSYM    ---      BYTE      cmd
      R15         REGSYM    ---      BYTE      val
      R14         REGSYM    ---      BYTE      dat
      R7          REGSYM    ---      BYTE      cmd
      REG=3       REGSYM    ---      ---       val
      WR14        REGSYM    ---      WORD      zero_position
      WR14        REGSYM    ---      WORD      angle
      R10         REGSYM    ---      BYTE      byte
      R7          REGSYM    ---      BYTE      cmd
      R15         REGSYM    ---      BYTE      val
      R7          REGSYM    ---      BYTE      cmd
      REG=3       REGSYM    ---      ---       val
      R7          REGSYM    ---      BYTE      cmd
      R15         REGSYM    ---      BYTE      val
      R14         REGSYM    ---      BYTE      dat
      R7          REGSYM    ---      BYTE      cmd
      REG=3       REGSYM    ---      ---       val
      WR14        REGSYM    ---      WORD      zero_position
      WR14        REGSYM    ---      WORD      angle

      ---         MODULE    ---      ---       SEEKFREE_FONT
L251 LINKER/LOCATER V4.66.93.0                                                        03/22/2024  17:44:58  PAGE 55


      00FF00A6H   PUBLIC    CODE     ---       oled_8x16
      00FF0696H   PUBLIC    CODE     ---       tft_ascii
      00FF0C86H   PUBLIC    CODE     ---       oled_6x8
      000000D0H   SFRSYM    DATA     BYTE      PSW
      000000B7H   SFRSYM    DATA     BYTE      IPH
      00000088H   SFRSYM    DATA     BYTE      TCON
      00000098H   SFRSYM    DATA     BYTE      SCON
      000000BCH   SFRSYM    DATA     BYTE      ADC_CONTR
      000000DEH   SFRSYM    DATA     BYTE      ADCCFG
      000000B8H   SFRSYM    DATA     BYTE      IP
      000000A8H   SFRSYM    DATA     BYTE      IE
      000000F8H   SFRSYM    DATA     BYTE      P7
      000000E8H   SFRSYM    DATA     BYTE      P6
      000000C8H   SFRSYM    DATA     BYTE      P5
      000000C0H   SFRSYM    DATA     BYTE      P4
      000000B0H   SFRSYM    DATA     BYTE      P3
      000000A0H   SFRSYM    DATA     BYTE      P2
      00000090H   SFRSYM    DATA     BYTE      P1
      00000080H   SFRSYM    DATA     BYTE      P0

      ---         MODULE    ---      ---       SEEKFREE_IIC
      000006E4H   PUBLIC    EDATA    BYTE      IIC_ad_main
      000006E5H   PUBLIC    EDATA    BYTE      IIC_num
      000006E6H   PUBLIC    EDATA    BYTE      IIC_ad_sub
      000006E7H   PUBLIC    EDATA    ---       IIC_buf
      000000D0H   SFRSYM    DATA     BYTE      PSW
      000000B7H   SFRSYM    DATA     BYTE      IPH
      00000088H   SFRSYM    DATA     BYTE      TCON
      000000C0H.1 SFRSYM    DATA     BIT       P41
      00000098H   SFRSYM    DATA     BYTE      SCON
      000000C0H.0 SFRSYM    DATA     BIT       P40
      000000BCH   SFRSYM    DATA     BYTE      ADC_CONTR
      000000DEH   SFRSYM    DATA     BYTE      ADCCFG
      000000B8H   SFRSYM    DATA     BYTE      IP
      000000A8H   SFRSYM    DATA     BYTE      IE
      000000F8H   SFRSYM    DATA     BYTE      P7
      000000E8H   SFRSYM    DATA     BYTE      P6
      000000C8H   SFRSYM    DATA     BYTE      P5
      000000C0H   SFRSYM    DATA     BYTE      P4
      000000B0H   SFRSYM    DATA     BYTE      P3
      000000A0H   SFRSYM    DATA     BYTE      P2
      00000090H   SFRSYM    DATA     BYTE      P1
      00000080H   SFRSYM    DATA     BYTE      P0
      WR6         REGSYM    ---      WORD      j
      R15         REGSYM    ---      BYTE      ack_dat
      R15         REGSYM    ---      BYTE      c
      R14         REGSYM    ---      BYTE      i
      R15         REGSYM    ---      BYTE      ack_x
      R13         REGSYM    ---      BYTE      i
      R14         REGSYM    ---      BYTE      c
      R13         REGSYM    ---      BYTE      dev_add
      R14         REGSYM    ---      BYTE      reg
      R15         REGSYM    ---      BYTE      dat
      R15         REGSYM    ---      BYTE      dev_add
      R14         REGSYM    ---      BYTE      reg
      WR12        REGSYM    ---      INT       type
      R15         REGSYM    ---      BYTE      dat
      REG=3       REGSYM    ---      ---       dat_add

      ---         MODULE    ---      ---       SEEKFREE_MPU6050
      000006C2H   PUBLIC    EDATA    INT       mpu_acc_x
      000006C4H   PUBLIC    EDATA    INT       mpu_acc_y
      000006C6H   PUBLIC    EDATA    INT       mpu_acc_z
      000006C8H   PUBLIC    EDATA    INT       mpu_gyro_x
      000006CAH   PUBLIC    EDATA    INT       mpu_gyro_y
L251 LINKER/LOCATER V4.66.93.0                                                        03/22/2024  17:44:58  PAGE 56


      000006CCH   PUBLIC    EDATA    INT       mpu_gyro_z
      000000D0H   SFRSYM    DATA     BYTE      PSW
      000000B7H   SFRSYM    DATA     BYTE      IPH
      00000088H   SFRSYM    DATA     BYTE      TCON
      00000098H   SFRSYM    DATA     BYTE      SCON
      000000BCH   SFRSYM    DATA     BYTE      ADC_CONTR
      000000DEH   SFRSYM    DATA     BYTE      ADCCFG
      000000B8H   SFRSYM    DATA     BYTE      IP
      000000A8H   SFRSYM    DATA     BYTE      IE
      000000F8H   SFRSYM    DATA     BYTE      P7
      000000E8H   SFRSYM    DATA     BYTE      P6
      000000C8H   SFRSYM    DATA     BYTE      P5
      000000C0H   SFRSYM    DATA     BYTE      P4
      000000B0H   SFRSYM    DATA     BYTE      P3
      000000A0H   SFRSYM    DATA     BYTE      P2
      00000090H   SFRSYM    DATA     BYTE      P1
      00000080H   SFRSYM    DATA     BYTE      P0

      ---         MODULE    ---      ---       SEEKFREE_OLED
      00FF6324H   PUBLIC    CODE     ---       oled_set_pos
      00FF45A3H   PUBLIC    CODE     ---       oled_printf_float
      00FF6239H   PUBLIC    CODE     ---       oled_wrcmd
      00FF6262H   PUBLIC    CODE     ---       oled_wrdat
      00FF6091H   PUBLIC    CODE     ---       oled_fill
      00FF502AH   PUBLIC    CODE     ---       oled_init
      00FF478BH   PUBLIC    CODE     ---       oled_p8x16str
      00000406H   PUBLIC    EDATA    BYTE      ?oled_printf_float?BYTE
      000000D0H   SFRSYM    DATA     BYTE      PSW
      000000B7H   SFRSYM    DATA     BYTE      IPH
      000000A0H.5 SFRSYM    DATA     BIT       P25
      00000088H   SFRSYM    DATA     BYTE      TCON
      000000A0H.3 SFRSYM    DATA     BIT       P23
      00000098H   SFRSYM    DATA     BYTE      SCON
      000000A0H.2 SFRSYM    DATA     BIT       P22
      000000A0H.1 SFRSYM    DATA     BIT       P21
      000000A0H.0 SFRSYM    DATA     BIT       P20
      000000BCH   SFRSYM    DATA     BYTE      ADC_CONTR
      000000DEH   SFRSYM    DATA     BYTE      ADCCFG
      000000B8H   SFRSYM    DATA     BYTE      IP
      000000A8H   SFRSYM    DATA     BYTE      IE
      000000F8H   SFRSYM    DATA     BYTE      P7
      000000E8H   SFRSYM    DATA     BYTE      P6
      000000C8H   SFRSYM    DATA     BYTE      P5
      000000C0H   SFRSYM    DATA     BYTE      P4
      000000B0H   SFRSYM    DATA     BYTE      P3
      000000A0H   SFRSYM    DATA     BYTE      P2
      00000090H   SFRSYM    DATA     BYTE      P1
      00000080H   SFRSYM    DATA     BYTE      P0

      00FF6262H   BLOCK     CODE     ---       LVL=0
      R7          REGSYM    ---      BYTE      dat
      00FF6264H   BLOCK     CODE     NEAR LAB  LVL=1
      R6          REGSYM    ---      BYTE      i
      ---         BLOCKEND  ---      ---       LVL=1
      00FF6262H   LINE      CODE     ---       #47
      00FF6264H   LINE      CODE     ---       #48
      00FF6264H   LINE      CODE     ---       #49
      00FF6267H   LINE      CODE     ---       #51
      00FF6269H   LINE      CODE     ---       #52
      00FF626BH   LINE      CODE     ---       #53
      00FF626DH   LINE      CODE     ---       #54
      00FF626FH   LINE      CODE     ---       #56
      00FF6278H   LINE      CODE     ---       #57
      00FF627AH   LINE      CODE     ---       #58
      00FF627CH   LINE      CODE     ---       #60
L251 LINKER/LOCATER V4.66.93.0                                                        03/22/2024  17:44:58  PAGE 57


      00FF627EH   LINE      CODE     ---       #61
      00FF6280H   LINE      CODE     ---       #62
      00FF6288H   LINE      CODE     ---       #63
      00FF628AH   LINE      CODE     ---       #64
      ---         BLOCKEND  ---      ---       LVL=0

      00FF6239H   BLOCK     CODE     ---       LVL=0
      R7          REGSYM    ---      BYTE      cmd
      00FF623BH   BLOCK     CODE     NEAR LAB  LVL=1
      R6          REGSYM    ---      BYTE      i
      ---         BLOCKEND  ---      ---       LVL=1
      00FF6239H   LINE      CODE     ---       #98
      00FF623BH   LINE      CODE     ---       #99
      00FF623BH   LINE      CODE     ---       #100
      00FF623EH   LINE      CODE     ---       #102
      00FF6240H   LINE      CODE     ---       #103
      00FF6242H   LINE      CODE     ---       #104
      00FF6244H   LINE      CODE     ---       #106
      00FF6246H   LINE      CODE     ---       #108
      00FF624FH   LINE      CODE     ---       #109
      00FF6251H   LINE      CODE     ---       #110
      00FF6253H   LINE      CODE     ---       #112
      00FF6255H   LINE      CODE     ---       #113
      00FF6257H   LINE      CODE     ---       #114
      00FF625FH   LINE      CODE     ---       #115
      00FF6261H   LINE      CODE     ---       #116
      ---         BLOCKEND  ---      ---       LVL=0
      WR8         REGSYM    ---      WORD      hex
      REG=7       REGSYM    ---      ---       Print
      R5          REGSYM    ---      BYTE      hexcheck
      R10         REGSYM    ---      BYTE      TEMP

      00FF502AH   BLOCK     CODE     ---       LVL=0
      00FF502AH   LINE      CODE     ---       #148
      00FF502AH   LINE      CODE     ---       #151
      00FF502CH   LINE      CODE     ---       #152
      00FF502EH   LINE      CODE     ---       #154
      00FF5030H   LINE      CODE     ---       #155
      00FF5037H   LINE      CODE     ---       #156
      00FF5039H   LINE      CODE     ---       #158
      00FF503EH   LINE      CODE     ---       #159
      00FF5042H   LINE      CODE     ---       #160
      00FF5047H   LINE      CODE     ---       #161
      00FF504CH   LINE      CODE     ---       #162
      00FF5051H   LINE      CODE     ---       #163
      00FF5056H   LINE      CODE     ---       #166
      00FF505BH   LINE      CODE     ---       #167
      00FF5060H   LINE      CODE     ---       #173
      00FF5065H   LINE      CODE     ---       #174
      00FF506AH   LINE      CODE     ---       #175
      00FF506FH   LINE      CODE     ---       #176
      00FF5074H   LINE      CODE     ---       #177
      00FF5078H   LINE      CODE     ---       #178
      00FF507DH   LINE      CODE     ---       #179
      00FF5082H   LINE      CODE     ---       #180
      00FF5087H   LINE      CODE     ---       #181
      00FF508CH   LINE      CODE     ---       #182
      00FF5091H   LINE      CODE     ---       #183
      00FF5096H   LINE      CODE     ---       #184
      00FF509BH   LINE      CODE     ---       #185
      00FF50A0H   LINE      CODE     ---       #186
      00FF50A5H   LINE      CODE     ---       #187
      00FF50AAH   LINE      CODE     ---       #188
      00FF50AFH   LINE      CODE     ---       #189
      00FF50B4H   LINE      CODE     ---       #190
L251 LINKER/LOCATER V4.66.93.0                                                        03/22/2024  17:44:58  PAGE 58


      00FF50B9H   LINE      CODE     ---       #191
      00FF50BEH   LINE      CODE     ---       #192
      00FF50C3H   LINE      CODE     ---       #193
      00FF50C7H   LINE      CODE     ---       #194
      ---         BLOCKEND  ---      ---       LVL=0

      00FF6324H   BLOCK     CODE     ---       LVL=0
      R15         REGSYM    ---      BYTE      x
      R10         REGSYM    ---      BYTE      y
      00FF6324H   LINE      CODE     ---       #205
      00FF6328H   LINE      CODE     ---       #207
      00FF632FH   LINE      CODE     ---       #208
      00FF633DH   LINE      CODE     ---       #209
      00FF6344H   LINE      CODE     ---       #210
      ---         BLOCKEND  ---      ---       LVL=0

      00FF6091H   BLOCK     CODE     ---       LVL=0
      R15         REGSYM    ---      BYTE      bmp_data
      00FF6097H   BLOCK     CODE     NEAR LAB  LVL=1
      R14         REGSYM    ---      BYTE      y
      R13         REGSYM    ---      BYTE      x
      ---         BLOCKEND  ---      ---       LVL=1
      00FF6091H   LINE      CODE     ---       #219
      00FF6097H   LINE      CODE     ---       #220
      00FF6097H   LINE      CODE     ---       #223
      00FF6099H   LINE      CODE     ---       #225
      00FF60A0H   LINE      CODE     ---       #226
      00FF60A5H   LINE      CODE     ---       #227
      00FF60AAH   LINE      CODE     ---       #228
      00FF60B8H   LINE      CODE     ---       #229
      00FF60BFH   LINE      CODE     ---       #230
      ---         BLOCKEND  ---      ---       LVL=0
      R15         REGSYM    ---      BYTE      x
      R14         REGSYM    ---      BYTE      y
      R13         REGSYM    ---      BYTE      data1
      R15         REGSYM    ---      BYTE      x
      R14         REGSYM    ---      BYTE      y
      REG=3       REGSYM    ---      ---       ch

      00FF478BH   BLOCK     CODE     ---       LVL=0
      00000435H   SYMBOL    EDATA    BYTE      x
      00000436H   SYMBOL    EDATA    BYTE      y
      REG=3       REGSYM    ---      ---       ch
      00FF4797H   BLOCK     CODE     NEAR LAB  LVL=1
      00000437H   SYMBOL    EDATA    BYTE      c
      00000438H   SYMBOL    EDATA    BYTE      i
      00000439H   SYMBOL    EDATA    BYTE      j
      ---         BLOCKEND  ---      ---       LVL=1
      00FF478BH   LINE      CODE     ---       #302
      00FF4797H   LINE      CODE     ---       #303
      00FF4797H   LINE      CODE     ---       #304
      00FF47A0H   LINE      CODE     ---       #306
      00FF47A3H   LINE      CODE     ---       #308
      00FF47BAH   LINE      CODE     ---       #309
      00FF47D1H   LINE      CODE     ---       #311
      00FF47DCH   LINE      CODE     ---       #312
      00FF480DH   LINE      CODE     ---       #314
      00FF481AH   LINE      CODE     ---       #315
      00FF484BH   LINE      CODE     ---       #317
      00FF4855H   LINE      CODE     ---       #318
      00FF485EH   LINE      CODE     ---       #319
      00FF4870H   LINE      CODE     ---       #320
      ---         BLOCKEND  ---      ---       LVL=0
      R14         REGSYM    ---      BYTE      x
      R15         REGSYM    ---      BYTE      y
L251 LINKER/LOCATER V4.66.93.0                                                        03/22/2024  17:44:58  PAGE 59


      WR4         REGSYM    ---      WORD      num
      R15         REGSYM    ---      BYTE      x
      R14         REGSYM    ---      BYTE      y
      WR12        REGSYM    ---      INT       num
      WR12        REGSYM    ---      WORD      y
      R15         REGSYM    ---      BYTE      num
      R14         REGSYM    ---      BYTE      length

      00FF45A3H   BLOCK     CODE     ---       LVL=0
      0000040AH   SYMBOL    EDATA    WORD      x
      0000040CH   SYMBOL    EDATA    WORD      y
      DR12        REGSYM    ---      FLOAT     dat
      0000040EH   SYMBOL    EDATA    BYTE      num
      0000040FH   SYMBOL    EDATA    BYTE      pointnum
      00FF45B3H   BLOCK     CODE     NEAR LAB  LVL=1
      00000410H   SYMBOL    EDATA    BYTE      length
      00000411H   SYMBOL    EDATA    ---       buff
      00000433H   SYMBOL    EDATA    CHAR      start
      00000434H   SYMBOL    EDATA    CHAR      end
      R7          REGSYM    ---      CHAR      point
      ---         BLOCKEND  ---      ---       LVL=1
      00FF45A3H   LINE      CODE     ---       #412
      00FF45B3H   LINE      CODE     ---       #413
      00FF45B3H   LINE      CODE     ---       #418
      00FF45C2H   LINE      CODE     ---       #419
      00FF45D1H   LINE      CODE     ---       #421
      00FF45F3H   LINE      CODE     ---       #424
      00FF460CH   LINE      CODE     ---       #425
      00FF4611H   LINE      CODE     ---       #426
      00FF4611H   LINE      CODE     ---       #427
      00FF461BH   LINE      CODE     ---       #428
      00FF462BH   LINE      CODE     ---       #429
      00FF463BH   LINE      CODE     ---       #430
      00FF4640H   LINE      CODE     ---       #432
      00FF464AH   LINE      CODE     ---       #433
      00FF4653H   LINE      CODE     ---       #434
      00FF465CH   LINE      CODE     ---       #435
      00FF4665H   LINE      CODE     ---       #437
      00FF4672H   LINE      CODE     ---       #438
      00FF467EH   LINE      CODE     ---       #440
      00FF4689H   LINE      CODE     ---       #442
      00FF4698H   LINE      CODE     ---       #443
      ---         BLOCKEND  ---      ---       LVL=0
      WR4         REGSYM    ---      WORD      high
      REG=3       REGSYM    ---      ---       p
      REG=3       REGSYM    ---      ---       p
      R7          REGSYM    ---      BYTE      dat
      R7          REGSYM    ---      BYTE      cmd
      WR8         REGSYM    ---      WORD      hex
      REG=7       REGSYM    ---      ---       Print
      R5          REGSYM    ---      BYTE      hexcheck
      R10         REGSYM    ---      BYTE      TEMP
      R15         REGSYM    ---      BYTE      x
      R10         REGSYM    ---      BYTE      y
      R15         REGSYM    ---      BYTE      bmp_data
      R14         REGSYM    ---      BYTE      y
      R13         REGSYM    ---      BYTE      x
      R15         REGSYM    ---      BYTE      x
      R14         REGSYM    ---      BYTE      y
      R13         REGSYM    ---      BYTE      data1
      R15         REGSYM    ---      BYTE      x
      R14         REGSYM    ---      BYTE      y
      REG=3       REGSYM    ---      ---       ch
      REG=3       REGSYM    ---      ---       ch
      R14         REGSYM    ---      BYTE      x
L251 LINKER/LOCATER V4.66.93.0                                                        03/22/2024  17:44:58  PAGE 60


      R15         REGSYM    ---      BYTE      y
      WR4         REGSYM    ---      WORD      num
      R15         REGSYM    ---      BYTE      x
      R14         REGSYM    ---      BYTE      y
      WR12        REGSYM    ---      INT       num
      WR12        REGSYM    ---      WORD      y
      R15         REGSYM    ---      BYTE      num
      R14         REGSYM    ---      BYTE      length
      DR12        REGSYM    ---      FLOAT     dat
      R7          REGSYM    ---      CHAR      point
      WR4         REGSYM    ---      WORD      high
      REG=3       REGSYM    ---      ---       p
      REG=3       REGSYM    ---      ---       p

      ---         MODULE    ---      ---       SEEKFREE_AT24C02
      000000D0H   SFRSYM    DATA     BYTE      PSW
      000000B7H   SFRSYM    DATA     BYTE      IPH
      00000088H   SFRSYM    DATA     BYTE      TCON
      00000098H   SFRSYM    DATA     BYTE      SCON
      000000BCH   SFRSYM    DATA     BYTE      ADC_CONTR
      000000DEH   SFRSYM    DATA     BYTE      ADCCFG
      000000B8H   SFRSYM    DATA     BYTE      IP
      000000A8H   SFRSYM    DATA     BYTE      IE
      000000F8H   SFRSYM    DATA     BYTE      P7
      000000E8H   SFRSYM    DATA     BYTE      P6
      000000C8H   SFRSYM    DATA     BYTE      P5
      000000C0H   SFRSYM    DATA     BYTE      P4
      000000B0H   SFRSYM    DATA     BYTE      P3
      000000A0H   SFRSYM    DATA     BYTE      P2
      00000090H   SFRSYM    DATA     BYTE      P1
      00000080H   SFRSYM    DATA     BYTE      P0
      R14         REGSYM    ---      BYTE      byte_reg
      R15         REGSYM    ---      BYTE      dat
      R15         REGSYM    ---      BYTE      byte_reg
      REG=3       REGSYM    ---      ---       dat_add
      REG=3       REGSYM    ---      ---       dat_add

      ---         MODULE    ---      ---       SEEKFREE_BLUETOOTH_CH9141
      00FF6422H   PUBLIC    CODE     ---       bluetooth_ch9141_uart_callback
      000000D0H   SFRSYM    DATA     BYTE      PSW
      000000FEH   SFRSYM    DATA     BYTE      S4BUF
      000000B7H   SFRSYM    DATA     BYTE      IPH
      00000080H.7 SFRSYM    DATA     BIT       P07
      00000088H   SFRSYM    DATA     BYTE      TCON
      00000098H   SFRSYM    DATA     BYTE      SCON
      000000BCH   SFRSYM    DATA     BYTE      ADC_CONTR
      000000DEH   SFRSYM    DATA     BYTE      ADCCFG
      000000B8H   SFRSYM    DATA     BYTE      IP
      000000A8H   SFRSYM    DATA     BYTE      IE
      000000F8H   SFRSYM    DATA     BYTE      P7
      000000E8H   SFRSYM    DATA     BYTE      P6
      000000C8H   SFRSYM    DATA     BYTE      P5
      000000C0H   SFRSYM    DATA     BYTE      P4
      000000B0H   SFRSYM    DATA     BYTE      P3
      000000A0H   SFRSYM    DATA     BYTE      P2
      00000090H   SFRSYM    DATA     BYTE      P1
      00000080H   SFRSYM    DATA     BYTE      P0
      00000500H   SYMBOL    EDATA    ---       bluetooth_ch9141_buffer
      00000540H   SYMBOL    EDATA    BYTE      bluetooth_ch9141_data
      00000541H   SYMBOL    EDATA    ---       bluetooth_ch9141_fifo

      00FF6422H   BLOCK     CODE     ---       LVL=0
      00FF6422H   LINE      CODE     ---       #67
      00FF6422H   LINE      CODE     ---       #70
      00FF6428H   LINE      CODE     ---       #71
L251 LINKER/LOCATER V4.66.93.0                                                        03/22/2024  17:44:58  PAGE 61


      ---         BLOCKEND  ---      ---       LVL=0
      DR12        REGSYM    ---      DWORD     len
      REG=7       REGSYM    ---      ---       buff
      DR8         REGSYM    ---      DWORD     len

      ---         MODULE    ---      ---       SEEKFREE_ICM20602
      000006CEH   PUBLIC    EDATA    INT       icm_acc_x
      000006D0H   PUBLIC    EDATA    INT       icm_acc_y
      000006D2H   PUBLIC    EDATA    INT       icm_acc_z
      000006D4H   PUBLIC    EDATA    INT       icm_gyro_x
      000006D6H   PUBLIC    EDATA    INT       icm_gyro_y
      000006D8H   PUBLIC    EDATA    INT       icm_gyro_z
      000000D0H   SFRSYM    DATA     BYTE      PSW
      000000B7H   SFRSYM    DATA     BYTE      IPH
      000000C0H.3 SFRSYM    DATA     BIT       P43
      000000C0H.2 SFRSYM    DATA     BIT       P42
      00000088H   SFRSYM    DATA     BYTE      TCON
      000000C0H.1 SFRSYM    DATA     BIT       P41
      00000098H   SFRSYM    DATA     BYTE      SCON
      000000C0H.0 SFRSYM    DATA     BIT       P40
      000000BCH   SFRSYM    DATA     BYTE      ADC_CONTR
      000000DEH   SFRSYM    DATA     BYTE      ADCCFG
      000000B8H   SFRSYM    DATA     BYTE      IP
      000000A8H   SFRSYM    DATA     BYTE      IE
      000000F8H   SFRSYM    DATA     BYTE      P7
      000000E8H   SFRSYM    DATA     BYTE      P6
      000000C8H   SFRSYM    DATA     BYTE      P5
      000000C0H   SFRSYM    DATA     BYTE      P4
      000000B0H   SFRSYM    DATA     BYTE      P3
      000000A0H   SFRSYM    DATA     BYTE      P2
      00000090H   SFRSYM    DATA     BYTE      P1
      00000080H   SFRSYM    DATA     BYTE      P0
      R15         REGSYM    ---      BYTE      dat
      R6          REGSYM    ---      BYTE      byte
      R7          REGSYM    ---      BYTE      i
      R7          REGSYM    ---      BYTE      cmd
      R15         REGSYM    ---      BYTE      val
      R7          REGSYM    ---      BYTE      cmd
      REG=3       REGSYM    ---      ---       val
      R7          REGSYM    ---      BYTE      cmd
      REG=3       REGSYM    ---      ---       val

      ---         MODULE    ---      ---       SEEKFREE_IPS114_SPI
      000000D0H   SFRSYM    DATA     BYTE      PSW
      000000B7H   SFRSYM    DATA     BYTE      IPH
      000000A0H.7 SFRSYM    DATA     BIT       P27
      000000A0H.5 SFRSYM    DATA     BIT       P25
      00000088H   SFRSYM    DATA     BYTE      TCON
      000000A0H.3 SFRSYM    DATA     BIT       P23
      00000098H   SFRSYM    DATA     BYTE      SCON
      000000A0H.2 SFRSYM    DATA     BIT       P22
      000000A0H.1 SFRSYM    DATA     BIT       P21
      000000A0H.0 SFRSYM    DATA     BIT       P20
      000000BCH   SFRSYM    DATA     BYTE      ADC_CONTR
      000000DEH   SFRSYM    DATA     BYTE      ADCCFG
      000000B8H   SFRSYM    DATA     BYTE      IP
      000000A8H   SFRSYM    DATA     BYTE      IE
      000000F8H   SFRSYM    DATA     BYTE      P7
      000000E8H   SFRSYM    DATA     BYTE      P6
      000000C8H   SFRSYM    DATA     BYTE      P5
      000000C0H   SFRSYM    DATA     BYTE      P4
      000000B0H   SFRSYM    DATA     BYTE      P3
      000000A0H   SFRSYM    DATA     BYTE      P2
      00000090H   SFRSYM    DATA     BYTE      P1
      00000080H   SFRSYM    DATA     BYTE      P0
L251 LINKER/LOCATER V4.66.93.0                                                        03/22/2024  17:44:58  PAGE 62


      R7          REGSYM    ---      BYTE      dat
      R6          REGSYM    ---      BYTE      i
      R7          REGSYM    ---      BYTE      dat
      R6          REGSYM    ---      BYTE      i
      WR4         REGSYM    ---      WORD      dat
      R10         REGSYM    ---      BYTE      i
      WR12        REGSYM    ---      WORD      x2
      WR14        REGSYM    ---      WORD      y2
      WR14        REGSYM    ---      WORD      color
      R13         REGSYM    ---      BYTE      i
      WR2         REGSYM    ---      WORD      x
      WR0         REGSYM    ---      WORD      y
      WR14        REGSYM    ---      WORD      color
      WR12        REGSYM    ---      WORD      x
      WR14        REGSYM    ---      WORD      y
      REG=3       REGSYM    ---      ---       dat
      WR12        REGSYM    ---      WORD      x
      WR14        REGSYM    ---      WORD      y
      WR12        REGSYM    ---      WORD      x
      WR14        REGSYM    ---      WORD      y
      R10         REGSYM    ---      BYTE      dat
      WR12        REGSYM    ---      WORD      x
      WR14        REGSYM    ---      WORD      y
      WR12        REGSYM    ---      WORD      x
      WR14        REGSYM    ---      WORD      y
      WR2         REGSYM    ---      WORD      dat
      WR12        REGSYM    ---      WORD      y
      R15         REGSYM    ---      BYTE      num
      R14         REGSYM    ---      BYTE      length
      DR12        REGSYM    ---      FLOAT     dat
      R7          REGSYM    ---      CHAR      point
      R7          REGSYM    ---      BYTE      dat
      R7          REGSYM    ---      BYTE      dat
      WR4         REGSYM    ---      WORD      dat
      WR12        REGSYM    ---      WORD      x2
      WR14        REGSYM    ---      WORD      y2
      WR14        REGSYM    ---      WORD      color
      R13         REGSYM    ---      BYTE      i
      WR2         REGSYM    ---      WORD      x
      WR0         REGSYM    ---      WORD      y
      WR14        REGSYM    ---      WORD      color
      WR12        REGSYM    ---      WORD      x
      WR14        REGSYM    ---      WORD      y
      REG=3       REGSYM    ---      ---       dat
      WR12        REGSYM    ---      WORD      x
      WR14        REGSYM    ---      WORD      y
      WR12        REGSYM    ---      WORD      x
      WR14        REGSYM    ---      WORD      y
      R10         REGSYM    ---      BYTE      dat
      WR12        REGSYM    ---      WORD      x
      WR14        REGSYM    ---      WORD      y
      WR12        REGSYM    ---      WORD      x
      WR14        REGSYM    ---      WORD      y
      WR2         REGSYM    ---      WORD      dat
      WR12        REGSYM    ---      WORD      y
      R15         REGSYM    ---      BYTE      num
      R14         REGSYM    ---      BYTE      length
      DR12        REGSYM    ---      FLOAT     dat
      R7          REGSYM    ---      CHAR      point

      ---         MODULE    ---      ---       SEEKFREE_TSL1401
      0000013DH   PUBLIC    EDATA    BYTE      tsl1401_finish_flag
      0000013EH   PUBLIC    EDATA    ---       ccd_data
      000000D0H   SFRSYM    DATA     BYTE      PSW
      000000B7H   SFRSYM    DATA     BYTE      IPH
L251 LINKER/LOCATER V4.66.93.0                                                        03/22/2024  17:44:58  PAGE 63


      000000B0H.3 SFRSYM    DATA     BIT       P33
      00000088H   SFRSYM    DATA     BYTE      TCON
      000000B0H.2 SFRSYM    DATA     BIT       P32
      00000098H   SFRSYM    DATA     BYTE      SCON
      000000BCH   SFRSYM    DATA     BYTE      ADC_CONTR
      000000DEH   SFRSYM    DATA     BYTE      ADCCFG
      000000B8H   SFRSYM    DATA     BYTE      IP
      000000A8H   SFRSYM    DATA     BYTE      IE
      000000F8H   SFRSYM    DATA     BYTE      P7
      000000E8H   SFRSYM    DATA     BYTE      P6
      000000C8H   SFRSYM    DATA     BYTE      P5
      000000C0H   SFRSYM    DATA     BYTE      P4
      000000B0H   SFRSYM    DATA     BYTE      P3
      000000A0H   SFRSYM    DATA     BYTE      P2
      00000090H   SFRSYM    DATA     BYTE      P1
      00000080H   SFRSYM    DATA     BYTE      P0
      REG=3       REGSYM    ---      ---       dat
      R15         REGSYM    ---      BYTE      i

      ---         MODULE    ---      ---       SEEKFREE_VIRSCO
      000006DAH   PUBLIC    EDATA    ---       virtual_scope_data
      000000D0H   SFRSYM    DATA     BYTE      PSW
      000000B7H   SFRSYM    DATA     BYTE      IPH
      00000088H   SFRSYM    DATA     BYTE      TCON
      00000098H   SFRSYM    DATA     BYTE      SCON
      000000BCH   SFRSYM    DATA     BYTE      ADC_CONTR
      000000DEH   SFRSYM    DATA     BYTE      ADCCFG
      000000B8H   SFRSYM    DATA     BYTE      IP
      000000A8H   SFRSYM    DATA     BYTE      IE
      000000F8H   SFRSYM    DATA     BYTE      P7
      000000E8H   SFRSYM    DATA     BYTE      P6
      000000C8H   SFRSYM    DATA     BYTE      P5
      000000C0H   SFRSYM    DATA     BYTE      P4
      000000B0H   SFRSYM    DATA     BYTE      P3
      000000A0H   SFRSYM    DATA     BYTE      P2
      00000090H   SFRSYM    DATA     BYTE      P1
      00000080H   SFRSYM    DATA     BYTE      P0
      REG=7       REGSYM    ---      ---       Buf
      R10         REGSYM    ---      BYTE      CRC_CNT
      WR6         REGSYM    ---      WORD      CRC_Temp
      R5          REGSYM    ---      BYTE      i
      R4          REGSYM    ---      BYTE      j
      WR0         REGSYM    ---      INT       data1
      WR30        REGSYM    ---      INT       data2
      WR8         REGSYM    ---      INT       data3
      WR10        REGSYM    ---      INT       data4
      WR6         REGSYM    ---      WORD      CRC16

      ---         MODULE    ---      ---       SEEKFREE_WIRELESS
      00FF643BH   PUBLIC    CODE     ---       wireless_uart_callback
      000000D0H   SFRSYM    DATA     BYTE      PSW
      000000FEH   SFRSYM    DATA     BYTE      S4BUF
      000000B7H   SFRSYM    DATA     BYTE      IPH
      00000080H.7 SFRSYM    DATA     BIT       P07
      00000088H   SFRSYM    DATA     BYTE      TCON
      00000098H   SFRSYM    DATA     BYTE      SCON
      000000BCH   SFRSYM    DATA     BYTE      ADC_CONTR
      000000DEH   SFRSYM    DATA     BYTE      ADCCFG
      000000B8H   SFRSYM    DATA     BYTE      IP
      000000A8H   SFRSYM    DATA     BYTE      IE
      000000F8H   SFRSYM    DATA     BYTE      P7
      000000E8H   SFRSYM    DATA     BYTE      P6
      000000C8H   SFRSYM    DATA     BYTE      P5
      000000C0H   SFRSYM    DATA     BYTE      P4
      000000B0H   SFRSYM    DATA     BYTE      P3
L251 LINKER/LOCATER V4.66.93.0                                                        03/22/2024  17:44:58  PAGE 64


      000000A0H   SFRSYM    DATA     BYTE      P2
      00000090H   SFRSYM    DATA     BYTE      P1
      00000080H   SFRSYM    DATA     BYTE      P0
      00000555H   SYMBOL    EDATA    BYTE      wireless_uart_data
      00000556H   SYMBOL    EDATA    ---       wireless_uart_fifo
      0000056AH   SYMBOL    EDATA    ---       wireless_uart_buffer

      00FF643BH   BLOCK     CODE     ---       LVL=0
      00FF643BH   LINE      CODE     ---       #48
      00FF643BH   LINE      CODE     ---       #51
      00FF6441H   LINE      CODE     ---       #52
      ---         BLOCKEND  ---      ---       LVL=0
      REG=3       REGSYM    ---      ---       buff
      REG=7       REGSYM    ---      ---       buff
      DR8         REGSYM    ---      DWORD     len

      ---         MODULE    ---      ---       SEEKFREE_WIRELESS_CH573
      00FF6454H   PUBLIC    CODE     ---       wireless_ch573_callback
      000000D0H   SFRSYM    DATA     BYTE      PSW
      000000FEH   SFRSYM    DATA     BYTE      S4BUF
      000000B7H   SFRSYM    DATA     BYTE      IPH
      00000080H.7 SFRSYM    DATA     BIT       P07
      00000088H   SFRSYM    DATA     BYTE      TCON
      00000098H   SFRSYM    DATA     BYTE      SCON
      000000BCH   SFRSYM    DATA     BYTE      ADC_CONTR
      000000DEH   SFRSYM    DATA     BYTE      ADCCFG
      000000B8H   SFRSYM    DATA     BYTE      IP
      000000A8H   SFRSYM    DATA     BYTE      IE
      000000F8H   SFRSYM    DATA     BYTE      P7
      000000E8H   SFRSYM    DATA     BYTE      P6
      000000C8H   SFRSYM    DATA     BYTE      P5
      000000C0H   SFRSYM    DATA     BYTE      P4
      000000B0H   SFRSYM    DATA     BYTE      P3
      000000A0H   SFRSYM    DATA     BYTE      P2
      00000090H   SFRSYM    DATA     BYTE      P1
      00000080H   SFRSYM    DATA     BYTE      P0
      000005AAH   SYMBOL    EDATA    ---       wireless_ch573_buffer
      000005EAH   SYMBOL    EDATA    BYTE      wireless_ch573_data
      000005EBH   SYMBOL    EDATA    ---       wireless_ch573_fifo

      00FF6454H   BLOCK     CODE     ---       LVL=0
      00FF6454H   LINE      CODE     ---       #39
      00FF6454H   LINE      CODE     ---       #42
      00FF645AH   LINE      CODE     ---       #43
      ---         BLOCKEND  ---      ---       LVL=0
      REG=3       REGSYM    ---      ---       buff
      REG=7       REGSYM    ---      ---       buff
      DR8         REGSYM    ---      DWORD     len

      ---         MODULE    ---      ---       isr
      00FF5EC8H   PUBLIC    CODE     ---       UART1_Isr
      00FF63CCH   PUBLIC    CODE     ---       UART2_Isr
      00FF63EAH   PUBLIC    CODE     ---       UART3_Isr
      00FF574CH   PUBLIC    CODE     ---       UART4_Isr
      00FF660DH   PUBLIC    CODE     ---       INT0_Isr
      00FF0011H   PUBLIC    CODE     ---       INT1_Isr
      00FF65E5H   PUBLIC    CODE     ---       INT2_Isr
      00FF65EDH   PUBLIC    CODE     ---       INT3_Isr
      00FF65F5H   PUBLIC    CODE     ---       INT4_Isr
      00FF0012H   PUBLIC    CODE     ---       TM0_Isr
      00FF0019H   PUBLIC    CODE     ---       TM1_Isr
      00FF65FDH   PUBLIC    CODE     ---       TM2_Isr
      00FF6605H   PUBLIC    CODE     ---       TM3_Isr
      00FF540AH   PUBLIC    CODE     ---       TM4_Isr
      000006FBH   PUBLIC    EDATA    CHAR      count
L251 LINKER/LOCATER V4.66.93.0                                                        03/22/2024  17:44:58  PAGE 65


      000000D0H   SFRSYM    DATA     BYTE      PSW
      000000EFH   SFRSYM    DATA     BYTE      AUXINTIF
      000000FDH   SFRSYM    DATA     BYTE      S4CON
      000000ACH   SFRSYM    DATA     BYTE      S3CON
      0000009AH   SFRSYM    DATA     BYTE      S2CON
      000000B7H   SFRSYM    DATA     BYTE      IPH
      000000C7H   SFRSYM    DATA     BYTE      IAP_CONTR
      000000C8H.2 SFRSYM    DATA     BIT       P52
      00000088H   SFRSYM    DATA     BYTE      TCON
      00000098H   SFRSYM    DATA     BYTE      SCON
      00000099H   SFRSYM    DATA     BYTE      SBUF
      000000BCH   SFRSYM    DATA     BYTE      ADC_CONTR
      000000DEH   SFRSYM    DATA     BYTE      ADCCFG
      000000B8H   SFRSYM    DATA     BYTE      IP
      000000A8H   SFRSYM    DATA     BYTE      IE
      000000F8H   SFRSYM    DATA     BYTE      P7
      000000E8H   SFRSYM    DATA     BYTE      P6
      000000C8H   SFRSYM    DATA     BYTE      P5
      000000C0H   SFRSYM    DATA     BYTE      P4
      000000B0H   SFRSYM    DATA     BYTE      P3
      000000A0H   SFRSYM    DATA     BYTE      P2
      00000090H   SFRSYM    DATA     BYTE      P1
      00000080H   SFRSYM    DATA     BYTE      P0

      00FF5EC8H   BLOCK     CODE     ---       LVL=0
      00FF5ECCH   BLOCK     CODE     NEAR LAB  LVL=1
      R11         REGSYM    ---      BYTE      res
      000006FCH   SYMBOL    EDATA    BYTE      dwon_count
      ---         BLOCKEND  ---      ---       LVL=1
      00FF5EC8H   LINE      CODE     ---       #27
      00FF5ECCH   LINE      CODE     ---       #28
      00FF5ECCH   LINE      CODE     ---       #31
      00FF5ED1H   LINE      CODE     ---       #33
      00FF5ED4H   LINE      CODE     ---       #34
      00FF5ED9H   LINE      CODE     ---       #35
      00FF5ED9H   LINE      CODE     ---       #36
      00FF5EDEH   LINE      CODE     ---       #38
      00FF5EE1H   LINE      CODE     ---       #39
      00FF5EE3H   LINE      CODE     ---       #41
      00FF5EE6H   LINE      CODE     ---       #43
      00FF5EF6H   LINE      CODE     ---       #44
      00FF5EF9H   LINE      CODE     ---       #45
      00FF5EFBH   LINE      CODE     ---       #48
      00FF5F00H   LINE      CODE     ---       #49
      00FF5F00H   LINE      CODE     ---       #50
      ---         BLOCKEND  ---      ---       LVL=0

      00FF63CCH   BLOCK     CODE     ---       LVL=0
      00FF63CCH   LINE      CODE     ---       #54
      00FF63D0H   LINE      CODE     ---       #56
      00FF63D5H   LINE      CODE     ---       #58
      00FF63D8H   LINE      CODE     ---       #59
      00FF63DDH   LINE      CODE     ---       #60
      00FF63DDH   LINE      CODE     ---       #61
      00FF63E2H   LINE      CODE     ---       #63
      00FF63E5H   LINE      CODE     ---       #66
      ---         BLOCKEND  ---      ---       LVL=0

      00FF63EAH   BLOCK     CODE     ---       LVL=0
      00FF63EAH   LINE      CODE     ---       #71
      00FF63EEH   LINE      CODE     ---       #73
      00FF63F3H   LINE      CODE     ---       #75
      00FF63F6H   LINE      CODE     ---       #76
      00FF63FBH   LINE      CODE     ---       #77
      00FF63FBH   LINE      CODE     ---       #78
L251 LINKER/LOCATER V4.66.93.0                                                        03/22/2024  17:44:58  PAGE 66


      00FF6400H   LINE      CODE     ---       #80
      00FF6403H   LINE      CODE     ---       #83
      ---         BLOCKEND  ---      ---       LVL=0

      00FF574CH   BLOCK     CODE     ---       LVL=0
      00FF574CH   LINE      CODE     ---       #88
      00FF5764H   LINE      CODE     ---       #90
      00FF5769H   LINE      CODE     ---       #92
      00FF576CH   LINE      CODE     ---       #93
      00FF5771H   LINE      CODE     ---       #94
      00FF5771H   LINE      CODE     ---       #95
      00FF5776H   LINE      CODE     ---       #97
      00FF5779H   LINE      CODE     ---       #100
      00FF5783H   LINE      CODE     ---       #102
      00FF5786H   LINE      CODE     ---       #103
      00FF5788H   LINE      CODE     ---       #104
      00FF578EH   LINE      CODE     ---       #106
      00FF5791H   LINE      CODE     ---       #107
      00FF5793H   LINE      CODE     ---       #108
      00FF5799H   LINE      CODE     ---       #110
      00FF579CH   LINE      CODE     ---       #111
      00FF579CH   LINE      CODE     ---       #113
      ---         BLOCKEND  ---      ---       LVL=0

      00FF660DH   BLOCK     CODE     ---       LVL=0
      00FF660DH   LINE      CODE     ---       #116
      00FF660FH   LINE      CODE     ---       #118
      00FF6611H   LINE      CODE     ---       #119
      ---         BLOCKEND  ---      ---       LVL=0

      00FF0011H   BLOCK     CODE     ---       LVL=0
      00FF0011H   LINE      CODE     ---       #120
      00FF0011H   LINE      CODE     ---       #123
      ---         BLOCKEND  ---      ---       LVL=0

      00FF65E5H   BLOCK     CODE     ---       LVL=0
      00FF65E5H   LINE      CODE     ---       #124
      00FF65E7H   LINE      CODE     ---       #126
      00FF65EAH   LINE      CODE     ---       #127
      ---         BLOCKEND  ---      ---       LVL=0

      00FF65EDH   BLOCK     CODE     ---       LVL=0
      00FF65EDH   LINE      CODE     ---       #128
      00FF65EFH   LINE      CODE     ---       #130
      00FF65F2H   LINE      CODE     ---       #131
      ---         BLOCKEND  ---      ---       LVL=0

      00FF65F5H   BLOCK     CODE     ---       LVL=0
      00FF65F5H   LINE      CODE     ---       #133
      00FF65F7H   LINE      CODE     ---       #135
      00FF65FAH   LINE      CODE     ---       #136
      ---         BLOCKEND  ---      ---       LVL=0

      00FF0012H   BLOCK     CODE     ---       LVL=0
      00FF0012H   LINE      CODE     ---       #138
      00FF0012H   LINE      CODE     ---       #141
      ---         BLOCKEND  ---      ---       LVL=0

      00FF0019H   BLOCK     CODE     ---       LVL=0
      00FF0019H   LINE      CODE     ---       #142
      00FF0019H   LINE      CODE     ---       #145
      ---         BLOCKEND  ---      ---       LVL=0

      00FF65FDH   BLOCK     CODE     ---       LVL=0
      00FF65FDH   LINE      CODE     ---       #146
L251 LINKER/LOCATER V4.66.93.0                                                        03/22/2024  17:44:58  PAGE 67


      00FF65FFH   LINE      CODE     ---       #148
      00FF6602H   LINE      CODE     ---       #150
      ---         BLOCKEND  ---      ---       LVL=0

      00FF6605H   BLOCK     CODE     ---       LVL=0
      00FF6605H   LINE      CODE     ---       #151
      00FF6607H   LINE      CODE     ---       #153
      00FF660AH   LINE      CODE     ---       #155
      ---         BLOCKEND  ---      ---       LVL=0

      00FF540AH   BLOCK     CODE     ---       LVL=0
      00FF540AH   LINE      CODE     ---       #158
      00FF5420H   LINE      CODE     ---       #160
      00FF5423H   LINE      CODE     ---       #161
      00FF542CH   LINE      CODE     ---       #162
      00FF5432H   LINE      CODE     ---       #164
      00FF543CH   LINE      CODE     ---       #166
      00FF5447H   LINE      CODE     ---       #167
      00FF5451H   LINE      CODE     ---       #168
      00FF5453H   LINE      CODE     ---       #170
      00FF545CH   LINE      CODE     ---       #172
      00FF5465H   LINE      CODE     ---       #174
      00FF546EH   LINE      CODE     ---       #175
      00FF5473H   LINE      CODE     ---       #176
      ---         BLOCKEND  ---      ---       LVL=0

      ---         MODULE    ---      ---       main
      00FF4EDEH   PUBLIC    CODE     ---       Get_Ratio
      00FF31AAH   PUBLIC    CODE     ---       main
      00FF4B12H   PUBLIC    CODE     ---       Init_all
      0000064FH   PUBLIC    EDATA    FLOAT     Ratio
      00000653H   PUBLIC    EDATA    FLOAT     Exp_Speed
      00000657H   PUBLIC    EDATA    FLOAT     sum_L
      0000065BH   PUBLIC    EDATA    FLOAT     sum_R
      0000065FH   PUBLIC    EDATA    FLOAT     temp_Speed
      00000663H   PUBLIC    EDATA    FLOAT     Plus_Mid
      00000667H   PUBLIC    EDATA    FLOAT     Plus
      0000066BH   PUBLIC    EDATA    CHAR      KeyValue
      0000066CH   PUBLIC    EDATA    FLOAT     Exp_Speed_L
      00000670H   PUBLIC    EDATA    FLOAT     Exp_Speed_R
      00000674H   PUBLIC    EDATA    FLOAT     sum
      00000678H   PUBLIC    EDATA    INT       gx
      0000067AH   PUBLIC    EDATA    INT       gy
      0000067CH   PUBLIC    EDATA    INT       gz
      0000067EH   PUBLIC    EDATA    FLOAT     Num1
      00000682H   PUBLIC    EDATA    CHAR      Isr_flag_10
      00000683H   PUBLIC    EDATA    FLOAT     Adjust_Val
      00000687H   PUBLIC    EDATA    FLOAT     Diff_Mid
      0000068BH   PUBLIC    EDATA    FLOAT     Diff
      0000068FH   PUBLIC    EDATA    FLOAT     Ratio_Mid
      000000D0H   SFRSYM    DATA     BYTE      PSW
      000000B7H   SFRSYM    DATA     BYTE      IPH
      000000E9H   SFRSYM    DATA     BYTE      WTST
      00000088H   SFRSYM    DATA     BYTE      TCON
      00000098H   SFRSYM    DATA     BYTE      SCON
      000000BCH   SFRSYM    DATA     BYTE      ADC_CONTR
      000000DEH   SFRSYM    DATA     BYTE      ADCCFG
      000000B8H   SFRSYM    DATA     BYTE      IP
      000000A8H   SFRSYM    DATA     BYTE      IE
      000000F8H   SFRSYM    DATA     BYTE      P7
      000000E8H   SFRSYM    DATA     BYTE      P6
      000000C8H   SFRSYM    DATA     BYTE      P5
      000000C0H   SFRSYM    DATA     BYTE      P4
      000000B0H   SFRSYM    DATA     BYTE      P3
      000000A0H   SFRSYM    DATA     BYTE      P2
L251 LINKER/LOCATER V4.66.93.0                                                        03/22/2024  17:44:58  PAGE 68


      00000090H   SFRSYM    DATA     BYTE      P1
      00000080H   SFRSYM    DATA     BYTE      P0

      00FF31AAH   BLOCK     CODE     ---       LVL=0
      00FF31AAH   LINE      CODE     ---       #43
      00FF31AAH   LINE      CODE     ---       #45
      00FF31ADH   LINE      CODE     ---       #46
      00FF31B0H   LINE      CODE     ---       #47
      00FF31BAH   LINE      CODE     ---       #48
      00FF31BAH   LINE      CODE     ---       #50
      00FF31F5H   LINE      CODE     ---       #53
      00FF31F8H   LINE      CODE     ---       #54
      00FF3200H   LINE      CODE     ---       #55
      00FF321DH   LINE      CODE     ---       #56
      00FF3240H   LINE      CODE     ---       #57
      00FF3256H   LINE      CODE     ---       #58
      00FF326EH   LINE      CODE     ---       #61
      00FF327AH   LINE      CODE     ---       #63
      00FF327DH   LINE      CODE     ---       #64
      00FF3280H   LINE      CODE     ---       #65
      00FF3293H   LINE      CODE     ---       #66
      00FF3296H   LINE      CODE     ---       #94
      00FF32B8H   LINE      CODE     ---       #96
      00FF32C2H   LINE      CODE     ---       #97
      00FF32CEH   LINE      CODE     ---       #98
      00FF32DCH   LINE      CODE     ---       #99
      00FF32ECH   LINE      CODE     ---       #100
      00FF32F2H   LINE      CODE     ---       #101
      00FF32F4H   LINE      CODE     ---       #104
      00FF32FEH   LINE      CODE     ---       #105
      00FF3306H   LINE      CODE     ---       #106
      00FF330EH   LINE      CODE     ---       #107
      00FF331AH   LINE      CODE     ---       #108
      00FF3324H   LINE      CODE     ---       #109
      00FF3330H   LINE      CODE     ---       #110
      00FF333AH   LINE      CODE     ---       #111
      00FF333AH   LINE      CODE     ---       #124
      00FF333DH   LINE      CODE     ---       #145
      00FF334CH   LINE      CODE     ---       #146
      00FF3352H   LINE      CODE     ---       #147
      00FF3363H   LINE      CODE     ---       #148
      00FF336DH   LINE      CODE     ---       #149
      00FF337AH   LINE      CODE     ---       #151
      00FF337FH   LINE      CODE     ---       #152
      00FF338EH   LINE      CODE     ---       #153
      00FF338EH   LINE      CODE     ---       #154
      00FF33B4H   LINE      CODE     ---       #158
      00FF33E2H   LINE      CODE     ---       #159
      00FF33F9H   LINE      CODE     ---       #162
      00FF340FH   LINE      CODE     ---       #165
      00FF3428H   LINE      CODE     ---       #166
      00FF3432H   LINE      CODE     ---       #167
      00FF343DH   LINE      CODE     ---       #169
      00FF345BH   LINE      CODE     ---       #170
      00FF3463H   LINE      CODE     ---       #171
      00FF3465H   LINE      CODE     ---       #174
      00FF3483H   LINE      CODE     ---       #175
      00FF349BH   LINE      CODE     ---       #176
      00FF349BH   LINE      CODE     ---       #178
      00FF349EH   LINE      CODE     ---       #180
      00FF34B1H   LINE      CODE     ---       #181
      00FF34C4H   LINE      CODE     ---       #184
      00FF34E6H   LINE      CODE     ---       #186
      00FF34ECH   LINE      CODE     ---       #187
      00FF34F0H   LINE      CODE     ---       #188
L251 LINKER/LOCATER V4.66.93.0                                                        03/22/2024  17:44:58  PAGE 69


      00FF34F0H   LINE      CODE     ---       #190
      00FF34F6H   LINE      CODE     ---       #191
      00FF34FDH   LINE      CODE     ---       #192
      00FF3503H   LINE      CODE     ---       #193
      00FF350AH   LINE      CODE     ---       #196
      00FF350FH   LINE      CODE     ---       #197
      ---         BLOCKEND  ---      ---       LVL=0

      00FF4EDEH   BLOCK     CODE     ---       LVL=0
      00FF4EDEH   LINE      CODE     ---       #202
      00FF4EDEH   LINE      CODE     ---       #206
      00FF4EFEH   LINE      CODE     ---       #207
      00FF4F20H   LINE      CODE     ---       #208
      00FF4F2FH   LINE      CODE     ---       #209
      00FF4F3AH   LINE      CODE     ---       #210
      00FF4F5EH   LINE      CODE     ---       #211
      00FF4F6DH   LINE      CODE     ---       #233
      ---         BLOCKEND  ---      ---       LVL=0

      00FF4B12H   BLOCK     CODE     ---       LVL=0
      00FF4B12H   LINE      CODE     ---       #236
      00FF4B12H   LINE      CODE     ---       #238
      00FF4B15H   LINE      CODE     ---       #239
      00FF4B18H   LINE      CODE     ---       #240
      00FF4B24H   LINE      CODE     ---       #243
      00FF4B27H   LINE      CODE     ---       #246
      00FF4B30H   LINE      CODE     ---       #247
      00FF4B39H   LINE      CODE     ---       #250
      00FF4B3CH   LINE      CODE     ---       #254
      00FF4B3FH   LINE      CODE     ---       #257
      00FF4B42H   LINE      CODE     ---       #260
      00FF4B45H   LINE      CODE     ---       #263
      00FF4B50H   LINE      CODE     ---       #266
      00FF4B55H   LINE      CODE     ---       #267
      00FF4B5CH   LINE      CODE     ---       #270
      00FF4B5FH   LINE      CODE     ---       #273
      00FF4B62H   LINE      CODE     ---       #276
      00FF4B65H   LINE      CODE     ---       #279
      00FF4B96H   LINE      CODE     ---       #280
      00FF4BC7H   LINE      CODE     ---       #281
      ---         BLOCKEND  ---      ---       LVL=0

      ---         MODULE    ---      ---       motor
      00FF4E2EH   PUBLIC    CODE     ---       Right_SetSpeed
      00FF5D08H   PUBLIC    CODE     ---       Motor_Init
      00FF4CB3H   PUBLIC    CODE     ---       Left_SetSpeed
      00FF61B9H   PUBLIC    CODE     ---       Limit_Out
      00FF57B5H   PUBLIC    CODE     ---       Get_Speed
      000006B4H   PUBLIC    EDATA    FLOAT     Speed_L
      000006B8H   PUBLIC    EDATA    FLOAT     Speed_R
      000006BCH   PUBLIC    EDATA    CHAR      A
      000006BDH   PUBLIC    EDATA    CHAR      A1
      00000406H   PUBLIC    EDATA    BYTE      ?Limit_Out?BYTE
      000000D0H   SFRSYM    DATA     BYTE      PSW
      000000B7H   SFRSYM    DATA     BYTE      IPH
      000000B0H.5 SFRSYM    DATA     BIT       P35
      000000C8H.3 SFRSYM    DATA     BIT       P53
      00000088H   SFRSYM    DATA     BYTE      TCON
      00000098H   SFRSYM    DATA     BYTE      SCON
      000000BCH   SFRSYM    DATA     BYTE      ADC_CONTR
      000000DEH   SFRSYM    DATA     BYTE      ADCCFG
      000000B8H   SFRSYM    DATA     BYTE      IP
      000000A8H   SFRSYM    DATA     BYTE      IE
      000000F8H   SFRSYM    DATA     BYTE      P7
      000000E8H   SFRSYM    DATA     BYTE      P6
L251 LINKER/LOCATER V4.66.93.0                                                        03/22/2024  17:44:58  PAGE 70


      000000C8H   SFRSYM    DATA     BYTE      P5
      000000C0H   SFRSYM    DATA     BYTE      P4
      000000B0H   SFRSYM    DATA     BYTE      P3
      000000A0H   SFRSYM    DATA     BYTE      P2
      00000090H   SFRSYM    DATA     BYTE      P1
      00000080H   SFRSYM    DATA     BYTE      P0

      00FF61B9H   BLOCK     CODE     ---       LVL=0
      REG=7       REGSYM    ---      ---       Output
      DR24        REGSYM    ---      FLOAT     Limit_Min
      0000040EH   SYMBOL    EDATA    FLOAT     Limit_Max
      00FF61B9H   LINE      CODE     ---       #18
      00FF61BDH   LINE      CODE     ---       #20
      00FF61CFH   LINE      CODE     ---       #21
      00FF61E3H   LINE      CODE     ---       #22
      ---         BLOCKEND  ---      ---       LVL=0
      DR28        REGSYM    ---      FLOAT     x

      00FF5D08H   BLOCK     CODE     ---       LVL=0
      00FF5D08H   LINE      CODE     ---       #31
      00FF5D08H   LINE      CODE     ---       #33
      00FF5D19H   LINE      CODE     ---       #34
      00FF5D2AH   LINE      CODE     ---       #35
      00FF5D3BH   LINE      CODE     ---       #36
      ---         BLOCKEND  ---      ---       LVL=0

      00FF4CB3H   BLOCK     CODE     ---       LVL=0
      DR12        REGSYM    ---      FLOAT     speed
      00FF4CB7H   BLOCK     CODE     NEAR LAB  LVL=1
      000006BEH   SYMBOL    EDATA    INT       Special_NumL
      ---         BLOCKEND  ---      ---       LVL=1
      00FF4CB3H   LINE      CODE     ---       #40
      00FF4CB7H   LINE      CODE     ---       #41
      00FF4CB7H   LINE      CODE     ---       #43
      00FF4CC3H   LINE      CODE     ---       #44
      00FF4CCBH   LINE      CODE     ---       #46
      00FF4CD1H   LINE      CODE     ---       #47
      00FF4CD7H   LINE      CODE     ---       #49
      00FF4CE0H   LINE      CODE     ---       #50
      00FF4CE9H   LINE      CODE     ---       #51
      00FF4CEFH   LINE      CODE     ---       #52
      00FF4CF2H   LINE      CODE     ---       #55
      00FF4D07H   LINE      CODE     ---       #56
      00FF4D1AH   LINE      CODE     ---       #57
      00FF4D23H   LINE      CODE     ---       #59
      00FF4D36H   LINE      CODE     ---       #60
      00FF4D36H   LINE      CODE     ---       #61
      00FF4D38H   LINE      CODE     ---       #62
      00FF4D41H   LINE      CODE     ---       #64
      00FF4D4AH   LINE      CODE     ---       #65
      00FF4D5FH   LINE      CODE     ---       #66
      00FF4D61H   LINE      CODE     ---       #69
      00FF4D6AH   LINE      CODE     ---       #70
      00FF4D73H   LINE      CODE     ---       #71
      00FF4D73H   LINE      CODE     ---       #72
      00FF4D73H   LINE      CODE     ---       #74
      ---         BLOCKEND  ---      ---       LVL=0

      00FF4E2EH   BLOCK     CODE     ---       LVL=0
      DR12        REGSYM    ---      FLOAT     speed
      00FF4E32H   BLOCK     CODE     NEAR LAB  LVL=1
      000006C0H   SYMBOL    EDATA    INT       Special_NumR
      ---         BLOCKEND  ---      ---       LVL=1
      00FF4E2EH   LINE      CODE     ---       #76
      00FF4E32H   LINE      CODE     ---       #77
L251 LINKER/LOCATER V4.66.93.0                                                        03/22/2024  17:44:58  PAGE 71


      00FF4E32H   LINE      CODE     ---       #79
      00FF4E45H   LINE      CODE     ---       #80
      00FF4E58H   LINE      CODE     ---       #82
      00FF4E66H   LINE      CODE     ---       #83
      00FF4E6EH   LINE      CODE     ---       #85
      00FF4E74H   LINE      CODE     ---       #86
      00FF4E7AH   LINE      CODE     ---       #88
      00FF4E80H   LINE      CODE     ---       #89
      00FF4E80H   LINE      CODE     ---       #90
      00FF4E80H   LINE      CODE     ---       #91
      00FF4E82H   LINE      CODE     ---       #94
      00FF4E8BH   LINE      CODE     ---       #96
      00FF4E9EH   LINE      CODE     ---       #97
      00FF4E9EH   LINE      CODE     ---       #98
      00FF4EA0H   LINE      CODE     ---       #99
      00FF4EA9H   LINE      CODE     ---       #101
      00FF4EB2H   LINE      CODE     ---       #102
      00FF4EC7H   LINE      CODE     ---       #103
      00FF4EC9H   LINE      CODE     ---       #106
      00FF4ED2H   LINE      CODE     ---       #107
      00FF4EDBH   LINE      CODE     ---       #108
      00FF4EDBH   LINE      CODE     ---       #110
      00FF4EDBH   LINE      CODE     ---       #111
      ---         BLOCKEND  ---      ---       LVL=0

      00FF57B5H   BLOCK     CODE     ---       LVL=0
      00FF57B5H   LINE      CODE     ---       #113
      00FF57B5H   LINE      CODE     ---       #115
      00FF57CAH   LINE      CODE     ---       #116
      00FF57E2H   LINE      CODE     ---       #117
      00FF57E9H   LINE      CODE     ---       #120
      00FF57FDH   LINE      CODE     ---       #121
      00FF5813H   LINE      CODE     ---       #122
      ---         BLOCKEND  ---      ---       LVL=0
      DR12        REGSYM    ---      FLOAT     Speed

      ---         MODULE    ---      ---       ADC
      00FF4458H   PUBLIC    CODE     ---       ADC_GetValue
      00FF61E4H   PUBLIC    CODE     ---       ADC_InitAll
      000005FFH   PUBLIC    EDATA    ---       ADC_Array_Original
      0000063BH   PUBLIC    EDATA    ---       ADC_proc
      000000D0H   SFRSYM    DATA     BYTE      PSW
      000000B7H   SFRSYM    DATA     BYTE      IPH
      00000088H   SFRSYM    DATA     BYTE      TCON
      00000098H   SFRSYM    DATA     BYTE      SCON
      000000BCH   SFRSYM    DATA     BYTE      ADC_CONTR
      000000DEH   SFRSYM    DATA     BYTE      ADCCFG
      000000B8H   SFRSYM    DATA     BYTE      IP
      000000A8H   SFRSYM    DATA     BYTE      IE
      000000F8H   SFRSYM    DATA     BYTE      P7
      000000E8H   SFRSYM    DATA     BYTE      P6
      000000C8H   SFRSYM    DATA     BYTE      P5
      000000C0H   SFRSYM    DATA     BYTE      P4
      000000B0H   SFRSYM    DATA     BYTE      P3
      000000A0H   SFRSYM    DATA     BYTE      P2
      00000090H   SFRSYM    DATA     BYTE      P1
      00000080H   SFRSYM    DATA     BYTE      P0

      00FF61E4H   BLOCK     CODE     ---       LVL=0
      00FF61E4H   LINE      CODE     ---       #11
      00FF61E4H   LINE      CODE     ---       #13
      00FF61EBH   LINE      CODE     ---       #14
      00FF61F4H   LINE      CODE     ---       #16
      00FF61FDH   LINE      CODE     ---       #18
      00FF6206H   LINE      CODE     ---       #19
L251 LINKER/LOCATER V4.66.93.0                                                        03/22/2024  17:44:58  PAGE 72


      ---         BLOCKEND  ---      ---       LVL=0

      00FF4458H   BLOCK     CODE     ---       LVL=0
      00FF445AH   BLOCK     CODE     NEAR LAB  LVL=1
      DR28        REGSYM    ---      FLOAT     temp
      R15         REGSYM    ---      CHAR      i
      R14         REGSYM    ---      CHAR      j
      ---         BLOCKEND  ---      ---       LVL=1
      00FF4458H   LINE      CODE     ---       #23
      00FF445AH   LINE      CODE     ---       #24
      00FF445AH   LINE      CODE     ---       #27
      00FF445CH   LINE      CODE     ---       #29
      00FF4479H   LINE      CODE     ---       #30
      00FF4498H   LINE      CODE     ---       #32
      00FF44B7H   LINE      CODE     ---       #34
      00FF44D6H   LINE      CODE     ---       #35
      00FF44F5H   LINE      CODE     ---       #36
      00FF44FFH   LINE      CODE     ---       #38
      00FF4501H   LINE      CODE     ---       #40
      00FF4503H   LINE      CODE     ---       #41
      00FF4505H   LINE      CODE     ---       #43
      00FF4524H   LINE      CODE     ---       #44
      00FF452BH   LINE      CODE     ---       #45
      00FF4544H   LINE      CODE     ---       #47
      00FF455DH   LINE      CODE     ---       #48
      00FF4574H   LINE      CODE     ---       #50
      00FF4596H   LINE      CODE     ---       #52
      00FF45A0H   LINE      CODE     ---       #53
      ---         BLOCKEND  ---      ---       LVL=0

      ---         MODULE    ---      ---       PID
      00FF4BECH   PUBLIC    CODE     ---       PID_Calculate
      00FF5A92H   PUBLIC    CODE     ---       PID_Init
      0000023EH   PUBLIC    EDATA    ---       Right_Wheel_PID
      00000262H   PUBLIC    EDATA    ---       Left_Wheel_PID
      00000286H   PUBLIC    EDATA    ---       Turn
      000002B3H   PUBLIC    EDATA    ---       Right_Wheel
      000002E0H   PUBLIC    EDATA    ---       Left_Wheel
      0000030DH   PUBLIC    EDATA    ---       Turn_PID
      00000402H   PUBLIC    EDATA    BYTE      ?PID_Init?BYTE
      00000402H   PUBLIC    EDATA    BYTE      ?PID_Calculate?BYTE
      000000D0H   SFRSYM    DATA     BYTE      PSW
      000000B7H   SFRSYM    DATA     BYTE      IPH
      00000088H   SFRSYM    DATA     BYTE      TCON
      00000098H   SFRSYM    DATA     BYTE      SCON
      000000BCH   SFRSYM    DATA     BYTE      ADC_CONTR
      000000DEH   SFRSYM    DATA     BYTE      ADCCFG
      000000B8H   SFRSYM    DATA     BYTE      IP
      000000A8H   SFRSYM    DATA     BYTE      IE
      000000F8H   SFRSYM    DATA     BYTE      P7
      000000E8H   SFRSYM    DATA     BYTE      P6
      000000C8H   SFRSYM    DATA     BYTE      P5
      000000C0H   SFRSYM    DATA     BYTE      P4
      000000B0H   SFRSYM    DATA     BYTE      P3
      000000A0H   SFRSYM    DATA     BYTE      P2
      00000090H   SFRSYM    DATA     BYTE      P1
      00000080H   SFRSYM    DATA     BYTE      P0

      00FF5A92H   BLOCK     CODE     ---       LVL=0
      REG=2       REGSYM    ---      ---       PID_Struct
      DR4         REGSYM    ---      FLOAT     Kp
      0000040AH   SYMBOL    EDATA    FLOAT     Ki
      0000040EH   SYMBOL    EDATA    FLOAT     Kd
      00000412H   SYMBOL    EDATA    FLOAT     Out_Limit
      00000416H   SYMBOL    EDATA    FLOAT     Integral_Limit
L251 LINKER/LOCATER V4.66.93.0                                                        03/22/2024  17:44:58  PAGE 73


      00FF5A92H   LINE      CODE     ---       #17
      00FF5A94H   LINE      CODE     ---       #19
      00FF5A9CH   LINE      CODE     ---       #20
      00FF5AA8H   LINE      CODE     ---       #21
      00FF5AB4H   LINE      CODE     ---       #23
      00FF5ABDH   LINE      CODE     ---       #24
      00FF5AC5H   LINE      CODE     ---       #26
      00FF5ACDH   LINE      CODE     ---       #27
      00FF5AD9H   LINE      CODE     ---       #28
      00FF5AE5H   LINE      CODE     ---       #29
      ---         BLOCKEND  ---      ---       LVL=0

      00FF4BECH   BLOCK     CODE     ---       LVL=0
      REG=3       REGSYM    ---      ---       PID_Struct
      DR28        REGSYM    ---      FLOAT     Exp_Val
      0000040AH   SYMBOL    EDATA    FLOAT     Act_Val
      00FF4BECH   LINE      CODE     ---       #32
      00FF4BF0H   LINE      CODE     ---       #34
      00FF4BFEH   LINE      CODE     ---       #35
      00FF4C1CH   LINE      CODE     ---       #36
      00FF4C34H   LINE      CODE     ---       #37
      00FF4C89H   LINE      CODE     ---       #41
      00FF4CA1H   LINE      CODE     ---       #42
      00FF4CB0H   LINE      CODE     ---       #43
      ---         BLOCKEND  ---      ---       LVL=0
      REG=2       REGSYM    ---      ---       pid
      DR4         REGSYM    ---      FLOAT     Kp
      R15         REGSYM    ---      BYTE      use_lowpass_filter
      REG=3       REGSYM    ---      ---       pid
      DR28        REGSYM    ---      FLOAT     setpoint
      DR24        REGSYM    ---      FLOAT     derivative
      DR0         REGSYM    ---      FLOAT     output_increment

      ---         MODULE    ---      ---       MPU6050
      00FF64D5H   PUBLIC    CODE     ---       i2c_nack
      00FF65C9H   PUBLIC    CODE     ---       Delay1ms
      00FF5389H   PUBLIC    CODE     ---       loadfirmware
      00FF6484H   PUBLIC    CODE     ---       i2c_ack
      00FF64E7H   PUBLIC    CODE     ---       i2c_start
      00FF56E1H   PUBLIC    CODE     ---       i2c_read_bits
      00FF5FF1H   PUBLIC    CODE     ---       i2c_read_byte
      00FF51F3H   PUBLIC    CODE     ---       xdmpUpdates
      00FF598EH   PUBLIC    CODE     ---       MPU_Get_Gyroscope
      00FF60C4H   PUBLIC    CODE     ---       i2c_read_bit
      00FF5507H   PUBLIC    CODE     ---       i2c_mem_read
      00FF4F84H   PUBLIC    CODE     ---       loadcfgupd
      00FF001EH   PUBLIC    CODE     ---       I2C_SDA_H
      00FF548AH   PUBLIC    CODE     ---       i2c_write_bits
      00FF638CH   PUBLIC    CODE     ---       getDeviceID
      00FF0056H   PUBLIC    CODE     ---       I2C_SDA_L
      00FF60F7H   PUBLIC    CODE     ---       i2c_write_byte
      00FF620FH   PUBLIC    CODE     ---       i2c_wait_ack
      00FF653BH   PUBLIC    CODE     ---       i2c_stop
      00FF005EH   PUBLIC    CODE     ---       I2C_SCL_H
      00FF0086H   PUBLIC    CODE     ---       I2C_SCL_L
      00FF5932H   PUBLIC    CODE     ---       i2c_write_bit
      00FF5818H   PUBLIC    CODE     ---       i2c_mem_write
      00FF3A97H   PUBLIC    CODE     ---       MPU6050_Refresh_DMP
      00FF0046H   PUBLIC    CODE     ---       MPU_Read_Bits
      00FF65D3H   PUBLIC    CODE     ---       MPU_Read_Bit
      00FF659DH   PUBLIC    CODE     ---       MPU_Read_Len
      00FF0006H   PUBLIC    CODE     ---       I2C_SDA_Read
      00FF6576H   PUBLIC    CODE     ---       MPU_Write_Bits
      00FF6499H   PUBLIC    CODE     ---       MPU_Write_Byte
      00FF3D31H   PUBLIC    CODE     ---       dmpInitialize
L251 LINKER/LOCATER V4.66.93.0                                                        03/22/2024  17:44:58  PAGE 74


      00FF65A8H   PUBLIC    CODE     ---       i2c_timeout_delay
      00FF654AH   PUBLIC    CODE     ---       readdmp
      00FF6583H   PUBLIC    CODE     ---       MPU_Write_Bit
      00FF65B3H   PUBLIC    CODE     ---       MPU_Write_Len
      00FF64AEH   PUBLIC    CODE     ---       MPU_Delay_Ms
      00FF65BEH   PUBLIC    CODE     ---       i2c_delay
      00FF0026H   PUBLIC    CODE     ---       getFIFOCount
      00FF612AH   PUBLIC    CODE     ---       initMPU6050
      00FF6347H   PUBLIC    CODE     ---       MPU6050_DMP_Init
      00000495H   PUBLIC    EDATA    FLOAT     z_add
      00000499H   PUBLIC    EDATA    FLOAT     z_last
      0000049DH   PUBLIC    EDATA    FLOAT     Roll
      000004A1H   PUBLIC    EDATA    FLOAT     x1
      000004A5H   PUBLIC    EDATA    FLOAT     y1
      000004A9H   PUBLIC    EDATA    FLOAT     z1
      000004ADH   PUBLIC    EDATA    FLOAT     z_now
      000004B1H   PUBLIC    EDATA    FLOAT     Yaw
      000004B5H   PUBLIC    EDATA    ---       Q
      000004C5H   PUBLIC    EDATA    ---       dmpdatas
      000004EFH   PUBLIC    EDATA    CHAR      mpu_state
      000004F0H   PUBLIC    EDATA    FLOAT     Pitch
      00FF1A26H   PUBLIC    CODE     ---       dmpUpdates
      00FF1A55H   PUBLIC    CODE     ---       dmpcfgupddata
      00FF1B15H   PUBLIC    CODE     ---       dmpmemorydata
      00000406H   PUBLIC    EDATA    BYTE      ?MPU_Get_Gyroscope?BYTE
      000000D0H   SFRSYM    DATA     BYTE      PSW
      000000B7H   SFRSYM    DATA     BYTE      IPH
      000000C8H.1 SFRSYM    DATA     BIT       P51
      00000088H   SFRSYM    DATA     BYTE      TCON
      000000C8H.0 SFRSYM    DATA     BIT       P50
      00000098H   SFRSYM    DATA     BYTE      SCON
      000000BCH   SFRSYM    DATA     BYTE      ADC_CONTR
      000000DEH   SFRSYM    DATA     BYTE      ADCCFG
      000000B8H   SFRSYM    DATA     BYTE      IP
      000000A8H   SFRSYM    DATA     BYTE      IE
      000000F8H   SFRSYM    DATA     BYTE      P7
      000000E8H   SFRSYM    DATA     BYTE      P6
      000000C8H   SFRSYM    DATA     BYTE      P5
      000000C0H   SFRSYM    DATA     BYTE      P4
      000000B0H   SFRSYM    DATA     BYTE      P3
      000000A0H   SFRSYM    DATA     BYTE      P2
      00000090H   SFRSYM    DATA     BYTE      P1
      00000080H   SFRSYM    DATA     BYTE      P0

      00FF65A8H   BLOCK     CODE     ---       LVL=0
      R10         REGSYM    ---      CHAR      i
      00FF65A8H   LINE      CODE     ---       #10
      00FF65A8H   LINE      CODE     ---       #11
      00FF65A8H   LINE      CODE     ---       #13
      00FF65ABH   LINE      CODE     ---       #14
      00FF65B2H   LINE      CODE     ---       #15
      ---         BLOCKEND  ---      ---       LVL=0

      00FF65BEH   BLOCK     CODE     ---       LVL=0
      R10         REGSYM    ---      CHAR      i
      00FF65BEH   LINE      CODE     ---       #17
      00FF65BEH   LINE      CODE     ---       #18
      00FF65BEH   LINE      CODE     ---       #20
      00FF65C1H   LINE      CODE     ---       #21
      00FF65C8H   LINE      CODE     ---       #22
      ---         BLOCKEND  ---      ---       LVL=0

      00FF005EH   BLOCK     CODE     ---       LVL=0
      00FF005EH   LINE      CODE     ---       #25
      00FF005EH   LINE      CODE     ---       #27
L251 LINKER/LOCATER V4.66.93.0                                                        03/22/2024  17:44:58  PAGE 75


      00FF0060H   LINE      CODE     ---       #28
      ---         BLOCKEND  ---      ---       LVL=0

      00FF0086H   BLOCK     CODE     ---       LVL=0
      00FF0086H   LINE      CODE     ---       #31
      00FF0086H   LINE      CODE     ---       #33
      00FF0088H   LINE      CODE     ---       #34
      ---         BLOCKEND  ---      ---       LVL=0

      00FF001EH   BLOCK     CODE     ---       LVL=0
      00FF001EH   LINE      CODE     ---       #37
      00FF001EH   LINE      CODE     ---       #39
      00FF0020H   LINE      CODE     ---       #40
      ---         BLOCKEND  ---      ---       LVL=0

      00FF0056H   BLOCK     CODE     ---       LVL=0
      00FF0056H   LINE      CODE     ---       #43
      00FF0056H   LINE      CODE     ---       #45
      00FF0058H   LINE      CODE     ---       #46
      ---         BLOCKEND  ---      ---       LVL=0

      00FF0006H   BLOCK     CODE     ---       LVL=0
      00FF0006H   LINE      CODE     ---       #49
      00FF0006H   LINE      CODE     ---       #51
      00FF000AH   LINE      CODE     ---       #52
      ---         BLOCKEND  ---      ---       LVL=0

      00FF64E7H   BLOCK     CODE     ---       LVL=0
      00FF64E7H   LINE      CODE     ---       #60
      00FF64E7H   LINE      CODE     ---       #62
      00FF64EAH   LINE      CODE     ---       #63
      00FF64EDH   LINE      CODE     ---       #64
      00FF64F0H   LINE      CODE     ---       #66
      00FF64F3H   LINE      CODE     ---       #67
      00FF64F6H   LINE      CODE     ---       #68
      ---         BLOCKEND  ---      ---       LVL=0

      00FF653BH   BLOCK     CODE     ---       LVL=0
      00FF653BH   LINE      CODE     ---       #77
      00FF653BH   LINE      CODE     ---       #79
      00FF653EH   LINE      CODE     ---       #80
      00FF6541H   LINE      CODE     ---       #81
      00FF6544H   LINE      CODE     ---       #83
      00FF6547H   LINE      CODE     ---       #84
      ---         BLOCKEND  ---      ---       LVL=0

      00FF6484H   BLOCK     CODE     ---       LVL=0
      00FF6484H   LINE      CODE     ---       #93
      00FF6484H   LINE      CODE     ---       #95
      00FF6487H   LINE      CODE     ---       #96
      00FF648AH   LINE      CODE     ---       #97
      00FF648DH   LINE      CODE     ---       #99
      00FF6490H   LINE      CODE     ---       #100
      00FF6493H   LINE      CODE     ---       #101
      00FF6496H   LINE      CODE     ---       #102
      ---         BLOCKEND  ---      ---       LVL=0

      00FF64D5H   BLOCK     CODE     ---       LVL=0
      00FF64D5H   LINE      CODE     ---       #111
      00FF64D5H   LINE      CODE     ---       #113
      00FF64D8H   LINE      CODE     ---       #114
      00FF64DBH   LINE      CODE     ---       #115
      00FF64DEH   LINE      CODE     ---       #117
      00FF64E1H   LINE      CODE     ---       #118
      00FF64E4H   LINE      CODE     ---       #119
L251 LINKER/LOCATER V4.66.93.0                                                        03/22/2024  17:44:58  PAGE 76


      ---         BLOCKEND  ---      ---       LVL=0

      00FF620FH   BLOCK     CODE     ---       LVL=0
      00FF6211H   BLOCK     CODE     NEAR LAB  LVL=1
      WR14        REGSYM    ---      WORD      time_temp
      ---         BLOCKEND  ---      ---       LVL=1
      00FF620FH   LINE      CODE     ---       #129
      00FF6211H   LINE      CODE     ---       #130
      00FF6211H   LINE      CODE     ---       #131
      00FF6213H   LINE      CODE     ---       #133
      00FF6216H   LINE      CODE     ---       #134
      00FF6219H   LINE      CODE     ---       #135
      00FF621BH   LINE      CODE     ---       #137
      00FF621DH   LINE      CODE     ---       #138
      00FF6220H   LINE      CODE     ---       #139
      00FF6226H   LINE      CODE     ---       #141
      00FF6229H   LINE      CODE     ---       #142
      00FF622DH   LINE      CODE     ---       #143
      00FF6232H   LINE      CODE     ---       #145
      00FF6235H   LINE      CODE     ---       #146
      00FF6236H   LINE      CODE     ---       #147
      ---         BLOCKEND  ---      ---       LVL=0

      00FF60F7H   BLOCK     CODE     ---       LVL=0
      R15         REGSYM    ---      BYTE      dat
      00FF60FBH   BLOCK     CODE     NEAR LAB  LVL=1
      R14         REGSYM    ---      BYTE      i
      ---         BLOCKEND  ---      ---       LVL=1
      00FF60F7H   LINE      CODE     ---       #155
      00FF60FBH   LINE      CODE     ---       #156
      00FF60FBH   LINE      CODE     ---       #157
      00FF60FBH   LINE      CODE     ---       #159
      00FF60FEH   LINE      CODE     ---       #160
      00FF6101H   LINE      CODE     ---       #162
      00FF610AH   LINE      CODE     ---       #163
      00FF610FH   LINE      CODE     ---       #165
      00FF6112H   LINE      CODE     ---       #166
      00FF6114H   LINE      CODE     ---       #167
      00FF6117H   LINE      CODE     ---       #168
      00FF611AH   LINE      CODE     ---       #169
      00FF611DH   LINE      CODE     ---       #170
      00FF6120H   LINE      CODE     ---       #171
      00FF6123H   LINE      CODE     ---       #172
      00FF6127H   LINE      CODE     ---       #173
      ---         BLOCKEND  ---      ---       LVL=0

      00FF5FF1H   BLOCK     CODE     ---       LVL=0
      R15         REGSYM    ---      BYTE      ack
      00FF5FF7H   BLOCK     CODE     NEAR LAB  LVL=1
      R13         REGSYM    ---      BYTE      i
      R14         REGSYM    ---      BYTE      receive
      ---         BLOCKEND  ---      ---       LVL=1
      00FF5FF1H   LINE      CODE     ---       #181
      00FF5FF7H   LINE      CODE     ---       #182
      00FF5FF7H   LINE      CODE     ---       #183
      00FF5FF9H   LINE      CODE     ---       #185
      00FF5FFCH   LINE      CODE     ---       #187
      00FF5FFFH   LINE      CODE     ---       #188
      00FF6002H   LINE      CODE     ---       #189
      00FF6005H   LINE      CODE     ---       #190
      00FF6007H   LINE      CODE     ---       #191
      00FF600CH   LINE      CODE     ---       #192
      00FF600EH   LINE      CODE     ---       #193
      00FF6011H   LINE      CODE     ---       #194
      00FF6015H   LINE      CODE     ---       #195
L251 LINKER/LOCATER V4.66.93.0                                                        03/22/2024  17:44:58  PAGE 77


      00FF6019H   LINE      CODE     ---       #196
      00FF601EH   LINE      CODE     ---       #198
      00FF6021H   LINE      CODE     ---       #200
      00FF6023H   LINE      CODE     ---       #201
      ---         BLOCKEND  ---      ---       LVL=0

      00FF5818H   BLOCK     CODE     ---       LVL=0
      00000413H   SYMBOL    EDATA    BYTE      DevAddress
      00000414H   SYMBOL    EDATA    BYTE      MemAddress
      REG=3       REGSYM    ---      ---       pData
      00000415H   SYMBOL    EDATA    WORD      Len
      00FF5818H   LINE      CODE     ---       #209
      00FF5828H   LINE      CODE     ---       #211
      00FF582BH   LINE      CODE     ---       #212
      00FF5834H   LINE      CODE     ---       #213
      00FF5839H   LINE      CODE     ---       #214
      00FF583DH   LINE      CODE     ---       #215
      00FF5844H   LINE      CODE     ---       #216
      00FF5849H   LINE      CODE     ---       #217
      00FF584DH   LINE      CODE     ---       #218
      00FF584FH   LINE      CODE     ---       #220
      00FF5857H   LINE      CODE     ---       #221
      00FF585CH   LINE      CODE     ---       #222
      00FF5860H   LINE      CODE     ---       #223
      00FF5870H   LINE      CODE     ---       #224
      00FF5873H   LINE      CODE     ---       #225
      00FF5874H   LINE      CODE     ---       #226
      ---         BLOCKEND  ---      ---       LVL=0

      00FF5507H   BLOCK     CODE     ---       LVL=0
      00000418H   SYMBOL    EDATA    BYTE      DevAddress
      00000419H   SYMBOL    EDATA    BYTE      MemAddress
      REG=3       REGSYM    ---      ---       pBuffer
      0000041AH   SYMBOL    EDATA    WORD      Len
      00FF5507H   LINE      CODE     ---       #234
      00FF5517H   LINE      CODE     ---       #236
      00FF551AH   LINE      CODE     ---       #237
      00FF5523H   LINE      CODE     ---       #238
      00FF5528H   LINE      CODE     ---       #239
      00FF552CH   LINE      CODE     ---       #240
      00FF5533H   LINE      CODE     ---       #241
      00FF5538H   LINE      CODE     ---       #242
      00FF553CH   LINE      CODE     ---       #243
      00FF553FH   LINE      CODE     ---       #244
      00FF554AH   LINE      CODE     ---       #245
      00FF554FH   LINE      CODE     ---       #246
      00FF5553H   LINE      CODE     ---       #247
      00FF5555H   LINE      CODE     ---       #249
      00FF556AH   LINE      CODE     ---       #250
      00FF557AH   LINE      CODE     ---       #251
      00FF557DH   LINE      CODE     ---       #252
      00FF557EH   LINE      CODE     ---       #253
      ---         BLOCKEND  ---      ---       LVL=0

      00FF5932H   BLOCK     CODE     ---       LVL=0
      R13         REGSYM    ---      BYTE      DevAddress
      R14         REGSYM    ---      BYTE      addr
      R15         REGSYM    ---      BYTE      bitNum
      R12         REGSYM    ---      BYTE      Data
      00FF593CH   BLOCK     CODE     NEAR LAB  LVL=1
      00000410H   SYMBOL    EDATA    BYTE      b
      ---         BLOCKEND  ---      ---       LVL=1
      00FF5932H   LINE      CODE     ---       #262
      00FF593CH   LINE      CODE     ---       #263
      00FF593CH   LINE      CODE     ---       #265
L251 LINKER/LOCATER V4.66.93.0                                                        03/22/2024  17:44:58  PAGE 78


      00FF5949H   LINE      CODE     ---       #267
      00FF5978H   LINE      CODE     ---       #268
      00FF5989H   LINE      CODE     ---       #269
      00FF5989H   LINE      CODE     ---       #271
      00FF598BH   LINE      CODE     ---       #272
      ---         BLOCKEND  ---      ---       LVL=0

      00FF548AH   BLOCK     CODE     ---       LVL=0
      00000410H   SYMBOL    EDATA    BYTE      DevAddress
      R12         REGSYM    ---      BYTE      addr
      R13         REGSYM    ---      BYTE      bitStart
      R14         REGSYM    ---      BYTE      length
      R15         REGSYM    ---      BYTE      Data
      00FF5498H   BLOCK     CODE     NEAR LAB  LVL=1
      000004F4H   SYMBOL    EDATA    BYTE      b
      000004F5H   SYMBOL    EDATA    BYTE      mask
      ---         BLOCKEND  ---      ---       LVL=1
      00FF548AH   LINE      CODE     ---       #282
      00FF5498H   LINE      CODE     ---       #283
      00FF5498H   LINE      CODE     ---       #292
      00FF54A5H   LINE      CODE     ---       #294
      00FF54CBH   LINE      CODE     ---       #295
      00FF54D4H   LINE      CODE     ---       #296
      00FF54D6H   LINE      CODE     ---       #297
      00FF54E5H   LINE      CODE     ---       #298
      00FF54EFH   LINE      CODE     ---       #300
      00FF5502H   LINE      CODE     ---       #301
      00FF5502H   LINE      CODE     ---       #303
      00FF5504H   LINE      CODE     ---       #304
      ---         BLOCKEND  ---      ---       LVL=0

      00FF60C4H   BLOCK     CODE     ---       LVL=0
      R11         REGSYM    ---      BYTE      DevAddress
      R10         REGSYM    ---      BYTE      addr
      00000410H   SYMBOL    EDATA    BYTE      bitNum
      REG=3       REGSYM    ---      ---       Data
      00FF60CCH   BLOCK     CODE     NEAR LAB  LVL=1
      00000411H   SYMBOL    EDATA    BYTE      b
      ---         BLOCKEND  ---      ---       LVL=1
      00FF60C4H   LINE      CODE     ---       #312
      00FF60CCH   LINE      CODE     ---       #313
      00FF60CCH   LINE      CODE     ---       #315
      00FF60D9H   LINE      CODE     ---       #317
      00FF60EFH   LINE      CODE     ---       #318
      00FF60F2H   LINE      CODE     ---       #319
      00FF60F2H   LINE      CODE     ---       #322
      00FF60F4H   LINE      CODE     ---       #323
      00FF60F4H   LINE      CODE     ---       #324
      ---         BLOCKEND  ---      ---       LVL=0

      00FF56E1H   BLOCK     CODE     ---       LVL=0
      R11         REGSYM    ---      BYTE      DevAddress
      R10         REGSYM    ---      BYTE      addr
      R14         REGSYM    ---      BYTE      bitStart
      R15         REGSYM    ---      BYTE      length
      00000410H   SYMBOL    EDATA    ---       Data
      00FF56EBH   BLOCK     CODE     NEAR LAB  LVL=1
      000004F6H   SYMBOL    EDATA    BYTE      b
      000004F7H   SYMBOL    EDATA    BYTE      mask
      ---         BLOCKEND  ---      ---       LVL=1
      00FF56E1H   LINE      CODE     ---       #333
      00FF56EBH   LINE      CODE     ---       #334
      00FF56EBH   LINE      CODE     ---       #341
      00FF56F8H   LINE      CODE     ---       #344
      00FF571AH   LINE      CODE     ---       #345
L251 LINKER/LOCATER V4.66.93.0                                                        03/22/2024  17:44:58  PAGE 79


      00FF5722H   LINE      CODE     ---       #346
      00FF5739H   LINE      CODE     ---       #347
      00FF5744H   LINE      CODE     ---       #348
      00FF5747H   LINE      CODE     ---       #349
      00FF5747H   LINE      CODE     ---       #351
      00FF5749H   LINE      CODE     ---       #352
      ---         BLOCKEND  ---      ---       LVL=0

      00FF65C9H   BLOCK     CODE     ---       LVL=0
      DR4         REGSYM    ---      DWORD     i
      00FF65C9H   LINE      CODE     ---       #356
      00FF65C9H   LINE      CODE     ---       #357
      00FF65C9H   LINE      CODE     ---       #359
      00FF65CAH   LINE      CODE     ---       #360
      00FF65CEH   LINE      CODE     ---       #361
      00FF65D2H   LINE      CODE     ---       #362
      ---         BLOCKEND  ---      ---       LVL=0

      00FF64AEH   BLOCK     CODE     ---       LVL=0
      WR14        REGSYM    ---      WORD      Milliseconds
      00FF64AEH   LINE      CODE     ---       #365
      00FF64B2H   LINE      CODE     ---       #367
      00FF64BFH   LINE      CODE     ---       #369
      ---         BLOCKEND  ---      ---       LVL=0

      00FF65B3H   BLOCK     CODE     ---       LVL=0
      R7          REGSYM    ---      BYTE      reg
      R6          REGSYM    ---      BYTE      len
      REG=0       REGSYM    ---      ---       buf
      00FF65B3H   LINE      CODE     ---       #377
      00FF65B7H   LINE      CODE     ---       #379
      ---         BLOCKEND  ---      ---       LVL=0

      00FF659DH   BLOCK     CODE     ---       LVL=0
      R7          REGSYM    ---      BYTE      reg
      R6          REGSYM    ---      BYTE      len
      REG=0       REGSYM    ---      ---       buf
      00FF659DH   LINE      CODE     ---       #388
      00FF65A1H   LINE      CODE     ---       #390
      ---         BLOCKEND  ---      ---       LVL=0

      00FF6499H   BLOCK     CODE     ---       LVL=0
      R10         REGSYM    ---      BYTE      reg
      00000412H   SYMBOL    EDATA    BYTE      Data
      00FF6499H   LINE      CODE     ---       #398
      00FF649FH   LINE      CODE     ---       #400
      ---         BLOCKEND  ---      ---       LVL=0
      R10         REGSYM    ---      BYTE      reg

      00FF6583H   BLOCK     CODE     ---       LVL=0
      R7          REGSYM    ---      BYTE      addr
      R6          REGSYM    ---      BYTE      bitNum
      R10         REGSYM    ---      BYTE      Data
      00FF6583H   LINE      CODE     ---       #414
      00FF6589H   LINE      CODE     ---       #416
      ---         BLOCKEND  ---      ---       LVL=0

      00FF6576H   BLOCK     CODE     ---       LVL=0
      R7          REGSYM    ---      BYTE      addr
      R6          REGSYM    ---      BYTE      bitStart
      R5          REGSYM    ---      BYTE      length
      R4          REGSYM    ---      BYTE      Data
      00FF6576H   LINE      CODE     ---       #420
      00FF657EH   LINE      CODE     ---       #422
      ---         BLOCKEND  ---      ---       LVL=0
L251 LINKER/LOCATER V4.66.93.0                                                        03/22/2024  17:44:58  PAGE 80



      00FF65D3H   BLOCK     CODE     ---       LVL=0
      R7          REGSYM    ---      BYTE      addr
      R6          REGSYM    ---      BYTE      bitNum
      REG=0       REGSYM    ---      ---       Data
      00FF65D3H   LINE      CODE     ---       #426
      00FF65D7H   LINE      CODE     ---       #428
      ---         BLOCKEND  ---      ---       LVL=0

      00FF0046H   BLOCK     CODE     ---       LVL=0
      R7          REGSYM    ---      BYTE      addr
      R6          REGSYM    ---      BYTE      bitStart
      R10         REGSYM    ---      BYTE      length
      REG=0       REGSYM    ---      ---       Data
      00FF0046H   LINE      CODE     ---       #432
      00FF004CH   LINE      CODE     ---       #434
      ---         BLOCKEND  ---      ---       LVL=0
      R11         REGSYM    ---      BYTE      res
      R10         REGSYM    ---      BYTE      fsr
      R10         REGSYM    ---      BYTE      fsr
      WR6         REGSYM    ---      WORD      lpf
      R10         REGSYM    ---      BYTE      Data
      WR14        REGSYM    ---      WORD      rate
      000004F8H   SYMBOL    EDATA    BYTE      Data
      WR4         REGSYM    ---      INT       raw
      DR4         REGSYM    ---      FLOAT     temp

      00FF598EH   BLOCK     CODE     ---       LVL=0
      0000040AH   SYMBOL    EDATA    ---       gx
      REG=3       REGSYM    ---      ---       gy
      0000040EH   SYMBOL    EDATA    ---       gz
      00FF5996H   BLOCK     CODE     NEAR LAB  LVL=1
      00000412H   SYMBOL    EDATA    ---       buf
      R11         REGSYM    ---      BYTE      res
      ---         BLOCKEND  ---      ---       LVL=1
      00FF598EH   LINE      CODE     ---       #543
      00FF5996H   LINE      CODE     ---       #544
      00FF5996H   LINE      CODE     ---       #546
      00FF59A2H   LINE      CODE     ---       #547
      00FF59A4H   LINE      CODE     ---       #549
      00FF59BBH   LINE      CODE     ---       #550
      00FF59CEH   LINE      CODE     ---       #551
      00FF59E3H   LINE      CODE     ---       #552
      00FF59E3H   LINE      CODE     ---       #553
      00FF59E3H   LINE      CODE     ---       #554
      ---         BLOCKEND  ---      ---       LVL=0
      REG=3       REGSYM    ---      ---       ay
      R11         REGSYM    ---      BYTE      res

      00FF5389H   BLOCK     CODE     ---       LVL=0
      00FF538BH   BLOCK     CODE     NEAR LAB  LVL=1
      WR14        REGSYM    ---      WORD      datanum
      00000410H   SYMBOL    EDATA    BYTE      ye
      00000411H   SYMBOL    EDATA    BYTE      i
      R12         REGSYM    ---      BYTE      bank
      R13         REGSYM    ---      BYTE      addr
      ---         BLOCKEND  ---      ---       LVL=1
      00FF5389H   LINE      CODE     ---       #790
      00FF538BH   LINE      CODE     ---       #791
      00FF538BH   LINE      CODE     ---       #792
      00FF538DH   LINE      CODE     ---       #794
      00FF538FH   LINE      CODE     ---       #795
      00FF5391H   LINE      CODE     ---       #797
      00FF5391H   LINE      CODE     ---       #799
      00FF5396H   LINE      CODE     ---       #800
L251 LINKER/LOCATER V4.66.93.0                                                        03/22/2024  17:44:58  PAGE 81


      00FF539AH   LINE      CODE     ---       #802
      00FF53A0H   LINE      CODE     ---       #803
      00FF53A3H   LINE      CODE     ---       #805
      00FF53AAH   LINE      CODE     ---       #806
      00FF53B1H   LINE      CODE     ---       #807
      00FF53C3H   LINE      CODE     ---       #808
      00FF53C7H   LINE      CODE     ---       #809
      00FF53CAH   LINE      CODE     ---       #810
      00FF53DDH   LINE      CODE     ---       #811
      00FF53E4H   LINE      CODE     ---       #812
      00FF53ECH   LINE      CODE     ---       #813
      00FF53F3H   LINE      CODE     ---       #814
      00FF5405H   LINE      CODE     ---       #815
      00FF5405H   LINE      CODE     ---       #816
      00FF5407H   LINE      CODE     ---       #817
      ---         BLOCKEND  ---      ---       LVL=0

      00FF4F84H   BLOCK     CODE     ---       LVL=0
      00FF4F86H   BLOCK     CODE     NEAR LAB  LVL=1
      R14         REGSYM    ---      BYTE      line
      00000410H   SYMBOL    EDATA    BYTE      bank
      R15         REGSYM    ---      BYTE      datacounts
      R13         REGSYM    ---      BYTE      bytes2write
      00000411H   SYMBOL    EDATA    BYTE      offset
      000004F9H   SYMBOL    EDATA    BYTE      writingcounts
      R12         REGSYM    ---      BYTE      special
      ---         BLOCKEND  ---      ---       LVL=1
      00FF4F84H   LINE      CODE     ---       #819
      00FF4F86H   LINE      CODE     ---       #820
      00FF4F86H   LINE      CODE     ---       #823
      00FF4F88H   LINE      CODE     ---       #829
      00FF4F8BH   LINE      CODE     ---       #831
      00FF4FA1H   LINE      CODE     ---       #832
      00FF4FB7H   LINE      CODE     ---       #833
      00FF4FCBH   LINE      CODE     ---       #834
      00FF4FD4H   LINE      CODE     ---       #835
      00FF4FDDH   LINE      CODE     ---       #836
      00FF4FEEH   LINE      CODE     ---       #837
      00FF4FF2H   LINE      CODE     ---       #838
      00FF4FF4H   LINE      CODE     ---       #839
      00FF4FF8H   LINE      CODE     ---       #841
      00FF500CH   LINE      CODE     ---       #842
      00FF5011H   LINE      CODE     ---       #847
      00FF5019H   LINE      CODE     ---       #848
      00FF501BH   LINE      CODE     ---       #850
      00FF501EH   LINE      CODE     ---       #851
      00FF5025H   LINE      CODE     ---       #853
      00FF5027H   LINE      CODE     ---       #854
      ---         BLOCKEND  ---      ---       LVL=0

      00FF51F3H   BLOCK     CODE     ---       LVL=0
      00000410H   SYMBOL    EDATA    BYTE      datacounts
      00FF51F9H   BLOCK     CODE     NEAR LAB  LVL=1
      000004FAH   SYMBOL    EDATA    BYTE      writingcounts
      R7          REGSYM    ---      BYTE      bank
      R14         REGSYM    ---      BYTE      offset
      R15         REGSYM    ---      BYTE      bytes2write
      ---         BLOCKEND  ---      ---       LVL=1
      00FF51F3H   LINE      CODE     ---       #857
      00FF51F9H   LINE      CODE     ---       #858
      00FF51F9H   LINE      CODE     ---       #862
      00FF5214H   LINE      CODE     ---       #863
      00FF522FH   LINE      CODE     ---       #864
      00FF524AH   LINE      CODE     ---       #865
      00FF524FH   LINE      CODE     ---       #866
L251 LINKER/LOCATER V4.66.93.0                                                        03/22/2024  17:44:58  PAGE 82


      00FF5256H   LINE      CODE     ---       #867
      00FF526BH   LINE      CODE     ---       #868
      00FF526FH   LINE      CODE     ---       #869
      00FF5279H   LINE      CODE     ---       #870
      00FF527BH   LINE      CODE     ---       #871
      ---         BLOCKEND  ---      ---       LVL=0

      00FF0026H   BLOCK     CODE     ---       LVL=0
      00000410H   SYMBOL    EDATA    ---       i
      00FF0026H   LINE      CODE     ---       #875
      00FF0026H   LINE      CODE     ---       #876
      00FF0026H   LINE      CODE     ---       #878
      00FF0032H   LINE      CODE     ---       #879
      00FF0042H   LINE      CODE     ---       #880
      ---         BLOCKEND  ---      ---       LVL=0

      00FF654AH   BLOCK     CODE     ---       LVL=0
      REG=7       REGSYM    ---      ---       Data
      00FF654AH   LINE      CODE     ---       #886
      00FF654AH   LINE      CODE     ---       #888
      00FF6558H   LINE      CODE     ---       #889
      ---         BLOCKEND  ---      ---       LVL=0

      00FF3D31H   BLOCK     CODE     ---       LVL=0
      0000040AH   SYMBOL    EDATA    BYTE      hwRevision
      0000040BH   SYMBOL    EDATA    BYTE      otpValid
      0000040CH   SYMBOL    EDATA    BYTE      mpuIntStatus
      0000040DH   SYMBOL    EDATA    BYTE      xgOffsetTC
      0000040EH   SYMBOL    EDATA    BYTE      ygOffsetTC
      0000040FH   SYMBOL    EDATA    BYTE      zgOffsetTC
      000004FBH   SYMBOL    EDATA    WORD      fifoCount
      00FF3D31H   LINE      CODE     ---       #892
      00FF3D31H   LINE      CODE     ---       #893
      00FF3D31H   LINE      CODE     ---       #897
      00FF3D3CH   LINE      CODE     ---       #898
      00FF3D43H   LINE      CODE     ---       #899
      00FF3D4DH   LINE      CODE     ---       #900
      00FF3D55H   LINE      CODE     ---       #901
      00FF3D5DH   LINE      CODE     ---       #902
      00FF3D69H   LINE      CODE     ---       #903
      00FF3D70H   LINE      CODE     ---       #904
      00FF3D7AH   LINE      CODE     ---       #905
      00FF3D88H   LINE      CODE     ---       #906
      00FF3D97H   LINE      CODE     ---       #907
      00FF3DA6H   LINE      CODE     ---       #911
      00FF3DB1H   LINE      CODE     ---       #912
      00FF3DB8H   LINE      CODE     ---       #913
      00FF3DBDH   LINE      CODE     ---       #914
      00FF3DBFH   LINE      CODE     ---       #915
      00FF3DC4H   LINE      CODE     ---       #916
      00FF3DC6H   LINE      CODE     ---       #917
      00FF3DD4H   LINE      CODE     ---       #918
      00FF3DDCH   LINE      CODE     ---       #919
      00FF3DE4H   LINE      CODE     ---       #920
      00FF3DF2H   LINE      CODE     ---       #921
      00FF3E00H   LINE      CODE     ---       #922
      00FF3E0EH   LINE      CODE     ---       #923
      00FF3E16H   LINE      CODE     ---       #924
      00FF3E1DH   LINE      CODE     ---       #925
      00FF3E25H   LINE      CODE     ---       #926
      00FF3E31H   LINE      CODE     ---       #927
      00FF3E3EH   LINE      CODE     ---       #928
      00FF3E4BH   LINE      CODE     ---       #929
      00FF3E51H   LINE      CODE     ---       #930
      00FF3E53H   LINE      CODE     ---       #931
L251 LINKER/LOCATER V4.66.93.0                                                        03/22/2024  17:44:58  PAGE 83


      00FF3E5AH   LINE      CODE     ---       #932
      00FF3E5CH   LINE      CODE     ---       #933
      00FF3E67H   LINE      CODE     ---       #934
      00FF3E6EH   LINE      CODE     ---       #936
      00FF3E79H   LINE      CODE     ---       #938
      00FF3E81H   LINE      CODE     ---       #939
      00FF3E89H   LINE      CODE     ---       #940
      00FF3E91H   LINE      CODE     ---       #941
      00FF3E98H   LINE      CODE     ---       #942
      00FF3EA3H   LINE      CODE     ---       #943
      00FF3EAEH   LINE      CODE     ---       #944
      00FF3EB9H   LINE      CODE     ---       #945
      00FF3EC4H   LINE      CODE     ---       #946
      00FF3ECBH   LINE      CODE     ---       #947
      00FF3ECDH   LINE      CODE     ---       #948
      00FF3ED4H   LINE      CODE     ---       #949
      00FF3ED6H   LINE      CODE     ---       #950
      00FF3EDDH   LINE      CODE     ---       #951
      00FF3EDFH   LINE      CODE     ---       #952
      00FF3EECH   LINE      CODE     ---       #953
      00FF3EF7H   LINE      CODE     ---       #955
      00FF3F03H   LINE      CODE     ---       #956
      00FF3F0AH   LINE      CODE     ---       #957
      00FF3F0CH   LINE      CODE     ---       #958
      00FF3F19H   LINE      CODE     ---       #959
      00FF3F24H   LINE      CODE     ---       #961
      00FF3F30H   LINE      CODE     ---       #962
      00FF3F37H   LINE      CODE     ---       #963
      00FF3F39H   LINE      CODE     ---       #964
      00FF3F43H   LINE      CODE     ---       #965
      00FF3F4EH   LINE      CODE     ---       #966
      00FF3F5AH   LINE      CODE     ---       #968
      00FF3F5CH   LINE      CODE     ---       #969
      ---         BLOCKEND  ---      ---       LVL=0

      00FF612AH   BLOCK     CODE     ---       LVL=0
      00FF612AH   LINE      CODE     ---       #972
      00FF612AH   LINE      CODE     ---       #974
      00FF6138H   LINE      CODE     ---       #975
      00FF6145H   LINE      CODE     ---       #976
      00FF6152H   LINE      CODE     ---       #977
      ---         BLOCKEND  ---      ---       LVL=0

      00FF638CH   BLOCK     CODE     ---       LVL=0
      0000040AH   SYMBOL    EDATA    BYTE      b
      00FF638CH   LINE      CODE     ---       #981
      00FF638CH   LINE      CODE     ---       #982
      00FF638CH   LINE      CODE     ---       #983
      00FF6391H   LINE      CODE     ---       #984
      00FF63A0H   LINE      CODE     ---       #985
      00FF63ABH   LINE      CODE     ---       #987
      ---         BLOCKEND  ---      ---       LVL=0

      00FF6347H   BLOCK     CODE     ---       LVL=0
      00FF6347H   LINE      CODE     ---       #989
      00FF6347H   LINE      CODE     ---       #991
      00FF634AH   LINE      CODE     ---       #992
      00FF634FH   LINE      CODE     ---       #993
      00FF6354H   LINE      CODE     ---       #994
      00FF635FH   LINE      CODE     ---       #995
      ---         BLOCKEND  ---      ---       LVL=0

      00FF3A97H   BLOCK     CODE     ---       LVL=0
      00FF3A99H   BLOCK     CODE     NEAR LAB  LVL=1
      000004FDH   SYMBOL    EDATA    BYTE      zd
L251 LINKER/LOCATER V4.66.93.0                                                        03/22/2024  17:44:58  PAGE 84


      000004FEH   SYMBOL    EDATA    WORD      i
      ---         BLOCKEND  ---      ---       LVL=1
      00FF3A97H   LINE      CODE     ---       #999
      00FF3A99H   LINE      CODE     ---       #1000
      00FF3A99H   LINE      CODE     ---       #1004
      00FF3AA0H   LINE      CODE     ---       #1005
      00FF3AACH   LINE      CODE     ---       #1006
      00FF3ABFH   LINE      CODE     ---       #1008
      00FF3ACAH   LINE      CODE     ---       #1009
      00FF3ACDH   LINE      CODE     ---       #1010
      00FF3AD5H   LINE      CODE     ---       #1012
      00FF3AE8H   LINE      CODE     ---       #1014
      00FF3AF1H   LINE      CODE     ---       #1016
      00FF3B0FH   LINE      CODE     ---       #1017
      00FF3B27H   LINE      CODE     ---       #1018
      00FF3B3FH   LINE      CODE     ---       #1019
      00FF3B57H   LINE      CODE     ---       #1020
      00FF3B57H   LINE      CODE     ---       #1025
      00FF3B9FH   LINE      CODE     ---       #1026
      00FF3C16H   LINE      CODE     ---       #1027
      00FF3C9AH   LINE      CODE     ---       #1029
      00FF3CB5H   LINE      CODE     ---       #1030
      00FF3CCBH   LINE      CODE     ---       #1032
      00FF3CDBH   LINE      CODE     ---       #1033
      00FF3CFAH   LINE      CODE     ---       #1034
      00FF3D19H   LINE      CODE     ---       #1036
      00FF3D21H   LINE      CODE     ---       #1038
      00FF3D2EH   LINE      CODE     ---       #1040
      ---         BLOCKEND  ---      ---       LVL=0

      ---         MODULE    ---      ---       TOF
      00FF58D5H   PUBLIC    CODE     ---       vl53l0x_get_distance
      00FF229EH   PUBLIC    CODE     ---       vl53l0x_init
      000006F3H   PUBLIC    EDATA    WORD      vl53l0x_distance_mm
      000006F5H   PUBLIC    EDATA    BYTE      vl53l0x_finsh_flag
      000000D0H   SFRSYM    DATA     BYTE      PSW
      000000B7H   SFRSYM    DATA     BYTE      IPH
      000000C0H.7 SFRSYM    DATA     BIT       P47
      000000B0H.3 SFRSYM    DATA     BIT       P33
      00000088H   SFRSYM    DATA     BYTE      TCON
      000000B0H.2 SFRSYM    DATA     BIT       P32
      00000098H   SFRSYM    DATA     BYTE      SCON
      000000BCH   SFRSYM    DATA     BYTE      ADC_CONTR
      000000DEH   SFRSYM    DATA     BYTE      ADCCFG
      000000B8H   SFRSYM    DATA     BYTE      IP
      000000A8H   SFRSYM    DATA     BYTE      IE
      000000F8H   SFRSYM    DATA     BYTE      P7
      000000E8H   SFRSYM    DATA     BYTE      P6
      000000C8H   SFRSYM    DATA     BYTE      P5
      000000C0H   SFRSYM    DATA     BYTE      P4
      000000B0H   SFRSYM    DATA     BYTE      P3
      000000A0H   SFRSYM    DATA     BYTE      P2
      00000090H   SFRSYM    DATA     BYTE      P1
      00000080H   SFRSYM    DATA     BYTE      P0
      00FF63ACH   SYMBOL    CODE     ---       vl53l0x_simiic_sendack
      00FF5F05H   SYMBOL    CODE     ---       vl53l0x_timeout_microseconds_to_mclks
      00FF5E8AH   SYMBOL    CODE     ---       vl53l0x_timeout_mclks_to_microseconds
      00FF62B4H   SYMBOL    CODE     ---       vl53l0x_set_signal_rate_limit
      00FF5F7DH   SYMBOL    CODE     ---       vl53l0x_read_ch
      00FF651BH   SYMBOL    CODE     ---       vl53l0x_decode_timeout
      00FF618BH   SYMBOL    CODE     ---       vl53l0x_send_ch
      00FF42DCH   SYMBOL    CODE     ---       vl53l0x_get_spad_info
      00FF605DH   SYMBOL    CODE     ---       vl53l0x_encode_timeout
      00FF59E6H   SYMBOL    CODE     ---       vl53l0x_get_sequence_step_enables
      00FF0066H   SYMBOL    CODE     ---       vl53l0x_sccb_waitack
L251 LINKER/LOCATER V4.66.93.0                                                        03/22/2024  17:44:58  PAGE 85


      00FF6590H   SYMBOL    CODE     ---       vl53l0x_simiic_delay
      00FF5581H   SYMBOL    CODE     ---       vl53l0x_perform_single_ref_calibration
      00FF4A37H   SYMBOL    CODE     ---       vl53l0x_get_sequence_step_timeouts
      00FF6559H   SYMBOL    CODE     ---       vl53l0x_simiic_start
      00FF5AE6H   SYMBOL    CODE     ---       vl53l0x_simiic_read_regs
      00FF566EH   SYMBOL    CODE     ---       vl53l0x_get_measurement_timing_budget
      00FF6028H   SYMBOL    CODE     ---       vl53l0x_simiic_write_dats
      00FF628BH   SYMBOL    CODE     ---       vl53l0x_simiic_read_reg
      00FF5B3AH   SYMBOL    CODE     ---       vl53l0x_simiic_read_regs_1
      00FF4873H   SYMBOL    CODE     ---       vl53l0x_set_measurement_timing_budget
      00FF64F9H   SYMBOL    CODE     ---       vl53l0x_simiic_stop
      00FF636AH   SYMBOL    CODE     ---       vl53l0x_simiic_write_reg
      00FF5C2CH   SYMBOL    CODE     ---       vl53l0x_get_vcsel_pulse_period

      00FF6590H   BLOCK     CODE     ---       LVL=0
      WR6         REGSYM    ---      WORD      j
      00FF6590H   LINE      CODE     ---       #77
      00FF6590H   LINE      CODE     ---       #78
      00FF6590H   LINE      CODE     ---       #79
      00FF6594H   LINE      CODE     ---       #80
      00FF659CH   LINE      CODE     ---       #81
      ---         BLOCKEND  ---      ---       LVL=0

      00FF6559H   BLOCK     CODE     ---       LVL=0
      00FF6559H   LINE      CODE     ---       #84
      00FF6559H   LINE      CODE     ---       #86
      00FF655BH   LINE      CODE     ---       #87
      00FF655DH   LINE      CODE     ---       #88
      00FF6560H   LINE      CODE     ---       #89
      00FF6562H   LINE      CODE     ---       #90
      00FF6565H   LINE      CODE     ---       #91
      00FF6567H   LINE      CODE     ---       #92
      ---         BLOCKEND  ---      ---       LVL=0

      00FF64F9H   BLOCK     CODE     ---       LVL=0
      00FF64F9H   LINE      CODE     ---       #95
      00FF64F9H   LINE      CODE     ---       #97
      00FF64FBH   LINE      CODE     ---       #98
      00FF64FDH   LINE      CODE     ---       #99
      00FF6500H   LINE      CODE     ---       #100
      00FF6502H   LINE      CODE     ---       #101
      00FF6505H   LINE      CODE     ---       #102
      00FF6507H   LINE      CODE     ---       #103
      ---         BLOCKEND  ---      ---       LVL=0

      00FF63ACH   BLOCK     CODE     ---       LVL=0
      R15         REGSYM    ---      BYTE      ack_dat
      00FF63ACH   LINE      CODE     ---       #108
      00FF63B0H   LINE      CODE     ---       #110
      00FF63B2H   LINE      CODE     ---       #111
      00FF63B5H   LINE      CODE     ---       #112
      00FF63BDH   LINE      CODE     ---       #113
      00FF63BFH   LINE      CODE     ---       #115
      00FF63C1H   LINE      CODE     ---       #116
      00FF63C4H   LINE      CODE     ---       #117
      00FF63C6H   LINE      CODE     ---       #118
      00FF63C9H   LINE      CODE     ---       #119
      ---         BLOCKEND  ---      ---       LVL=0

      00FF0066H   BLOCK     CODE     ---       LVL=0
      00FF0066H   LINE      CODE     ---       #122
      00FF0066H   LINE      CODE     ---       #124
      00FF0068H   LINE      CODE     ---       #126
      00FF006BH   LINE      CODE     ---       #128
      00FF006DH   LINE      CODE     ---       #129
L251 LINKER/LOCATER V4.66.93.0                                                        03/22/2024  17:44:58  PAGE 86


      00FF0070H   LINE      CODE     ---       #131
      00FF0073H   LINE      CODE     ---       #134
      00FF0075H   LINE      CODE     ---       #135
      00FF0078H   LINE      CODE     ---       #136
      00FF0078H   LINE      CODE     ---       #138
      00FF007AH   LINE      CODE     ---       #139
      00FF007DH   LINE      CODE     ---       #140
      00FF0081H   LINE      CODE     ---       #141
      ---         BLOCKEND  ---      ---       LVL=0

      00FF618BH   BLOCK     CODE     ---       LVL=0
      R15         REGSYM    ---      BYTE      c
      00FF618FH   BLOCK     CODE     NEAR LAB  LVL=1
      R14         REGSYM    ---      BYTE      i
      ---         BLOCKEND  ---      ---       LVL=1
      00FF618BH   LINE      CODE     ---       #147
      00FF618FH   LINE      CODE     ---       #148
      00FF618FH   LINE      CODE     ---       #149
      00FF6192H   LINE      CODE     ---       #150
      00FF6194H   LINE      CODE     ---       #152
      00FF619DH   LINE      CODE     ---       #153
      00FF619FH   LINE      CODE     ---       #154
      00FF61A1H   LINE      CODE     ---       #155
      00FF61A4H   LINE      CODE     ---       #156
      00FF61A6H   LINE      CODE     ---       #157
      00FF61A9H   LINE      CODE     ---       #158
      00FF61ABH   LINE      CODE     ---       #159
      00FF61B3H   LINE      CODE     ---       #160
      00FF61B6H   LINE      CODE     ---       #161
      ---         BLOCKEND  ---      ---       LVL=0

      00FF5F7DH   BLOCK     CODE     ---       LVL=0
      R15         REGSYM    ---      BYTE      ack_x
      00FF5F83H   BLOCK     CODE     NEAR LAB  LVL=1
      R13         REGSYM    ---      BYTE      i
      R14         REGSYM    ---      BYTE      c
      ---         BLOCKEND  ---      ---       LVL=1
      00FF5F7DH   LINE      CODE     ---       #167
      00FF5F83H   LINE      CODE     ---       #168
      00FF5F83H   LINE      CODE     ---       #171
      00FF5F85H   LINE      CODE     ---       #172
      00FF5F87H   LINE      CODE     ---       #173
      00FF5F8AH   LINE      CODE     ---       #174
      00FF5F8CH   LINE      CODE     ---       #176
      00FF5F8FH   LINE      CODE     ---       #178
      00FF5F92H   LINE      CODE     ---       #179
      00FF5F94H   LINE      CODE     ---       #180
      00FF5F97H   LINE      CODE     ---       #181
      00FF5F99H   LINE      CODE     ---       #182
      00FF5F9CH   LINE      CODE     ---       #183
      00FF5F9EH   LINE      CODE     ---       #184
      00FF5FA1H   LINE      CODE     ---       #186
      00FF5FA3H   LINE      CODE     ---       #187
      00FF5FA7H   LINE      CODE     ---       #190
      00FF5FA9H   LINE      CODE     ---       #191
      00FF5FACH   LINE      CODE     ---       #192
      00FF5FB1H   LINE      CODE     ---       #194
      00FF5FB3H   LINE      CODE     ---       #195
      ---         BLOCKEND  ---      ---       LVL=0

      00FF6028H   BLOCK     CODE     ---       LVL=0
      0000043FH   SYMBOL    EDATA    BYTE      dev_add
      00000440H   SYMBOL    EDATA    ---       dat
      DR12        REGSYM    ---      DWORD     len
      00FF6028H   LINE      CODE     ---       #207
L251 LINKER/LOCATER V4.66.93.0                                                        03/22/2024  17:44:58  PAGE 87


      00FF6034H   LINE      CODE     ---       #209
      00FF6037H   LINE      CODE     ---       #210
      00FF603DH   LINE      CODE     ---       #211
      00FF603FH   LINE      CODE     ---       #213
      00FF604FH   LINE      CODE     ---       #214
      00FF6057H   LINE      CODE     ---       #217
      00FF605AH   LINE      CODE     ---       #218
      ---         BLOCKEND  ---      ---       LVL=0

      00FF636AH   BLOCK     CODE     ---       LVL=0
      R13         REGSYM    ---      BYTE      dev_add
      R14         REGSYM    ---      BYTE      reg
      R15         REGSYM    ---      BYTE      dat
      00FF636AH   LINE      CODE     ---       #230
      00FF6372H   LINE      CODE     ---       #232
      00FF6375H   LINE      CODE     ---       #233
      00FF637AH   LINE      CODE     ---       #234
      00FF637FH   LINE      CODE     ---       #235
      00FF6384H   LINE      CODE     ---       #236
      00FF6387H   LINE      CODE     ---       #237
      ---         BLOCKEND  ---      ---       LVL=0

      00FF628BH   BLOCK     CODE     ---       LVL=0
      R15         REGSYM    ---      BYTE      dev_add
      R14         REGSYM    ---      BYTE      reg
      00FF6291H   BLOCK     CODE     NEAR LAB  LVL=1
      R15         REGSYM    ---      BYTE      dat
      ---         BLOCKEND  ---      ---       LVL=1
      00FF628BH   LINE      CODE     ---       #248
      00FF6291H   LINE      CODE     ---       #249
      00FF6291H   LINE      CODE     ---       #251
      00FF6294H   LINE      CODE     ---       #252
      00FF6299H   LINE      CODE     ---       #253
      00FF629EH   LINE      CODE     ---       #256
      00FF62A1H   LINE      CODE     ---       #257
      00FF62AAH   LINE      CODE     ---       #258
      00FF62AEH   LINE      CODE     ---       #259
      00FF62B1H   LINE      CODE     ---       #261
      00FF62B1H   LINE      CODE     ---       #262
      ---         BLOCKEND  ---      ---       LVL=0

      00FF5AE6H   BLOCK     CODE     ---       LVL=0
      00000446H   SYMBOL    EDATA    BYTE      dev_add
      00000447H   SYMBOL    EDATA    BYTE      reg
      REG=3       REGSYM    ---      ---       dat_add
      00000448H   SYMBOL    EDATA    DWORD     num
      00FF5AE6H   LINE      CODE     ---       #275
      00FF5AF2H   LINE      CODE     ---       #277
      00FF5AF5H   LINE      CODE     ---       #278
      00FF5AFEH   LINE      CODE     ---       #279
      00FF5B05H   LINE      CODE     ---       #282
      00FF5B08H   LINE      CODE     ---       #283
      00FF5B13H   LINE      CODE     ---       #284
      00FF5B15H   LINE      CODE     ---       #286
      00FF5B1DH   LINE      CODE     ---       #287
      00FF5B1FH   LINE      CODE     ---       #288
      00FF5B2DH   LINE      CODE     ---       #289
      00FF5B34H   LINE      CODE     ---       #290
      00FF5B37H   LINE      CODE     ---       #291
      ---         BLOCKEND  ---      ---       LVL=0

      00FF5B3AH   BLOCK     CODE     ---       LVL=0
      0000040DH   SYMBOL    EDATA    BYTE      dev_add
      0000040EH   SYMBOL    EDATA    BYTE      reg
      REG=3       REGSYM    ---      ---       dat_add
L251 LINKER/LOCATER V4.66.93.0                                                        03/22/2024  17:44:58  PAGE 88


      0000040FH   SYMBOL    EDATA    DWORD     num
      00FF5B3AH   LINE      CODE     ---       #304
      00FF5B46H   LINE      CODE     ---       #306
      00FF5B49H   LINE      CODE     ---       #307
      00FF5B52H   LINE      CODE     ---       #308
      00FF5B59H   LINE      CODE     ---       #311
      00FF5B5CH   LINE      CODE     ---       #312
      00FF5B67H   LINE      CODE     ---       #313
      00FF5B69H   LINE      CODE     ---       #315
      00FF5B71H   LINE      CODE     ---       #316
      00FF5B73H   LINE      CODE     ---       #317
      00FF5B81H   LINE      CODE     ---       #318
      00FF5B88H   LINE      CODE     ---       #319
      00FF5B8BH   LINE      CODE     ---       #320
      ---         BLOCKEND  ---      ---       LVL=0

      00FF42DCH   BLOCK     CODE     ---       LVL=0
      0000041CH   SYMBOL    EDATA    ---       index
      REG=3       REGSYM    ---      ---       type_is_aperture
      00FF42E4H   BLOCK     CODE     NEAR LAB  LVL=1
      00000420H   SYMBOL    EDATA    BYTE      tmp
      00000421H   SYMBOL    EDATA    BYTE      return_state
      00000422H   SYMBOL    EDATA    WORD      loop_count
      ---         BLOCKEND  ---      ---       LVL=1
      00FF42DCH   LINE      CODE     ---       #352
      00FF42E4H   LINE      CODE     ---       #353
      00FF42E4H   LINE      CODE     ---       #354
      00FF42E9H   LINE      CODE     ---       #355
      00FF42EDH   LINE      CODE     ---       #356
      00FF42F3H   LINE      CODE     ---       #358
      00FF42F3H   LINE      CODE     ---       #360
      00FF42FEH   LINE      CODE     ---       #361
      00FF4309H   LINE      CODE     ---       #362
      00FF4312H   LINE      CODE     ---       #364
      00FF431DH   LINE      CODE     ---       #365
      00FF4331H   LINE      CODE     ---       #366
      00FF4340H   LINE      CODE     ---       #367
      00FF434BH   LINE      CODE     ---       #368
      00FF4356H   LINE      CODE     ---       #370
      00FF4361H   LINE      CODE     ---       #372
      00FF436CH   LINE      CODE     ---       #373
      00FF4376H   LINE      CODE     ---       #375
      00FF437BH   LINE      CODE     ---       #376
      00FF437DH   LINE      CODE     ---       #378
      00FF4391H   LINE      CODE     ---       #379
      00FF439BH   LINE      CODE     ---       #380
      00FF43A5H   LINE      CODE     ---       #382
      00FF43ABH   LINE      CODE     ---       #383
      00FF43ADH   LINE      CODE     ---       #384
      00FF43B4H   LINE      CODE     ---       #387
      00FF43BDH   LINE      CODE     ---       #389
      00FF43BDH   LINE      CODE     ---       #390
      00FF43BDH   LINE      CODE     ---       #391
      00FF43C8H   LINE      CODE     ---       #392
      00FF43DCH   LINE      CODE     ---       #394
      00FF43E9H   LINE      CODE     ---       #395
      00FF43F3H   LINE      CODE     ---       #397
      00FF43FDH   LINE      CODE     ---       #398
      00FF4408H   LINE      CODE     ---       #399
      00FF441CH   LINE      CODE     ---       #400
      00FF4428H   LINE      CODE     ---       #401
      00FF4433H   LINE      CODE     ---       #402
      00FF443DH   LINE      CODE     ---       #404
      00FF4447H   LINE      CODE     ---       #405
      00FF4451H   LINE      CODE     ---       #406
L251 LINKER/LOCATER V4.66.93.0                                                        03/22/2024  17:44:58  PAGE 89


      00FF4451H   LINE      CODE     ---       #408
      00FF4455H   LINE      CODE     ---       #409
      ---         BLOCKEND  ---      ---       LVL=0

      00FF5E8AH   BLOCK     CODE     ---       LVL=0
      WR30        REGSYM    ---      WORD      timeout_period_mclks
      R5          REGSYM    ---      BYTE      vcsel_period_pclks
      00FF5E8CH   BLOCK     CODE     NEAR LAB  LVL=1
      DR24        REGSYM    ---      DWORD     macro_period_ns
      ---         BLOCKEND  ---      ---       LVL=1
      00FF5E8AH   LINE      CODE     ---       #419
      00FF5E8CH   LINE      CODE     ---       #420
      00FF5E8CH   LINE      CODE     ---       #421
      00FF5EADH   LINE      CODE     ---       #423
      ---         BLOCKEND  ---      ---       LVL=0

      00FF5F05H   BLOCK     CODE     ---       LVL=0
      DR28        REGSYM    ---      DWORD     timeout_period_us
      R3          REGSYM    ---      BYTE      vcsel_period_pclks
      00FF5F07H   BLOCK     CODE     NEAR LAB  LVL=1
      DR8         REGSYM    ---      DWORD     macro_period_ns
      ---         BLOCKEND  ---      ---       LVL=1
      00FF5F05H   LINE      CODE     ---       #434
      00FF5F07H   LINE      CODE     ---       #435
      00FF5F07H   LINE      CODE     ---       #436
      00FF5F28H   LINE      CODE     ---       #438
      ---         BLOCKEND  ---      ---       LVL=0

      00FF651BH   BLOCK     CODE     ---       LVL=0
      WR4         REGSYM    ---      WORD      reg_val
      00FF651BH   LINE      CODE     ---       #448
      00FF651DH   LINE      CODE     ---       #451
      00FF652AH   LINE      CODE     ---       #453
      ---         BLOCKEND  ---      ---       LVL=0

      00FF605DH   BLOCK     CODE     ---       LVL=0
      WR2         REGSYM    ---      WORD      timeout_mclks
      00FF605FH   BLOCK     CODE     NEAR LAB  LVL=1
      DR8         REGSYM    ---      DWORD     ls_byte
      WR4         REGSYM    ---      WORD      ms_byte
      WR6         REGSYM    ---      WORD      return_data
      ---         BLOCKEND  ---      ---       LVL=1
      00FF605DH   LINE      CODE     ---       #462
      00FF605FH   LINE      CODE     ---       #463
      00FF605FH   LINE      CODE     ---       #464
      00FF605FH   LINE      CODE     ---       #465
      00FF6063H   LINE      CODE     ---       #466
      00FF6063H   LINE      CODE     ---       #468
      00FF6069H   LINE      CODE     ---       #471
      00FF606FH   LINE      CODE     ---       #472
      00FF6071H   LINE      CODE     ---       #474
      00FF607AH   LINE      CODE     ---       #475
      00FF607CH   LINE      CODE     ---       #476
      00FF6086H   LINE      CODE     ---       #477
      00FF6090H   LINE      CODE     ---       #478
      00FF6090H   LINE      CODE     ---       #479
      00FF6090H   LINE      CODE     ---       #480
      ---         BLOCKEND  ---      ---       LVL=0

      00FF59E6H   BLOCK     CODE     ---       LVL=0
      REG=3       REGSYM    ---      ---       enables
      00FF59EAH   BLOCK     CODE     NEAR LAB  LVL=1
      0000043FH   SYMBOL    EDATA    BYTE      sequence_config
      ---         BLOCKEND  ---      ---       LVL=1
      00FF59E6H   LINE      CODE     ---       #489
L251 LINKER/LOCATER V4.66.93.0                                                        03/22/2024  17:44:58  PAGE 90


      00FF59EAH   LINE      CODE     ---       #490
      00FF59EAH   LINE      CODE     ---       #491
      00FF59EFH   LINE      CODE     ---       #492
      00FF5A00H   LINE      CODE     ---       #494
      00FF5A0AH   LINE      CODE     ---       #495
      00FF5A16H   LINE      CODE     ---       #496
      00FF5A24H   LINE      CODE     ---       #497
      00FF5A30H   LINE      CODE     ---       #498
      00FF5A3BH   LINE      CODE     ---       #499
      ---         BLOCKEND  ---      ---       LVL=0

      00FF5C2CH   BLOCK     CODE     ---       LVL=0
      WR6         REGSYM    ---      INT       type
      00000445H   SYMBOL    EDATA    BYTE      data_buffer
      00FF5C2CH   LINE      CODE     ---       #508
      00FF5C2CH   LINE      CODE     ---       #509
      00FF5C2CH   LINE      CODE     ---       #510
      00FF5C31H   LINE      CODE     ---       #511
      00FF5C35H   LINE      CODE     ---       #513
      00FF5C42H   LINE      CODE     ---       #514
      00FF5C42H   LINE      CODE     ---       #515
      00FF5C44H   LINE      CODE     ---       #516
      00FF5C4AH   LINE      CODE     ---       #518
      00FF5C5EH   LINE      CODE     ---       #519
      00FF5C6CH   LINE      CODE     ---       #520
      00FF5C6EH   LINE      CODE     ---       #523
      00FF5C74H   LINE      CODE     ---       #524
      00FF5C74H   LINE      CODE     ---       #525
      00FF5C78H   LINE      CODE     ---       #526
      ---         BLOCKEND  ---      ---       LVL=0

      00FF4A37H   BLOCK     CODE     ---       LVL=0
      0000043FH   SYMBOL    EDATA    ---       enables
      REG=3       REGSYM    ---      ---       timeouts
      00FF4A3FH   BLOCK     CODE     NEAR LAB  LVL=1
      00000443H   SYMBOL    EDATA    ---       reg_buffer
      WR6         REGSYM    ---      WORD      reg16_buffer
      ---         BLOCKEND  ---      ---       LVL=1
      00FF4A37H   LINE      CODE     ---       #536
      00FF4A3FH   LINE      CODE     ---       #537
      00FF4A3FH   LINE      CODE     ---       #539
      00FF4A3FH   LINE      CODE     ---       #541
      00FF4A49H   LINE      CODE     ---       #543
      00FF4A5DH   LINE      CODE     ---       #544
      00FF4A69H   LINE      CODE     ---       #545
      00FF4A77H   LINE      CODE     ---       #547
      00FF4A8BH   LINE      CODE     ---       #548
      00FF4A97H   LINE      CODE     ---       #549
      00FF4A9EH   LINE      CODE     ---       #550
      00FF4AACH   LINE      CODE     ---       #552
      00FF4AB9H   LINE      CODE     ---       #554
      00FF4ACDH   LINE      CODE     ---       #555
      00FF4AD9H   LINE      CODE     ---       #556
      00FF4AE0H   LINE      CODE     ---       #558
      00FF4AEAH   LINE      CODE     ---       #560
      00FF4AFCH   LINE      CODE     ---       #561
      00FF4AFCH   LINE      CODE     ---       #563
      00FF4B0FH   LINE      CODE     ---       #564
      ---         BLOCKEND  ---      ---       LVL=0

      00FF5581H   BLOCK     CODE     ---       LVL=0
      R10         REGSYM    ---      BYTE      vhv_init_byte
      00FF5585H   BLOCK     CODE     NEAR LAB  LVL=1
      R15         REGSYM    ---      BYTE      return_state
      0000041CH   SYMBOL    EDATA    BYTE      data_buffer
L251 LINKER/LOCATER V4.66.93.0                                                        03/22/2024  17:44:58  PAGE 91


      0000041DH   SYMBOL    EDATA    WORD      loop_count
      ---         BLOCKEND  ---      ---       LVL=1
      00FF5581H   LINE      CODE     ---       #573
      00FF5585H   LINE      CODE     ---       #574
      00FF5585H   LINE      CODE     ---       #575
      00FF5587H   LINE      CODE     ---       #576
      00FF558CH   LINE      CODE     ---       #577
      00FF5592H   LINE      CODE     ---       #578
      00FF5592H   LINE      CODE     ---       #580
      00FF559CH   LINE      CODE     ---       #581
      00FF559CH   LINE      CODE     ---       #582
      00FF559EH   LINE      CODE     ---       #584
      00FF55A8H   LINE      CODE     ---       #586
      00FF55ABH   LINE      CODE     ---       #587
      00FF55ADH   LINE      CODE     ---       #588
      00FF55ADH   LINE      CODE     ---       #589
      00FF55BFH   LINE      CODE     ---       #591
      00FF55D3H   LINE      CODE     ---       #592
      00FF55DBH   LINE      CODE     ---       #594
      00FF55DFH   LINE      CODE     ---       #596
      00FF55DFH   LINE      CODE     ---       #597
      00FF55DFH   LINE      CODE     ---       #598
      00FF55EAH   LINE      CODE     ---       #599
      00FF55F3H   LINE      CODE     ---       #600
      00FF55F3H   LINE      CODE     ---       #602
      00FF55F5H   LINE      CODE     ---       #603
      ---         BLOCKEND  ---      ---       LVL=0

      00FF4873H   BLOCK     CODE     ---       LVL=0
      DR12        REGSYM    ---      DWORD     budget_us
      00FF4877H   BLOCK     CODE     NEAR LAB  LVL=1
      0000041CH   SYMBOL    EDATA    BYTE      return_state
      0000041DH   SYMBOL    EDATA    ---       data_buffer
      WR6         REGSYM    ---      WORD      dat
      00000420H   SYMBOL    EDATA    DWORD     used_budget_us
      DR4         REGSYM    ---      DWORD     final_range_timeout_us
      WR6         REGSYM    ---      WORD      final_range_timeout_mclks
      00000424H   SYMBOL    EDATA    ---       enables
      00000429H   SYMBOL    EDATA    ---       timeouts
      ---         BLOCKEND  ---      ---       LVL=1
      00FF4873H   LINE      CODE     ---       #616
      00FF4877H   LINE      CODE     ---       #617
      00FF4877H   LINE      CODE     ---       #618
      00FF487CH   LINE      CODE     ---       #620
      00FF487CH   LINE      CODE     ---       #628
      00FF487CH   LINE      CODE     ---       #630
      00FF4882H   LINE      CODE     ---       #632
      00FF4882H   LINE      CODE     ---       #633
      00FF4885H   LINE      CODE     ---       #634
      00FF4885H   LINE      CODE     ---       #636
      00FF488DH   LINE      CODE     ---       #637
      00FF4894H   LINE      CODE     ---       #638
      00FF489FH   LINE      CODE     ---       #640
      00FF48A5H   LINE      CODE     ---       #642
      00FF48B5H   LINE      CODE     ---       #643
      00FF48B5H   LINE      CODE     ---       #645
      00FF48BBH   LINE      CODE     ---       #647
      00FF48C7H   LINE      CODE     ---       #648
      00FF48C9H   LINE      CODE     ---       #649
      00FF48CFH   LINE      CODE     ---       #651
      00FF48E1H   LINE      CODE     ---       #652
      00FF48E1H   LINE      CODE     ---       #654
      00FF48E7H   LINE      CODE     ---       #656
      00FF48F9H   LINE      CODE     ---       #657
      00FF48F9H   LINE      CODE     ---       #659
L251 LINKER/LOCATER V4.66.93.0                                                        03/22/2024  17:44:58  PAGE 92


      00FF48FFH   LINE      CODE     ---       #664
      00FF490BH   LINE      CODE     ---       #665
      00FF4913H   LINE      CODE     ---       #668
      00FF4919H   LINE      CODE     ---       #669
      00FF491BH   LINE      CODE     ---       #670
      00FF491BH   LINE      CODE     ---       #675
      00FF491FH   LINE      CODE     ---       #676
      00FF4926H   LINE      CODE     ---       #680
      00FF492CH   LINE      CODE     ---       #682
      00FF4932H   LINE      CODE     ---       #683
      00FF4932H   LINE      CODE     ---       #685
      00FF4935H   LINE      CODE     ---       #686
      00FF493BH   LINE      CODE     ---       #687
      00FF493FH   LINE      CODE     ---       #688
      00FF4943H   LINE      CODE     ---       #689
      00FF4950H   LINE      CODE     ---       #690
      00FF4950H   LINE      CODE     ---       #692
      00FF4954H   LINE      CODE     ---       #693
      ---         BLOCKEND  ---      ---       LVL=0

      00FF566EH   BLOCK     CODE     ---       LVL=0
      00FF5670H   BLOCK     CODE     NEAR LAB  LVL=1
      0000041CH   SYMBOL    EDATA    ---       enables
      00000421H   SYMBOL    EDATA    ---       timeouts
      DR12        REGSYM    ---      DWORD     budget_us
      ---         BLOCKEND  ---      ---       LVL=1
      00FF566EH   LINE      CODE     ---       #702
      00FF5670H   LINE      CODE     ---       #703
      00FF5670H   LINE      CODE     ---       #708
      00FF5674H   LINE      CODE     ---       #710
      00FF567BH   LINE      CODE     ---       #711
      00FF5686H   LINE      CODE     ---       #713
      00FF568CH   LINE      CODE     ---       #715
      00FF5698H   LINE      CODE     ---       #716
      00FF5698H   LINE      CODE     ---       #718
      00FF569EH   LINE      CODE     ---       #720
      00FF56AAH   LINE      CODE     ---       #721
      00FF56ACH   LINE      CODE     ---       #722
      00FF56B2H   LINE      CODE     ---       #724
      00FF56BCH   LINE      CODE     ---       #725
      00FF56BCH   LINE      CODE     ---       #727
      00FF56C2H   LINE      CODE     ---       #729
      00FF56CCH   LINE      CODE     ---       #730
      00FF56CCH   LINE      CODE     ---       #732
      00FF56D2H   LINE      CODE     ---       #734
      00FF56DCH   LINE      CODE     ---       #735
      00FF56DCH   LINE      CODE     ---       #737
      00FF56DEH   LINE      CODE     ---       #738
      ---         BLOCKEND  ---      ---       LVL=0

      00FF62B4H   BLOCK     CODE     ---       LVL=0
      DR4         REGSYM    ---      FLOAT     limit_mcps
      0000041CH   SYMBOL    EDATA    ---       data_buffer
      WR6         REGSYM    ---      WORD      limit_mcps_16bit
      00FF62B4H   LINE      CODE     ---       #751
      00FF62B4H   LINE      CODE     ---       #752
      00FF62B4H   LINE      CODE     ---       #754
      00FF62C0H   LINE      CODE     ---       #758
      00FF62C6H   LINE      CODE     ---       #759
      00FF62CAH   LINE      CODE     ---       #760
      00FF62CEH   LINE      CODE     ---       #762
      ---         BLOCKEND  ---      ---       LVL=0

      00FF58D5H   BLOCK     CODE     ---       LVL=0
      0000040AH   SYMBOL    EDATA    ---       reg_databuffer
L251 LINKER/LOCATER V4.66.93.0                                                        03/22/2024  17:44:58  PAGE 93


      00FF58D5H   LINE      CODE     ---       #772
      00FF58D5H   LINE      CODE     ---       #773
      00FF58D5H   LINE      CODE     ---       #776
      00FF58E9H   LINE      CODE     ---       #777
      00FF58F1H   LINE      CODE     ---       #779
      00FF58F2H   LINE      CODE     ---       #780
      00FF58F4H   LINE      CODE     ---       #784
      00FF5908H   LINE      CODE     ---       #785
      00FF5912H   LINE      CODE     ---       #786
      00FF5920H   LINE      CODE     ---       #788
      00FF592BH   LINE      CODE     ---       #789
      00FF5931H   LINE      CODE     ---       #790
      00FF5931H   LINE      CODE     ---       #791
      ---         BLOCKEND  ---      ---       LVL=0

      00FF229EH   BLOCK     CODE     ---       LVL=0
      00FF22A2H   BLOCK     CODE     NEAR LAB  LVL=1
      0000040AH   SYMBOL    EDATA    DWORD     measurement_timing_budget_us
      0000040EH   SYMBOL    EDATA    BYTE      stop_variable
      R15         REGSYM    ---      BYTE      return_state
      R14         REGSYM    ---      BYTE      reg_data_buffer
      0000040FH   SYMBOL    EDATA    ---       ref_spad_map
      00000415H   SYMBOL    EDATA    ---       data_buffer
      R13         REGSYM    ---      BYTE      i
      ---         BLOCKEND  ---      ---       LVL=1
      00FF229EH   LINE      CODE     ---       #800
      00FF22A2H   LINE      CODE     ---       #801
      00FF22A2H   LINE      CODE     ---       #802
      00FF22A2H   LINE      CODE     ---       #803
      00FF22A7H   LINE      CODE     ---       #804
      00FF22A9H   LINE      CODE     ---       #805
      00FF22A9H   LINE      CODE     ---       #808
      00FF22A9H   LINE      CODE     ---       #810
      00FF22B4H   LINE      CODE     ---       #811
      00FF22C0H   LINE      CODE     ---       #815
      00FF22C0H   LINE      CODE     ---       #817
      00FF22C7H   LINE      CODE     ---       #818
      00FF22C9H   LINE      CODE     ---       #819
      00FF22D0H   LINE      CODE     ---       #820
      00FF22D2H   LINE      CODE     ---       #821
      00FF22D9H   LINE      CODE     ---       #824
      00FF22E3H   LINE      CODE     ---       #825
      00FF22F0H   LINE      CODE     ---       #827
      00FF22FAH   LINE      CODE     ---       #829
      00FF2305H   LINE      CODE     ---       #830
      00FF2310H   LINE      CODE     ---       #831
      00FF2319H   LINE      CODE     ---       #833
      00FF232DH   LINE      CODE     ---       #835
      00FF2337H   LINE      CODE     ---       #836
      00FF2341H   LINE      CODE     ---       #837
      00FF234BH   LINE      CODE     ---       #840
      00FF2355H   LINE      CODE     ---       #841
      00FF2362H   LINE      CODE     ---       #843
      00FF236BH   LINE      CODE     ---       #844
      00FF2376H   LINE      CODE     ---       #848
      00FF2383H   LINE      CODE     ---       #850
      00FF2386H   LINE      CODE     ---       #855
      00FF2391H   LINE      CODE     ---       #856
      00FF2394H   LINE      CODE     ---       #857
      00FF2394H   LINE      CODE     ---       #860
      00FF23A8H   LINE      CODE     ---       #862
      00FF23B3H   LINE      CODE     ---       #863
      00FF23BDH   LINE      CODE     ---       #864
      00FF23C8H   LINE      CODE     ---       #865
      00FF23D2H   LINE      CODE     ---       #866
L251 LINKER/LOCATER V4.66.93.0                                                        03/22/2024  17:44:58  PAGE 94


      00FF23DDH   LINE      CODE     ---       #868
      00FF23EEH   LINE      CODE     ---       #869
      00FF23F0H   LINE      CODE     ---       #871
      00FF2402H   LINE      CODE     ---       #876
      00FF2430H   LINE      CODE     ---       #877
      00FF2432H   LINE      CODE     ---       #878
      00FF2455H   LINE      CODE     ---       #880
      00FF245EH   LINE      CODE     ---       #881
      00FF2465H   LINE      CODE     ---       #884
      00FF246BH   LINE      CODE     ---       #885
      00FF246EH   LINE      CODE     ---       #887
      00FF2478H   LINE      CODE     ---       #888
      00FF247FH   LINE      CODE     ---       #889
      00FF248CH   LINE      CODE     ---       #892
      00FF2497H   LINE      CODE     ---       #893
      00FF24A0H   LINE      CODE     ---       #894
      00FF24AAH   LINE      CODE     ---       #895
      00FF24B4H   LINE      CODE     ---       #896
      00FF24BEH   LINE      CODE     ---       #897
      00FF24C8H   LINE      CODE     ---       #898
      00FF24D3H   LINE      CODE     ---       #899
      00FF24DEH   LINE      CODE     ---       #900
      00FF24E8H   LINE      CODE     ---       #901
      00FF24F3H   LINE      CODE     ---       #902
      00FF24FEH   LINE      CODE     ---       #903
      00FF2508H   LINE      CODE     ---       #904
      00FF2513H   LINE      CODE     ---       #905
      00FF251DH   LINE      CODE     ---       #906
      00FF2528H   LINE      CODE     ---       #907
      00FF2532H   LINE      CODE     ---       #908
      00FF253DH   LINE      CODE     ---       #909
      00FF2548H   LINE      CODE     ---       #910
      00FF2553H   LINE      CODE     ---       #911
      00FF255EH   LINE      CODE     ---       #912
      00FF2568H   LINE      CODE     ---       #913
      00FF2572H   LINE      CODE     ---       #914
      00FF257DH   LINE      CODE     ---       #915
      00FF2587H   LINE      CODE     ---       #916
      00FF2592H   LINE      CODE     ---       #917
      00FF259DH   LINE      CODE     ---       #918
      00FF25A8H   LINE      CODE     ---       #919
      00FF25B2H   LINE      CODE     ---       #920
      00FF25BCH   LINE      CODE     ---       #921
      00FF25C6H   LINE      CODE     ---       #922
      00FF25D0H   LINE      CODE     ---       #923
      00FF25DBH   LINE      CODE     ---       #924
      00FF25E6H   LINE      CODE     ---       #925
      00FF25F1H   LINE      CODE     ---       #926
      00FF25FCH   LINE      CODE     ---       #927
      00FF2607H   LINE      CODE     ---       #928
      00FF2611H   LINE      CODE     ---       #929
      00FF261BH   LINE      CODE     ---       #930
      00FF2626H   LINE      CODE     ---       #931
      00FF2630H   LINE      CODE     ---       #932
      00FF263BH   LINE      CODE     ---       #933
      00FF2646H   LINE      CODE     ---       #934
      00FF2651H   LINE      CODE     ---       #935
      00FF265BH   LINE      CODE     ---       #936
      00FF2666H   LINE      CODE     ---       #937
      00FF2671H   LINE      CODE     ---       #938
      00FF267CH   LINE      CODE     ---       #939
      00FF2687H   LINE      CODE     ---       #940
      00FF2692H   LINE      CODE     ---       #941
      00FF269DH   LINE      CODE     ---       #942
      00FF26A8H   LINE      CODE     ---       #943
L251 LINKER/LOCATER V4.66.93.0                                                        03/22/2024  17:44:58  PAGE 95


      00FF26B2H   LINE      CODE     ---       #944
      00FF26BDH   LINE      CODE     ---       #945
      00FF26C8H   LINE      CODE     ---       #946
      00FF26D3H   LINE      CODE     ---       #947
      00FF26DEH   LINE      CODE     ---       #948
      00FF26E9H   LINE      CODE     ---       #949
      00FF26F4H   LINE      CODE     ---       #950
      00FF26FFH   LINE      CODE     ---       #951
      00FF2709H   LINE      CODE     ---       #952
      00FF2713H   LINE      CODE     ---       #953
      00FF271EH   LINE      CODE     ---       #954
      00FF2729H   LINE      CODE     ---       #955
      00FF2734H   LINE      CODE     ---       #956
      00FF273EH   LINE      CODE     ---       #957
      00FF2749H   LINE      CODE     ---       #958
      00FF2754H   LINE      CODE     ---       #959
      00FF275FH   LINE      CODE     ---       #960
      00FF2769H   LINE      CODE     ---       #961
      00FF2773H   LINE      CODE     ---       #962
      00FF277EH   LINE      CODE     ---       #963
      00FF2789H   LINE      CODE     ---       #964
      00FF2793H   LINE      CODE     ---       #965
      00FF279EH   LINE      CODE     ---       #966
      00FF27A9H   LINE      CODE     ---       #967
      00FF27B4H   LINE      CODE     ---       #968
      00FF27BFH   LINE      CODE     ---       #969
      00FF27C9H   LINE      CODE     ---       #970
      00FF27D3H   LINE      CODE     ---       #971
      00FF27DDH   LINE      CODE     ---       #974
      00FF27E8H   LINE      CODE     ---       #975
      00FF27F2H   LINE      CODE     ---       #976
      00FF27FFH   LINE      CODE     ---       #977
      00FF280AH   LINE      CODE     ---       #979
      00FF2811H   LINE      CODE     ---       #984
      00FF281CH   LINE      CODE     ---       #985
      00FF2823H   LINE      CODE     ---       #988
      00FF282EH   LINE      CODE     ---       #989
      00FF2835H   LINE      CODE     ---       #991
      00FF2835H   LINE      CODE     ---       #992
      00FF2837H   LINE      CODE     ---       #993
      00FF2837H   LINE      CODE     ---       #994
      00FF2842H   LINE      CODE     ---       #995
      00FF2848H   LINE      CODE     ---       #997
      00FF284BH   LINE      CODE     ---       #998
      00FF284DH   LINE      CODE     ---       #999
      00FF284DH   LINE      CODE     ---       #1000
      00FF2858H   LINE      CODE     ---       #1002
      00FF285FH   LINE      CODE     ---       #1004
      00FF286AH   LINE      CODE     ---       #1005
      00FF2875H   LINE      CODE     ---       #1006
      00FF287EH   LINE      CODE     ---       #1007
      00FF288AH   LINE      CODE     ---       #1008
      00FF2894H   LINE      CODE     ---       #1009
      00FF289EH   LINE      CODE     ---       #1010
      00FF28A8H   LINE      CODE     ---       #1012
      00FF28B2H   LINE      CODE     ---       #1013
      00FF28B2H   LINE      CODE     ---       #1015
      00FF28B4H   LINE      CODE     ---       #1016
      ---         BLOCKEND  ---      ---       LVL=0

      ---         MODULE    ---      ---       Element
      00FF5F41H   PUBLIC    CODE     ---       Elem_Up_Down
      00FF3F5DH   PUBLIC    CODE     ---       Elem_Circle
      00000693H   PUBLIC    EDATA    FLOAT     Sum_Angle
      00000697H   PUBLIC    EDATA    CHAR      Up_Down_Flag
L251 LINKER/LOCATER V4.66.93.0                                                        03/22/2024  17:44:58  PAGE 96


      00000698H   PUBLIC    EDATA    FLOAT     Circle_Flag
      0000069CH   PUBLIC    EDATA    CHAR      delay_10ms
      0000069DH   PUBLIC    EDATA    FLOAT     Sum_Angle_C1
      000006A1H   PUBLIC    EDATA    CHAR      Barrier_Flag1
      000006A2H   PUBLIC    EDATA    CHAR      Barrier_Flag2
      000006A3H   PUBLIC    EDATA    CHAR      Barrier_Flag3
      000006A4H   PUBLIC    EDATA    CHAR      Barrier_Flag4
      000006A5H   PUBLIC    EDATA    CHAR      Circle_Flag2
      000006A6H   PUBLIC    EDATA    CHAR      Barrier_Executed
      000006A7H   PUBLIC    EDATA    FLOAT     Sum_Dis1
      000006ABH   PUBLIC    EDATA    FLOAT     Sum_Dis2
      000006AFH   PUBLIC    EDATA    CHAR      Avoid_ON
      000000D0H   SFRSYM    DATA     BYTE      PSW
      000000B7H   SFRSYM    DATA     BYTE      IPH
      00000088H   SFRSYM    DATA     BYTE      TCON
      00000098H   SFRSYM    DATA     BYTE      SCON
      000000BCH   SFRSYM    DATA     BYTE      ADC_CONTR
      000000DEH   SFRSYM    DATA     BYTE      ADCCFG
      000000B8H   SFRSYM    DATA     BYTE      IP
      000000A8H   SFRSYM    DATA     BYTE      IE
      000000F8H   SFRSYM    DATA     BYTE      P7
      000000E8H   SFRSYM    DATA     BYTE      P6
      000000C8H   SFRSYM    DATA     BYTE      P5
      000000C0H   SFRSYM    DATA     BYTE      P4
      000000B0H   SFRSYM    DATA     BYTE      P3
      000000A0H   SFRSYM    DATA     BYTE      P2
      00000090H   SFRSYM    DATA     BYTE      P1
      00000080H   SFRSYM    DATA     BYTE      P0

      00FF5F41H   BLOCK     CODE     ---       LVL=0
      DR28        REGSYM    ---      FLOAT     Angle
      DR24        REGSYM    ---      FLOAT     Gyro
      00FF5F41H   LINE      CODE     ---       #33
      00FF5F45H   LINE      CODE     ---       #36
      00FF5F5DH   LINE      CODE     ---       #37
      00FF5F65H   LINE      CODE     ---       #38
      00FF5F72H   LINE      CODE     ---       #39
      00FF5F7CH   LINE      CODE     ---       #40
      ---         BLOCKEND  ---      ---       LVL=0
      DR28        REGSYM    ---      FLOAT     Gyro_Z

      00FF3F5DH   BLOCK     CODE     ---       LVL=0
      DR24        REGSYM    ---      FLOAT     Speed
      DR28        REGSYM    ---      FLOAT     Gyro_Z
      00FF3F63H   BLOCK     CODE     NEAR LAB  LVL=1
      000006B0H   SYMBOL    EDATA    FLOAT     Delay_10Ms
      ---         BLOCKEND  ---      ---       LVL=1
      00FF3F5DH   LINE      CODE     ---       #126
      00FF3F63H   LINE      CODE     ---       #127
      00FF3F63H   LINE      CODE     ---       #132
      00FF3F72H   LINE      CODE     ---       #134
      00FF3F76H   LINE      CODE     ---       #135
      00FF3F7BH   LINE      CODE     ---       #136
      00FF3F8EH   LINE      CODE     ---       #137
      00FF3F99H   LINE      CODE     ---       #138
      00FF3F9CH   LINE      CODE     ---       #139
      00FF3F9CH   LINE      CODE     ---       #140
      00FF3FA5H   LINE      CODE     ---       #142
      00FF3FADH   LINE      CODE     ---       #143
      00FF3FC3H   LINE      CODE     ---       #144
      00FF3FD9H   LINE      CODE     ---       #146
      00FF3FF1H   LINE      CODE     ---       #147
      00FF401AH   LINE      CODE     ---       #148
      00FF4022H   LINE      CODE     ---       #149
      00FF4045H   LINE      CODE     ---       #150
L251 LINKER/LOCATER V4.66.93.0                                                        03/22/2024  17:44:58  PAGE 97


      00FF404FH   LINE      CODE     ---       #152
      00FF406FH   LINE      CODE     ---       #153
      00FF407BH   LINE      CODE     ---       #154
      00FF4097H   LINE      CODE     ---       #155
      00FF40A3H   LINE      CODE     ---       #156
      00FF40A5H   LINE      CODE     ---       #158
      00FF40B0H   LINE      CODE     ---       #160
      00FF40CEH   LINE      CODE     ---       #162
      00FF40DDH   LINE      CODE     ---       #164
      00FF40EAH   LINE      CODE     ---       #165
      00FF40FBH   LINE      CODE     ---       #167
      00FF40FFH   LINE      CODE     ---       #168
      00FF4103H   LINE      CODE     ---       #169
      00FF4107H   LINE      CODE     ---       #170
      00FF410BH   LINE      CODE     ---       #171
      00FF4110H   LINE      CODE     ---       #172
      00FF4110H   LINE      CODE     ---       #173
      00FF411AH   LINE      CODE     ---       #174
      00FF411AH   LINE      CODE     ---       #176
      00FF411AH   LINE      CODE     ---       #177
      ---         BLOCKEND  ---      ---       LVL=0

      ---         MODULE    ---      ---       Buzzer
      00FF650AH   PUBLIC    CODE     ---       Buzzer_Init
      000006FDH   PUBLIC    EDATA    WORD      x10_ms
      000000D0H   SFRSYM    DATA     BYTE      PSW
      000000B7H   SFRSYM    DATA     BYTE      IPH
      00000088H   SFRSYM    DATA     BYTE      TCON
      00000098H   SFRSYM    DATA     BYTE      SCON
      000000BCH   SFRSYM    DATA     BYTE      ADC_CONTR
      000000DEH   SFRSYM    DATA     BYTE      ADCCFG
      000000B8H   SFRSYM    DATA     BYTE      IP
      000000A8H   SFRSYM    DATA     BYTE      IE
      000000F8H   SFRSYM    DATA     BYTE      P7
      000000E8H   SFRSYM    DATA     BYTE      P6
      000000C8H   SFRSYM    DATA     BYTE      P5
      000000C0H   SFRSYM    DATA     BYTE      P4
      000000B0H   SFRSYM    DATA     BYTE      P3
      000000A0H   SFRSYM    DATA     BYTE      P2
      00000090H   SFRSYM    DATA     BYTE      P1
      00000080H   SFRSYM    DATA     BYTE      P0

      00FF650AH   BLOCK     CODE     ---       LVL=0
      00FF650AH   LINE      CODE     ---       #12
      00FF650AH   LINE      CODE     ---       #14
      ---         BLOCKEND  ---      ---       LVL=0

      ---         MODULE    ---      ---       Key
      00FF6300H   PUBLIC    CODE     ---       Key_Init
      00FF55F8H   PUBLIC    CODE     ---       GetKey_Value
      000006F6H   PUBLIC    EDATA    CHAR      Mode
      000006F7H   PUBLIC    EDATA    CHAR      clear_Num
      000000D0H   SFRSYM    DATA     BYTE      PSW
      000000B7H   SFRSYM    DATA     BYTE      IPH
      000000F8H.3 SFRSYM    DATA     BIT       P73
      000000F8H.2 SFRSYM    DATA     BIT       P72
      000000F8H.1 SFRSYM    DATA     BIT       P71
      000000F8H.0 SFRSYM    DATA     BIT       P70
      00000088H   SFRSYM    DATA     BYTE      TCON
      00000098H   SFRSYM    DATA     BYTE      SCON
      000000BCH   SFRSYM    DATA     BYTE      ADC_CONTR
      000000DEH   SFRSYM    DATA     BYTE      ADCCFG
      000000B8H   SFRSYM    DATA     BYTE      IP
      000000A8H   SFRSYM    DATA     BYTE      IE
      000000F8H   SFRSYM    DATA     BYTE      P7
L251 LINKER/LOCATER V4.66.93.0                                                        03/22/2024  17:44:58  PAGE 98


      000000E8H   SFRSYM    DATA     BYTE      P6
      000000C8H   SFRSYM    DATA     BYTE      P5
      000000C0H   SFRSYM    DATA     BYTE      P4
      000000B0H   SFRSYM    DATA     BYTE      P3
      000000A0H   SFRSYM    DATA     BYTE      P2
      00000090H   SFRSYM    DATA     BYTE      P1
      00000080H   SFRSYM    DATA     BYTE      P0

      00FF6300H   BLOCK     CODE     ---       LVL=0
      00FF6300H   LINE      CODE     ---       #12
      00FF6300H   LINE      CODE     ---       #15
      00FF6309H   LINE      CODE     ---       #16
      00FF6312H   LINE      CODE     ---       #17
      00FF631BH   LINE      CODE     ---       #18
      ---         BLOCKEND  ---      ---       LVL=0

      00FF55F8H   BLOCK     CODE     ---       LVL=0
      R7          REGSYM    ---      BYTE      mode
      00FF55FAH   BLOCK     CODE     NEAR LAB  LVL=1
      000006F8H   SYMBOL    EDATA    BYTE      key_up
      ---         BLOCKEND  ---      ---       LVL=1
      00FF55F8H   LINE      CODE     ---       #30
      00FF55FAH   LINE      CODE     ---       #31
      00FF55FAH   LINE      CODE     ---       #33
      00FF55FEH   LINE      CODE     ---       #34
      00FF5604H   LINE      CODE     ---       #35
      00FF5622H   LINE      CODE     ---       #38
      00FF5627H   LINE      CODE     ---       #39
      00FF562FH   LINE      CODE     ---       #40
      00FF5638H   LINE      CODE     ---       #41
      00FF5641H   LINE      CODE     ---       #42
      00FF564AH   LINE      CODE     ---       #43
      00FF564AH   LINE      CODE     ---       #44
      00FF5666H   LINE      CODE     ---       #45
      00FF566CH   LINE      CODE     ---       #46
      00FF566DH   LINE      CODE     ---       #47
      ---         BLOCKEND  ---      ---       LVL=0

      ---         MODULE    ---      ---       UI
      00FF6614H   PUBLIC    CODE     ---       ui_show
      00FF5DCEH   PUBLIC    CODE     ---       oled_all_static_state
      00FF469BH   PUBLIC    CODE     ---       value_name_init
      00FF5D8EH   PUBLIC    CODE     ---       oled_show
      00FF527EH   PUBLIC    CODE     ---       refresh_value
      00FF65DCH   PUBLIC    CODE     ---       ui_init
      00000008H   PUBLIC    EDATA    BYTE      page
      00000009H   PUBLIC    EDATA    ---       value
      00000079H   PUBLIC    EDATA    ---       value_name
      000000D0H   SFRSYM    DATA     BYTE      PSW
      000000B7H   SFRSYM    DATA     BYTE      IPH
      00000088H   SFRSYM    DATA     BYTE      TCON
      00000098H   SFRSYM    DATA     BYTE      SCON
      000000BCH   SFRSYM    DATA     BYTE      ADC_CONTR
      000000DEH   SFRSYM    DATA     BYTE      ADCCFG
      000000B8H   SFRSYM    DATA     BYTE      IP
      000000A8H   SFRSYM    DATA     BYTE      IE
      000000F8H   SFRSYM    DATA     BYTE      P7
      000000E8H   SFRSYM    DATA     BYTE      P6
      000000C8H   SFRSYM    DATA     BYTE      P5
      000000C0H   SFRSYM    DATA     BYTE      P4
      000000B0H   SFRSYM    DATA     BYTE      P3
      000000A0H   SFRSYM    DATA     BYTE      P2
      00000090H   SFRSYM    DATA     BYTE      P1
      00000080H   SFRSYM    DATA     BYTE      P0

L251 LINKER/LOCATER V4.66.93.0                                                        03/22/2024  17:44:58  PAGE 99


      00FF469BH   BLOCK     CODE     ---       LVL=0
      00FF469BH   LINE      CODE     ---       #25
      00FF469BH   LINE      CODE     ---       #28
      00FF46AAH   LINE      CODE     ---       #29
      00FF46B9H   LINE      CODE     ---       #30
      00FF46C8H   LINE      CODE     ---       #31
      00FF46D7H   LINE      CODE     ---       #35
      00FF46E6H   LINE      CODE     ---       #36
      00FF46F5H   LINE      CODE     ---       #37
      00FF4704H   LINE      CODE     ---       #38
      00FF4713H   LINE      CODE     ---       #42
      00FF4722H   LINE      CODE     ---       #43
      00FF4731H   LINE      CODE     ---       #44
      00FF4740H   LINE      CODE     ---       #45
      00FF474FH   LINE      CODE     ---       #48
      00FF475EH   LINE      CODE     ---       #49
      00FF476DH   LINE      CODE     ---       #50
      00FF477CH   LINE      CODE     ---       #51
      ---         BLOCKEND  ---      ---       LVL=0

      00FF527EH   BLOCK     CODE     ---       LVL=0
      00FF527EH   LINE      CODE     ---       #55
      00FF527EH   LINE      CODE     ---       #58
      00FF5286H   LINE      CODE     ---       #59
      00FF528EH   LINE      CODE     ---       #60
      00FF5296H   LINE      CODE     ---       #61
      00FF529EH   LINE      CODE     ---       #64
      00FF52A6H   LINE      CODE     ---       #65
      00FF52AEH   LINE      CODE     ---       #66
      00FF52B6H   LINE      CODE     ---       #67
      00FF52BEH   LINE      CODE     ---       #70
      00FF52C6H   LINE      CODE     ---       #71
      00FF52CEH   LINE      CODE     ---       #72
      00FF52DBH   LINE      CODE     ---       #73
      00FF52E7H   LINE      CODE     ---       #76
      00FF52EFH   LINE      CODE     ---       #77
      00FF52F7H   LINE      CODE     ---       #78
      00FF52FFH   LINE      CODE     ---       #79
      00FF5307H   LINE      CODE     ---       #81
      ---         BLOCKEND  ---      ---       LVL=0
      WR30        REGSYM    ---      INT       pages
      WR8         REGSYM    ---      INT       y
      DR24        REGSYM    ---      FLOAT     value_new

      00FF5DCEH   BLOCK     CODE     ---       LVL=0
      00FF5DD0H   BLOCK     CODE     NEAR LAB  LVL=1
      R14         REGSYM    ---      BYTE      i
      R15         REGSYM    ---      BYTE      j
      ---         BLOCKEND  ---      ---       LVL=1
      00FF5DCEH   LINE      CODE     ---       #91
      00FF5DD0H   LINE      CODE     ---       #92
      00FF5DD0H   LINE      CODE     ---       #100
      00FF5DD2H   LINE      CODE     ---       #102
      00FF5DD8H   LINE      CODE     ---       #103
      00FF5DF4H   LINE      CODE     ---       #104
      00FF5E03H   LINE      CODE     ---       #105
      00FF5E0AH   LINE      CODE     ---       #106
      ---         BLOCKEND  ---      ---       LVL=0

      00FF5D8EH   BLOCK     CODE     ---       LVL=0
      00FF5D90H   BLOCK     CODE     NEAR LAB  LVL=1
      R14         REGSYM    ---      BYTE      i
      R15         REGSYM    ---      BYTE      j
      ---         BLOCKEND  ---      ---       LVL=1
      00FF5D8EH   LINE      CODE     ---       #109
L251 LINKER/LOCATER V4.66.93.0                                                        03/22/2024  17:44:58  PAGE 100


      00FF5D90H   LINE      CODE     ---       #110
      00FF5D90H   LINE      CODE     ---       #112
      00FF5D93H   LINE      CODE     ---       #113
      00FF5D95H   LINE      CODE     ---       #115
      00FF5D9BH   LINE      CODE     ---       #116
      00FF5DC4H   LINE      CODE     ---       #117
      00FF5DCBH   LINE      CODE     ---       #118
      ---         BLOCKEND  ---      ---       LVL=0

      00FF65DCH   BLOCK     CODE     ---       LVL=0
      00FF65DCH   LINE      CODE     ---       #121
      00FF65DCH   LINE      CODE     ---       #123
      00FF65DFH   LINE      CODE     ---       #124
      00FF65E2H   LINE      CODE     ---       #125
      ---         BLOCKEND  ---      ---       LVL=0

      00FF6614H   BLOCK     CODE     ---       LVL=0
      00FF6614H   LINE      CODE     ---       #128
      00FF6614H   LINE      CODE     ---       #130
      00FF6617H   LINE      CODE     ---       #131
      ---         BLOCKEND  ---      ---       LVL=0

      ---         MODULE    ---      ---       ?C?FPADD
      00FF0EB4H   PUBLIC    CODE     ---       ?C?FPADD
      00FF0EB1H   PUBLIC    CODE     ---       ?C?FPSUB

      ---         MODULE    ---      ---       ?C?FPMUL
      00FF0F6CH   PUBLIC    CODE     ---       ?C?FPMUL

      ---         MODULE    ---      ---       ?C?FPDIV
      00FF100CH   PUBLIC    CODE     ---       ?C?FPDIV

      ---         MODULE    ---      ---       ?C?FPCMP
      00FF108FH   PUBLIC    CODE     ---       ?C?FPCMP
      00FF108DH   PUBLIC    CODE     ---       ?C?FPCMP3

      ---         MODULE    ---      ---       ?C?FPNEG
      00FF10D3H   PUBLIC    CODE     ---       ?C?FPNEG

      ---         MODULE    ---      ---       ?C?FCAST
      00FF10EBH   PUBLIC    CODE     NEAR LAB  ?C?FCASTC
      00FF10E6H   PUBLIC    CODE     NEAR LAB  ?C?FCASTI
      00FF10E1H   PUBLIC    CODE     NEAR LAB  ?C?FCASTL

      ---         MODULE    ---      ---       ?C?CASTF
      00FF111EH   PUBLIC    CODE     NEAR LAB  ?C?CASTF

      ---         MODULE    ---      ---       PRINTF
      00000444H   PUBLIC    EDATA    ---       ?PRINTF?BYTE
      00FF115BH   PUBLIC    CODE     NEAR LAB  PRINTF

      ---         MODULE    ---      ---       SQRT?_
      00FF1187H   PUBLIC    CODE     ---       SQRT?_

      ---         MODULE    ---      ---       ASIN?_
      00FF1217H   PUBLIC    CODE     ---       ASIN?_

      ---         MODULE    ---      ---       atan2
      00FF5CC3H   PUBLIC    CODE     ---       atan2?_

      ---         MODULE    ---      ---       ?C?FPGETOPN
      00FF1237H   PUBLIC    CODE     ---       ?C?FPGETOPN2
      00FF1274H   PUBLIC    CODE     ---       ?C?FPNANRESULT
      00FF127CH   PUBLIC    CODE     ---       ?C?FPOVERFLOW
      00FF1250H   PUBLIC    CODE     ---       ?C?FPRESULT
L251 LINKER/LOCATER V4.66.93.0                                                        03/22/2024  17:44:58  PAGE 101


      00FF1266H   PUBLIC    CODE     ---       ?C?FPRESULT2
      00FF1279H   PUBLIC    CODE     ---       ?C?FPUNDERFLOW

      ---         MODULE    ---      ---       ?C?PRNFMT
      00FF12B5H   PUBLIC    CODE     ---       ?C?PRNFMT

      ---         MODULE    ---      ---       ATAN?_
      00FF16E4H   PUBLIC    CODE     ---       ATAN?_

      ---         MODULE    ---      ---       ?C?FPCONVERT
      00FF17C4H   PUBLIC    CODE     ---       ?C?FPCONVERT
      00FF187CH   PUBLIC    CODE     ---       ?C?FPROUND

      ---         MODULE    ---      ---       ?C?FPSERIES
      00FF18BFH   PUBLIC    CODE     ---       ?C?FP2SERIES
      00FF18C8H   PUBLIC    CODE     ---       ?C?FPSERIES

      ---         MODULE    ---      ---       ?C?FTNPWR
      00FF191CH   PUBLIC    CODE     ---       ?C?FTNPWR

      ---         MODULE    ---      ---       ?C_START
      00FF0000H   PUBLIC    CODE     ---       ?C?STARTUP
      00FF0000H   PUBLIC    CODE     ---       ?C_STARTUP

      ---         MODULE    ---      ---       ?C?INITEDATA
      00FF5E20H   PUBLIC    CODE     ---       ?C?INITEDATA

      ---         MODULE    ---      ---       ?C?SIDIV
      00FF1953H   PUBLIC    CODE     ---       ?C?SIDIV

      ---         MODULE    ---      ---       ?C?LMUL
      00FF1985H   PUBLIC    CODE     ---       ?C?LMUL

      ---         MODULE    ---      ---       ?C?LIMUL
      00FF1996H   PUBLIC    CODE     ---       ?C?LIMUL

      ---         MODULE    ---      ---       ?C?ULDIV
      00FF19A1H   PUBLIC    CODE     NEAR LAB  ?C?ULDIV
      00FF199FH   PUBLIC    CODE     NEAR LAB  ?C?ULIDIV

      ---         MODULE    ---      ---       ?C?SLDIV
      00FF19F2H   PUBLIC    CODE     NEAR LAB  ?C?SLDIV

      ---         MODULE    ---      ---       ABS
      00FF652BH   PUBLIC    CODE     ---       abs?_

      ---         MODULE    ---      ---       STRCPY?_
      00FF64C2H   PUBLIC    CODE     NEAR LAB  STRCPY?_

      ---         MODULE    ---      ---       memcpy
      00FF62DBH   PUBLIC    CODE     ---       memcpy?_

      ---         MODULE    ---      ---       memset
      00FF6408H   PUBLIC    CODE     ---       memset?_

      ---         MODULE    ---      ---       ?C?INITEDATA_END
      00FF676FH   PUBLIC    HCONST   WORD      ?C?INITEDATA_END

Program Size: data=8.0 edata+hdata=2039 xdata=0 const=625 code=26113
L251 RUN COMPLETE.  0 WARNING(S),  0 ERROR(S)
