L251 LINKER/LOCATER V4.66.93.0                                                          02/27/2024  23:09:55  PAGE 1


L251 LINKER/LOCATER V4.66.93.0, INVOKED BY:
D:\KEIL5\KEIL5_MDK\KEIL5_MDK_32\C251\BIN\L251.EXE .\Out_File\board.obj, .\Out_File\common.obj, .\Out_File\SEEKFREE_PRINT
>> F.obj, .\Out_File\zf_adc.obj, .\Out_File\zf_delay.obj, .\Out_File\zf_eeprom.obj, .\Out_File\zf_exti.obj, .\Out_File\z
>> f_gpio.obj, .\Out_File\zf_iic.obj, .\Out_File\zf_nvic.obj, .\Out_File\zf_pwm.obj, .\Out_File\zf_spi.obj, .\Out_File\z
>> f_tim.obj, .\Out_File\zf_uart.obj, .\Out_File\zf_fifo.obj, .\Out_File\SEEKFREE_18TFT.obj, .\Out_File\SEEKFREE_ABSOLUT
>> E_ENCODER.obj, .\Out_File\SEEKFREE_FONT.obj, .\Out_File\SEEKFREE_IIC.obj, .\Out_File\SEEKFREE_MPU6050.obj, .\Out_File
>> \SEEKFREE_OLED.obj, .\Out_File\SEEKFREE_AT24C02.obj, .\Out_File\SEEKFREE_BLUETOOTH_CH9141.obj, .\Out_File\SEEKFREE_IC
>> M20602.obj, .\Out_File\SEEKFREE_IPS114_SPI.obj, .\Out_File\SEEKFREE_TSL1401.obj, .\Out_File\SEEKFREE_VIRSCO.obj, .\Ou
>> t_File\SEEKFREE_WIRELESS.obj, .\Out_File\SEEKFREE_WIRELESS_CH573.obj, .\Out_File\isr.obj, .\Out_File\main.obj, .\Out_
>> File\motor.obj, .\Out_File\ADC.obj, .\Out_File\PID.obj, .\Out_File\MPU6050.obj, .\Out_File\TOF.obj, .\Out_File\Elemen
>> t.obj TO .\Out_File\SEEKFREE PRINT (.\Out_File\SEEKFREE.map) CASE DISABLEWARNING (16, 57) REMOVEUNUSED CLASSES (EDATA
>>  (0X0-0XFFF), HDATA (0X0-0XFFF))


CPU MODE:     251 SOURCE MODE
INTR FRAME:   2 BYTES SAVED ON INTERRUPT
MEMORY MODEL: XSMALL WITH FLOATING POINT ARITHMETIC


INPUT MODULES INCLUDED:
  .\Out_File\board.obj (board)
         COMMENT TYPE 0: C251 V5.60.0
  .\Out_File\common.obj (common)
         COMMENT TYPE 0: C251 V5.60.0
  .\Out_File\SEEKFREE_PRINTF.obj (SEEKFREE_PRINTF)
         COMMENT TYPE 0: C251 V5.60.0
  .\Out_File\zf_adc.obj (zf_adc)
         COMMENT TYPE 0: C251 V5.60.0
  .\Out_File\zf_delay.obj (zf_delay)
         COMMENT TYPE 0: C251 V5.60.0
  .\Out_File\zf_eeprom.obj (zf_eeprom)
         COMMENT TYPE 0: C251 V5.60.0
  .\Out_File\zf_exti.obj (zf_exti)
         COMMENT TYPE 0: C251 V5.60.0
  .\Out_File\zf_gpio.obj (zf_gpio)
         COMMENT TYPE 0: C251 V5.60.0
  .\Out_File\zf_iic.obj (zf_iic)
         COMMENT TYPE 0: C251 V5.60.0
  .\Out_File\zf_nvic.obj (zf_nvic)
         COMMENT TYPE 0: C251 V5.60.0
  .\Out_File\zf_pwm.obj (zf_pwm)
         COMMENT TYPE 0: C251 V5.60.0
  .\Out_File\zf_spi.obj (zf_spi)
         COMMENT TYPE 0: C251 V5.60.0
  .\Out_File\zf_tim.obj (zf_tim)
         COMMENT TYPE 0: C251 V5.60.0
  .\Out_File\zf_uart.obj (zf_uart)
         COMMENT TYPE 0: C251 V5.60.0
  .\Out_File\zf_fifo.obj (zf_fifo)
         COMMENT TYPE 0: C251 V5.60.0
  .\Out_File\SEEKFREE_18TFT.obj (SEEKFREE_18TFT)
         COMMENT TYPE 0: C251 V5.60.0
  .\Out_File\SEEKFREE_ABSOLUTE_ENCODER.obj (SEEKFREE_ABSOLUTE_ENCODER)
         COMMENT TYPE 0: C251 V5.60.0
  .\Out_File\SEEKFREE_FONT.obj (SEEKFREE_FONT)
         COMMENT TYPE 0: C251 V5.60.0
  .\Out_File\SEEKFREE_IIC.obj (SEEKFREE_IIC)
         COMMENT TYPE 0: C251 V5.60.0
  .\Out_File\SEEKFREE_MPU6050.obj (SEEKFREE_MPU6050)
         COMMENT TYPE 0: C251 V5.60.0
  .\Out_File\SEEKFREE_OLED.obj (SEEKFREE_OLED)
         COMMENT TYPE 0: C251 V5.60.0
  .\Out_File\SEEKFREE_AT24C02.obj (SEEKFREE_AT24C02)
         COMMENT TYPE 0: C251 V5.60.0
  .\Out_File\SEEKFREE_BLUETOOTH_CH9141.obj (SEEKFREE_BLUETOOTH_CH9141)
         COMMENT TYPE 0: C251 V5.60.0
L251 LINKER/LOCATER V4.66.93.0                                                        02/27/2024  23:09:55  PAGE 2


  .\Out_File\SEEKFREE_ICM20602.obj (SEEKFREE_ICM20602)
         COMMENT TYPE 0: C251 V5.60.0
  .\Out_File\SEEKFREE_IPS114_SPI.obj (SEEKFREE_IPS114_SPI)
         COMMENT TYPE 0: C251 V5.60.0
  .\Out_File\SEEKFREE_TSL1401.obj (SEEKFREE_TSL1401)
         COMMENT TYPE 0: C251 V5.60.0
  .\Out_File\SEEKFREE_VIRSCO.obj (SEEKFREE_VIRSCO)
         COMMENT TYPE 0: C251 V5.60.0
  .\Out_File\SEEKFREE_WIRELESS.obj (SEEKFREE_WIRELESS)
         COMMENT TYPE 0: C251 V5.60.0
  .\Out_File\SEEKFREE_WIRELESS_CH573.obj (SEEKFREE_WIRELESS_CH573)
         COMMENT TYPE 0: C251 V5.60.0
  .\Out_File\isr.obj (isr)
         COMMENT TYPE 0: C251 V5.60.0
  .\Out_File\main.obj (main)
         COMMENT TYPE 0: C251 V5.60.0
  .\Out_File\motor.obj (motor)
         COMMENT TYPE 0: C251 V5.60.0
  .\Out_File\ADC.obj (ADC)
         COMMENT TYPE 0: C251 V5.60.0
  .\Out_File\PID.obj (PID)
         COMMENT TYPE 0: C251 V5.60.0
  .\Out_File\MPU6050.obj (MPU6050)
         COMMENT TYPE 0: C251 V5.60.0
  .\Out_File\TOF.obj (TOF)
         COMMENT TYPE 0: C251 V5.60.0
  .\Out_File\Element.obj (Element)
         COMMENT TYPE 0: C251 V5.60.0
  D:\KEIL5\KEIL5_MDK\KEIL5_MDK_32\C251\LIB\C2SFPXS.LIB (?C?FPADD)
         COMMENT TYPE 0: A251 V4.69.6.0
  D:\KEIL5\KEIL5_MDK\KEIL5_MDK_32\C251\LIB\C2SFPXS.LIB (?C?FPMUL)
         COMMENT TYPE 0: A251 V4.69.6.0
  D:\KEIL5\KEIL5_MDK\KEIL5_MDK_32\C251\LIB\C2SFPXS.LIB (?C?FPDIV)
         COMMENT TYPE 0: A251 V4.69.6.0
  D:\KEIL5\KEIL5_MDK\KEIL5_MDK_32\C251\LIB\C2SFPXS.LIB (?C?FPCMP)
         COMMENT TYPE 0: A251 V4.69.6.0
  D:\KEIL5\KEIL5_MDK\KEIL5_MDK_32\C251\LIB\C2SFPXS.LIB (?C?FPNEG)
         COMMENT TYPE 0: A251 V4.69.6.0
  D:\KEIL5\KEIL5_MDK\KEIL5_MDK_32\C251\LIB\C2SFPXS.LIB (?C?FCAST)
         COMMENT TYPE 0: A251 V4.69.6.0
  D:\KEIL5\KEIL5_MDK\KEIL5_MDK_32\C251\LIB\C2SFPXS.LIB (?C?CASTF)
         COMMENT TYPE 0: A251 V4.69.6.0
  D:\KEIL5\KEIL5_MDK\KEIL5_MDK_32\C251\LIB\C2SFPXS.LIB (PRINTF)
         COMMENT TYPE 0: A251 V4.69.6.0
  D:\KEIL5\KEIL5_MDK\KEIL5_MDK_32\C251\LIB\C2SFPXS.LIB (ASIN?_)
         COMMENT TYPE 0: A251 V4.69.6.0
  D:\KEIL5\KEIL5_MDK\KEIL5_MDK_32\C251\LIB\C2SFPXS.LIB (atan2)
         COMMENT TYPE 0: C251 V5.58.7
  D:\KEIL5\KEIL5_MDK\KEIL5_MDK_32\C251\LIB\C2SFPXS.LIB (?C?FPGETOPN)
         COMMENT TYPE 0: A251 V4.69.6.0
  D:\KEIL5\KEIL5_MDK\KEIL5_MDK_32\C251\LIB\C2SFPXS.LIB (?C?PRNFMT)
         COMMENT TYPE 0: A251 V4.69.6.0
  D:\KEIL5\KEIL5_MDK\KEIL5_MDK_32\C251\LIB\C2SFPXS.LIB (SQRT?_)
         COMMENT TYPE 0: A251 V4.69.6.0
  D:\KEIL5\KEIL5_MDK\KEIL5_MDK_32\C251\LIB\C2SFPXS.LIB (ATAN?_)
         COMMENT TYPE 0: A251 V4.69.6.0
  D:\KEIL5\KEIL5_MDK\KEIL5_MDK_32\C251\LIB\C2SFPXS.LIB (?C?FPCONVERT)
         COMMENT TYPE 0: A251 V4.69.6.0
  D:\KEIL5\KEIL5_MDK\KEIL5_MDK_32\C251\LIB\C2SFPXS.LIB (?C?FPSERIES)
         COMMENT TYPE 0: A251 V4.69.6.0
  D:\KEIL5\KEIL5_MDK\KEIL5_MDK_32\C251\LIB\C2SFPXS.LIB (?C?FTNPWR)
         COMMENT TYPE 0: A251 V4.69.6.0
  D:\KEIL5\KEIL5_MDK\KEIL5_MDK_32\C251\LIB\C2SXS.LIB (?C_START)
         COMMENT TYPE 0: A251 V4.69.6.0
  D:\KEIL5\KEIL5_MDK\KEIL5_MDK_32\C251\LIB\C2SXS.LIB (?C?INITEDATA)
L251 LINKER/LOCATER V4.66.93.0                                                        02/27/2024  23:09:55  PAGE 3


         COMMENT TYPE 0: A251 V4.69.6.0
  D:\KEIL5\KEIL5_MDK\KEIL5_MDK_32\C251\LIB\C2SXS.LIB (?C?SIDIV)
         COMMENT TYPE 0: A251 V4.69.6.0
  D:\KEIL5\KEIL5_MDK\KEIL5_MDK_32\C251\LIB\C2SXS.LIB (?C?LMUL)
         COMMENT TYPE 0: A251 V4.69.6.0
  D:\KEIL5\KEIL5_MDK\KEIL5_MDK_32\C251\LIB\C2SXS.LIB (?C?LIMUL)
         COMMENT TYPE 0: A251 V4.69.6.0
  D:\KEIL5\KEIL5_MDK\KEIL5_MDK_32\C251\LIB\C2SXS.LIB (?C?ULDIV)
         COMMENT TYPE 0: A251 V4.69.6.0
  D:\KEIL5\KEIL5_MDK\KEIL5_MDK_32\C251\LIB\C2SXS.LIB (?C?SLDIV)
         COMMENT TYPE 0: A251 V4.69.6.0
  D:\KEIL5\KEIL5_MDK\KEIL5_MDK_32\C251\LIB\C2SXS.LIB (memcpy)
         COMMENT TYPE 0: C251 V5.58.7
  D:\KEIL5\KEIL5_MDK\KEIL5_MDK_32\C251\LIB\C2SXS.LIB (memset)
         COMMENT TYPE 0: C251 V5.58.7
  D:\KEIL5\KEIL5_MDK\KEIL5_MDK_32\C251\LIB\C2SXS.LIB (?C?INITEDATA_END)
         COMMENT TYPE 0: A251 V4.69.6.0


ACTIVE MEMORY CLASSES OF MODULE:  .\Out_File\SEEKFREE (board)

BASE        START       END         USED      MEMORY CLASS
==========================================================
000000H     000000H     000FFFH     000628H   EDATA
000000H     000000H     000FFFH               HDATA
FF0000H     FF0000H     FFFFFFH     0063F9H   CODE
000000H     FF0000H     FFFFFFH     0001A6H   HCONST
FF0000H     FF0000H     FFFFFFH     000004H   CONST
000000H     000000H     00007FH     000008H   DATA


MEMORY MAP OF MODULE:  .\Out_File\SEEKFREE (board)


START     STOP      LENGTH    ALIGN  RELOC    MEMORY CLASS   SEGMENT NAME
=========================================================================
000000H   000007H   000008H   ---    AT..     DATA           "REG BANK 0"
000008H   000108H   000101H   BYTE   UNIT     EDATA          ?ED?SEEKFREE_TSL1401
000109H   0001D5H   0000CDH   BYTE   UNIT     EDATA          ?ED?ZF_UART
0001D6H   00026CH   000097H   BYTE   UNIT     EDATA          _EDATA_GROUP_
00026DH   0002E0H   000074H   BYTE   UNIT     EDATA          ?ED?MOTOR
0002E1H   00034BH   00006BH   BYTE   UNIT     EDATA          ?ED?MPU6050
00034CH   0003A0H   000055H   BYTE   UNIT     EDATA          ?ED?SEEKFREE_BLUETOOTH_CH9141
0003A1H   0003F5H   000055H   BYTE   UNIT     EDATA          ?ED?SEEKFREE_WIRELESS
0003F6H   00044AH   000055H   BYTE   UNIT     EDATA          ?ED?SEEKFREE_WIRELESS_CH573
00044BH   00049AH   000050H   BYTE   UNIT     EDATA          ?ED?ADC
00049BH   0004D0H   000036H   BYTE   UNIT     EDATA          ?ED?MAIN
0004D1H   0004F7H   000027H   BYTE   UNIT     EDATA          ?ED?ELEMENT
0004F8H   000503H   00000CH   BYTE   UNIT     EDATA          ?ED?SEEKFREE_MPU6050
000504H   00050FH   00000CH   BYTE   UNIT     EDATA          ?ED?SEEKFREE_ICM20602
000510H   000519H   00000AH   BYTE   UNIT     EDATA          ?ED?SEEKFREE_VIRSCO
00051AH   000520H   000007H   BYTE   UNIT     EDATA          ?ED?SEEKFREE_IIC
000521H   000524H   000004H   BYTE   UNIT     EDATA          ?ED?BOARD
000525H   000528H   000004H   BYTE   UNIT     EDATA          ?ED?ZF_DELAY
000529H   00052BH   000003H   BYTE   UNIT     EDATA          ?ED?TOF
00052CH   00052DH   000002H   BYTE   UNIT     EDATA          ?ED?COMMON
00052EH   00052FH   000002H   BYTE   UNIT     EDATA          ?ED?ISR
000530H   00062FH   000100H   BYTE   UNIT     EDATA          ?STACK
000630H   FEFFFFH   FEF9D0H   ---    ---      **GAP**
FF0000H   FF0002H   000003H   ---    OFFS..   CODE           ?CO?start251?4
FF0003H   FF0005H   000003H   ---    OFFS..   CODE           ?PR?IV?0
FF0006H   FF000AH   000005H   BYTE   INSEG    CODE           ?PR?I2C_SDA_READ?MPU6050
FF000BH   FF000DH   000003H   ---    OFFS..   CODE           ?PR?IV?1
FF000EH   FF0010H   000003H   BYTE   INSEG    CODE           ?PR?ENABLEGLOBALIRQ?BOARD
FF0011H   FF0011H   000001H   BYTE   INSEG    CODE           ?PR?INT1_ISR?ISR
L251 LINKER/LOCATER V4.66.93.0                                                        02/27/2024  23:09:55  PAGE 4


FF0012H   FF0012H   000001H   BYTE   INSEG    CODE           ?PR?TM0_ISR?ISR
FF0013H   FF0015H   000003H   ---    OFFS..   CODE           ?PR?IV?2
FF0016H   FF0018H   000003H   BYTE   INSEG    CODE           ?PR?DISABLEGLOBALIRQ?BOARD
FF0019H   FF0019H   000001H   BYTE   INSEG    CODE           ?PR?TM1_ISR?ISR
FF001AH   FF001AH   000001H   ---    ---      **GAP**
FF001BH   FF001DH   000003H   ---    OFFS..   CODE           ?PR?IV?3
FF001EH   FF0020H   000003H   BYTE   INSEG    CODE           ?PR?I2C_SDA_H?MPU6050
FF0021H   FF0022H   000002H   ---    ---      **GAP**
FF0023H   FF0025H   000003H   ---    OFFS..   CODE           ?PR?IV?4
FF0026H   FF0042H   00001DH   BYTE   INSEG    CODE           ?PR?GETFIFOCOUNT?MPU6050
FF0043H   FF0045H   000003H   ---    OFFS..   CODE           ?PR?IV?8
FF0046H   FF0052H   00000DH   BYTE   INSEG    CODE           ?PR?MPU_READ_BITS?MPU6050
FF0053H   FF0055H   000003H   ---    OFFS..   CODE           ?PR?IV?10
FF0056H   FF0058H   000003H   BYTE   INSEG    CODE           ?PR?I2C_SDA_L?MPU6050
FF0059H   FF005AH   000002H   ---    ---      **GAP**
FF005BH   FF005DH   000003H   ---    OFFS..   CODE           ?PR?IV?11
FF005EH   FF0060H   000003H   BYTE   INSEG    CODE           ?PR?I2C_SCL_H?MPU6050
FF0061H   FF0062H   000002H   ---    ---      **GAP**
FF0063H   FF0065H   000003H   ---    OFFS..   CODE           ?PR?IV?12
FF0066H   FF0081H   00001CH   BYTE   INSEG    CODE           ?PR?VL53L0X_SCCB_WAITACK?TOF
FF0082H   FF0082H   000001H   ---    ---      **GAP**
FF0083H   FF0085H   000003H   ---    OFFS..   CODE           ?PR?IV?16
FF0086H   FF0088H   000003H   BYTE   INSEG    CODE           ?PR?I2C_SCL_L?MPU6050
FF0089H   FF008AH   000002H   ---    ---      **GAP**
FF008BH   FF008DH   000003H   ---    OFFS..   CODE           ?PR?IV?17
FF008EH   FF0091H   000004H   BYTE   UNIT     CONST          ?CO?PRINTF
FF0092H   FF0092H   000001H   ---    ---      **GAP**
FF0093H   FF0095H   000003H   ---    OFFS..   CODE           ?PR?IV?18
FF0096H   FF009AH   000005H   ---    ---      **GAP**
FF009BH   FF009DH   000003H   ---    OFFS..   CODE           ?PR?IV?19
FF009EH   FF00A2H   000005H   ---    ---      **GAP**
FF00A3H   FF00A5H   000003H   ---    OFFS..   CODE           ?PR?IV?20
FF00A6H   FF0EADH   000E08H   BYTE   UNIT     CODE           ?CO?SEEKFREE_FONT
FF0EAEH   FF1A25H   000B78H   BYTE   UNIT     CODE           ?C?LIB_CODE
FF1A26H   FF229DH   000878H   BYTE   UNIT     CODE           ?CO?MPU6050
FF229EH   FF28B8H   00061BH   BYTE   INSEG    CODE           ?PR?VL53L0X_INIT?TOF
FF28B9H   FF2DB2H   0004FAH   BYTE   INSEG    CODE           ?PR?ZF_SPRINTF?SEEKFREE_PRINTF
FF2DB3H   FF31A9H   0003F7H   BYTE   INSEG    CODE           ?PR?GPIO_MODE?ZF_GPIO
FF31AAH   FF351DH   000374H   BYTE   INSEG    CODE           ?PR?MAIN?MAIN
FF351EH   FF3801H   0002E4H   BYTE   INSEG    CODE           ?PR?PWM_INIT?ZF_PWM
FF3802H   FF3AA2H   0002A1H   BYTE   INSEG    CODE           ?PR?PWM_SET_GPIO?ZF_PWM
FF3AA3H   FF3D3CH   00029AH   BYTE   INSEG    CODE           ?PR?MPU6050_REFRESH_DMP?MPU6050
FF3D3DH   FF3F68H   00022CH   BYTE   INSEG    CODE           ?PR?DMPINITIALIZE?MPU6050
FF3F69H   FF4127H   0001BFH   BYTE   INSEG    CODE           ?PR?UART_INIT?ZF_UART
FF4128H   FF42A3H   00017CH   BYTE   INSEG    CODE           ?PR?VL53L0X_GET_SPAD_INFO?TOF
FF42A4H   FF43EEH   00014BH   BYTE   INSEG    CODE           ?PR?ADC_GETVALUE?ADC
FF43EFH   FF4518H   00012AH   BYTE   INSEG    CODE           ?PR?ELEM_CIRCLE_L?ELEMENT
FF4519H   FF4642H   00012AH   BYTE   INSEG    CODE           ?PR?ELEM_CIRCLE_R?ELEMENT
FF4643H   FF473AH   0000F8H   BYTE   INSEG    CODE           ?PR?OLED_PRINTF_FLOAT?SEEKFREE_OLED
FF473BH   FF4831H   0000F7H   BYTE   INSEG    CODE           ?PR?INIT_ALL?MAIN
FF4832H   FF4919H   0000E8H   BYTE   INSEG    CODE           ?PR?OLED_P8X16STR?SEEKFREE_OLED
FF491AH   FF49FDH   0000E4H   BYTE   INSEG    CODE           ?PR?VL53L0X_SET_MEASUREMENT_TIMING_BUDGET?TOF
FF49FEH   FF4ADDH   0000E0H   BYTE   INSEG    CODE           ?PR?FIFO_WRITE_BUFFER?ZF_FIFO
FF4ADEH   FF4BB8H   0000DBH   BYTE   INSEG    CODE           ?PR?VL53L0X_GET_SEQUENCE_STEP_TIMEOUTS?TOF
FF4BB9H   FF4C91H   0000D9H   BYTE   INSEG    CODE           ?PR?ELEM_BARRIER?ELEMENT
FF4C92H   FF4D58H   0000C7H   BYTE   INSEG    CODE           ?PR?PID_CALCULATE?PID
FF4D59H   FF4E10H   0000B8H   BYTE   INSEG    CODE           ?PR?PWM_DUTY?ZF_PWM
FF4E11H   FF4EB6H   0000A6H   BYTE   INSEG    CODE           ?PR?LOADCFGUPD?MPU6050
FF4EB7H   FF4F59H   0000A3H   BYTE   INSEG    CODE           ?PR?OLED_INIT?SEEKFREE_OLED
FF4F5AH   FF4FF1H   000098H   BYTE   INSEG    CODE           ?PR?GET_RATIO?MAIN
FF4FF2H   FF5085H   000094H   BYTE   INSEG    CODE           ?PR?PIT_TIMER_MS?ZF_TIM
FF5086H   FF5117H   000092H   BYTE   INSEG    CODE           ?PR?NUMBER_CONVERSION_ASCII?SEEKFREE_PRINTF
FF5118H   FF519DH   000086H   BYTE   INSEG    CODE           ?PR?RIGHT_SETSPEED?MOTOR
FF519EH   FF5223H   000086H   BYTE   INSEG    CODE           ?PR?LEFT_SETSPEED?MOTOR
FF5224H   FF52A4H   000081H   BYTE   INSEG    CODE           ?PR?BOARD_INIT?BOARD
L251 LINKER/LOCATER V4.66.93.0                                                        02/27/2024  23:09:55  PAGE 5


FF52A5H   FF5325H   000081H   BYTE   INSEG    CODE           ?PR?LOADFIRMWARE?MPU6050
FF5326H   FF53A2H   00007DH   BYTE   INSEG    CODE           ?PR?I2C_WRITE_BITS?MPU6050
FF53A3H   FF541CH   00007AH   BYTE   INSEG    CODE           ?PR?I2C_MEM_READ?MPU6050
FF541DH   FF5493H   000077H   BYTE   INSEG    CODE           ?PR?VL53L0X_PERFORM_SINGLE_REF_CALIBRATION?TOF
FF5494H   FF5506H   000073H   BYTE   INSEG    CODE           ?PR?VL53L0X_GET_MEASUREMENT_TIMING_BUDGET?TOF
FF5507H   FF5571H   00006BH   BYTE   INSEG    CODE           ?PR?I2C_READ_BITS?MPU6050
FF5572H   FF55DAH   000069H   BYTE   INSEG    CODE           ?PR?UART4_ISR?ISR
FF55DBH   FF5642H   000068H   BYTE   INSEG    CODE           ?PR?XDMPUPDATES?MPU6050
FF5643H   FF56A5H   000063H   BYTE   INSEG    CODE           ?PR?GET_SPEED?MOTOR
FF56A6H   FF5704H   00005FH   BYTE   INSEG    CODE           ?PR?I2C_MEM_WRITE?MPU6050
FF5705H   FF5762H   00005EH   BYTE   INSEG    CODE           ?PR?ADC_INIT?ZF_ADC
FF5763H   FF57BFH   00005DH   BYTE   INSEG    CODE           ?PR?VL53L0X_GET_DISTANCE?TOF
FF57C0H   FF581BH   00005CH   BYTE   INSEG    CODE           ?PR?I2C_WRITE_BIT?MPU6050
FF581CH   FF5873H   000058H   BYTE   INSEG    CODE           ?PR?MPU_GET_GYROSCOPE?MPU6050
FF5874H   FF58CBH   000058H   BYTE   INSEG    CODE           ?PR?VL53L0X_GET_SEQUENCE_STEP_ENABLES?TOF
FF58CCH   FF591FH   000054H   BYTE   INSEG    CODE           ?PR?UART_PUTCHAR?ZF_UART
FF5920H   FF5973H   000054H   BYTE   INSEG    CODE           ?PR?PID_INIT?PID
FF5974H   FF59C7H   000054H   BYTE   INSEG    CODE           ?PR?VL53L0X_SIMIIC_READ_REGS?TOF
FF59C8H   FF5A1BH   000054H   BYTE   INSEG    CODE           ?PR?VL53L0X_SIMIIC_READ_REGS_1?TOF
FF5A1CH   FF5A6CH   000051H   BYTE   INSEG    CODE           ?PR?CTIMER_COUNT_CLEAN?ZF_TIM
FF5A6DH   FF5AB9H   00004DH   BYTE   INSEG    CODE           ?PR?CTIMER_COUNT_READ?ZF_TIM
FF5ABAH   FF5B06H   00004DH   BYTE   INSEG    CODE           ?PR?VL53L0X_GET_VCSEL_PULSE_PERIOD?TOF
FF5B07H   FF5B50H   00004AH   BYTE   INSEG    CODE           ?PR?CTIMER_COUNT_INIT?ZF_TIM
FF5B51H   FF5B95H   000045H   BYTE   INSEG    CODE           ?PR?ELEM_UP_DOWN?ELEMENT
FF5B96H   FF5BDAH   000045H   BYTE   INSEG    CODE           ?PR?ATAN2?_?ATAN2
FF5BDBH   FF5C1EH   000044H   BYTE   INSEG    CODE           ?PR?MOTOR_INIT?MOTOR
FF5C1FH   FF5C60H   000042H   BYTE   INSEG    CODE           ?PR?FIFO_HEAD_OFFSET?ZF_FIFO
FF5C61H   FF5C73H   000013H   BYTE   UNIT     CODE           ?C_C51STARTUP
FF5C74H   FF5C9CH   000029H   BYTE   UNIT     CODE           ?C_C51STARTUP?2
FF5C9DH   FF5C9FH   000003H   BYTE   UNIT     CODE           ?C_C51STARTUP?3
FF5CA0H   FF5CDDH   00003EH   BYTE   INSEG    CODE           ?PR?PRINTF_REVERSE_ORDER?SEEKFREE_PRINTF
FF5CDEH   FF5D1BH   00003EH   BYTE   INSEG    CODE           ?PR?VL53L0X_TIMEOUT_MCLKS_TO_MICROSECONDS?TOF
FF5D1CH   FF5D58H   00003DH   BYTE   INSEG    CODE           ?PR?UART1_ISR?ISR
FF5D59H   FF5D94H   00003CH   BYTE   INSEG    CODE           ?PR?VL53L0X_TIMEOUT_MICROSECONDS_TO_MCLKS?TOF
FF5D95H   FF5DCFH   00003BH   BYTE   INSEG    CODE           ?PR?VL53L0X_READ_CH?TOF
FF5DD0H   FF5E08H   000039H   BYTE   INSEG    CODE           ?PR?DELAY_INIT?ZF_DELAY
FF5E09H   FF5E3FH   000037H   BYTE   INSEG    CODE           ?PR?I2C_READ_BYTE?MPU6050
FF5E40H   FF5E75H   000036H   BYTE   INSEG    CODE           ?PR?TM4_ISR?ISR
FF5E76H   FF5EAAH   000035H   BYTE   INSEG    CODE           ?PR?VL53L0X_SIMIIC_WRITE_DATS?TOF
FF5EABH   FF5EDEH   000034H   BYTE   INSEG    CODE           ?PR?VL53L0X_ENCODE_TIMEOUT?TOF
FF5EDFH   FF5F11H   000033H   BYTE   INSEG    CODE           ?PR?OLED_FILL?SEEKFREE_OLED
FF5F12H   FF5F44H   000033H   BYTE   INSEG    CODE           ?PR?I2C_READ_BIT?MPU6050
FF5F45H   FF5F77H   000033H   BYTE   INSEG    CODE           ?PR?I2C_WRITE_BYTE?MPU6050
FF5F78H   FF5FAAH   000033H   BYTE   INSEG    CODE           ?PR?INITMPU6050?MPU6050
FF5FABH   FF5FD8H   00002EH   BYTE   INSEG    CODE           ?PR?ADC_ONCE?ZF_ADC
FF5FD9H   FF6006H   00002EH   BYTE   INSEG    CODE           ?PR?VL53L0X_SEND_CH?TOF
FF6007H   FF6031H   00002BH   BYTE   INSEG    CODE           ?PR?LIMIT_OUT?MOTOR
FF6032H   FF605CH   00002BH   BYTE   INSEG    CODE           ?PR?ADC_INITALL?ADC
FF605DH   FF6086H   00002AH   BYTE   INSEG    CODE           ?PR?I2C_WAIT_ACK?MPU6050
FF6087H   FF60AFH   000029H   BYTE   INSEG    CODE           ?PR?OLED_WRCMD?SEEKFREE_OLED
FF60B0H   FF60D8H   000029H   BYTE   INSEG    CODE           ?PR?OLED_WRDAT?SEEKFREE_OLED
FF60D9H   FF6101H   000029H   BYTE   INSEG    CODE           ?PR?VL53L0X_SIMIIC_READ_REG?TOF
FF6102H   FF6128H   000027H   BYTE   INSEG    CODE           ?PR?VL53L0X_SET_SIGNAL_RATE_LIMIT?TOF
FF6129H   FF614DH   000025H   BYTE   INSEG    CODE           ?PR?MEMCPY?_?MEMCPY
FF614EH   FF6170H   000023H   BYTE   INSEG    CODE           ?PR?OLED_SET_POS?SEEKFREE_OLED
FF6171H   FF6193H   000023H   BYTE   INSEG    CODE           ?PR?MPU6050_DMP_INIT?MPU6050
FF6194H   FF61B5H   000022H   BYTE   INSEG    CODE           ?PR?VL53L0X_SIMIIC_WRITE_REG?TOF
FF61B6H   FF61D5H   000020H   BYTE   INSEG    CODE           ?PR?GETDEVICEID?MPU6050
FF61D6H   FF61F5H   000020H   BYTE   INSEG    CODE           ?PR?VL53L0X_SIMIIC_SENDACK?TOF
FF61F6H   FF6213H   00001EH   BYTE   INSEG    CODE           ?PR?UART2_ISR?ISR
FF6214H   FF6231H   00001EH   BYTE   INSEG    CODE           ?PR?UART3_ISR?ISR
FF6232H   FF624BH   00001AH   BYTE   INSEG    CODE           ?PR?MEMSET?_?MEMSET
FF624CH   FF6264H   000019H   BYTE   INSEG    CODE           ?PR?BLUETOOTH_CH9141_UART_CALLBACK?SEEKFREE_BLUETOOTH_CH91
                                                             -41
FF6265H   FF627DH   000019H   BYTE   INSEG    CODE           ?PR?WIRELESS_UART_CALLBACK?SEEKFREE_WIRELESS
L251 LINKER/LOCATER V4.66.93.0                                                        02/27/2024  23:09:55  PAGE 6


FF627EH   FF6296H   000019H   BYTE   INSEG    CODE           ?PR?WIRELESS_CH573_CALLBACK?SEEKFREE_WIRELESS_CH573
FF6297H   FF62ADH   000017H   BYTE   INSEG    CODE           ?PR?DELAY_MS?ZF_DELAY
FF62AEH   FF62C2H   000015H   BYTE   INSEG    CODE           ?PR?I2C_ACK?MPU6050
FF62C3H   FF62D7H   000015H   BYTE   INSEG    CODE           ?PR?MPU_WRITE_BYTE?MPU6050
FF62D8H   FF62EBH   000014H   BYTE   INSEG    CODE           ?PR?MPU_DELAY_MS?MPU6050
FF62ECH   FF62FDH   000012H   BYTE   INSEG    CODE           ?PR?I2C_NACK?MPU6050
FF62FEH   FF630FH   000012H   BYTE   INSEG    CODE           ?PR?I2C_START?MPU6050
FF6310H   FF6320H   000011H   BYTE   INSEG    CODE           ?PR?NUM2ABS?MOTOR
FF6321H   FF6331H   000011H   BYTE   INSEG    CODE           ?PR?VL53L0X_SIMIIC_STOP?TOF
FF6332H   FF6341H   000010H   BYTE   INSEG    CODE           ?PR?VL53L0X_DECODE_TIMEOUT?TOF
FF6342H   FF6350H   00000FH   BYTE   INSEG    CODE           ?PR?I2C_STOP?MPU6050
FF6351H   FF635FH   00000FH   BYTE   INSEG    CODE           ?PR?READDMP?MPU6050
FF6360H   FF636EH   00000FH   BYTE   INSEG    CODE           ?PR?VL53L0X_SIMIIC_START?TOF
FF636FH   FF637CH   00000EH   BYTE   INSEG    CODE           ?PR?PUTCHAR?BOARD
FF637DH   FF6389H   00000DH   BYTE   INSEG    CODE           ?PR?MPU_WRITE_BITS?MPU6050
FF638AH   FF6396H   00000DH   BYTE   INSEG    CODE           ?PR?MPU_WRITE_BIT?MPU6050
FF6397H   FF63A3H   00000DH   BYTE   INSEG    CODE           ?PR?VL53L0X_SIMIIC_DELAY?TOF
FF63A4H   FF63AEH   00000BH   BYTE   INSEG    CODE           ?PR?MPU_READ_LEN?MPU6050
FF63AFH   FF63B9H   00000BH   BYTE   INSEG    CODE           ?PR?I2C_TIMEOUT_DELAY?MPU6050
FF63BAH   FF63C4H   00000BH   BYTE   INSEG    CODE           ?PR?MPU_WRITE_LEN?MPU6050
FF63C5H   FF63CFH   00000BH   BYTE   INSEG    CODE           ?PR?I2C_DELAY?MPU6050
FF63D0H   FF63D9H   00000AH   BYTE   INSEG    CODE           ?PR?DELAY1MS?MPU6050
FF63DAH   FF63E2H   000009H   BYTE   INSEG    CODE           ?PR?MPU_READ_BIT?MPU6050
FF63E3H   FF63EAH   000008H   BYTE   INSEG    CODE           ?PR?INT2_ISR?ISR
FF63EBH   FF63F2H   000008H   BYTE   INSEG    CODE           ?PR?INT3_ISR?ISR
FF63F3H   FF63FAH   000008H   BYTE   INSEG    CODE           ?PR?INT4_ISR?ISR
FF63FBH   FF6402H   000008H   BYTE   INSEG    CODE           ?PR?TM2_ISR?ISR
FF6403H   FF640AH   000008H   BYTE   INSEG    CODE           ?PR?TM3_ISR?ISR
FF640BH   FF6411H   000007H   BYTE   INSEG    CODE           ?PR?INT0_ISR?ISR
FF6412H   FF6533H   000122H   BYTE   UNIT     HCONST         ?C_INITEDATA
FF6534H   FF658BH   000058H   BYTE   UNIT     HCONST         ?HC?ZF_PWM
FF658CH   FF65A1H   000016H   BYTE   UNIT     HCONST         ?HC?TOF
FF65A2H   FF65ABH   00000AH   BYTE   UNIT     HCONST         ?HC?SEEKFREE_OLED
FF65ACH   FF65B1H   000006H   BYTE   UNIT     HCONST         ?HC?SEEKFREE_18TFT
FF65B2H   FF65B7H   000006H   BYTE   UNIT     HCONST         ?HC?SEEKFREE_IPS114_SPI

* * * * * * * * *   R E M O V E D     S E G M E N T S   * * * * * * * *
   *DEL*:           000019H   BYTE   INSEG    CODE           ?PR?DELAY_US?ZF_DELAY
   *DEL*:           000016H   BYTE   INSEG    CODE           ?PR?IAP_SET_TPS?ZF_EEPROM
   *DEL*:           000015H   BYTE   INSEG    CODE           ?PR?EEPROM_TRIG?ZF_EEPROM
   *DEL*:           00000EH   BYTE   INSEG    CODE           ?PR?IAP_ERASE_PAGE?ZF_EEPROM
   *DEL*:           000004H   BYTE   INSEG    CODE           ?PR?IAP_IDLE?ZF_EEPROM
   *DEL*:           000047H   BYTE   INSEG    CODE           ?PR?IAP_READ_BYTES?ZF_EEPROM
   *DEL*:           00006DH   BYTE   INSEG    CODE           ?PR?EXTERN_IAP_WRITE_BYTES?ZF_EEPROM
   *DEL*:           000006H   BYTE   INSEG    CODE           ?PR?IAP_INIT?ZF_EEPROM
   *DEL*:           000047H   BYTE   INSEG    CODE           ?PR?IAP_WRITE_BYTES?ZF_EEPROM
   *DEL*:           00000CH   BYTE   INSEG    CODE           ?PR?IAP_GET_CMD_STATE?ZF_EEPROM
   *DEL*:           000004H   BYTE   UNIT     EDATA          ?ED?IAP_READ_BYTES?ZF_EEPROM
   *DEL*:           000004H   BYTE   UNIT     EDATA          ?ED?IAP_WRITE_BYTES?ZF_EEPROM
   *DEL*:           000204H   BYTE   UNIT     EDATA          ?ED?EXTERN_IAP_WRITE_BYTES?ZF_EEPROM
   *DEL*:           00003EH   BYTE   INSEG    CODE           ?PR?EXIT_INIT?ZF_EXTI
   *DEL*:           00006EH   BYTE   INSEG    CODE           ?PR?GPIO_PULL_SET?ZF_GPIO
   *DEL*:           000017H   BYTE   INSEG    CODE           ?PR?SEND_DATA?ZF_IIC
   *DEL*:           00002FH   BYTE   INSEG    CODE           ?PR?IIC_CHANGE_PIN?ZF_IIC
   *DEL*:           00001CH   BYTE   INSEG    CODE           ?PR?RECV_DATA?ZF_IIC
   *DEL*:           000010H   BYTE   INSEG    CODE           ?PR?START?ZF_IIC
   *DEL*:           000045H   BYTE   INSEG    CODE           ?PR?WAIT?ZF_IIC
   *DEL*:           000018H   BYTE   INSEG    CODE           ?PR?SEND_ACK?ZF_IIC
   *DEL*:           000010H   BYTE   INSEG    CODE           ?PR?RECV_ACK?ZF_IIC
   *DEL*:           000010H   BYTE   INSEG    CODE           ?PR?STOP?ZF_IIC
   *DEL*:           000019H   BYTE   INSEG    CODE           ?PR?SEND_NAK?ZF_IIC
   *DEL*:           00005EH   BYTE   INSEG    CODE           ?PR?IIC_INIT?ZF_IIC
   *DEL*:           000075H   BYTE   INSEG    CODE           ?PR?IIC_READ_REG?ZF_IIC
   *DEL*:           00009CH   BYTE   INSEG    CODE           ?PR?IIC_READ_REG_BYTES?ZF_IIC
   *DEL*:           000060H   BYTE   INSEG    CODE           ?PR?IIC_WRITE_REG?ZF_IIC
L251 LINKER/LOCATER V4.66.93.0                                                        02/27/2024  23:09:55  PAGE 7


   *DEL*:           000015H   BYTE   INSEG    CODE           ?PR?IIC_DELAY_US?ZF_IIC
   *DEL*:           000004H   BYTE   UNIT     EDATA          ?ED?IIC_INIT?ZF_IIC
   *DEL*:           000004H   BYTE   UNIT     EDATA          ?ED?IIC_READ_REG?ZF_IIC
   *DEL*:           000003H   BYTE   UNIT     EDATA          ?ED?IIC_READ_REG_BYTES?ZF_IIC
   *DEL*:           00006CH   BYTE   INSEG    CODE           ?PR?NVIC_SETPRIORITY?ZF_NVIC
   *DEL*:           000121H   BYTE   INSEG    CODE           ?PR?PWM_FREQ?ZF_PWM
   *DEL*:           000004H   BYTE   UNIT     EDATA          ?ED?PWM_FREQ?ZF_PWM
   *DEL*:           00001DH   BYTE   INSEG    CODE           ?PR?SPI_CHANGE_MODE?ZF_SPI
   *DEL*:           0000AEH   BYTE   INSEG    CODE           ?PR?SPI_CHANGE_PIN?ZF_SPI
   *DEL*:           0000DFH   BYTE   INSEG    CODE           ?PR?SPI_INIT?ZF_SPI
   *DEL*:           00000EH   BYTE   INSEG    CODE           ?PR?SPI_MOSI?ZF_SPI
   *DEL*:           000004H   BYTE   UNIT     EDATA          ?ED?SPI_INIT?ZF_SPI
   *DEL*:           00002DH   BYTE   INSEG    CODE           ?PR?UART_PUTBUFF?ZF_UART
   *DEL*:           00001EH   BYTE   INSEG    CODE           ?PR?UART_PUTSTR?ZF_UART
   *DEL*:           000004H   BYTE   UNIT     EDATA          ?ED?UART_PUTBUFF?ZF_UART
   *DEL*:           000002H   BYTE   UNIT     EDATA          ?ED?UART_PUTSTR?ZF_UART
   *DEL*:           000113H   BYTE   INSEG    CODE           ?PR?FIFO_READ_BUFFER?ZF_FIFO
   *DEL*:           000025H   BYTE   INSEG    CODE           ?PR?FIFO_CLEAR?ZF_FIFO
   *DEL*:           000046H   BYTE   INSEG    CODE           ?PR?FIFO_END_OFFSET?ZF_FIFO
   *DEL*:           000015H   BYTE   INSEG    CODE           ?PR?FIFO_USED?ZF_FIFO
   *DEL*:           000043H   BYTE   INSEG    CODE           ?PR?FIFO_INIT?ZF_FIFO
   *DEL*:           000004H   BYTE   UNIT     EDATA          ?ED?FIFO_INIT?ZF_FIFO
   *DEL*:           00000FH   BYTE   UNIT     EDATA          ?ED?FIFO_READ_BUFFER?ZF_FIFO
   *DEL*:           00008BH   BYTE   INSEG    CODE           ?PR?LCD_SHOWUINT16?SEEKFREE_18TFT
   *DEL*:           000082H   BYTE   INSEG    CODE           ?PR?LCD_SHOWINT32_SIMSPI?SEEKFREE_18TFT
   *DEL*:           0000DDH   BYTE   INSEG    CODE           ?PR?LCD_SHOWINT16_SIMSPI?SEEKFREE_18TFT
   *DEL*:           000082H   BYTE   INSEG    CODE           ?PR?LCD_SHOWINT32?SEEKFREE_18TFT
   *DEL*:           0000DDH   BYTE   INSEG    CODE           ?PR?LCD_SHOWINT16?SEEKFREE_18TFT
   *DEL*:           00002BH   BYTE   INSEG    CODE           ?PR?LCD_CLEAR_SIMSPI?SEEKFREE_18TFT
   *DEL*:           00002BH   BYTE   INSEG    CODE           ?PR?LCD_CLEAR?SEEKFREE_18TFT
   *DEL*:           00004EH   BYTE   INSEG    CODE           ?PR?LCD_SHOWSTR_SIMSPI?SEEKFREE_18TFT
   *DEL*:           00004EH   BYTE   INSEG    CODE           ?PR?LCD_SHOWSTR?SEEKFREE_18TFT
   *DEL*:           000029H   BYTE   INSEG    CODE           ?PR?LCD_WRITEINDEX_SIMSPI?SEEKFREE_18TFT
   *DEL*:           000029H   BYTE   INSEG    CODE           ?PR?LCD_WRITEDATA_SIMSPI?SEEKFREE_18TFT
   *DEL*:           00000AH   BYTE   INSEG    CODE           ?PR?LCD_WRITEINDEX?SEEKFREE_18TFT
   *DEL*:           00000AH   BYTE   INSEG    CODE           ?PR?LCD_WRITEDATA?SEEKFREE_18TFT
   *DEL*:           00002CH   BYTE   INSEG    CODE           ?PR?LCD_WRITEDATA_16BIT_SIMSPI?SEEKFREE_18TFT
   *DEL*:           00004CH   BYTE   INSEG    CODE           ?PR?LCD_SET_REGION_SIMSPI?SEEKFREE_18TFT
   *DEL*:           0001F1H   BYTE   INSEG    CODE           ?PR?LCD_INIT_SIMSPI?SEEKFREE_18TFT
   *DEL*:           00009AH   BYTE   INSEG    CODE           ?PR?SHOWIMAGE?SEEKFREE_18TFT
   *DEL*:           000050H   BYTE   INSEG    CODE           ?PR?LCD_SET_REGION?SEEKFREE_18TFT
   *DEL*:           0001EEH   BYTE   INSEG    CODE           ?PR?LCD_INIT?SEEKFREE_18TFT
   *DEL*:           00007BH   BYTE   INSEG    CODE           ?PR?LCD_SHOWUINT8_SIMSPI?SEEKFREE_18TFT
   *DEL*:           00007BH   BYTE   INSEG    CODE           ?PR?LCD_SHOWUINT8?SEEKFREE_18TFT
   *DEL*:           0000B9H   BYTE   INSEG    CODE           ?PR?LCD_SHOWINT8_SIMSPI?SEEKFREE_18TFT
   *DEL*:           0000B9H   BYTE   INSEG    CODE           ?PR?LCD_SHOWINT8?SEEKFREE_18TFT
   *DEL*:           00001FH   BYTE   INSEG    CODE           ?PR?LCD_WRITEDATA_16BIT?SEEKFREE_18TFT
   *DEL*:           0000F8H   BYTE   INSEG    CODE           ?PR?LCD_SHOWFLOAT_SIMSPI?SEEKFREE_18TFT
   *DEL*:           000013H   BYTE   INSEG    CODE           ?PR?LCD_DRAWPOINT_SIMSPI?SEEKFREE_18TFT
   *DEL*:           0000F8H   BYTE   INSEG    CODE           ?PR?LCD_SHOWFLOAT?SEEKFREE_18TFT
   *DEL*:           000013H   BYTE   INSEG    CODE           ?PR?LCD_DRAWPOINT?SEEKFREE_18TFT
   *DEL*:           00008EH   BYTE   INSEG    CODE           ?PR?LCD_SHOWCHAR_SIMSPI?SEEKFREE_18TFT
   *DEL*:           00008EH   BYTE   INSEG    CODE           ?PR?LCD_SHOWCHAR?SEEKFREE_18TFT
   *DEL*:           00008BH   BYTE   INSEG    CODE           ?PR?LCD_SHOWUINT16_SIMSPI?SEEKFREE_18TFT
   *DEL*:           000004H   BYTE   UNIT     EDATA          ?ED?LCD_SET_REGION_SIMSPI?SEEKFREE_18TFT
   *DEL*:           000004H   BYTE   UNIT     EDATA          ?ED?LCD_SHOWCHAR_SIMSPI?SEEKFREE_18TFT
   *DEL*:           000006H   BYTE   UNIT     EDATA          ?ED?LCD_SHOWSTR_SIMSPI?SEEKFREE_18TFT
   *DEL*:           000005H   BYTE   UNIT     EDATA          ?ED?LCD_SHOWINT8_SIMSPI?SEEKFREE_18TFT
   *DEL*:           000004H   BYTE   UNIT     EDATA          ?ED?LCD_SHOWUINT8_SIMSPI?SEEKFREE_18TFT
   *DEL*:           000008H   BYTE   UNIT     EDATA          ?ED?LCD_SHOWINT16_SIMSPI?SEEKFREE_18TFT
   *DEL*:           000006H   BYTE   UNIT     EDATA          ?ED?LCD_SHOWUINT16_SIMSPI?SEEKFREE_18TFT
   *DEL*:           000028H   BYTE   UNIT     EDATA          ?ED?LCD_SHOWINT32_SIMSPI?SEEKFREE_18TFT
   *DEL*:           00002BH   BYTE   UNIT     EDATA          ?ED?LCD_SHOWFLOAT_SIMSPI?SEEKFREE_18TFT
   *DEL*:           000002H   BYTE   UNIT     EDATA          ?ED?LCD_WRITEDATA_16BIT?SEEKFREE_18TFT
   *DEL*:           000004H   BYTE   UNIT     EDATA          ?ED?LCD_SET_REGION?SEEKFREE_18TFT
L251 LINKER/LOCATER V4.66.93.0                                                        02/27/2024  23:09:55  PAGE 8


   *DEL*:           000004H   BYTE   UNIT     EDATA          ?ED?LCD_SHOWCHAR?SEEKFREE_18TFT
   *DEL*:           000006H   BYTE   UNIT     EDATA          ?ED?LCD_SHOWSTR?SEEKFREE_18TFT
   *DEL*:           000005H   BYTE   UNIT     EDATA          ?ED?LCD_SHOWINT8?SEEKFREE_18TFT
   *DEL*:           000004H   BYTE   UNIT     EDATA          ?ED?LCD_SHOWUINT8?SEEKFREE_18TFT
   *DEL*:           000008H   BYTE   UNIT     EDATA          ?ED?LCD_SHOWINT16?SEEKFREE_18TFT
   *DEL*:           000006H   BYTE   UNIT     EDATA          ?ED?LCD_SHOWUINT16?SEEKFREE_18TFT
   *DEL*:           000028H   BYTE   UNIT     EDATA          ?ED?LCD_SHOWINT32?SEEKFREE_18TFT
   *DEL*:           00002BH   BYTE   UNIT     EDATA          ?ED?LCD_SHOWFLOAT?SEEKFREE_18TFT
   *DEL*:           000008H   BYTE   UNIT     EDATA          ?ED?SHOWIMAGE?SEEKFREE_18TFT
   *DEL*:           000011H   BYTE   INSEG    CODE           ?PR?ENCODER_SELF4_CHECK?SEEKFREE_ABSOLUTE_ENCODER
   *DEL*:           000011H   BYTE   INSEG    CODE           ?PR?ENCODER_SELF5_CHECK?SEEKFREE_ABSOLUTE_ENCODER
   *DEL*:           00002FH   BYTE   INSEG    CODE           ?PR?ENCODER_SPI_R_REG_BYTE?SEEKFREE_ABSOLUTE_ENCODER
   *DEL*:           000005H   BYTE   INSEG    CODE           ?PR?ENCODER_DELAY_US?SEEKFREE_ABSOLUTE_ENCODER
   *DEL*:           000038H   BYTE   INSEG    CODE           ?PR?ENCODER_SPI_W_REG_BYTE?SEEKFREE_ABSOLUTE_ENCODER
   *DEL*:           00001CH   BYTE   INSEG    CODE           ?PR?SIMSPI_R_REG_BYTE?SEEKFREE_ABSOLUTE_ENCODER
   *DEL*:           00001AH   BYTE   INSEG    CODE           ?PR?SIMSPI_W_REG_BYTE?SEEKFREE_ABSOLUTE_ENCODER
   *DEL*:           000029H   BYTE   INSEG    CODE           ?PR?ENCODER_INIT_SPI?SEEKFREE_ABSOLUTE_ENCODER
   *DEL*:           000004H   BYTE   INSEG    CODE           ?PR?SPI_WR_BYTE?SEEKFREE_ABSOLUTE_ENCODER
   *DEL*:           000024H   BYTE   INSEG    CODE           ?PR?SET_ZERO_POSITION_SIMSPI?SEEKFREE_ABSOLUTE_ENCODER
   *DEL*:           000023H   BYTE   INSEG    CODE           ?PR?ENCODER_ANGLE_SIMSPI?SEEKFREE_ABSOLUTE_ENCODER
   *DEL*:           00001CH   BYTE   INSEG    CODE           ?PR?SPI_R_REG_BYTE?SEEKFREE_ABSOLUTE_ENCODER
   *DEL*:           00001AH   BYTE   INSEG    CODE           ?PR?SPI_W_REG_BYTE?SEEKFREE_ABSOLUTE_ENCODER
   *DEL*:           00002FH   BYTE   INSEG    CODE           ?PR?ENCODER_SIMSPI_R_REG_BYTE?SEEKFREE_ABSOLUTE_ENCODER
   *DEL*:           000038H   BYTE   INSEG    CODE           ?PR?ENCODER_SIMSPI_W_REG_BYTE?SEEKFREE_ABSOLUTE_ENCODER
   *DEL*:           00000FH   BYTE   INSEG    CODE           ?PR?ENCODER_INIT_SIMSPI?SEEKFREE_ABSOLUTE_ENCODER
   *DEL*:           000024H   BYTE   INSEG    CODE           ?PR?SET_ZERO_POSITION_SPI?SEEKFREE_ABSOLUTE_ENCODER
   *DEL*:           00001FH   BYTE   INSEG    CODE           ?PR?SIMSPI_WR_BYTE?SEEKFREE_ABSOLUTE_ENCODER
   *DEL*:           000023H   BYTE   INSEG    CODE           ?PR?ENCODER_ANGLE_SPI?SEEKFREE_ABSOLUTE_ENCODER
   *DEL*:           000001H   BYTE   UNIT     EDATA          ?ED?ENCODER_SELF4_CHECK?SEEKFREE_ABSOLUTE_ENCODER
   *DEL*:           000001H   BYTE   UNIT     EDATA          ?ED?ENCODER_SELF5_CHECK?SEEKFREE_ABSOLUTE_ENCODER
   *DEL*:           00000FH   BYTE   INSEG    CODE           ?PR?SIMIIC_START?SEEKFREE_IIC
   *DEL*:           000066H   BYTE   INSEG    CODE           ?PR?SIMIIC_READ_REGS?SEEKFREE_IIC
   *DEL*:           000001H   BYTE   INSEG    CODE           ?PR?SIMIIC_INIT?SEEKFREE_IIC
   *DEL*:           000034H   BYTE   INSEG    CODE           ?PR?SIMIIC_READ_REG?SEEKFREE_IIC
   *DEL*:           000011H   BYTE   INSEG    CODE           ?PR?SIMIIC_STOP?SEEKFREE_IIC
   *DEL*:           000022H   BYTE   INSEG    CODE           ?PR?SIMIIC_WRITE_REG?SEEKFREE_IIC
   *DEL*:           000020H   BYTE   INSEG    CODE           ?PR?SIMIIC_SENDACK?SEEKFREE_IIC
   *DEL*:           00003BH   BYTE   INSEG    CODE           ?PR?READ_CH?SEEKFREE_IIC
   *DEL*:           00002EH   BYTE   INSEG    CODE           ?PR?SEND_CH?SEEKFREE_IIC
   *DEL*:           00001CH   BYTE   INSEG    CODE           ?PR?SCCB_WAITACK?SEEKFREE_IIC
   *DEL*:           00000BH   BYTE   INSEG    CODE           ?PR?SIMIIC_DELAY?SEEKFREE_IIC
   *DEL*:           000005H   BYTE   UNIT     EDATA          ?ED?SIMIIC_READ_REGS?SEEKFREE_IIC
   *DEL*:           000055H   BYTE   INSEG    CODE           ?PR?MPU6050_INIT?SEEKFREE_MPU6050
   *DEL*:           00002CH   BYTE   INSEG    CODE           ?PR?MPU6050_SELF1_CHECK?SEEKFREE_MPU6050
   *DEL*:           000044H   BYTE   INSEG    CODE           ?PR?MPU6050_GET_GYRO?SEEKFREE_MPU6050
   *DEL*:           000044H   BYTE   INSEG    CODE           ?PR?MPU6050_GET_ACCDATA?SEEKFREE_MPU6050
   *DEL*:           000006H   BYTE   UNIT     EDATA          ?ED?MPU6050_GET_ACCDATA?SEEKFREE_MPU6050
   *DEL*:           000006H   BYTE   UNIT     EDATA          ?ED?MPU6050_GET_GYRO?SEEKFREE_MPU6050
   *DEL*:           000033H   BYTE   INSEG    CODE           ?PR?OLED_PUTPIXEL?SEEKFREE_OLED
   *DEL*:           000032H   BYTE   INSEG    CODE           ?PR?OLED_HEXASCII_SPI?SEEKFREE_OLED
   *DEL*:           000325H   BYTE   INSEG    CODE           ?PR?OLED_DIS_BMP_SPI?SEEKFREE_OLED
   *DEL*:           0000E8H   BYTE   INSEG    CODE           ?PR?OLED_P8X16STR_SPI?SEEKFREE_OLED
   *DEL*:           00002AH   BYTE   INSEG    CODE           ?PR?OLED_CLRPIXEL_SPI?SEEKFREE_OLED
   *DEL*:           000090H   BYTE   INSEG    CODE           ?PR?OLED_PRINT_CHINESE_SPI?SEEKFREE_OLED
   *DEL*:           000082H   BYTE   INSEG    CODE           ?PR?OLED_PRINTF_INT32?SEEKFREE_OLED
   *DEL*:           00001DH   BYTE   INSEG    CODE           ?PR?OLED_UINT16?SEEKFREE_OLED
   *DEL*:           000031H   BYTE   INSEG    CODE           ?PR?OLED_PUTPIXEL_SPI?SEEKFREE_OLED
   *DEL*:           000021H   BYTE   INSEG    CODE           ?PR?OLED_SET_POS_SPI?SEEKFREE_OLED
   *DEL*:           0000A9H   BYTE   INSEG    CODE           ?PR?OLED_P6X8STR?SEEKFREE_OLED
   *DEL*:           00004BH   BYTE   INSEG    CODE           ?PR?OLED_INT16?SEEKFREE_OLED
   *DEL*:           0000F8H   BYTE   INSEG    CODE           ?PR?OLED_PRINTF_FLOAT_SPI?SEEKFREE_OLED
   *DEL*:           00000AH   BYTE   INSEG    CODE           ?PR?OLED_WRCMD_SPI?SEEKFREE_OLED
   *DEL*:           00000AH   BYTE   INSEG    CODE           ?PR?OLED_WRDAT_SPI?SEEKFREE_OLED
   *DEL*:           000032H   BYTE   INSEG    CODE           ?PR?OLED_HEXASCII?SEEKFREE_OLED
   *DEL*:           000033H   BYTE   INSEG    CODE           ?PR?OLED_FILL_SPI?SEEKFREE_OLED
L251 LINKER/LOCATER V4.66.93.0                                                        02/27/2024  23:09:55  PAGE 9


   *DEL*:           000082H   BYTE   INSEG    CODE           ?PR?OLED_PRINTF_INT32_SPI?SEEKFREE_OLED
   *DEL*:           00001DH   BYTE   INSEG    CODE           ?PR?OLED_UINT16_SPI?SEEKFREE_OLED
   *DEL*:           0000A9H   BYTE   INSEG    CODE           ?PR?OLED_P6X8STR_SPI?SEEKFREE_OLED
   *DEL*:           00004BH   BYTE   INSEG    CODE           ?PR?OLED_INT16_SPI?SEEKFREE_OLED
   *DEL*:           00033BH   BYTE   INSEG    CODE           ?PR?OLED_DIS_BMP?SEEKFREE_OLED
   *DEL*:           0000BFH   BYTE   INSEG    CODE           ?PR?OLED_INIT_SPI?SEEKFREE_OLED
   *DEL*:           00002CH   BYTE   INSEG    CODE           ?PR?OLED_CLRPIXEL?SEEKFREE_OLED
   *DEL*:           000090H   BYTE   INSEG    CODE           ?PR?OLED_PRINT_CHINESE?SEEKFREE_OLED
   *DEL*:           000005H   BYTE   UNIT     EDATA          ?ED?OLED_P6X8STR?SEEKFREE_OLED
   *DEL*:           000007H   BYTE   UNIT     EDATA          ?ED?OLED_UINT16?SEEKFREE_OLED
   *DEL*:           000007H   BYTE   UNIT     EDATA          ?ED?OLED_INT16?SEEKFREE_OLED
   *DEL*:           000028H   BYTE   UNIT     EDATA          ?ED?OLED_PRINTF_INT32?SEEKFREE_OLED
   *DEL*:           00000CH   BYTE   UNIT     EDATA          ?ED?OLED_DIS_BMP?SEEKFREE_OLED
   *DEL*:           00000AH   BYTE   UNIT     EDATA          ?ED?OLED_PRINT_CHINESE?SEEKFREE_OLED
   *DEL*:           000005H   BYTE   UNIT     EDATA          ?ED?OLED_P6X8STR_SPI?SEEKFREE_OLED
   *DEL*:           000005H   BYTE   UNIT     EDATA          ?ED?OLED_P8X16STR_SPI?SEEKFREE_OLED
   *DEL*:           000007H   BYTE   UNIT     EDATA          ?ED?OLED_UINT16_SPI?SEEKFREE_OLED
   *DEL*:           000007H   BYTE   UNIT     EDATA          ?ED?OLED_INT16_SPI?SEEKFREE_OLED
   *DEL*:           000028H   BYTE   UNIT     EDATA          ?ED?OLED_PRINTF_INT32_SPI?SEEKFREE_OLED
   *DEL*:           00002BH   BYTE   UNIT     EDATA          ?ED?OLED_PRINTF_FLOAT_SPI?SEEKFREE_OLED
   *DEL*:           00000CH   BYTE   UNIT     EDATA          ?ED?OLED_DIS_BMP_SPI?SEEKFREE_OLED
   *DEL*:           00000AH   BYTE   UNIT     EDATA          ?ED?OLED_PRINT_CHINESE_SPI?SEEKFREE_OLED
   *DEL*:           00005EH   BYTE   INSEG    CODE           ?PR?AT24C02_READ_BYTES?SEEKFREE_AT24C02
   *DEL*:           000017H   BYTE   INSEG    CODE           ?PR?AT24C02_READ_BYTE?SEEKFREE_AT24C02
   *DEL*:           00005BH   BYTE   INSEG    CODE           ?PR?AT24C02_WRITE_BYTES?SEEKFREE_AT24C02
   *DEL*:           000019H   BYTE   INSEG    CODE           ?PR?AT24C02_WRITE_BYTE?SEEKFREE_AT24C02
   *DEL*:           000002H   BYTE   UNIT     EDATA          ?ED?AT24C02_WRITE_BYTES?SEEKFREE_AT24C02
   *DEL*:           000002H   BYTE   UNIT     EDATA          ?ED?AT24C02_READ_BYTES?SEEKFREE_AT24C02
   *DEL*:           000022H   BYTE   INSEG    CODE           ?PR?BLUETOOTH_CH9141_READ_BUFF?SEEKFREE_BLUETOOTH_CH9141
   *DEL*:           0000ABH   BYTE   INSEG    CODE           ?PR?BLUETOOTH_CH9141_SEND_BUFF?SEEKFREE_BLUETOOTH_CH9141
   *DEL*:           00003CH   BYTE   INSEG    CODE           ?PR?BLUETOOTH_CH9141_INIT?SEEKFREE_BLUETOOTH_CH9141
   *DEL*:           000006H   BYTE   UNIT     EDATA          ?ED?BLUETOOTH_CH9141_SEND_BUFF?SEEKFREE_BLUETOOTH_CH9141
   *DEL*:           000004H   BYTE   UNIT     EDATA          ?ED?BLUETOOTH_CH9141_READ_BUFF?SEEKFREE_BLUETOOTH_CH9141
   *DEL*:           00001FH   BYTE   INSEG    CODE           ?PR?ICM_SIMSPI_WR_BYTE?SEEKFREE_ICM20602
   *DEL*:           000075H   BYTE   INSEG    CODE           ?PR?ICM20602_INIT_SIMIIC?SEEKFREE_ICM20602
   *DEL*:           000040H   BYTE   INSEG    CODE           ?PR?ICM_SIMSPI_R_REG_BYTES?SEEKFREE_ICM20602
   *DEL*:           00001CH   BYTE   INSEG    CODE           ?PR?ICM_SIMSPI_R_REG_BYTE?SEEKFREE_ICM20602
   *DEL*:           000013H   BYTE   INSEG    CODE           ?PR?ICM_SIMSPI_W_REG_BYTE?SEEKFREE_ICM20602
   *DEL*:           000059H   BYTE   INSEG    CODE           ?PR?ICM20602_INIT_SIMSPI?SEEKFREE_ICM20602
   *DEL*:           00002BH   BYTE   INSEG    CODE           ?PR?ICM20602_SELF1_CHECK?SEEKFREE_ICM20602
   *DEL*:           000011H   BYTE   INSEG    CODE           ?PR?ICM20602_SELF4_CHECK?SEEKFREE_ICM20602
   *DEL*:           000044H   BYTE   INSEG    CODE           ?PR?GET_ICM20602_GYRO_SIMIIC?SEEKFREE_ICM20602
   *DEL*:           000044H   BYTE   INSEG    CODE           ?PR?GET_ICM20602_ACCDATA_SIMIIC?SEEKFREE_ICM20602
   *DEL*:           00003DH   BYTE   INSEG    CODE           ?PR?GET_ICM20602_GYRO_SIMSPI?SEEKFREE_ICM20602
   *DEL*:           00003DH   BYTE   INSEG    CODE           ?PR?GET_ICM20602_ACCDATA_SIMSPI?SEEKFREE_ICM20602
   *DEL*:           000006H   BYTE   UNIT     EDATA          ?ED?GET_ICM20602_ACCDATA_SIMIIC?SEEKFREE_ICM20602
   *DEL*:           000006H   BYTE   UNIT     EDATA          ?ED?GET_ICM20602_GYRO_SIMIIC?SEEKFREE_ICM20602
   *DEL*:           000003H   BYTE   UNIT     EDATA          ?ED?ICM_SIMSPI_R_REG_BYTES?SEEKFREE_ICM20602
   *DEL*:           000001H   BYTE   UNIT     EDATA          ?ED?ICM20602_SELF4_CHECK?SEEKFREE_ICM20602
   *DEL*:           000001H   BYTE   UNIT     EDATA          ?ED?ICM20602_INIT_SIMSPI?SEEKFREE_ICM20602
   *DEL*:           000006H   BYTE   UNIT     EDATA          ?ED?GET_ICM20602_ACCDATA_SIMSPI?SEEKFREE_ICM20602
   *DEL*:           000006H   BYTE   UNIT     EDATA          ?ED?GET_ICM20602_GYRO_SIMSPI?SEEKFREE_ICM20602
   *DEL*:           00007BH   BYTE   INSEG    CODE           ?PR?IPS114_SHOWUINT8_SIMSPI?SEEKFREE_IPS114_SPI
   *DEL*:           000077H   BYTE   INSEG    CODE           ?PR?IPS114_SHOWUINT8?SEEKFREE_IPS114_SPI
   *DEL*:           0000B9H   BYTE   INSEG    CODE           ?PR?IPS114_SHOWINT8_SIMSPI?SEEKFREE_IPS114_SPI
   *DEL*:           0000B5H   BYTE   INSEG    CODE           ?PR?IPS114_SHOWINT8?SEEKFREE_IPS114_SPI
   *DEL*:           00001FH   BYTE   INSEG    CODE           ?PR?IPS114_WRITEDATA_16BIT?SEEKFREE_IPS114_SPI
   *DEL*:           0000F8H   BYTE   INSEG    CODE           ?PR?IPS114_SHOWFLOAT_SIMSPI?SEEKFREE_IPS114_SPI
   *DEL*:           000013H   BYTE   INSEG    CODE           ?PR?IPS114_DRAWPOINT_SIMSPI?SEEKFREE_IPS114_SPI
   *DEL*:           0000F8H   BYTE   INSEG    CODE           ?PR?IPS114_SHOWFLOAT?SEEKFREE_IPS114_SPI
   *DEL*:           000013H   BYTE   INSEG    CODE           ?PR?IPS114_DRAWPOINT?SEEKFREE_IPS114_SPI
   *DEL*:           00008EH   BYTE   INSEG    CODE           ?PR?IPS114_SHOWCHAR_SIMSPI?SEEKFREE_IPS114_SPI
   *DEL*:           00008EH   BYTE   INSEG    CODE           ?PR?IPS114_SHOWCHAR?SEEKFREE_IPS114_SPI
   *DEL*:           00008BH   BYTE   INSEG    CODE           ?PR?IPS114_SHOWUINT16_SIMSPI?SEEKFREE_IPS114_SPI
   *DEL*:           00008BH   BYTE   INSEG    CODE           ?PR?IPS114_SHOWUINT16?SEEKFREE_IPS114_SPI
L251 LINKER/LOCATER V4.66.93.0                                                        02/27/2024  23:09:55  PAGE 10


   *DEL*:           000082H   BYTE   INSEG    CODE           ?PR?IPS114_SHOWINT32_SIMSPI?SEEKFREE_IPS114_SPI
   *DEL*:           0000DDH   BYTE   INSEG    CODE           ?PR?IPS114_SHOWINT16_SIMSPI?SEEKFREE_IPS114_SPI
   *DEL*:           000082H   BYTE   INSEG    CODE           ?PR?IPS114_SHOWINT32?SEEKFREE_IPS114_SPI
   *DEL*:           0000D9H   BYTE   INSEG    CODE           ?PR?IPS114_SHOWINT16?SEEKFREE_IPS114_SPI
   *DEL*:           00003CH   BYTE   INSEG    CODE           ?PR?IPS114_CLEAR_SIMSPI?SEEKFREE_IPS114_SPI
   *DEL*:           00003CH   BYTE   INSEG    CODE           ?PR?IPS114_CLEAR?SEEKFREE_IPS114_SPI
   *DEL*:           00002CH   BYTE   INSEG    CODE           ?PR?IPS114_WRITEDATAI_16BIT_SIMSPI?SEEKFREE_IPS114_SPI
   *DEL*:           00004EH   BYTE   INSEG    CODE           ?PR?IPS114_SHOWSTR_SIMSPI?SEEKFREE_IPS114_SPI
   *DEL*:           00004EH   BYTE   INSEG    CODE           ?PR?IPS114_SHOWSTR?SEEKFREE_IPS114_SPI
   *DEL*:           000029H   BYTE   INSEG    CODE           ?PR?IPS114_WRITEINDEX_SIMSPI?SEEKFREE_IPS114_SPI
   *DEL*:           000029H   BYTE   INSEG    CODE           ?PR?IPS114_WRITEDATA_SIMSPI?SEEKFREE_IPS114_SPI
   *DEL*:           00000AH   BYTE   INSEG    CODE           ?PR?IPS114_WRITEINDEX?SEEKFREE_IPS114_SPI
   *DEL*:           00000AH   BYTE   INSEG    CODE           ?PR?IPS114_WRITEDATA?SEEKFREE_IPS114_SPI
   *DEL*:           000044H   BYTE   INSEG    CODE           ?PR?IPS114_SET_REGION_SIMSPI?SEEKFREE_IPS114_SPI
   *DEL*:           00014FH   BYTE   INSEG    CODE           ?PR?IPS114_INIT_SIMSPI?SEEKFREE_IPS114_SPI
   *DEL*:           000048H   BYTE   INSEG    CODE           ?PR?IPS114_SET_REGION?SEEKFREE_IPS114_SPI
   *DEL*:           00016DH   BYTE   INSEG    CODE           ?PR?IPS114_INIT?SEEKFREE_IPS114_SPI
   *DEL*:           000004H   BYTE   UNIT     EDATA          ?ED?IPS114_SET_REGION_SIMSPI?SEEKFREE_IPS114_SPI
   *DEL*:           000002H   BYTE   UNIT     EDATA          ?ED?IPS114_CLEAR_SIMSPI?SEEKFREE_IPS114_SPI
   *DEL*:           000004H   BYTE   UNIT     EDATA          ?ED?IPS114_SHOWCHAR_SIMSPI?SEEKFREE_IPS114_SPI
   *DEL*:           000006H   BYTE   UNIT     EDATA          ?ED?IPS114_SHOWSTR_SIMSPI?SEEKFREE_IPS114_SPI
   *DEL*:           000005H   BYTE   UNIT     EDATA          ?ED?IPS114_SHOWINT8_SIMSPI?SEEKFREE_IPS114_SPI
   *DEL*:           000004H   BYTE   UNIT     EDATA          ?ED?IPS114_SHOWUINT8_SIMSPI?SEEKFREE_IPS114_SPI
   *DEL*:           000008H   BYTE   UNIT     EDATA          ?ED?IPS114_SHOWINT16_SIMSPI?SEEKFREE_IPS114_SPI
   *DEL*:           000006H   BYTE   UNIT     EDATA          ?ED?IPS114_SHOWUINT16_SIMSPI?SEEKFREE_IPS114_SPI
   *DEL*:           000028H   BYTE   UNIT     EDATA          ?ED?IPS114_SHOWINT32_SIMSPI?SEEKFREE_IPS114_SPI
   *DEL*:           00002BH   BYTE   UNIT     EDATA          ?ED?IPS114_SHOWFLOAT_SIMSPI?SEEKFREE_IPS114_SPI
   *DEL*:           000002H   BYTE   UNIT     EDATA          ?ED?IPS114_WRITEDATA_16BIT?SEEKFREE_IPS114_SPI
   *DEL*:           000004H   BYTE   UNIT     EDATA          ?ED?IPS114_SET_REGION?SEEKFREE_IPS114_SPI
   *DEL*:           000002H   BYTE   UNIT     EDATA          ?ED?IPS114_CLEAR?SEEKFREE_IPS114_SPI
   *DEL*:           000004H   BYTE   UNIT     EDATA          ?ED?IPS114_SHOWCHAR?SEEKFREE_IPS114_SPI
   *DEL*:           000006H   BYTE   UNIT     EDATA          ?ED?IPS114_SHOWSTR?SEEKFREE_IPS114_SPI
   *DEL*:           000005H   BYTE   UNIT     EDATA          ?ED?IPS114_SHOWINT8?SEEKFREE_IPS114_SPI
   *DEL*:           000004H   BYTE   UNIT     EDATA          ?ED?IPS114_SHOWUINT8?SEEKFREE_IPS114_SPI
   *DEL*:           000008H   BYTE   UNIT     EDATA          ?ED?IPS114_SHOWINT16?SEEKFREE_IPS114_SPI
   *DEL*:           000006H   BYTE   UNIT     EDATA          ?ED?IPS114_SHOWUINT16?SEEKFREE_IPS114_SPI
   *DEL*:           000028H   BYTE   UNIT     EDATA          ?ED?IPS114_SHOWINT32?SEEKFREE_IPS114_SPI
   *DEL*:           00002BH   BYTE   UNIT     EDATA          ?ED?IPS114_SHOWFLOAT?SEEKFREE_IPS114_SPI
   *DEL*:           000070H   BYTE   INSEG    CODE           ?PR?CCD_SEND_DATA?SEEKFREE_TSL1401
   *DEL*:           000016H   BYTE   INSEG    CODE           ?PR?CCD_INIT?SEEKFREE_TSL1401
   *DEL*:           000035H   BYTE   INSEG    CODE           ?PR?CCD_COLLECT?SEEKFREE_TSL1401
   *DEL*:           000003H   BYTE   UNIT     EDATA          ?ED?CCD_SEND_DATA?SEEKFREE_TSL1401
   *DEL*:           00003AH   BYTE   INSEG    CODE           ?PR?CRC_CHECK?SEEKFREE_VIRSCO
   *DEL*:           000069H   BYTE   INSEG    CODE           ?PR?DATA_CONVERSION?SEEKFREE_VIRSCO
   *DEL*:           000004H   BYTE   UNIT     EDATA          ?ED?DATA_CONVERSION?SEEKFREE_VIRSCO
   *DEL*:           000022H   BYTE   INSEG    CODE           ?PR?WIRELESS_UART_READ_BUFF?SEEKFREE_WIRELESS
   *DEL*:           00005DH   BYTE   INSEG    CODE           ?PR?WIRELESS_UART_SEND_BUFF?SEEKFREE_WIRELESS
   *DEL*:           00003CH   BYTE   INSEG    CODE           ?PR?WIRELESS_UART_INIT?SEEKFREE_WIRELESS
   *DEL*:           000002H   BYTE   UNIT     EDATA          ?ED?WIRELESS_UART_SEND_BUFF?SEEKFREE_WIRELESS
   *DEL*:           000004H   BYTE   UNIT     EDATA          ?ED?WIRELESS_UART_READ_BUFF?SEEKFREE_WIRELESS
   *DEL*:           000022H   BYTE   INSEG    CODE           ?PR?WIRELESS_CH573_READ_BUFF?SEEKFREE_WIRELESS_CH573
   *DEL*:           00005DH   BYTE   INSEG    CODE           ?PR?WIRELESS_CH573_SEND_BUFF?SEEKFREE_WIRELESS_CH573
   *DEL*:           00003CH   BYTE   INSEG    CODE           ?PR?WIRELESS_CH573_INIT?SEEKFREE_WIRELESS_CH573
   *DEL*:           000002H   BYTE   UNIT     EDATA          ?ED?WIRELESS_CH573_SEND_BUFF?SEEKFREE_WIRELESS_CH573
   *DEL*:           000004H   BYTE   UNIT     EDATA          ?ED?WIRELESS_CH573_READ_BUFF?SEEKFREE_WIRELESS_CH573
   *DEL*:           000013H   BYTE   INSEG    CODE           ?PR?MPU_SET_GYRO_FSR?MPU6050
   *DEL*:           000058H   BYTE   INSEG    CODE           ?PR?MPU_GET_ACCELEROMETER?MPU6050
   *DEL*:           000041H   BYTE   INSEG    CODE           ?PR?MPU_SET_LPF?MPU6050
   *DEL*:           000016H   BYTE   INSEG    CODE           ?PR?MPU_READ_BYTE?MPU6050
   *DEL*:           000013H   BYTE   INSEG    CODE           ?PR?MPU_SET_ACCEL_FSR?MPU6050
   *DEL*:           000031H   BYTE   INSEG    CODE           ?PR?ZERO_ALL?MPU6050
   *DEL*:           000069H   BYTE   INSEG    CODE           ?PR?MPU_INIT?MPU6050
   *DEL*:           00003BH   BYTE   INSEG    CODE           ?PR?MPU_GET_TEMPERATURE?MPU6050
   *DEL*:           000037H   BYTE   INSEG    CODE           ?PR?MPU_SET_RATE?MPU6050
   *DEL*:           000001H   BYTE   UNIT     EDATA          ?ED?MPU_READ_BYTE?MPU6050
L251 LINKER/LOCATER V4.66.93.0                                                        02/27/2024  23:09:55  PAGE 11


   *DEL*:           000002H   BYTE   UNIT     EDATA          ?ED?MPU_GET_TEMPERATURE?MPU6050
   *DEL*:           00000EH   BYTE   UNIT     EDATA          ?ED?MPU_GET_ACCELEROMETER?MPU6050



OVERLAY MAP OF MODULE:   .\Out_File\SEEKFREE (board)


FUNCTION/MODULE                               EDATA_GROUP
--> CALLED FUNCTION/MODULE                    START  STOP
=========================================================
UART1_Isr/isr                                 ----- -----

*** NEW ROOT ********************************

UART2_Isr/isr                                 ----- -----

*** NEW ROOT ********************************

UART3_Isr/isr                                 ----- -----

*** NEW ROOT ********************************

UART4_Isr/isr                                 ----- -----
  +--> wireless_uart_callback/SEEKFREE_WIRELESS
  +--> bluetooth_ch9141_uart_callback/SEEKFREE_BLUETOOTH_CH9141
  +--> wireless_ch573_callback/SEEKFREE_WIRELESS_CH573

wireless_uart_callback/SEEKFREE_WIRELESS      ----- -----
  +--> fifo_write_buffer/zf_fifo

fifo_write_buffer/zf_fifo                     01D6H 01E1H
  +--> memcpy?_/memcpy
  +--> fifo_head_offset/zf_fifo

memcpy?_/memcpy                               ----- -----

fifo_head_offset/zf_fifo                      ----- -----

bluetooth_ch9141_uart_callback/SEEKFREE_+     ----- -----
... BLUETOOTH_CH9141
  +--> fifo_write_buffer/zf_fifo

wireless_ch573_callback/SEEKFREE_WIRELES+     ----- -----
... S_CH573
  +--> fifo_write_buffer/zf_fifo

*** NEW ROOT ********************************

INT0_Isr/isr                                  ----- -----

*** NEW ROOT ********************************

INT1_Isr/isr                                  ----- -----

*** NEW ROOT ********************************

INT2_Isr/isr                                  ----- -----

*** NEW ROOT ********************************

INT3_Isr/isr                                  ----- -----

*** NEW ROOT ********************************

L251 LINKER/LOCATER V4.66.93.0                                                        02/27/2024  23:09:55  PAGE 12


INT4_Isr/isr                                  ----- -----

*** NEW ROOT ********************************

TM0_Isr/isr                                   ----- -----

*** NEW ROOT ********************************

TM1_Isr/isr                                   ----- -----

*** NEW ROOT ********************************

TM2_Isr/isr                                   ----- -----

*** NEW ROOT ********************************

TM3_Isr/isr                                   ----- -----

*** NEW ROOT ********************************

TM4_Isr/isr                                   ----- -----

*** NEW ROOT ********************************

?C_C51STARTUP                                 ----- -----

*** NEW ROOT ********************************

?C_C51STARTUP?3                               ----- -----
  +--> main/main

main/main                                     ----- -----
  +--> Init_all/main
  +--> EnableGlobalIRQ/board
  +--> oled_printf_float/SEEKFREE_OLED
  +--> ADC_GetValue/ADC
  +--> MPU6050_Refresh_DMP/MPU6050
  +--> MPU_Get_Gyroscope/MPU6050
  +--> Get_Ratio/main
  +--> vl53l0x_get_distance/TOF
  +--> Elem_Barrier/Element
  +--> Elem_Circle_R/Element
  +--> Elem_Circle_L/Element
  +--> PID_Calculate/PID
  +--> Limit_Out/motor
  +--> Elem_Up_Down/Element
  +--> Get_Speed/motor
  +--> Left_SetSpeed/motor
  +--> Right_SetSpeed/motor

Init_all/main                                 ----- -----
  +--> DisableGlobalIRQ/board
  +--> board_init/board
  +--> gpio_mode/zf_gpio
  +--> vl53l0x_init/TOF
  +--> oled_init/SEEKFREE_OLED
  +--> MPU6050_DMP_Init/MPU6050
  +--> pit_timer_ms/zf_tim
  +--> ctimer_count_init/zf_tim
  +--> Motor_Init/motor
  +--> pwm_init/zf_pwm
  +--> ADC_InitAll/ADC
  +--> PID_Init/PID

DisableGlobalIRQ/board                        ----- -----
L251 LINKER/LOCATER V4.66.93.0                                                        02/27/2024  23:09:55  PAGE 13



board_init/board                              ----- -----
  +--> delay_init/zf_delay
  +--> uart_init/zf_uart

delay_init/zf_delay                           ----- -----
  +--> ?C?SLDIV/?C?SLDIV

?C?SLDIV/?C?SLDIV                             ----- -----
  +--> ?C?ULIDIV/?C?ULDIV

?C?ULIDIV/?C?ULDIV                            ----- -----

uart_init/zf_uart                             01E2H 01E7H
  +--> ?C?ULIDIV/?C?ULDIV

gpio_mode/zf_gpio                             ----- -----

vl53l0x_init/TOF                              01E2H 01F3H
  +--> memset?_/memset
  +--> delay_ms/zf_delay
  +--> vl53l0x_simiic_read_reg/TOF
  +--> vl53l0x_simiic_write_reg/TOF
  +--> vl53l0x_simiic_read_regs/TOF
  +--> vl53l0x_set_signal_rate_limit/TOF
  +--> vl53l0x_get_spad_info/TOF
  +--> PRINTF/PRINTF
  +--> vl53l0x_simiic_write_dats/TOF
  +--> vl53l0x_get_measurement_timing_budget/TOF
  +--> vl53l0x_set_measurement_timing_budget/TOF
  +--> vl53l0x_perform_single_ref_calibration/TOF

memset?_/memset                               ----- -----

delay_ms/zf_delay                             ----- -----

vl53l0x_simiic_read_reg/TOF                   ----- -----
  +--> vl53l0x_simiic_start/TOF
  +--> vl53l0x_send_ch/TOF
  +--> vl53l0x_read_ch/TOF
  +--> vl53l0x_simiic_stop/TOF

vl53l0x_simiic_start/TOF                      ----- -----
  +--> vl53l0x_simiic_delay/TOF

vl53l0x_simiic_delay/TOF                      ----- -----

vl53l0x_send_ch/TOF                           ----- -----
  +--> vl53l0x_simiic_delay/TOF
  +--> vl53l0x_sccb_waitack/TOF

vl53l0x_sccb_waitack/TOF                      ----- -----
  +--> vl53l0x_simiic_delay/TOF

vl53l0x_read_ch/TOF                           ----- -----
  +--> vl53l0x_simiic_delay/TOF
  +--> vl53l0x_simiic_sendack/TOF

vl53l0x_simiic_sendack/TOF                    ----- -----
  +--> vl53l0x_simiic_delay/TOF

vl53l0x_simiic_stop/TOF                       ----- -----
  +--> vl53l0x_simiic_delay/TOF

vl53l0x_simiic_write_reg/TOF                  ----- -----
L251 LINKER/LOCATER V4.66.93.0                                                        02/27/2024  23:09:55  PAGE 14


  +--> vl53l0x_simiic_start/TOF
  +--> vl53l0x_send_ch/TOF
  +--> vl53l0x_simiic_stop/TOF

vl53l0x_simiic_read_regs/TOF                  021EH 0223H
  +--> vl53l0x_simiic_start/TOF
  +--> vl53l0x_send_ch/TOF
  +--> vl53l0x_read_ch/TOF
  +--> vl53l0x_simiic_stop/TOF

vl53l0x_set_signal_rate_limit/TOF             01F4H 01F6H
  +--> vl53l0x_simiic_write_dats/TOF

vl53l0x_simiic_write_dats/TOF                 0217H 021BH
  +--> vl53l0x_simiic_start/TOF
  +--> vl53l0x_send_ch/TOF
  +--> vl53l0x_simiic_stop/TOF

vl53l0x_get_spad_info/TOF                     01F4H 01FBH
  +--> vl53l0x_simiic_write_reg/TOF
  +--> vl53l0x_simiic_read_regs/TOF

PRINTF/PRINTF                                 01F4H 021BH
  +--> OUT/PRINTF

OUT/PRINTF                                    ----- -----
  +--> PUTCH/PRINTF

PUTCH/PRINTF                                  ----- -----
  +--> putchar/board
  +--> OUT/PRINTF

putchar/board                                 ----- -----
  +--> uart_putchar/zf_uart

uart_putchar/zf_uart                          ----- -----

vl53l0x_get_measurement_timing_budget/TO+     01F4H 020EH
... F
  +--> vl53l0x_get_sequence_step_enables/TOF
  +--> vl53l0x_get_sequence_step_timeouts/TOF

vl53l0x_get_sequence_step_enables/TOF         0217H 0217H
  +--> vl53l0x_simiic_read_regs/TOF

vl53l0x_get_sequence_step_timeouts/TOF        0217H 021CH
  +--> vl53l0x_get_vcsel_pulse_period/TOF
  +--> vl53l0x_simiic_read_regs/TOF
  +--> vl53l0x_timeout_mclks_to_microseconds/TOF
  +--> vl53l0x_decode_timeout/TOF

vl53l0x_get_vcsel_pulse_period/TOF            021DH 021DH
  +--> vl53l0x_simiic_read_regs/TOF

vl53l0x_timeout_mclks_to_microseconds/TO+     ----- -----
... F
  +--> ?C?ULIDIV/?C?ULDIV

vl53l0x_decode_timeout/TOF                    ----- -----

vl53l0x_set_measurement_timing_budget/TO+     01F4H 0216H
... F
  +--> vl53l0x_get_sequence_step_enables/TOF
  +--> vl53l0x_get_sequence_step_timeouts/TOF
  +--> vl53l0x_timeout_microseconds_to_mclks/TOF
L251 LINKER/LOCATER V4.66.93.0                                                        02/27/2024  23:09:55  PAGE 15


  +--> vl53l0x_encode_timeout/TOF
  +--> vl53l0x_simiic_write_dats/TOF

vl53l0x_timeout_microseconds_to_mclks/TO+     ----- -----
... F
  +--> ?C?ULIDIV/?C?ULDIV

vl53l0x_encode_timeout/TOF                    ----- -----

vl53l0x_perform_single_ref_calibration/T+     01F4H 01F6H
... OF
  +--> vl53l0x_simiic_write_reg/TOF
  +--> vl53l0x_simiic_read_regs/TOF

oled_init/SEEKFREE_OLED                       ----- -----
  +--> delay_ms/zf_delay
  +--> oled_wrcmd/SEEKFREE_OLED
  +--> oled_fill/SEEKFREE_OLED
  +--> oled_set_pos/SEEKFREE_OLED

oled_wrcmd/SEEKFREE_OLED                      ----- -----

oled_fill/SEEKFREE_OLED                       ----- -----
  +--> oled_wrcmd/SEEKFREE_OLED
  +--> oled_wrdat/SEEKFREE_OLED

oled_wrdat/SEEKFREE_OLED                      ----- -----

oled_set_pos/SEEKFREE_OLED                    ----- -----
  +--> oled_wrcmd/SEEKFREE_OLED

MPU6050_DMP_Init/MPU6050                      ----- -----
  +--> initMPU6050/MPU6050
  +--> getDeviceID/MPU6050
  +--> dmpInitialize/MPU6050
  +--> MPU_Write_Bit/MPU6050

initMPU6050/MPU6050                           ----- -----
  +--> MPU_Write_Bits/MPU6050
  +--> MPU_Write_Bit/MPU6050

MPU_Write_Bits/MPU6050                        ----- -----
  +--> i2c_write_bits/MPU6050

i2c_write_bits/MPU6050                        01E8H 01E8H
  +--> i2c_mem_read/MPU6050
  +--> i2c_mem_write/MPU6050

i2c_mem_read/MPU6050                          01F0H 01F3H
  +--> i2c_start/MPU6050
  +--> i2c_write_byte/MPU6050
  +--> i2c_wait_ack/MPU6050
  +--> i2c_read_byte/MPU6050
  +--> i2c_stop/MPU6050

i2c_start/MPU6050                             ----- -----
  +--> I2C_SDA_H/MPU6050
  +--> I2C_SCL_H/MPU6050
  +--> i2c_delay/MPU6050
  +--> I2C_SDA_L/MPU6050
  +--> I2C_SCL_L/MPU6050

I2C_SDA_H/MPU6050                             ----- -----

I2C_SCL_H/MPU6050                             ----- -----
L251 LINKER/LOCATER V4.66.93.0                                                        02/27/2024  23:09:55  PAGE 16



i2c_delay/MPU6050                             ----- -----

I2C_SDA_L/MPU6050                             ----- -----

I2C_SCL_L/MPU6050                             ----- -----

i2c_write_byte/MPU6050                        ----- -----
  +--> I2C_SCL_L/MPU6050
  +--> I2C_SDA_H/MPU6050
  +--> I2C_SDA_L/MPU6050
  +--> i2c_delay/MPU6050
  +--> I2C_SCL_H/MPU6050

i2c_wait_ack/MPU6050                          ----- -----
  +--> I2C_SCL_H/MPU6050
  +--> i2c_delay/MPU6050
  +--> i2c_timeout_delay/MPU6050
  +--> i2c_stop/MPU6050
  +--> I2C_SDA_Read/MPU6050
  +--> I2C_SCL_L/MPU6050

i2c_timeout_delay/MPU6050                     ----- -----

i2c_stop/MPU6050                              ----- -----
  +--> I2C_SDA_L/MPU6050
  +--> I2C_SCL_H/MPU6050
  +--> i2c_delay/MPU6050
  +--> I2C_SDA_H/MPU6050

I2C_SDA_Read/MPU6050                          ----- -----

i2c_read_byte/MPU6050                         ----- -----
  +--> I2C_SCL_L/MPU6050
  +--> i2c_delay/MPU6050
  +--> I2C_SCL_H/MPU6050
  +--> I2C_SDA_Read/MPU6050
  +--> i2c_nack/MPU6050
  +--> i2c_ack/MPU6050

i2c_nack/MPU6050                              ----- -----
  +--> I2C_SCL_L/MPU6050
  +--> I2C_SDA_H/MPU6050
  +--> i2c_delay/MPU6050
  +--> I2C_SCL_H/MPU6050

i2c_ack/MPU6050                               ----- -----
  +--> I2C_SCL_L/MPU6050
  +--> I2C_SDA_L/MPU6050
  +--> i2c_delay/MPU6050
  +--> I2C_SCL_H/MPU6050
  +--> I2C_SDA_H/MPU6050

i2c_mem_write/MPU6050                         01EBH 01EEH
  +--> i2c_start/MPU6050
  +--> i2c_write_byte/MPU6050
  +--> i2c_wait_ack/MPU6050
  +--> i2c_stop/MPU6050

MPU_Write_Bit/MPU6050                         ----- -----
  +--> i2c_write_bit/MPU6050

i2c_write_bit/MPU6050                         01E8H 01E8H
  +--> i2c_mem_read/MPU6050
  +--> i2c_mem_write/MPU6050
L251 LINKER/LOCATER V4.66.93.0                                                        02/27/2024  23:09:55  PAGE 17



getDeviceID/MPU6050                           01E2H 01E2H
  +--> MPU_Read_Bits/MPU6050

MPU_Read_Bits/MPU6050                         ----- -----
  +--> i2c_read_bits/MPU6050

i2c_read_bits/MPU6050                         01E8H 01EBH
  +--> i2c_mem_read/MPU6050

dmpInitialize/MPU6050                         01E2H 01E7H
  +--> MPU_Write_Bit/MPU6050
  +--> MPU_Delay_Ms/MPU6050
  +--> MPU_Write_Byte/MPU6050
  +--> MPU_Read_Len/MPU6050
  +--> MPU_Read_Bit/MPU6050
  +--> MPU_Read_Bits/MPU6050
  +--> loadfirmware/MPU6050
  +--> loadcfgupd/MPU6050
  +--> MPU_Write_Bits/MPU6050
  +--> xdmpUpdates/MPU6050
  +--> getFIFOCount/MPU6050

MPU_Delay_Ms/MPU6050                          ----- -----
  +--> Delay1ms/MPU6050

Delay1ms/MPU6050                              ----- -----

MPU_Write_Byte/MPU6050                        01EAH 01EAH
  +--> i2c_mem_write/MPU6050

MPU_Read_Len/MPU6050                          ----- -----
  +--> i2c_mem_read/MPU6050

MPU_Read_Bit/MPU6050                          ----- -----
  +--> i2c_read_bit/MPU6050

i2c_read_bit/MPU6050                          01E8H 01E9H
  +--> i2c_mem_read/MPU6050

loadfirmware/MPU6050                          01E8H 01E9H
  +--> MPU_Write_Byte/MPU6050
  +--> MPU_Write_Len/MPU6050

MPU_Write_Len/MPU6050                         ----- -----
  +--> i2c_mem_write/MPU6050

loadcfgupd/MPU6050                            01E8H 01E9H
  +--> MPU_Write_Byte/MPU6050
  +--> MPU_Write_Len/MPU6050

xdmpUpdates/MPU6050                           ----- -----
  +--> MPU_Write_Byte/MPU6050
  +--> MPU_Write_Len/MPU6050

getFIFOCount/MPU6050                          01E8H 01E9H
  +--> MPU_Read_Len/MPU6050

pit_timer_ms/zf_tim                           ----- -----
  +--> ?C?SLDIV/?C?SLDIV

ctimer_count_init/zf_tim                      ----- -----

Motor_Init/motor                              ----- -----
  +--> pwm_init/zf_pwm
L251 LINKER/LOCATER V4.66.93.0                                                        02/27/2024  23:09:55  PAGE 18



pwm_init/zf_pwm                               01E2H 01E9H
  +--> pwm_set_gpio/zf_pwm
  +--> ?C?ULIDIV/?C?ULDIV

pwm_set_gpio/zf_pwm                           ----- -----
  +--> gpio_mode/zf_gpio

ADC_InitAll/ADC                               ----- -----
  +--> adc_init/zf_adc

adc_init/zf_adc                               ----- -----

PID_Init/PID                                  01E2H 01F1H

EnableGlobalIRQ/board                         ----- -----

oled_printf_float/SEEKFREE_OLED               01E2H 020CH
  +--> zf_sprintf/SEEKFREE_PRINTF
  +--> oled_p8x16str/SEEKFREE_OLED

zf_sprintf/SEEKFREE_PRINTF                    020DH 026BH
  +--> number_conversion_ascii/SEEKFREE_PRINTF
  +--> printf_reverse_order/SEEKFREE_PRINTF
  +--> memcpy?_/memcpy

number_conversion_ascii/SEEKFREE_PRINTF       026CH 026CH
  +--> ?C?SLDIV/?C?SLDIV
  +--> ?C?ULIDIV/?C?ULDIV

printf_reverse_order/SEEKFREE_PRINTF          ----- -----

oled_p8x16str/SEEKFREE_OLED                   020DH 0211H
  +--> oled_set_pos/SEEKFREE_OLED
  +--> oled_wrdat/SEEKFREE_OLED

ADC_GetValue/ADC                              ----- -----
  +--> adc_once/zf_adc

adc_once/zf_adc                               ----- -----

MPU6050_Refresh_DMP/MPU6050                   ----- -----
  +--> getFIFOCount/MPU6050
  +--> MPU_Read_Len/MPU6050
  +--> MPU_Write_Bit/MPU6050
  +--> readdmp/MPU6050
  +--> atan2?_/atan2

readdmp/MPU6050                               ----- -----
  +--> MPU_Read_Len/MPU6050

atan2?_/atan2                                 ----- -----

MPU_Get_Gyroscope/MPU6050                     01E2H 01EFH
  +--> MPU_Read_Len/MPU6050

Get_Ratio/main                                ----- -----

vl53l0x_get_distance/TOF                      01E2H 01E4H
  +--> vl53l0x_simiic_read_regs_1/TOF
  +--> vl53l0x_simiic_write_reg/TOF

vl53l0x_simiic_read_regs_1/TOF                01E5H 01EAH
  +--> vl53l0x_simiic_start/TOF
  +--> vl53l0x_send_ch/TOF
L251 LINKER/LOCATER V4.66.93.0                                                        02/27/2024  23:09:55  PAGE 19


  +--> vl53l0x_read_ch/TOF
  +--> vl53l0x_simiic_stop/TOF

Elem_Barrier/Element                          ----- -----

Elem_Circle_R/Element                         ----- -----

Elem_Circle_L/Element                         ----- -----

PID_Calculate/PID                             01E2H 01E5H
  +--> Limit_Out/motor

Limit_Out/motor                               01E6H 01E9H

Elem_Up_Down/Element                          ----- -----
  +--> Num2Abs/motor

Num2Abs/motor                                 ----- -----

Get_Speed/motor                               ----- -----
  +--> ctimer_count_read/zf_tim
  +--> ctimer_count_clean/zf_tim

ctimer_count_read/zf_tim                      ----- -----

ctimer_count_clean/zf_tim                     ----- -----

Left_SetSpeed/motor                           ----- -----
  +--> pwm_duty/zf_pwm

pwm_duty/zf_pwm                               ----- -----

Right_SetSpeed/motor                          ----- -----
  +--> pwm_duty/zf_pwm

*** NEW ROOT ********************************

?C_C51STARTUP?2                               ----- -----



PUBLIC SYMBOLS OF MODULE:  .\Out_File\SEEKFREE (board)


      VALUE       CLASS    TYPE      PUBLIC SYMBOL NAME
      =================================================
      00FF111EH   CODE     NEAR LAB  ?C?CASTF
      000000FFH   NUMBER   ---       ?C?CODESEG
      00FF10EBH   CODE     NEAR LAB  ?C?FCASTC
      00FF10E6H   CODE     NEAR LAB  ?C?FCASTI
      00FF10E1H   CODE     NEAR LAB  ?C?FCASTL
      00FF18BFH   CODE     ---       ?C?FP2SERIES
      00FF0EB4H   CODE     ---       ?C?FPADD
      00FF108FH   CODE     ---       ?C?FPCMP
      00FF108DH   CODE     ---       ?C?FPCMP3
      00FF17C4H   CODE     ---       ?C?FPCONVERT
      00FF100CH   CODE     ---       ?C?FPDIV
      00FF11A7H   CODE     ---       ?C?FPGETOPN2
      00FF0F6CH   CODE     ---       ?C?FPMUL
      00FF11E4H   CODE     ---       ?C?FPNANRESULT
      00FF10D3H   CODE     ---       ?C?FPNEG
      00FF11ECH   CODE     ---       ?C?FPOVERFLOW
      00FF11C0H   CODE     ---       ?C?FPRESULT
      00FF11D6H   CODE     ---       ?C?FPRESULT2
      00FF187CH   CODE     ---       ?C?FPROUND
L251 LINKER/LOCATER V4.66.93.0                                                        02/27/2024  23:09:55  PAGE 20


      00FF18C8H   CODE     ---       ?C?FPSERIES
      00FF0EB1H   CODE     ---       ?C?FPSUB
      00FF11E9H   CODE     ---       ?C?FPUNDERFLOW
      00FF191CH   CODE     ---       ?C?FTNPWR
      00FF5C74H   CODE     ---       ?C?INITEDATA
      00FF6532H   HCONST   WORD      ?C?INITEDATA_END
      00FF1996H   CODE     ---       ?C?LIMUL
      00FF1985H   CODE     ---       ?C?LMUL
      00FF1225H   CODE     ---       ?C?PRNFMT
      00FF1953H   CODE     ---       ?C?SIDIV
      00FF19F2H   CODE     NEAR LAB  ?C?SLDIV
      00FF0000H   CODE     ---       ?C?STARTUP
      00FF19A1H   CODE     NEAR LAB  ?C?ULDIV
      00FF199FH   CODE     NEAR LAB  ?C?ULIDIV
      00000001H   NUMBER   ---       ?C?XDATASEG
      00FF0000H   CODE     ---       ?C_STARTUP
*DEL*:1FFFFFF8H   EDATA    BYTE      ?data_conversion?BYTE
*DEL*:1FFFFFF8H   EDATA    BYTE      ?fifo_init?BYTE
*DEL*:1FFFFFFCH   EDATA    BYTE      ?fifo_read_buffer?BYTE
      000001D2H   EDATA    BYTE      ?fifo_write_buffer?BYTE
*DEL*:1FFFFFFAH   EDATA    BYTE      ?iic_init?BYTE
*DEL*:1FFFFFFCH   EDATA    BYTE      ?ips114_showfloat?BYTE
*DEL*:1FFFFFFCH   EDATA    BYTE      ?ips114_showfloat_simspi?BYTE
*DEL*:1FFFFFFCH   EDATA    BYTE      ?lcd_showfloat?BYTE
*DEL*:1FFFFFFCH   EDATA    BYTE      ?lcd_showfloat_simspi?BYTE
      000001DEH   EDATA    BYTE      ?Limit_Out?BYTE
*DEL*:1FFFFFFCH   EDATA    BYTE      ?MPU_Get_Accelerometer?BYTE
      000001DEH   EDATA    BYTE      ?MPU_Get_Gyroscope?BYTE
      00000263H   EDATA    BYTE      ?number_conversion_ascii?BYTE
      000001DEH   EDATA    BYTE      ?oled_printf_float?BYTE
*DEL*:1FFFFFFCH   EDATA    BYTE      ?oled_printf_float_spi?BYTE
      000001DAH   EDATA    BYTE      ?PID_Calculate?BYTE
      000001DAH   EDATA    BYTE      ?PID_Init?BYTE
      0000021CH   EDATA    ---       ?printf?BYTE
*DEL*:1FFFFFFAH   EDATA    BYTE      ?pwm_freq?BYTE
      000001E0H   EDATA    BYTE      ?pwm_init?BYTE
*DEL*:1FFFFFF7H   EDATA    BYTE      ?spi_init?BYTE
      000001DCH   EDATA    BYTE      ?uart_init?BYTE
      00000235H   EDATA    BYTE      ?zf_sprintf?BYTE
      0000044BH   EDATA    ---       ADC_Array_Original
*SFR* 000000BCH   DATA     BYTE      ADC_CONTR
      00FF42A4H   CODE     ---       ADC_GetValue
      00FF5705H   CODE     ---       adc_init
      00FF6032H   CODE     ---       ADC_InitAll
      00FF5FABH   CODE     ---       adc_once
      00000487H   EDATA    ---       ADC_proc
*SFR* 000000BDH   DATA     BYTE      ADC_RES
*SFR* 000000BEH   DATA     BYTE      ADC_RESL
*SFR* 000000DEH   DATA     BYTE      ADCCFG
      00FF1187H   CODE     ---       asin?_
*DEL*:00000000H   CODE     ---       at24c02_read_byte
*DEL*:00000000H   CODE     ---       at24c02_read_bytes
*DEL*:00000000H   CODE     ---       at24c02_write_byte
*DEL*:00000000H   CODE     ---       at24c02_write_bytes
      00FF5B96H   CODE     ---       atan2?_
      00FF16E4H   CODE     ---       ATAN?_
*SFR* 000000EFH   DATA     BYTE      AUXINTIF
*SFR* 0000008EH   DATA     BYTE      AUXR
      000004DDH   EDATA    CHAR      Barrier_Executed
      000004D9H   EDATA    CHAR      Barrier_Flag1
      000004DAH   EDATA    CHAR      Barrier_Flag2
      000004DBH   EDATA    CHAR      Barrier_Flag3
      000004DCH   EDATA    CHAR      Barrier_Flag4
*DEL*:00000000H   CODE     ---       bluetooth_ch9141_init
*DEL*:00000000H   CODE     ---       bluetooth_ch9141_read_buff
L251 LINKER/LOCATER V4.66.93.0                                                        02/27/2024  23:09:55  PAGE 21


*DEL*:00000000H   CODE     ---       bluetooth_ch9141_send_buff
      00FF624CH   CODE     ---       bluetooth_ch9141_uart_callback
      00FF5224H   CODE     ---       board_init
      000001D1H   EDATA    ---       busy
*DEL*:00000000H   CODE     ---       ccd_collect
      00000009H   EDATA    ---       ccd_data
*DEL*:00000000H   CODE     ---       ccd_init
*DEL*:00000000H   CODE     ---       ccd_send_data
      000004D6H   EDATA    CHAR      circle_flag_L
      000004D8H   EDATA    CHAR      circle_flag_R
      000004D7H   EDATA    CHAR      circle_Force_Flag
      000004DEH   EDATA    CHAR      circle_In_Flag
      000004DFH   EDATA    CHAR      circle_Out_Flag
      0000052EH   EDATA    CHAR      count
*DEL*:00000000H   CODE     ---       CRC_CHECK
      00FF5A1CH   CODE     ---       ctimer_count_clean
      00FF5B07H   CODE     ---       ctimer_count_init
      00FF5A6DH   CODE     ---       ctimer_count_read
*DEL*:00000000H   CODE     ---       data_conversion
      00FF63D0H   CODE     ---       Delay1ms
      00FF5DD0H   CODE     ---       delay_init
      00FF6297H   CODE     ---       delay_ms
*DEL*:00000000H   CODE     ---       delay_us
      000004C9H   EDATA    FLOAT     Diff
      000004C5H   EDATA    FLOAT     Diff_Mid
      000004B7H   EDATA    INT       dis
      00FF0016H   CODE     ---       DisableGlobalIRQ
      00FF1A55H   CODE     ---       dmpcfgupddata
      00000311H   EDATA    ---       dmpdatas
      00FF3D3DH   CODE     ---       dmpInitialize
      00FF1B15H   CODE     ---       dmpmemorydata
      00FF1A26H   CODE     ---       dmpUpdates
*SFR* 000000A8H.7 DATA     BIT       EA
*DEL*:00000000H   CODE     ---       eeprom_trig
      00FF4BB9H   CODE     ---       Elem_Barrier
      00FF43EFH   CODE     ---       Elem_Circle_L
      00FF4519H   CODE     ---       Elem_Circle_R
      00FF5B51H   CODE     ---       Elem_Up_Down
      00FF000EH   CODE     ---       EnableGlobalIRQ
*DEL*:00000000H   CODE     ---       encoder_angle_simspi
*DEL*:00000000H   CODE     ---       encoder_angle_spi
*DEL*:00000000H   CODE     ---       encoder_delay_us
*DEL*:00000000H   CODE     ---       encoder_init_simspi
*DEL*:00000000H   CODE     ---       encoder_init_spi
*DEL*:00000000H   CODE     ---       encoder_self4_check
*DEL*:00000000H   CODE     ---       encoder_self5_check
*DEL*:00000000H   CODE     ---       encoder_simspi_r_reg_byte
*DEL*:00000000H   CODE     ---       encoder_simspi_w_reg_byte
*DEL*:00000000H   CODE     ---       encoder_spi_r_reg_byte
*DEL*:00000000H   CODE     ---       encoder_spi_w_reg_byte
*SFR* 000000A8H.4 DATA     BIT       ES
*SFR* 000000A8H.1 DATA     BIT       ET0
*SFR* 000000A8H.3 DATA     BIT       ET1
*SFR* 000000A8H.0 DATA     BIT       EX0
*SFR* 000000A8H.2 DATA     BIT       EX1
*DEL*:00000000H   CODE     ---       exit_init
      0000049FH   EDATA    FLOAT     Exp_Speed
      000004AFH   EDATA    FLOAT     Exp_Speed_L
      000004B3H   EDATA    FLOAT     Exp_Speed_R
*DEL*:00000000H   CODE     ---       extern_iap_write_bytes
*SFR* 000000D0H.5 DATA     BIT       F0
*DEL*:00000000H   CODE     ---       fifo_clear
*DEL*:00000000H   CODE     ---       fifo_end_offset
      00FF5C1FH   CODE     ---       fifo_head_offset
*DEL*:00000000H   CODE     ---       fifo_init
L251 LINKER/LOCATER V4.66.93.0                                                        02/27/2024  23:09:55  PAGE 22


*DEL*:00000000H   CODE     ---       fifo_read_buffer
*DEL*:00000000H   CODE     ---       fifo_used
      00FF49FEH   CODE     ---       fifo_write_buffer
*DEL*:00000000H   CODE     ---       get_icm20602_accdata_simiic
*DEL*:00000000H   CODE     ---       get_icm20602_accdata_simspi
*DEL*:00000000H   CODE     ---       get_icm20602_gyro_simiic
*DEL*:00000000H   CODE     ---       get_icm20602_gyro_simspi
      00FF4F5AH   CODE     ---       Get_Ratio
      00FF5643H   CODE     ---       Get_Speed
      00FF61B6H   CODE     ---       getDeviceID
      00FF0026H   CODE     ---       getFIFOCount
      00FF2DB3H   CODE     ---       gpio_mode
*DEL*:00000000H   CODE     ---       gpio_pull_set
      000004BDH   EDATA    INT       gx
      000004BFH   EDATA    INT       gy
      000004C1H   EDATA    INT       gz
      00FF62AEH   CODE     ---       i2c_ack
      00FF63C5H   CODE     ---       i2c_delay
      00FF53A3H   CODE     ---       i2c_mem_read
      00FF56A6H   CODE     ---       i2c_mem_write
      00FF62ECH   CODE     ---       i2c_nack
      00FF5F12H   CODE     ---       i2c_read_bit
      00FF5507H   CODE     ---       i2c_read_bits
      00FF5E09H   CODE     ---       i2c_read_byte
      00FF005EH   CODE     ---       I2C_SCL_H
      00FF0086H   CODE     ---       I2C_SCL_L
      00FF001EH   CODE     ---       I2C_SDA_H
      00FF0056H   CODE     ---       I2C_SDA_L
      00FF0006H   CODE     ---       I2C_SDA_Read
      00FF62FEH   CODE     ---       i2c_start
      00FF6342H   CODE     ---       i2c_stop
      00FF63AFH   CODE     ---       i2c_timeout_delay
      00FF605DH   CODE     ---       i2c_wait_ack
      00FF57C0H   CODE     ---       i2c_write_bit
      00FF5326H   CODE     ---       i2c_write_bits
      00FF5F45H   CODE     ---       i2c_write_byte
*SFR* 000000F6H   DATA     BYTE      IAP_ADDRE
*SFR* 000000C3H   DATA     BYTE      IAP_ADDRH
*SFR* 000000C4H   DATA     BYTE      IAP_ADDRL
*SFR* 000000C5H   DATA     BYTE      IAP_CMD
*SFR* 000000C7H   DATA     BYTE      IAP_CONTR
*SFR* 000000C2H   DATA     BYTE      IAP_DATA
*DEL*:00000000H   CODE     ---       iap_erase_page
*DEL*:00000000H   CODE     ---       iap_get_cmd_state
*DEL*:00000000H   CODE     ---       iap_idle
*DEL*:00000000H   CODE     ---       iap_init
*DEL*:00000000H   CODE     ---       iap_read_bytes
*DEL*:00000000H   CODE     ---       iap_set_tps
*SFR* 000000F5H   DATA     BYTE      IAP_TPS
*SFR* 000000C6H   DATA     BYTE      IAP_TRIG
*DEL*:00000000H   CODE     ---       iap_write_bytes
*DEL*:00000000H   CODE     ---       icm20602_init_simiic
*DEL*:00000000H   CODE     ---       icm20602_init_simspi
*DEL*:00000000H   CODE     ---       icm20602_self1_check
*DEL*:00000000H   CODE     ---       icm20602_self4_check
      00000504H   EDATA    INT       icm_acc_x
      00000506H   EDATA    INT       icm_acc_y
      00000508H   EDATA    INT       icm_acc_z
      0000050AH   EDATA    INT       icm_gyro_x
      0000050CH   EDATA    INT       icm_gyro_y
      0000050EH   EDATA    INT       icm_gyro_z
*DEL*:00000000H   CODE     ---       icm_simspi_r_reg_byte
*DEL*:00000000H   CODE     ---       icm_simspi_r_reg_bytes
*DEL*:00000000H   CODE     ---       icm_simspi_w_reg_byte
*DEL*:00000000H   CODE     ---       icm_simspi_wr_byte
L251 LINKER/LOCATER V4.66.93.0                                                        02/27/2024  23:09:55  PAGE 23


*SFR* 000000A8H   DATA     BYTE      IE
*SFR* 000000AFH   DATA     BYTE      IE2
      0000051AH   EDATA    BYTE      IIC_ad_main
      0000051CH   EDATA    BYTE      IIC_ad_sub
      0000051DH   EDATA    ---       IIC_buf
*DEL*:00000000H   CODE     ---       iic_change_pin
*DEL*:00000000H   CODE     ---       iic_delay_us
*DEL*:00000000H   CODE     ---       iic_init
      0000051BH   EDATA    BYTE      IIC_num
*DEL*:00000000H   CODE     ---       iic_read_reg
*DEL*:00000000H   CODE     ---       iic_read_reg_bytes
*DEL*:00000000H   CODE     ---       iic_write_reg
      00FF473BH   CODE     ---       Init_all
      00FF5F78H   CODE     ---       initMPU6050
      00FF640BH   CODE     ---       INT0_Isr
      00FF0011H   CODE     ---       INT1_Isr
      00FF63E3H   CODE     ---       INT2_Isr
      00FF63EBH   CODE     ---       INT3_Isr
      00FF63F3H   CODE     ---       INT4_Isr
*SFR* 0000008FH   DATA     BYTE      INTCLKO
*SFR* 000000B8H   DATA     BYTE      IP
*SFR* 000000B5H   DATA     BYTE      IP2
*SFR* 000000B6H   DATA     BYTE      IP2H
*SFR* 000000B7H   DATA     BYTE      IPH
*DEL*:00000000H   CODE     ---       ips114_clear
*DEL*:00000000H   CODE     ---       ips114_clear_simspi
*DEL*:00000000H   CODE     ---       ips114_drawpoint
*DEL*:00000000H   CODE     ---       ips114_drawpoint_simspi
*DEL*:00000000H   CODE     ---       ips114_init
*DEL*:00000000H   CODE     ---       ips114_init_simspi
*DEL*:00000000H   CODE     ---       ips114_set_region
*DEL*:00000000H   CODE     ---       ips114_set_region_simspi
*DEL*:00000000H   CODE     ---       ips114_showchar
*DEL*:00000000H   CODE     ---       ips114_showchar_simspi
*DEL*:00000000H   CODE     ---       ips114_showfloat
*DEL*:00000000H   CODE     ---       ips114_showfloat_simspi
*DEL*:00000000H   CODE     ---       ips114_showint16
*DEL*:00000000H   CODE     ---       ips114_showint16_simspi
*DEL*:00000000H   CODE     ---       ips114_showint32
*DEL*:00000000H   CODE     ---       ips114_showint32_simspi
*DEL*:00000000H   CODE     ---       ips114_showint8
*DEL*:00000000H   CODE     ---       ips114_showint8_simspi
*DEL*:00000000H   CODE     ---       ips114_showstr
*DEL*:00000000H   CODE     ---       ips114_showstr_simspi
*DEL*:00000000H   CODE     ---       ips114_showuint16
*DEL*:00000000H   CODE     ---       ips114_showuint16_simspi
*DEL*:00000000H   CODE     ---       ips114_showuint8
*DEL*:00000000H   CODE     ---       ips114_showuint8_simspi
*DEL*:00000000H   CODE     ---       ips114_writeData
*DEL*:00000000H   CODE     ---       ips114_writedata_16bit
*DEL*:00000000H   CODE     ---       ips114_writeData_simspi
*DEL*:00000000H   CODE     ---       ips114_writeDatai_16bit_simspi
*DEL*:00000000H   CODE     ---       ips114_writeIndex
*DEL*:00000000H   CODE     ---       ips114_writeIndex_simspi
      000004C3H   EDATA    CHAR      Isr_flag_10
      000004C4H   EDATA    CHAR      Isr_flag_20
*SFR* 00000088H.0 DATA     BIT       IT0
*SFR* 00000088H.2 DATA     BIT       IT1
      000004A3H   EDATA    FLOAT     KeyAdjust
*DEL*:00000000H   CODE     ---       lcd_clear
*DEL*:00000000H   CODE     ---       lcd_clear_simspi
*DEL*:00000000H   CODE     ---       lcd_drawpoint
*DEL*:00000000H   CODE     ---       lcd_drawpoint_simspi
*DEL*:00000000H   CODE     ---       lcd_init
*DEL*:00000000H   CODE     ---       lcd_init_simspi
L251 LINKER/LOCATER V4.66.93.0                                                        02/27/2024  23:09:55  PAGE 24


*DEL*:00000000H   CODE     ---       lcd_set_region
*DEL*:00000000H   CODE     ---       lcd_set_region_simspi
*DEL*:00000000H   CODE     ---       lcd_showchar
*DEL*:00000000H   CODE     ---       lcd_showchar_simspi
*DEL*:00000000H   CODE     ---       lcd_showfloat
*DEL*:00000000H   CODE     ---       lcd_showfloat_simspi
*DEL*:00000000H   CODE     ---       lcd_showint16
*DEL*:00000000H   CODE     ---       lcd_showint16_simspi
*DEL*:00000000H   CODE     ---       lcd_showint32
*DEL*:00000000H   CODE     ---       lcd_showint32_simspi
*DEL*:00000000H   CODE     ---       lcd_showint8
*DEL*:00000000H   CODE     ---       lcd_showint8_simspi
*DEL*:00000000H   CODE     ---       lcd_showstr
*DEL*:00000000H   CODE     ---       lcd_showstr_simspi
*DEL*:00000000H   CODE     ---       lcd_showuint16
*DEL*:00000000H   CODE     ---       lcd_showuint16_simspi
*DEL*:00000000H   CODE     ---       lcd_showuint8
*DEL*:00000000H   CODE     ---       lcd_showuint8_simspi
*DEL*:00000000H   CODE     ---       lcd_writeData
*DEL*:00000000H   CODE     ---       lcd_writedata_16bit
*DEL*:00000000H   CODE     ---       lcd_writeData_16bit_simspi
*DEL*:00000000H   CODE     ---       lcd_writeData_simspi
*DEL*:00000000H   CODE     ---       lcd_writeIndex
*DEL*:00000000H   CODE     ---       lcd_writeIndex_simspi
      00FF519EH   CODE     ---       Left_SetSpeed
      00000295H   EDATA    ---       Left_Wheel_PID
      00FF6007H   CODE     ---       Limit_Out
      00FF4E11H   CODE     ---       loadcfgupd
      00FF52A5H   CODE     ---       loadfirmware
      00FF31AAH   CODE     ---       main
      00FF6129H   CODE     ---       memcpy?_
      00FF6232H   CODE     ---       memset?_
      00FF5BDBH   CODE     ---       Motor_Init
      00FF6171H   CODE     ---       MPU6050_DMP_Init
*DEL*:00000000H   CODE     ---       mpu6050_get_accdata
*DEL*:00000000H   CODE     ---       mpu6050_get_gyro
*DEL*:00000000H   CODE     ---       mpu6050_init
      00FF3AA3H   CODE     ---       MPU6050_Refresh_DMP
*DEL*:00000000H   CODE     ---       mpu6050_self1_check
      000004F8H   EDATA    INT       mpu_acc_x
      000004FAH   EDATA    INT       mpu_acc_y
      000004FCH   EDATA    INT       mpu_acc_z
      00FF62D8H   CODE     ---       MPU_Delay_Ms
*DEL*:00000000H   CODE     ---       MPU_Get_Accelerometer
      00FF581CH   CODE     ---       MPU_Get_Gyroscope
*DEL*:00000000H   CODE     ---       MPU_Get_Temperature
      000004FEH   EDATA    INT       mpu_gyro_x
      00000500H   EDATA    INT       mpu_gyro_y
      00000502H   EDATA    INT       mpu_gyro_z
*DEL*:00000000H   CODE     ---       MPU_Init
      00FF63DAH   CODE     ---       MPU_Read_Bit
      00FF0046H   CODE     ---       MPU_Read_Bits
*DEL*:00000000H   CODE     ---       MPU_Read_Byte
      00FF63A4H   CODE     ---       MPU_Read_Len
*DEL*:00000000H   CODE     ---       MPU_Set_Accel_Fsr
*DEL*:00000000H   CODE     ---       MPU_Set_Gyro_Fsr
*DEL*:00000000H   CODE     ---       MPU_Set_LPF
*DEL*:00000000H   CODE     ---       MPU_Set_Rate
      0000033BH   EDATA    CHAR      mpu_state
      00FF638AH   CODE     ---       MPU_Write_Bit
      00FF637DH   CODE     ---       MPU_Write_Bits
      00FF62C3H   CODE     ---       MPU_Write_Byte
      00FF63BAH   CODE     ---       MPU_Write_Len
      00FF6310H   CODE     ---       Num2Abs
      00FF5086H   CODE     ---       number_conversion_ascii
L251 LINKER/LOCATER V4.66.93.0                                                        02/27/2024  23:09:55  PAGE 25


*DEL*:00000000H   CODE     ---       NVIC_SetPriority
      00FF0C86H   CODE     ---       oled_6x8
      00FF00A6H   CODE     ---       oled_8x16
*DEL*:00000000H   CODE     ---       oled_clrpixel
*DEL*:00000000H   CODE     ---       oled_clrpixel_spi
*DEL*:00000000H   CODE     ---       oled_dis_bmp
*DEL*:00000000H   CODE     ---       oled_dis_bmp_spi
      00FF5EDFH   CODE     ---       oled_fill
*DEL*:00000000H   CODE     ---       oled_fill_spi
*DEL*:00000000H   CODE     ---       oled_hexascii
*DEL*:00000000H   CODE     ---       oled_hexascii_spi
      00FF4EB7H   CODE     ---       oled_init
*DEL*:00000000H   CODE     ---       oled_init_spi
*DEL*:00000000H   CODE     ---       oled_int16
*DEL*:00000000H   CODE     ---       oled_int16_spi
*DEL*:00000000H   CODE     ---       oled_p6x8str
*DEL*:00000000H   CODE     ---       oled_p6x8str_spi
      00FF4832H   CODE     ---       oled_p8x16str
*DEL*:00000000H   CODE     ---       oled_p8x16str_spi
*DEL*:00000000H   CODE     ---       oled_print_chinese
*DEL*:00000000H   CODE     ---       oled_print_chinese_spi
      00FF4643H   CODE     ---       oled_printf_float
*DEL*:00000000H   CODE     ---       oled_printf_float_spi
*DEL*:00000000H   CODE     ---       oled_printf_int32
*DEL*:00000000H   CODE     ---       oled_printf_int32_spi
*DEL*:00000000H   CODE     ---       oled_putpixel
*DEL*:00000000H   CODE     ---       oled_putpixel_spi
      00FF614EH   CODE     ---       oled_set_pos
*DEL*:00000000H   CODE     ---       oled_set_pos_spi
*DEL*:00000000H   CODE     ---       oled_uint16
*DEL*:00000000H   CODE     ---       oled_uint16_spi
      00FF6087H   CODE     ---       oled_wrcmd
*DEL*:00000000H   CODE     ---       oled_wrcmd_spi
      00FF60B0H   CODE     ---       oled_wrdat
*DEL*:00000000H   CODE     ---       oled_wrdat_spi
*SFR* 00000080H   DATA     BYTE      P0
*SFR* 00000080H.7 DATA     BIT       P07
*SFR* 00000094H   DATA     BYTE      P0M0
*SFR* 00000093H   DATA     BYTE      P0M1
*SFR* 00000090H   DATA     BYTE      P1
*SFR* 00000092H   DATA     BYTE      P1M0
*SFR* 00000091H   DATA     BYTE      P1M1
*SFR* 000000A0H   DATA     BYTE      P2
*SFR* 000000A0H.0 DATA     BIT       P20
*SFR* 000000A0H.1 DATA     BIT       P21
*SFR* 000000A0H.2 DATA     BIT       P22
*SFR* 000000A0H.3 DATA     BIT       P23
*SFR* 000000A0H.4 DATA     BIT       P24
*SFR* 000000A0H.5 DATA     BIT       P25
*SFR* 000000A0H.6 DATA     BIT       P26
*SFR* 000000A0H.7 DATA     BIT       P27
*SFR* 00000096H   DATA     BYTE      P2M0
*SFR* 00000095H   DATA     BYTE      P2M1
*SFR* 000000B0H   DATA     BYTE      P3
*SFR* 000000B0H.2 DATA     BIT       P32
*SFR* 000000B0H.3 DATA     BIT       P33
*SFR* 000000B0H.5 DATA     BIT       P35
*SFR* 000000B2H   DATA     BYTE      P3M0
*SFR* 000000B1H   DATA     BYTE      P3M1
*SFR* 000000C0H   DATA     BYTE      P4
*SFR* 000000C0H.0 DATA     BIT       P40
*SFR* 000000C0H.1 DATA     BIT       P41
*SFR* 000000C0H.2 DATA     BIT       P42
*SFR* 000000C0H.3 DATA     BIT       P43
*SFR* 000000C0H.7 DATA     BIT       P47
L251 LINKER/LOCATER V4.66.93.0                                                        02/27/2024  23:09:55  PAGE 26


*SFR* 000000B4H   DATA     BYTE      P4M0
*SFR* 000000B3H   DATA     BYTE      P4M1
*SFR* 000000C8H   DATA     BYTE      P5
*SFR* 000000C8H.0 DATA     BIT       P50
*SFR* 000000C8H.1 DATA     BIT       P51
*SFR* 000000C8H.2 DATA     BIT       P52
*SFR* 000000C8H.3 DATA     BIT       P53
*SFR* 000000CAH   DATA     BYTE      P5M0
*SFR* 000000C9H   DATA     BYTE      P5M1
*SFR* 000000E8H   DATA     BYTE      P6
*SFR* 000000CCH   DATA     BYTE      P6M0
*SFR* 000000CBH   DATA     BYTE      P6M1
*SFR* 000000F8H   DATA     BYTE      P7
*SFR* 000000F8H.0 DATA     BIT       P70
*SFR* 000000F8H.1 DATA     BIT       P71
*SFR* 000000E2H   DATA     BYTE      P7M0
*SFR* 000000E1H   DATA     BYTE      P7M1
*SFR* 000000A2H   DATA     BYTE      P_SW1
*SFR* 000000BAH   DATA     BYTE      P_SW2
      00FF4C92H   CODE     ---       PID_Calculate
      00FF5920H   CODE     ---       PID_Init
      00FF4FF2H   CODE     ---       pit_timer_ms
      0000033CH   EDATA    FLOAT     Pitch
      000004ABH   EDATA    FLOAT     Plus
      000004A7H   EDATA    FLOAT     Plus_Mid
      00FF115BH   CODE     NEAR LAB  printf
      00FF5CA0H   CODE     ---       printf_reverse_order
*SFR* 000000D0H   DATA     BYTE      PSW
      00FF636FH   CODE     ---       putchar
      00FF6554H   HCONST   ---       PWM_ARR_ADDR
      00FF655CH   HCONST   ---       PWM_CCER_ADDR
      00FF656CH   HCONST   ---       PWM_CCMR_ADDR
      00FF6534H   HCONST   ---       PWM_CCR_ADDR
      00FF4D59H   CODE     ---       pwm_duty
*DEL*:00000000H   CODE     ---       pwm_freq
      00FF351EH   CODE     ---       pwm_init
      00FF3802H   CODE     ---       pwm_set_gpio
      00000301H   EDATA    ---       Q
      0000049BH   EDATA    FLOAT     Ratio
      000004CDH   EDATA    FLOAT     Ratio_Mid
*DEL*:00000000H   CODE     ---       read_ch
      00FF6351H   CODE     ---       readdmp
*DEL*:00000000H   CODE     ---       recv_ack
*DEL*:00000000H   CODE     ---       recv_data
      00FF5118H   CODE     ---       Right_SetSpeed
      0000026DH   EDATA    ---       Right_Wheel_PID
      000002E9H   EDATA    FLOAT     Roll
*SFR* 000000FFH   DATA     BYTE      RSTCFG
*SFR* 0000009BH   DATA     BYTE      S2BUF
*SFR* 0000009AH   DATA     BYTE      S2CON
*SFR* 000000ADH   DATA     BYTE      S3BUF
*SFR* 000000ACH   DATA     BYTE      S3CON
*SFR* 000000FEH   DATA     BYTE      S4BUF
*SFR* 000000FDH   DATA     BYTE      S4CON
*SFR* 00000099H   DATA     BYTE      SBUF
*SFR* 00000098H   DATA     BYTE      SCON
*DEL*:00000000H   CODE     ---       send_ack
*DEL*:00000000H   CODE     ---       send_ch
*DEL*:00000000H   CODE     ---       send_data
*DEL*:00000000H   CODE     ---       send_nak
*DEL*:00000000H   CODE     ---       set_zero_position_simspi
*DEL*:00000000H   CODE     ---       set_zero_position_spi
*DEL*:00000000H   CODE     ---       showimage
*DEL*:00000000H   CODE     ---       simiic_delay
*DEL*:00000000H   CODE     ---       simiic_init
L251 LINKER/LOCATER V4.66.93.0                                                        02/27/2024  23:09:55  PAGE 27


*DEL*:00000000H   CODE     ---       simiic_read_reg
*DEL*:00000000H   CODE     ---       simiic_read_regs
*DEL*:00000000H   CODE     ---       simiic_sendack
*DEL*:00000000H   CODE     ---       simiic_start
*DEL*:00000000H   CODE     ---       simiic_stop
*DEL*:00000000H   CODE     ---       simiic_write_reg
*DEL*:00000000H   CODE     ---       simspi_r_reg_byte
*DEL*:00000000H   CODE     ---       simspi_w_reg_byte
*DEL*:00000000H   CODE     ---       simspi_wr_byte
*SFR* 000000CEH   DATA     BYTE      SPCTL
*SFR* 000000CFH   DATA     BYTE      SPDAT
      00000291H   EDATA    FLOAT     Speed_L
      000002B9H   EDATA    FLOAT     Speed_R
*DEL*:00000000H   CODE     ---       spi_change_mode
*DEL*:00000000H   CODE     ---       spi_change_pin
*DEL*:00000000H   CODE     ---       spi_init
*DEL*:00000000H   CODE     ---       spi_mosi
*DEL*:00000000H   CODE     ---       spi_r_reg_byte
*DEL*:00000000H   CODE     ---       spi_w_reg_byte
*DEL*:00000000H   CODE     ---       spi_wr_byte
*SFR* 000000CDH   DATA     BYTE      SPSTAT
      00FF1634H   CODE     ---       SQRT?_
*DEL*:00000000H   CODE     ---       start
*DEL*:00000000H   CODE     ---       stop
      000004B9H   EDATA    FLOAT     sum
      000004D1H   EDATA    FLOAT     Sum_Angle
      00000521H   EDATA    LONG      sys_clk
*SFR* 000000D6H   DATA     BYTE      T2H
*SFR* 000000D7H   DATA     BYTE      T2L
*SFR* 000000D4H   DATA     BYTE      T3H
*SFR* 000000D5H   DATA     BYTE      T3L
*SFR* 000000D2H   DATA     BYTE      T4H
*SFR* 000000D3H   DATA     BYTE      T4L
*SFR* 000000DDH   DATA     BYTE      T4T3M
*SFR* 00000088H   DATA     BYTE      TCON
      00FF0696H   CODE     ---       tft_ascii
*SFR* 0000008CH   DATA     BYTE      TH0
*SFR* 0000008DH   DATA     BYTE      TH1
*SFR* 0000008AH   DATA     BYTE      TL0
*SFR* 0000008BH   DATA     BYTE      TL1
      00FF0012H   CODE     ---       TM0_Isr
      00FF0019H   CODE     ---       TM1_Isr
      00FF63FBH   CODE     ---       TM2_Isr
      00FF6403H   CODE     ---       TM3_Isr
      00FF5E40H   CODE     ---       TM4_Isr
*SFR* 00000089H   DATA     BYTE      TMOD
*SFR* 00000088H.4 DATA     BIT       TR0
*SFR* 00000088H.6 DATA     BIT       TR1
      00000008H   EDATA    BYTE      tsl1401_finish_flag
      000002BDH   EDATA    ---       Turn_PID
      00FF5D1CH   CODE     ---       UART1_Isr
      00000109H   EDATA    ---       uart1_rx_buff
      0000016DH   EDATA    ---       uart1_tx_buff
      00FF61F6H   CODE     ---       UART2_Isr
      00FF6214H   CODE     ---       UART3_Isr
      00FF5572H   CODE     ---       UART4_Isr
      00FF3F69H   CODE     ---       uart_init
*DEL*:00000000H   CODE     ---       uart_putbuff
      00FF58CCH   CODE     ---       uart_putchar
*DEL*:00000000H   CODE     ---       uart_putstr
      000004D5H   EDATA    CHAR      Up_Down_Flag
      00000510H   EDATA    ---       virtual_scope_data
      00000529H   EDATA    WORD      vl53l0x_distance_mm
      0000052BH   EDATA    BYTE      vl53l0x_finsh_flag
      00FF5763H   CODE     ---       vl53l0x_get_distance
L251 LINKER/LOCATER V4.66.93.0                                                        02/27/2024  23:09:55  PAGE 28


      00FF229EH   CODE     ---       vl53l0x_init
*DEL*:00000000H   CODE     ---       wait
      00FF627EH   CODE     ---       wireless_ch573_callback
*DEL*:00000000H   CODE     ---       wireless_ch573_init
*DEL*:00000000H   CODE     ---       wireless_ch573_read_buff
*DEL*:00000000H   CODE     ---       wireless_ch573_send_buff
      0000052CH   EDATA    INT       wireless_type
      00FF6265H   CODE     ---       wireless_uart_callback
*DEL*:00000000H   CODE     ---       wireless_uart_init
*DEL*:00000000H   CODE     ---       wireless_uart_read_buff
*DEL*:00000000H   CODE     ---       wireless_uart_send_buff
*SFR* 000000E9H   DATA     BYTE      WTST
      000002EDH   EDATA    FLOAT     x1
      00FF55DBH   CODE     ---       xdmpUpdates
      000002F1H   EDATA    FLOAT     y1
      000002FDH   EDATA    FLOAT     Yaw
      000002F5H   EDATA    FLOAT     z1
      000002E1H   EDATA    FLOAT     z_add
      000002E5H   EDATA    FLOAT     z_last
      000002F9H   EDATA    FLOAT     z_now
*DEL*:00000000H   CODE     ---       zero_all
      00000525H   EDATA    WORD      zf_delay_ms
      00000527H   EDATA    WORD      zf_delay_us
      00FF28B9H   CODE     ---       zf_sprintf



SYMBOL TABLE OF MODULE:  .\Out_File\SEEKFREE (board)

      VALUE       REP       CLASS    TYPE      SYMBOL NAME
      ====================================================
      ---         MODULE    ---      ---       board
      00FF000EH   PUBLIC    CODE     ---       EnableGlobalIRQ
      00FF5224H   PUBLIC    CODE     ---       board_init
      00FF0016H   PUBLIC    CODE     ---       DisableGlobalIRQ
      00FF636FH   PUBLIC    CODE     ---       putchar
      00000521H   PUBLIC    EDATA    LONG      sys_clk
      00000094H   SFRSYM    DATA     BYTE      P0M0
      000000D0H   SFRSYM    DATA     BYTE      PSW
      000000FDH   SFRSYM    DATA     BYTE      S4CON
      000000ACH   SFRSYM    DATA     BYTE      S3CON
      0000009AH   SFRSYM    DATA     BYTE      S2CON
      000000B7H   SFRSYM    DATA     BYTE      IPH
      000000E9H   SFRSYM    DATA     BYTE      WTST
      000000FFH   SFRSYM    DATA     BYTE      RSTCFG
      0000008EH   SFRSYM    DATA     BYTE      AUXR
      000000AFH   SFRSYM    DATA     BYTE      IE2
      00000088H   SFRSYM    DATA     BYTE      TCON
      00000089H   SFRSYM    DATA     BYTE      TMOD
      00000098H   SFRSYM    DATA     BYTE      SCON
      000000BCH   SFRSYM    DATA     BYTE      ADC_CONTR
      000000DEH   SFRSYM    DATA     BYTE      ADCCFG
      000000B8H   SFRSYM    DATA     BYTE      IP
      000000A8H   SFRSYM    DATA     BYTE      IE
      000000BAH   SFRSYM    DATA     BYTE      P_SW2
      000000A2H   SFRSYM    DATA     BYTE      P_SW1
      000000F8H   SFRSYM    DATA     BYTE      P7
      000000A8H.7 SFRSYM    DATA     BIT       EA
      000000E1H   SFRSYM    DATA     BYTE      P7M1
      000000E8H   SFRSYM    DATA     BYTE      P6
      000000C8H   SFRSYM    DATA     BYTE      P5
      000000CBH   SFRSYM    DATA     BYTE      P6M1
      000000E2H   SFRSYM    DATA     BYTE      P7M0
      000000C0H   SFRSYM    DATA     BYTE      P4
      000000C9H   SFRSYM    DATA     BYTE      P5M1
L251 LINKER/LOCATER V4.66.93.0                                                        02/27/2024  23:09:55  PAGE 29


      000000CCH   SFRSYM    DATA     BYTE      P6M0
      000000B0H   SFRSYM    DATA     BYTE      P3
      000000B3H   SFRSYM    DATA     BYTE      P4M1
      000000CAH   SFRSYM    DATA     BYTE      P5M0
      000000A0H   SFRSYM    DATA     BYTE      P2
      000000B1H   SFRSYM    DATA     BYTE      P3M1
      000000B4H   SFRSYM    DATA     BYTE      P4M0
      00000090H   SFRSYM    DATA     BYTE      P1
      00000095H   SFRSYM    DATA     BYTE      P2M1
      000000B2H   SFRSYM    DATA     BYTE      P3M0
      00000080H   SFRSYM    DATA     BYTE      P0
      00000091H   SFRSYM    DATA     BYTE      P1M1
      00000096H   SFRSYM    DATA     BYTE      P2M0
      00000092H   SFRSYM    DATA     BYTE      P1M0
      00000093H   SFRSYM    DATA     BYTE      P0M1

      00FF5224H   BLOCK     CODE     ---       LVL=0
      00FF5224H   LINE      CODE     ---       #177
      00FF5224H   LINE      CODE     ---       #179
      00FF5227H   LINE      CODE     ---       #197
      00FF522AH   LINE      CODE     ---       #199
      00FF522DH   LINE      CODE     ---       #200
      00FF5230H   LINE      CODE     ---       #201
      00FF523CH   LINE      CODE     ---       #203
      00FF523FH   LINE      CODE     ---       #204
      00FF5242H   LINE      CODE     ---       #205
      00FF5245H   LINE      CODE     ---       #206
      00FF5248H   LINE      CODE     ---       #207
      00FF524BH   LINE      CODE     ---       #208
      00FF524EH   LINE      CODE     ---       #209
      00FF5251H   LINE      CODE     ---       #210
      00FF5254H   LINE      CODE     ---       #211
      00FF5257H   LINE      CODE     ---       #212
      00FF525AH   LINE      CODE     ---       #213
      00FF525DH   LINE      CODE     ---       #214
      00FF5260H   LINE      CODE     ---       #215
      00FF5263H   LINE      CODE     ---       #216
      00FF5266H   LINE      CODE     ---       #217
      00FF5269H   LINE      CODE     ---       #218
      00FF526CH   LINE      CODE     ---       #220
      00FF526FH   LINE      CODE     ---       #221
      00FF5272H   LINE      CODE     ---       #222
      00FF5275H   LINE      CODE     ---       #223
      00FF5278H   LINE      CODE     ---       #224
      00FF527BH   LINE      CODE     ---       #225
      00FF527EH   LINE      CODE     ---       #226
      00FF5281H   LINE      CODE     ---       #227
      00FF5284H   LINE      CODE     ---       #228
      00FF5287H   LINE      CODE     ---       #229
      00FF528AH   LINE      CODE     ---       #231
      ---         BLOCKEND  ---      ---       LVL=0

      00FF636FH   BLOCK     CODE     ---       LVL=0
      R15         REGSYM    ---      CHAR      c
      00FF636FH   LINE      CODE     ---       #237
      00FF6373H   LINE      CODE     ---       #239
      00FF6378H   LINE      CODE     ---       #241
      00FF637AH   LINE      CODE     ---       #242
      ---         BLOCKEND  ---      ---       LVL=0

      00FF0016H   BLOCK     CODE     ---       LVL=0
      00FF0016H   LINE      CODE     ---       #245
      00FF0016H   LINE      CODE     ---       #247
      00FF0018H   LINE      CODE     ---       #248
      ---         BLOCKEND  ---      ---       LVL=0
L251 LINKER/LOCATER V4.66.93.0                                                        02/27/2024  23:09:55  PAGE 30



      00FF000EH   BLOCK     CODE     ---       LVL=0
      00FF000EH   LINE      CODE     ---       #251
      00FF000EH   LINE      CODE     ---       #253
      00FF0010H   LINE      CODE     ---       #254
      ---         BLOCKEND  ---      ---       LVL=0

      ---         MODULE    ---      ---       common
      0000052CH   PUBLIC    EDATA    INT       wireless_type
      000000D0H   SFRSYM    DATA     BYTE      PSW
      000000B7H   SFRSYM    DATA     BYTE      IPH
      00000088H   SFRSYM    DATA     BYTE      TCON
      00000098H   SFRSYM    DATA     BYTE      SCON
      000000BCH   SFRSYM    DATA     BYTE      ADC_CONTR
      000000DEH   SFRSYM    DATA     BYTE      ADCCFG
      000000B8H   SFRSYM    DATA     BYTE      IP
      000000A8H   SFRSYM    DATA     BYTE      IE
      000000F8H   SFRSYM    DATA     BYTE      P7
      000000E8H   SFRSYM    DATA     BYTE      P6
      000000C8H   SFRSYM    DATA     BYTE      P5
      000000C0H   SFRSYM    DATA     BYTE      P4
      000000B0H   SFRSYM    DATA     BYTE      P3
      000000A0H   SFRSYM    DATA     BYTE      P2
      00000090H   SFRSYM    DATA     BYTE      P1
      00000080H   SFRSYM    DATA     BYTE      P0

      ---         MODULE    ---      ---       SEEKFREE_PRINTF
      00FF5086H   PUBLIC    CODE     ---       number_conversion_ascii
      00FF28B9H   PUBLIC    CODE     ---       zf_sprintf
      00FF5CA0H   PUBLIC    CODE     ---       printf_reverse_order
      00000263H   PUBLIC    EDATA    BYTE      ?number_conversion_ascii?BYTE
      00000235H   PUBLIC    EDATA    BYTE      ?zf_sprintf?BYTE
      000000D0H   SFRSYM    DATA     BYTE      PSW
      000000B7H   SFRSYM    DATA     BYTE      IPH
      00000088H   SFRSYM    DATA     BYTE      TCON
      00000098H   SFRSYM    DATA     BYTE      SCON
      000000BCH   SFRSYM    DATA     BYTE      ADC_CONTR
      000000DEH   SFRSYM    DATA     BYTE      ADCCFG
      000000B8H   SFRSYM    DATA     BYTE      IP
      000000A8H   SFRSYM    DATA     BYTE      IE
      000000F8H   SFRSYM    DATA     BYTE      P7
      000000E8H   SFRSYM    DATA     BYTE      P6
      000000C8H   SFRSYM    DATA     BYTE      P5
      000000C0H   SFRSYM    DATA     BYTE      P4
      000000B0H   SFRSYM    DATA     BYTE      P3
      000000A0H   SFRSYM    DATA     BYTE      P2
      00000090H   SFRSYM    DATA     BYTE      P1
      00000080H   SFRSYM    DATA     BYTE      P0

      00FF5086H   BLOCK     CODE     ---       LVL=0
      DR24        REGSYM    ---      DWORD     dat
      REG=7       REGSYM    ---      ---       p
      R10         REGSYM    ---      BYTE      neg_type
      0000026CH   SYMBOL    EDATA    BYTE      radix
      00FF508EH   BLOCK     CODE     NEAR LAB  LVL=1
      DR20        REGSYM    ---      LONG      neg_dat
      DR24        REGSYM    ---      DWORD     pos_dat
      R14         REGSYM    ---      BYTE      temp_data
      R15         REGSYM    ---      BYTE      valid_num
      ---         BLOCKEND  ---      ---       LVL=1
      00FF5086H   LINE      CODE     ---       #25
      00FF508EH   LINE      CODE     ---       #26
      00FF508EH   LINE      CODE     ---       #29
      00FF508EH   LINE      CODE     ---       #30
      00FF5090H   LINE      CODE     ---       #32
L251 LINKER/LOCATER V4.66.93.0                                                        02/27/2024  23:09:55  PAGE 31


      00FF5094H   LINE      CODE     ---       #34
      00FF5096H   LINE      CODE     ---       #35
      00FF50A6H   LINE      CODE     ---       #36
      00FF50A6H   LINE      CODE     ---       #38
      00FF50BCH   LINE      CODE     ---       #39
      00FF50CBH   LINE      CODE     ---       #40
      00FF50CDH   LINE      CODE     ---       #42
      00FF50D3H   LINE      CODE     ---       #43
      00FF50D5H   LINE      CODE     ---       #44
      00FF50D7H   LINE      CODE     ---       #45
      00FF50D9H   LINE      CODE     ---       #48
      00FF50D9H   LINE      CODE     ---       #49
      00FF50D9H   LINE      CODE     ---       #51
      00FF50E8H   LINE      CODE     ---       #52
      00FF50F2H   LINE      CODE     ---       #53
      00FF50F5H   LINE      CODE     ---       #55
      00FF50F8H   LINE      CODE     ---       #57
      00FF5107H   LINE      CODE     ---       #58
      00FF5109H   LINE      CODE     ---       #60
      00FF510FH   LINE      CODE     ---       #61
      00FF5111H   LINE      CODE     ---       #62
      00FF5113H   LINE      CODE     ---       #63
      00FF5113H   LINE      CODE     ---       #64
      00FF5115H   LINE      CODE     ---       #65
      ---         BLOCKEND  ---      ---       LVL=0

      00FF5CA0H   BLOCK     CODE     ---       LVL=0
      REG=7       REGSYM    ---      ---       d_buff
      DR24        REGSYM    ---      DWORD     len
      00FF5CA4H   BLOCK     CODE     NEAR LAB  LVL=1
      DR4         REGSYM    ---      DWORD     i
      R3          REGSYM    ---      CHAR      temp_data
      ---         BLOCKEND  ---      ---       LVL=1
      00FF5CA0H   LINE      CODE     ---       #67
      00FF5CA4H   LINE      CODE     ---       #68
      00FF5CA4H   LINE      CODE     ---       #71
      00FF5CA8H   LINE      CODE     ---       #73
      00FF5CB7H   LINE      CODE     ---       #74
      00FF5CC5H   LINE      CODE     ---       #75
      00FF5CCCH   LINE      CODE     ---       #76
      00FF5CDDH   LINE      CODE     ---       #77
      ---         BLOCKEND  ---      ---       LVL=0

      00FF28B9H   BLOCK     CODE     ---       LVL=0
      REG=3       REGSYM    ---      ---       buff
      00000239H   SYMBOL    EDATA    ---       format
      00FF28C1H   BLOCK     CODE     NEAR LAB  LVL=1
      0000023DH   SYMBOL    EDATA    DWORD     buff_len
      00000241H   SYMBOL    EDATA    ---       arg
      00FF28D6H   BLOCK     CODE     NEAR LAB  LVL=2
      00000245H   SYMBOL    EDATA    CHAR      ret
      00FF2A00H   BLOCK     CODE     NEAR LAB  LVL=3
      00000246H   SYMBOL    EDATA    CHAR      ch
      ---         BLOCKEND  ---      ---       LVL=3
      00FF2A19H   BLOCK     CODE     NEAR LAB  LVL=3
      00000246H   SYMBOL    EDATA    ---       vstr
      00000267H   SYMBOL    EDATA    LONG      ival
      0000026BH   SYMBOL    EDATA    BYTE      vlen
      ---         BLOCKEND  ---      ---       LVL=3
      00FF2A92H   BLOCK     CODE     NEAR LAB  LVL=3
      00000246H   SYMBOL    EDATA    ---       vstr
      00000267H   SYMBOL    EDATA    FLOAT     ival
      0000026BH   SYMBOL    EDATA    BYTE      vlen
      ---         BLOCKEND  ---      ---       LVL=3
      00FF2BCDH   BLOCK     CODE     NEAR LAB  LVL=3
L251 LINKER/LOCATER V4.66.93.0                                                        02/27/2024  23:09:55  PAGE 32


      00000246H   SYMBOL    EDATA    ---       vstr
      00000267H   SYMBOL    EDATA    DWORD     ival
      0000026BH   SYMBOL    EDATA    BYTE      vlen
      ---         BLOCKEND  ---      ---       LVL=3
      00FF2C25H   BLOCK     CODE     NEAR LAB  LVL=3
      00000246H   SYMBOL    EDATA    ---       vstr
      00000267H   SYMBOL    EDATA    DWORD     ival
      0000026BH   SYMBOL    EDATA    BYTE      vlen
      ---         BLOCKEND  ---      ---       LVL=3
      00FF2C7CH   BLOCK     CODE     NEAR LAB  LVL=3
      00000246H   SYMBOL    EDATA    ---       vstr
      00000267H   SYMBOL    EDATA    DWORD     ival
      0000026BH   SYMBOL    EDATA    BYTE      vlen
      ---         BLOCKEND  ---      ---       LVL=3
      00FF2CDEH   BLOCK     CODE     NEAR LAB  LVL=3
      00000246H   SYMBOL    EDATA    ---       pc
      ---         BLOCKEND  ---      ---       LVL=3
      00FF2D20H   BLOCK     CODE     NEAR LAB  LVL=3
      00000246H   SYMBOL    EDATA    ---       vstr
      00000267H   SYMBOL    EDATA    DWORD     ival
      ---         BLOCKEND  ---      ---       LVL=3
      ---         BLOCKEND  ---      ---       LVL=2
      ---         BLOCKEND  ---      ---       LVL=1
      00FF28B9H   LINE      CODE     ---       #212
      00FF28C1H   LINE      CODE     ---       #213
      00FF28C1H   LINE      CODE     ---       #214
      00FF28C7H   LINE      CODE     ---       #216
      00FF28D3H   LINE      CODE     ---       #218
      00FF28D6H   LINE      CODE     ---       #219
      00FF28D6H   LINE      CODE     ---       #220
      00FF28E1H   LINE      CODE     ---       #221
      00FF28E9H   LINE      CODE     ---       #223
      00FF2A00H   LINE      CODE     ---       #225
      00FF2A00H   LINE      CODE     ---       #229
      00FF2A00H   LINE      CODE     ---       #232
      00FF2A00H   LINE      CODE     ---       #233
      00FF2A00H   LINE      CODE     ---       #234
      00FF2A16H   LINE      CODE     ---       #235
      00FF2A16H   LINE      CODE     ---       #236
      00FF2A16H   LINE      CODE     ---       #237
      00FF2A16H   LINE      CODE     ---       #239
      00FF2A19H   LINE      CODE     ---       #242
      00FF2A19H   LINE      CODE     ---       #243
      00FF2A19H   LINE      CODE     ---       #244
      00FF2A19H   LINE      CODE     ---       #246
      00FF2A32H   LINE      CODE     ---       #247
      00FF2A45H   LINE      CODE     ---       #249
      00FF2A4FH   LINE      CODE     ---       #251
      00FF2A5CH   LINE      CODE     ---       #252
      00FF2A61H   LINE      CODE     ---       #253
      00FF2A61H   LINE      CODE     ---       #254
      00FF2A70H   LINE      CODE     ---       #255
      00FF2A83H   LINE      CODE     ---       #256
      00FF2A8BH   LINE      CODE     ---       #257
      00FF2A8FH   LINE      CODE     ---       #260
      00FF2A92H   LINE      CODE     ---       #262
      00FF2A92H   LINE      CODE     ---       #263
      00FF2A92H   LINE      CODE     ---       #264
      00FF2A92H   LINE      CODE     ---       #266
      00FF2AABH   LINE      CODE     ---       #267
      00FF2AC1H   LINE      CODE     ---       #269
      00FF2ACCH   LINE      CODE     ---       #271
      00FF2AD9H   LINE      CODE     ---       #272
      00FF2ADEH   LINE      CODE     ---       #273
      00FF2ADEH   LINE      CODE     ---       #274
L251 LINKER/LOCATER V4.66.93.0                                                        02/27/2024  23:09:55  PAGE 33


      00FF2AEDH   LINE      CODE     ---       #275
      00FF2B00H   LINE      CODE     ---       #276
      00FF2B08H   LINE      CODE     ---       #277
      00FF2B1AH   LINE      CODE     ---       #279
      00FF2B3EH   LINE      CODE     ---       #280
      00FF2B44H   LINE      CODE     ---       #282
      00FF2B56H   LINE      CODE     ---       #283
      00FF2B58H   LINE      CODE     ---       #286
      00FF2B72H   LINE      CODE     ---       #287
      00FF2B78H   LINE      CODE     ---       #288
      00FF2B78H   LINE      CODE     ---       #290
      00FF2B7DH   LINE      CODE     ---       #292
      00FF2B87H   LINE      CODE     ---       #293
      00FF2B8CH   LINE      CODE     ---       #294
      00FF2B95H   LINE      CODE     ---       #296
      00FF2B9DH   LINE      CODE     ---       #297
      00FF2BA4H   LINE      CODE     ---       #299
      00FF2BB3H   LINE      CODE     ---       #300
      00FF2BC6H   LINE      CODE     ---       #301
      00FF2BCAH   LINE      CODE     ---       #303
      00FF2BCDH   LINE      CODE     ---       #306
      00FF2BCDH   LINE      CODE     ---       #307
      00FF2BCDH   LINE      CODE     ---       #309
      00FF2BE6H   LINE      CODE     ---       #310
      00FF2BF8H   LINE      CODE     ---       #312
      00FF2C03H   LINE      CODE     ---       #313
      00FF2C16H   LINE      CODE     ---       #314
      00FF2C1EH   LINE      CODE     ---       #315
      00FF2C22H   LINE      CODE     ---       #316
      00FF2C25H   LINE      CODE     ---       #318
      00FF2C25H   LINE      CODE     ---       #319
      00FF2C25H   LINE      CODE     ---       #321
      00FF2C3EH   LINE      CODE     ---       #322
      00FF2C50H   LINE      CODE     ---       #324
      00FF2C5BH   LINE      CODE     ---       #325
      00FF2C6EH   LINE      CODE     ---       #326
      00FF2C76H   LINE      CODE     ---       #327
      00FF2C7AH   LINE      CODE     ---       #329
      00FF2C7CH   LINE      CODE     ---       #331
      00FF2C7CH   LINE      CODE     ---       #332
      00FF2C7CH   LINE      CODE     ---       #333
      00FF2C7CH   LINE      CODE     ---       #335
      00FF2C95H   LINE      CODE     ---       #336
      00FF2CA7H   LINE      CODE     ---       #338
      00FF2CB2H   LINE      CODE     ---       #339
      00FF2CC5H   LINE      CODE     ---       #340
      00FF2CCDH   LINE      CODE     ---       #341
      00FF2CDBH   LINE      CODE     ---       #342
      00FF2CDEH   LINE      CODE     ---       #345
      00FF2CDEH   LINE      CODE     ---       #346
      00FF2CDEH   LINE      CODE     ---       #347
      00FF2CF3H   LINE      CODE     ---       #348
      00FF2CF5H   LINE      CODE     ---       #350
      00FF2CFFH   LINE      CODE     ---       #351
      00FF2D01H   LINE      CODE     ---       #352
      00FF2D0BH   LINE      CODE     ---       #353
      00FF2D15H   LINE      CODE     ---       #354
      00FF2D1EH   LINE      CODE     ---       #355
      00FF2D20H   LINE      CODE     ---       #357
      00FF2D20H   LINE      CODE     ---       #358
      00FF2D20H   LINE      CODE     ---       #360
      00FF2D39H   LINE      CODE     ---       #362
      00FF2D47H   LINE      CODE     ---       #364
      00FF2D52H   LINE      CODE     ---       #365
      00FF2D63H   LINE      CODE     ---       #366
L251 LINKER/LOCATER V4.66.93.0                                                        02/27/2024  23:09:55  PAGE 34


      00FF2D67H   LINE      CODE     ---       #367
      00FF2D6FH   LINE      CODE     ---       #369
      00FF2D71H   LINE      CODE     ---       #372
      00FF2D71H   LINE      CODE     ---       #374
      00FF2D76H   LINE      CODE     ---       #375
      00FF2D78H   LINE      CODE     ---       #376
      00FF2D7EH   LINE      CODE     ---       #377
      00FF2D80H   LINE      CODE     ---       #379
      00FF2D80H   LINE      CODE     ---       #380
      00FF2D80H   LINE      CODE     ---       #381
      00FF2D80H   LINE      CODE     ---       #384
      00FF2D8AH   LINE      CODE     ---       #385
      00FF2D8CH   LINE      CODE     ---       #386
      00FF2D96H   LINE      CODE     ---       #387
      00FF2D96H   LINE      CODE     ---       #388
      00FF2DA0H   LINE      CODE     ---       #389
      00FF2DACH   LINE      CODE     ---       #392
      00FF2DB0H   LINE      CODE     ---       #393
      ---         BLOCKEND  ---      ---       LVL=0

      ---         MODULE    ---      ---       zf_adc
      00FF5FABH   PUBLIC    CODE     ---       adc_once
      00FF5705H   PUBLIC    CODE     ---       adc_init
      00000094H   SFRSYM    DATA     BYTE      P0M0
      000000D0H   SFRSYM    DATA     BYTE      PSW
      000000B7H   SFRSYM    DATA     BYTE      IPH
      000000BEH   SFRSYM    DATA     BYTE      ADC_RESL
      00000088H   SFRSYM    DATA     BYTE      TCON
      00000098H   SFRSYM    DATA     BYTE      SCON
      000000BCH   SFRSYM    DATA     BYTE      ADC_CONTR
      000000DEH   SFRSYM    DATA     BYTE      ADCCFG
      000000B8H   SFRSYM    DATA     BYTE      IP
      000000BDH   SFRSYM    DATA     BYTE      ADC_RES
      000000A8H   SFRSYM    DATA     BYTE      IE
      000000F8H   SFRSYM    DATA     BYTE      P7
      000000E8H   SFRSYM    DATA     BYTE      P6
      000000C8H   SFRSYM    DATA     BYTE      P5
      000000C0H   SFRSYM    DATA     BYTE      P4
      000000B0H   SFRSYM    DATA     BYTE      P3
      000000A0H   SFRSYM    DATA     BYTE      P2
      00000090H   SFRSYM    DATA     BYTE      P1
      00000080H   SFRSYM    DATA     BYTE      P0
      00000091H   SFRSYM    DATA     BYTE      P1M1
      00000092H   SFRSYM    DATA     BYTE      P1M0
      00000093H   SFRSYM    DATA     BYTE      P0M1

      00FF5705H   BLOCK     CODE     ---       LVL=0
      WR4         REGSYM    ---      INT       adcn
      WR2         REGSYM    ---      INT       speed
      00FF5705H   LINE      CODE     ---       #32
      00FF5709H   LINE      CODE     ---       #34
      00FF570CH   LINE      CODE     ---       #36
      00FF570FH   LINE      CODE     ---       #37
      00FF5715H   LINE      CODE     ---       #39
      00FF5721H   LINE      CODE     ---       #42
      00FF5736H   LINE      CODE     ---       #43
      00FF573AH   LINE      CODE     ---       #44
      00FF573CH   LINE      CODE     ---       #45
      00FF5740H   LINE      CODE     ---       #48
      00FF5755H   LINE      CODE     ---       #49
      00FF5759H   LINE      CODE     ---       #50
      00FF5759H   LINE      CODE     ---       #52
      00FF575FH   LINE      CODE     ---       #54
      00FF5762H   LINE      CODE     ---       #55
      ---         BLOCKEND  ---      ---       LVL=0
L251 LINKER/LOCATER V4.66.93.0                                                        02/27/2024  23:09:55  PAGE 35



      00FF5FABH   BLOCK     CODE     ---       LVL=0
      WR6         REGSYM    ---      INT       adcn
      WR4         REGSYM    ---      INT       resolution
      WR6         REGSYM    ---      WORD      adc_value
      00FF5FABH   LINE      CODE     ---       #66
      00FF5FABH   LINE      CODE     ---       #67
      00FF5FABH   LINE      CODE     ---       #70
      00FF5FAEH   LINE      CODE     ---       #71
      00FF5FB2H   LINE      CODE     ---       #73
      00FF5FB5H   LINE      CODE     ---       #74
      00FF5FBAH   LINE      CODE     ---       #75
      00FF5FBDH   LINE      CODE     ---       #77
      00FF5FBFH   LINE      CODE     ---       #78
      00FF5FC3H   LINE      CODE     ---       #79
      00FF5FC9H   LINE      CODE     ---       #81
      00FF5FCCH   LINE      CODE     ---       #82
      00FF5FCFH   LINE      CODE     ---       #84
      00FF5FD8H   LINE      CODE     ---       #87
      00FF5FD8H   LINE      CODE     ---       #88
      ---         BLOCKEND  ---      ---       LVL=0

      ---         MODULE    ---      ---       zf_delay
      00FF5DD0H   PUBLIC    CODE     ---       delay_init
      00FF6297H   PUBLIC    CODE     ---       delay_ms
      00000525H   PUBLIC    EDATA    WORD      zf_delay_ms
      00000527H   PUBLIC    EDATA    WORD      zf_delay_us
      000000D0H   SFRSYM    DATA     BYTE      PSW
      000000B7H   SFRSYM    DATA     BYTE      IPH
      00000088H   SFRSYM    DATA     BYTE      TCON
      00000098H   SFRSYM    DATA     BYTE      SCON
      000000BCH   SFRSYM    DATA     BYTE      ADC_CONTR
      000000DEH   SFRSYM    DATA     BYTE      ADCCFG
      000000B8H   SFRSYM    DATA     BYTE      IP
      000000A8H   SFRSYM    DATA     BYTE      IE
      000000F8H   SFRSYM    DATA     BYTE      P7
      000000E8H   SFRSYM    DATA     BYTE      P6
      000000C8H   SFRSYM    DATA     BYTE      P5
      000000C0H   SFRSYM    DATA     BYTE      P4
      000000B0H   SFRSYM    DATA     BYTE      P3
      000000A0H   SFRSYM    DATA     BYTE      P2
      00000090H   SFRSYM    DATA     BYTE      P1
      00000080H   SFRSYM    DATA     BYTE      P0

      00FF5DD0H   BLOCK     CODE     ---       LVL=0
      00FF5DD0H   LINE      CODE     ---       #34
      00FF5DD0H   LINE      CODE     ---       #36
      00FF5DE1H   LINE      CODE     ---       #37
      00FF5DF2H   LINE      CODE     ---       #38
      00FF5E08H   LINE      CODE     ---       #40
      ---         BLOCKEND  ---      ---       LVL=0

      00FF6297H   BLOCK     CODE     ---       LVL=0
      WR4         REGSYM    ---      WORD      ms
      00FF6299H   BLOCK     CODE     NEAR LAB  LVL=1
      WR6         REGSYM    ---      WORD      i
      ---         BLOCKEND  ---      ---       LVL=1
      00FF6297H   LINE      CODE     ---       #48
      00FF6299H   LINE      CODE     ---       #49
      00FF6299H   LINE      CODE     ---       #51
      00FF6299H   LINE      CODE     ---       #52
      00FF629DH   LINE      CODE     ---       #54
      00FF62A5H   LINE      CODE     ---       #55
      00FF62ADH   LINE      CODE     ---       #56
      ---         BLOCKEND  ---      ---       LVL=0
L251 LINKER/LOCATER V4.66.93.0                                                        02/27/2024  23:09:55  PAGE 36


      DR0         REGSYM    ---      DWORD     us
      WR6         REGSYM    ---      WORD      i

      ---         MODULE    ---      ---       zf_eeprom
      000000D0H   SFRSYM    DATA     BYTE      PSW
      000000D0H.5 SFRSYM    DATA     BIT       F0
      000000C6H   SFRSYM    DATA     BYTE      IAP_TRIG
      000000B7H   SFRSYM    DATA     BYTE      IPH
      000000C2H   SFRSYM    DATA     BYTE      IAP_DATA
      000000C7H   SFRSYM    DATA     BYTE      IAP_CONTR
      00000088H   SFRSYM    DATA     BYTE      TCON
      00000098H   SFRSYM    DATA     BYTE      SCON
      000000F5H   SFRSYM    DATA     BYTE      IAP_TPS
      000000BCH   SFRSYM    DATA     BYTE      ADC_CONTR
      000000C4H   SFRSYM    DATA     BYTE      IAP_ADDRL
      000000C3H   SFRSYM    DATA     BYTE      IAP_ADDRH
      000000F6H   SFRSYM    DATA     BYTE      IAP_ADDRE
      000000DEH   SFRSYM    DATA     BYTE      ADCCFG
      000000B8H   SFRSYM    DATA     BYTE      IP
      000000C5H   SFRSYM    DATA     BYTE      IAP_CMD
      000000A8H   SFRSYM    DATA     BYTE      IE
      000000F8H   SFRSYM    DATA     BYTE      P7
      000000A8H.7 SFRSYM    DATA     BIT       EA
      000000E8H   SFRSYM    DATA     BYTE      P6
      000000C8H   SFRSYM    DATA     BYTE      P5
      000000C0H   SFRSYM    DATA     BYTE      P4
      000000B0H   SFRSYM    DATA     BYTE      P3
      000000A0H   SFRSYM    DATA     BYTE      P2
      00000090H   SFRSYM    DATA     BYTE      P1
      00000080H   SFRSYM    DATA     BYTE      P0
      R11         REGSYM    ---      BYTE      write_time
      REG=3       REGSYM    ---      ---       buf
      REG=3       REGSYM    ---      ---       buf
      WR6         REGSYM    ---      WORD      addr
      REG=3       REGSYM    ---      ---       buf
      WR6         REGSYM    ---      WORD      i

      ---         MODULE    ---      ---       zf_exti
      000000D0H   SFRSYM    DATA     BYTE      PSW
      000000B7H   SFRSYM    DATA     BYTE      IPH
      00000088H.2 SFRSYM    DATA     BIT       IT1
      000000A8H.2 SFRSYM    DATA     BIT       EX1
      00000088H.0 SFRSYM    DATA     BIT       IT0
      000000A8H.0 SFRSYM    DATA     BIT       EX0
      00000088H   SFRSYM    DATA     BYTE      TCON
      00000098H   SFRSYM    DATA     BYTE      SCON
      000000BCH   SFRSYM    DATA     BYTE      ADC_CONTR
      000000DEH   SFRSYM    DATA     BYTE      ADCCFG
      000000B8H   SFRSYM    DATA     BYTE      IP
      0000008FH   SFRSYM    DATA     BYTE      INTCLKO
      000000A8H   SFRSYM    DATA     BYTE      IE
      000000F8H   SFRSYM    DATA     BYTE      P7
      000000E8H   SFRSYM    DATA     BYTE      P6
      000000C8H   SFRSYM    DATA     BYTE      P5
      000000C0H   SFRSYM    DATA     BYTE      P4
      000000B0H   SFRSYM    DATA     BYTE      P3
      000000A0H   SFRSYM    DATA     BYTE      P2
      00000090H   SFRSYM    DATA     BYTE      P1
      00000080H   SFRSYM    DATA     BYTE      P0
      WR4         REGSYM    ---      INT       int_n
      WR2         REGSYM    ---      INT       mode

      ---         MODULE    ---      ---       zf_gpio
      00FF2DB3H   PUBLIC    CODE     ---       gpio_mode
      00000094H   SFRSYM    DATA     BYTE      P0M0
L251 LINKER/LOCATER V4.66.93.0                                                        02/27/2024  23:09:55  PAGE 37


      000000D0H   SFRSYM    DATA     BYTE      PSW
      000000B7H   SFRSYM    DATA     BYTE      IPH
      00000088H   SFRSYM    DATA     BYTE      TCON
      00000098H   SFRSYM    DATA     BYTE      SCON
      000000BCH   SFRSYM    DATA     BYTE      ADC_CONTR
      000000DEH   SFRSYM    DATA     BYTE      ADCCFG
      000000B8H   SFRSYM    DATA     BYTE      IP
      000000A8H   SFRSYM    DATA     BYTE      IE
      000000F8H   SFRSYM    DATA     BYTE      P7
      000000E1H   SFRSYM    DATA     BYTE      P7M1
      000000E8H   SFRSYM    DATA     BYTE      P6
      000000C8H   SFRSYM    DATA     BYTE      P5
      000000CBH   SFRSYM    DATA     BYTE      P6M1
      000000E2H   SFRSYM    DATA     BYTE      P7M0
      000000C0H   SFRSYM    DATA     BYTE      P4
      000000C9H   SFRSYM    DATA     BYTE      P5M1
      000000CCH   SFRSYM    DATA     BYTE      P6M0
      000000B0H   SFRSYM    DATA     BYTE      P3
      000000B3H   SFRSYM    DATA     BYTE      P4M1
      000000CAH   SFRSYM    DATA     BYTE      P5M0
      000000A0H   SFRSYM    DATA     BYTE      P2
      000000B1H   SFRSYM    DATA     BYTE      P3M1
      000000B4H   SFRSYM    DATA     BYTE      P4M0
      00000090H   SFRSYM    DATA     BYTE      P1
      00000095H   SFRSYM    DATA     BYTE      P2M1
      000000B2H   SFRSYM    DATA     BYTE      P3M0
      00000080H   SFRSYM    DATA     BYTE      P0
      00000091H   SFRSYM    DATA     BYTE      P1M1
      00000096H   SFRSYM    DATA     BYTE      P2M0
      00000092H   SFRSYM    DATA     BYTE      P1M0
      00000093H   SFRSYM    DATA     BYTE      P0M1
      WR4         REGSYM    ---      INT       pin
      WR2         REGSYM    ---      INT       pull

      00FF2DB3H   BLOCK     CODE     ---       LVL=0
      WR4         REGSYM    ---      INT       pin
      WR2         REGSYM    ---      INT       mode
      00FF2DB3H   LINE      CODE     ---       #54
      00FF2DB7H   LINE      CODE     ---       #56
      00FF2DBEH   LINE      CODE     ---       #58
      00FF2DC6H   LINE      CODE     ---       #60
      00FF2DDEH   LINE      CODE     ---       #61
      00FF2DE0H   LINE      CODE     ---       #62
      00FF2DE0H   LINE      CODE     ---       #63
      00FF2DE6H   LINE      CODE     ---       #65
      00FF2DFEH   LINE      CODE     ---       #66
      00FF2E00H   LINE      CODE     ---       #67
      00FF2E00H   LINE      CODE     ---       #68
      00FF2E06H   LINE      CODE     ---       #70
      00FF2E1EH   LINE      CODE     ---       #71
      00FF2E20H   LINE      CODE     ---       #72
      00FF2E20H   LINE      CODE     ---       #74
      00FF2E26H   LINE      CODE     ---       #76
      00FF2E3EH   LINE      CODE     ---       #77
      00FF2E40H   LINE      CODE     ---       #78
      00FF2E40H   LINE      CODE     ---       #79
      00FF2E46H   LINE      CODE     ---       #81
      00FF2E5EH   LINE      CODE     ---       #82
      00FF2E60H   LINE      CODE     ---       #83
      00FF2E60H   LINE      CODE     ---       #84
      00FF2E66H   LINE      CODE     ---       #86
      00FF2E7EH   LINE      CODE     ---       #87
      00FF2E80H   LINE      CODE     ---       #88
      00FF2E80H   LINE      CODE     ---       #89
      00FF2E86H   LINE      CODE     ---       #91
L251 LINKER/LOCATER V4.66.93.0                                                        02/27/2024  23:09:55  PAGE 38


      00FF2E9EH   LINE      CODE     ---       #92
      00FF2EA0H   LINE      CODE     ---       #93
      00FF2EA0H   LINE      CODE     ---       #94
      00FF2EA9H   LINE      CODE     ---       #96
      00FF2EC1H   LINE      CODE     ---       #97
      00FF2EC3H   LINE      CODE     ---       #98
      00FF2EC4H   LINE      CODE     ---       #100
      00FF2ECDH   LINE      CODE     ---       #102
      00FF2ED5H   LINE      CODE     ---       #104
      00FF2EEAH   LINE      CODE     ---       #105
      00FF2EEEH   LINE      CODE     ---       #106
      00FF2EEEH   LINE      CODE     ---       #107
      00FF2EF4H   LINE      CODE     ---       #109
      00FF2F09H   LINE      CODE     ---       #110
      00FF2F0DH   LINE      CODE     ---       #111
      00FF2F0DH   LINE      CODE     ---       #112
      00FF2F13H   LINE      CODE     ---       #114
      00FF2F28H   LINE      CODE     ---       #115
      00FF2F2CH   LINE      CODE     ---       #116
      00FF2F2CH   LINE      CODE     ---       #118
      00FF2F32H   LINE      CODE     ---       #120
      00FF2F47H   LINE      CODE     ---       #121
      00FF2F4BH   LINE      CODE     ---       #122
      00FF2F4BH   LINE      CODE     ---       #123
      00FF2F51H   LINE      CODE     ---       #125
      00FF2F66H   LINE      CODE     ---       #126
      00FF2F6AH   LINE      CODE     ---       #127
      00FF2F6AH   LINE      CODE     ---       #128
      00FF2F70H   LINE      CODE     ---       #130
      00FF2F85H   LINE      CODE     ---       #131
      00FF2F89H   LINE      CODE     ---       #132
      00FF2F89H   LINE      CODE     ---       #133
      00FF2F8FH   LINE      CODE     ---       #135
      00FF2FA4H   LINE      CODE     ---       #136
      00FF2FA8H   LINE      CODE     ---       #137
      00FF2FA8H   LINE      CODE     ---       #138
      00FF2FB1H   LINE      CODE     ---       #140
      00FF2FC8H   LINE      CODE     ---       #141
      00FF2FC8H   LINE      CODE     ---       #142
      00FF2FCBH   LINE      CODE     ---       #145
      00FF2FD4H   LINE      CODE     ---       #147
      00FF2FDCH   LINE      CODE     ---       #149
      00FF2FEFH   LINE      CODE     ---       #150
      00FF2FF3H   LINE      CODE     ---       #151
      00FF2FF3H   LINE      CODE     ---       #152
      00FF2FF9H   LINE      CODE     ---       #154
      00FF300CH   LINE      CODE     ---       #155
      00FF3010H   LINE      CODE     ---       #156
      00FF3010H   LINE      CODE     ---       #157
      00FF3016H   LINE      CODE     ---       #159
      00FF3029H   LINE      CODE     ---       #160
      00FF302DH   LINE      CODE     ---       #161
      00FF302DH   LINE      CODE     ---       #163
      00FF3033H   LINE      CODE     ---       #165
      00FF3046H   LINE      CODE     ---       #166
      00FF304AH   LINE      CODE     ---       #167
      00FF304AH   LINE      CODE     ---       #168
      00FF3050H   LINE      CODE     ---       #170
      00FF3063H   LINE      CODE     ---       #171
      00FF3067H   LINE      CODE     ---       #172
      00FF3067H   LINE      CODE     ---       #173
      00FF306DH   LINE      CODE     ---       #175
      00FF3080H   LINE      CODE     ---       #176
      00FF3084H   LINE      CODE     ---       #177
      00FF3084H   LINE      CODE     ---       #178
L251 LINKER/LOCATER V4.66.93.0                                                        02/27/2024  23:09:55  PAGE 39


      00FF308AH   LINE      CODE     ---       #180
      00FF309DH   LINE      CODE     ---       #181
      00FF30A1H   LINE      CODE     ---       #182
      00FF30A1H   LINE      CODE     ---       #183
      00FF30AAH   LINE      CODE     ---       #185
      00FF30BDH   LINE      CODE     ---       #186
      00FF30C1H   LINE      CODE     ---       #187
      00FF30C2H   LINE      CODE     ---       #189
      00FF30CBH   LINE      CODE     ---       #191
      00FF30D3H   LINE      CODE     ---       #193
      00FF30E6H   LINE      CODE     ---       #194
      00FF30E8H   LINE      CODE     ---       #195
      00FF30E8H   LINE      CODE     ---       #196
      00FF30EEH   LINE      CODE     ---       #198
      00FF3101H   LINE      CODE     ---       #199
      00FF3103H   LINE      CODE     ---       #200
      00FF3103H   LINE      CODE     ---       #201
      00FF3109H   LINE      CODE     ---       #203
      00FF311CH   LINE      CODE     ---       #204
      00FF311EH   LINE      CODE     ---       #205
      00FF311EH   LINE      CODE     ---       #207
      00FF3124H   LINE      CODE     ---       #209
      00FF3137H   LINE      CODE     ---       #210
      00FF3139H   LINE      CODE     ---       #211
      00FF3139H   LINE      CODE     ---       #212
      00FF313FH   LINE      CODE     ---       #214
      00FF3152H   LINE      CODE     ---       #215
      00FF3154H   LINE      CODE     ---       #216
      00FF3154H   LINE      CODE     ---       #217
      00FF315AH   LINE      CODE     ---       #219
      00FF316DH   LINE      CODE     ---       #220
      00FF316FH   LINE      CODE     ---       #221
      00FF316FH   LINE      CODE     ---       #222
      00FF3175H   LINE      CODE     ---       #224
      00FF3188H   LINE      CODE     ---       #225
      00FF318AH   LINE      CODE     ---       #226
      00FF318AH   LINE      CODE     ---       #227
      00FF3190H   LINE      CODE     ---       #229
      00FF31A5H   LINE      CODE     ---       #230
      00FF31A9H   LINE      CODE     ---       #231
      00FF31A9H   LINE      CODE     ---       #233
      ---         BLOCKEND  ---      ---       LVL=0

      ---         MODULE    ---      ---       zf_iic
      000000D0H   SFRSYM    DATA     BYTE      PSW
      000000B7H   SFRSYM    DATA     BYTE      IPH
      00000088H   SFRSYM    DATA     BYTE      TCON
      00000098H   SFRSYM    DATA     BYTE      SCON
      000000BCH   SFRSYM    DATA     BYTE      ADC_CONTR
      000000DEH   SFRSYM    DATA     BYTE      ADCCFG
      000000B8H   SFRSYM    DATA     BYTE      IP
      000000A8H   SFRSYM    DATA     BYTE      IE
      000000BAH   SFRSYM    DATA     BYTE      P_SW2
      000000F8H   SFRSYM    DATA     BYTE      P7
      000000E8H   SFRSYM    DATA     BYTE      P6
      000000C8H   SFRSYM    DATA     BYTE      P5
      000000C0H   SFRSYM    DATA     BYTE      P4
      000000B0H   SFRSYM    DATA     BYTE      P3
      000000A0H   SFRSYM    DATA     BYTE      P2
      00000090H   SFRSYM    DATA     BYTE      P1
      00000080H   SFRSYM    DATA     BYTE      P0
      WR6         REGSYM    ---      WORD      x
      R10         REGSYM    ---      BYTE      i
      WR12        REGSYM    ---      WORD      count
      R15         REGSYM    ---      BYTE      ret
L251 LINKER/LOCATER V4.66.93.0                                                        02/27/2024  23:09:55  PAGE 40


      R11         REGSYM    ---      BYTE      ret
      R11         REGSYM    ---      CHAR      dat
      R11         REGSYM    ---      BYTE      ret
      R11         REGSYM    ---      BYTE      ret
      R11         REGSYM    ---      BYTE      ret
      R11         REGSYM    ---      BYTE      ret
      WR6         REGSYM    ---      INT       iic_n
      R13         REGSYM    ---      BYTE      dev_add
      R14         REGSYM    ---      BYTE      reg
      R15         REGSYM    ---      BYTE      dat
      R15         REGSYM    ---      BYTE      dev_add
      R14         REGSYM    ---      BYTE      reg
      REG=3       REGSYM    ---      ---       dat
      WR6         REGSYM    ---      INT       iic_n

      ---         MODULE    ---      ---       zf_nvic
      000000D0H   SFRSYM    DATA     BYTE      PSW
      000000B7H   SFRSYM    DATA     BYTE      IPH
      000000B5H   SFRSYM    DATA     BYTE      IP2
      00000088H   SFRSYM    DATA     BYTE      TCON
      00000098H   SFRSYM    DATA     BYTE      SCON
      000000BCH   SFRSYM    DATA     BYTE      ADC_CONTR
      000000DEH   SFRSYM    DATA     BYTE      ADCCFG
      000000B8H   SFRSYM    DATA     BYTE      IP
      000000B6H   SFRSYM    DATA     BYTE      IP2H
      000000A8H   SFRSYM    DATA     BYTE      IE
      000000F8H   SFRSYM    DATA     BYTE      P7
      000000E8H   SFRSYM    DATA     BYTE      P6
      000000C8H   SFRSYM    DATA     BYTE      P5
      000000C0H   SFRSYM    DATA     BYTE      P4
      000000B0H   SFRSYM    DATA     BYTE      P3
      000000A0H   SFRSYM    DATA     BYTE      P2
      00000090H   SFRSYM    DATA     BYTE      P1
      00000080H   SFRSYM    DATA     BYTE      P0
      WR4         REGSYM    ---      INT       irqn
      R3          REGSYM    ---      BYTE      priority

      ---         MODULE    ---      ---       zf_pwm
      00FF4D59H   PUBLIC    CODE     ---       pwm_duty
      00FF3802H   PUBLIC    CODE     ---       pwm_set_gpio
      00FF351EH   PUBLIC    CODE     ---       pwm_init
      00FF6534H   PUBLIC    HCONST   ---       PWM_CCR_ADDR
      00FF6554H   PUBLIC    HCONST   ---       PWM_ARR_ADDR
      00FF655CH   PUBLIC    HCONST   ---       PWM_CCER_ADDR
      00FF656CH   PUBLIC    HCONST   ---       PWM_CCMR_ADDR
      000001E0H   PUBLIC    EDATA    BYTE      ?pwm_init?BYTE
      000000D0H   SFRSYM    DATA     BYTE      PSW
      000000B7H   SFRSYM    DATA     BYTE      IPH
      00000088H   SFRSYM    DATA     BYTE      TCON
      00000098H   SFRSYM    DATA     BYTE      SCON
      000000BCH   SFRSYM    DATA     BYTE      ADC_CONTR
      000000DEH   SFRSYM    DATA     BYTE      ADCCFG
      000000B8H   SFRSYM    DATA     BYTE      IP
      000000A8H   SFRSYM    DATA     BYTE      IE
      000000BAH   SFRSYM    DATA     BYTE      P_SW2
      000000F8H   SFRSYM    DATA     BYTE      P7
      000000E8H   SFRSYM    DATA     BYTE      P6
      000000C8H   SFRSYM    DATA     BYTE      P5
      000000C0H   SFRSYM    DATA     BYTE      P4
      000000B0H   SFRSYM    DATA     BYTE      P3
      000000A0H   SFRSYM    DATA     BYTE      P2
      00000090H   SFRSYM    DATA     BYTE      P1
      00000080H   SFRSYM    DATA     BYTE      P0

      00FF3802H   BLOCK     CODE     ---       LVL=0
L251 LINKER/LOCATER V4.66.93.0                                                        02/27/2024  23:09:55  PAGE 41


      WR6         REGSYM    ---      INT       pwmch
      00FF3802H   LINE      CODE     ---       #49
      00FF3802H   LINE      CODE     ---       #51
      00FF3975H   LINE      CODE     ---       #53
      00FF3975H   LINE      CODE     ---       #55
      00FF3979H   LINE      CODE     ---       #56
      00FF397CH   LINE      CODE     ---       #58
      00FF397CH   LINE      CODE     ---       #60
      00FF3980H   LINE      CODE     ---       #61
      00FF3983H   LINE      CODE     ---       #63
      00FF3983H   LINE      CODE     ---       #65
      00FF3987H   LINE      CODE     ---       #66
      00FF398AH   LINE      CODE     ---       #68
      00FF398AH   LINE      CODE     ---       #70
      00FF398EH   LINE      CODE     ---       #71
      00FF3991H   LINE      CODE     ---       #73
      00FF3991H   LINE      CODE     ---       #75
      00FF3995H   LINE      CODE     ---       #76
      00FF3998H   LINE      CODE     ---       #78
      00FF3998H   LINE      CODE     ---       #80
      00FF399CH   LINE      CODE     ---       #81
      00FF399FH   LINE      CODE     ---       #84
      00FF399FH   LINE      CODE     ---       #86
      00FF39A3H   LINE      CODE     ---       #87
      00FF39A6H   LINE      CODE     ---       #89
      00FF39A6H   LINE      CODE     ---       #91
      00FF39AAH   LINE      CODE     ---       #92
      00FF39ADH   LINE      CODE     ---       #94
      00FF39ADH   LINE      CODE     ---       #96
      00FF39B1H   LINE      CODE     ---       #97
      00FF39B4H   LINE      CODE     ---       #99
      00FF39B4H   LINE      CODE     ---       #101
      00FF39B8H   LINE      CODE     ---       #102
      00FF39BBH   LINE      CODE     ---       #104
      00FF39BBH   LINE      CODE     ---       #106
      00FF39BFH   LINE      CODE     ---       #107
      00FF39C2H   LINE      CODE     ---       #109
      00FF39C2H   LINE      CODE     ---       #111
      00FF39C6H   LINE      CODE     ---       #112
      00FF39C9H   LINE      CODE     ---       #115
      00FF39C9H   LINE      CODE     ---       #117
      00FF39CDH   LINE      CODE     ---       #118
      00FF39CFH   LINE      CODE     ---       #120
      00FF39CFH   LINE      CODE     ---       #122
      00FF39D3H   LINE      CODE     ---       #123
      00FF39D5H   LINE      CODE     ---       #125
      00FF39D5H   LINE      CODE     ---       #127
      00FF39D9H   LINE      CODE     ---       #128
      00FF39DBH   LINE      CODE     ---       #130
      00FF39DBH   LINE      CODE     ---       #132
      00FF39DFH   LINE      CODE     ---       #133
      00FF39E1H   LINE      CODE     ---       #135
      00FF39E1H   LINE      CODE     ---       #137
      00FF39E5H   LINE      CODE     ---       #138
      00FF39E7H   LINE      CODE     ---       #140
      00FF39E7H   LINE      CODE     ---       #142
      00FF39EBH   LINE      CODE     ---       #143
      00FF39EDH   LINE      CODE     ---       #147
      00FF39EDH   LINE      CODE     ---       #149
      00FF39F1H   LINE      CODE     ---       #150
      00FF39F3H   LINE      CODE     ---       #152
      00FF39F3H   LINE      CODE     ---       #154
      00FF39F7H   LINE      CODE     ---       #155
      00FF39F9H   LINE      CODE     ---       #157
      00FF39F9H   LINE      CODE     ---       #159
L251 LINKER/LOCATER V4.66.93.0                                                        02/27/2024  23:09:55  PAGE 42


      00FF39FDH   LINE      CODE     ---       #160
      00FF39FFH   LINE      CODE     ---       #162
      00FF39FFH   LINE      CODE     ---       #164
      00FF3A03H   LINE      CODE     ---       #165
      00FF3A05H   LINE      CODE     ---       #167
      00FF3A05H   LINE      CODE     ---       #169
      00FF3A09H   LINE      CODE     ---       #170
      00FF3A0BH   LINE      CODE     ---       #172
      00FF3A0BH   LINE      CODE     ---       #174
      00FF3A0FH   LINE      CODE     ---       #175
      00FF3A11H   LINE      CODE     ---       #177
      00FF3A11H   LINE      CODE     ---       #179
      00FF3A15H   LINE      CODE     ---       #180
      00FF3A17H   LINE      CODE     ---       #182
      00FF3A17H   LINE      CODE     ---       #184
      00FF3A1BH   LINE      CODE     ---       #185
      00FF3A1DH   LINE      CODE     ---       #189
      00FF3A1DH   LINE      CODE     ---       #191
      00FF3A21H   LINE      CODE     ---       #192
      00FF3A23H   LINE      CODE     ---       #194
      00FF3A23H   LINE      CODE     ---       #196
      00FF3A27H   LINE      CODE     ---       #197
      00FF3A29H   LINE      CODE     ---       #199
      00FF3A29H   LINE      CODE     ---       #201
      00FF3A2BH   LINE      CODE     ---       #202
      00FF3A2DH   LINE      CODE     ---       #204
      00FF3A2DH   LINE      CODE     ---       #206
      00FF3A31H   LINE      CODE     ---       #207
      00FF3A33H   LINE      CODE     ---       #210
      00FF3A33H   LINE      CODE     ---       #212
      00FF3A37H   LINE      CODE     ---       #213
      00FF3A39H   LINE      CODE     ---       #215
      00FF3A39H   LINE      CODE     ---       #217
      00FF3A3DH   LINE      CODE     ---       #218
      00FF3A3FH   LINE      CODE     ---       #220
      00FF3A3FH   LINE      CODE     ---       #222
      00FF3A45H   LINE      CODE     ---       #223
      00FF3A47H   LINE      CODE     ---       #225
      00FF3A47H   LINE      CODE     ---       #227
      00FF3A4FH   LINE      CODE     ---       #228
      00FF3A51H   LINE      CODE     ---       #232
      00FF3A51H   LINE      CODE     ---       #234
      00FF3A59H   LINE      CODE     ---       #235
      00FF3A5BH   LINE      CODE     ---       #237
      00FF3A5BH   LINE      CODE     ---       #239
      00FF3A63H   LINE      CODE     ---       #240
      00FF3A65H   LINE      CODE     ---       #242
      00FF3A65H   LINE      CODE     ---       #244
      00FF3A6DH   LINE      CODE     ---       #245
      00FF3A6FH   LINE      CODE     ---       #247
      00FF3A6FH   LINE      CODE     ---       #249
      00FF3A77H   LINE      CODE     ---       #250
      00FF3A79H   LINE      CODE     ---       #254
      00FF3A79H   LINE      CODE     ---       #256
      00FF3A81H   LINE      CODE     ---       #257
      00FF3A83H   LINE      CODE     ---       #259
      00FF3A83H   LINE      CODE     ---       #261
      00FF3A8BH   LINE      CODE     ---       #262
      00FF3A8DH   LINE      CODE     ---       #264
      00FF3A8DH   LINE      CODE     ---       #266
      00FF3A95H   LINE      CODE     ---       #267
      00FF3A97H   LINE      CODE     ---       #269
      00FF3A97H   LINE      CODE     ---       #271
      00FF3AA2H   LINE      CODE     ---       #272
      00FF3AA2H   LINE      CODE     ---       #275
L251 LINKER/LOCATER V4.66.93.0                                                        02/27/2024  23:09:55  PAGE 43


      00FF3AA2H   LINE      CODE     ---       #277
      ---         BLOCKEND  ---      ---       LVL=0

      00FF351EH   BLOCK     CODE     ---       LVL=0
      WR14        REGSYM    ---      INT       pwmch
      000001E2H   SYMBOL    EDATA    DWORD     freq
      000001E6H   SYMBOL    EDATA    DWORD     duty
      00FF3526H   BLOCK     CODE     NEAR LAB  LVL=1
      DR4         REGSYM    ---      DWORD     match_temp
      DR28        REGSYM    ---      DWORD     period_temp
      WR26        REGSYM    ---      WORD      freq_div
      ---         BLOCKEND  ---      ---       LVL=1
      00FF351EH   LINE      CODE     ---       #290
      00FF3526H   LINE      CODE     ---       #291
      00FF3526H   LINE      CODE     ---       #295
      00FF3526H   LINE      CODE     ---       #298
      00FF3529H   LINE      CODE     ---       #301
      00FF352CH   LINE      CODE     ---       #305
      00FF353DH   LINE      CODE     ---       #306
      00FF353DH   LINE      CODE     ---       #307
      00FF3546H   LINE      CODE     ---       #309
      00FF3567H   LINE      CODE     ---       #312
      00FF3570H   LINE      CODE     ---       #315
      00FF359BH   LINE      CODE     ---       #316
      00FF35BCH   LINE      CODE     ---       #319
      00FF3608H   LINE      CODE     ---       #322
      00FF3617H   LINE      CODE     ---       #323
      00FF3622H   LINE      CODE     ---       #325
      00FF362BH   LINE      CODE     ---       #326
      00FF3631H   LINE      CODE     ---       #327
      00FF3634H   LINE      CODE     ---       #330
      00FF366CH   LINE      CODE     ---       #331
      00FF368FH   LINE      CODE     ---       #334
      00FF36E1H   LINE      CODE     ---       #338
      00FF36F0H   LINE      CODE     ---       #339
      00FF36FBH   LINE      CODE     ---       #341
      00FF3704H   LINE      CODE     ---       #342
      00FF3711H   LINE      CODE     ---       #343
      00FF3711H   LINE      CODE     ---       #346
      00FF373DH   LINE      CODE     ---       #347
      00FF376BH   LINE      CODE     ---       #350
      00FF3791H   LINE      CODE     ---       #351
      00FF37BDH   LINE      CODE     ---       #354
      00FF37D4H   LINE      CODE     ---       #355
      00FF37FFH   LINE      CODE     ---       #360
      ---         BLOCKEND  ---      ---       LVL=0

      00FF4D59H   BLOCK     CODE     ---       LVL=0
      WR30        REGSYM    ---      INT       pwmch
      DR24        REGSYM    ---      DWORD     duty
      00FF4D5DH   BLOCK     CODE     NEAR LAB  LVL=1
      DR0         REGSYM    ---      DWORD     match_temp
      DR20        REGSYM    ---      DWORD     arr
      ---         BLOCKEND  ---      ---       LVL=1
      00FF4D59H   LINE      CODE     ---       #370
      00FF4D5DH   LINE      CODE     ---       #371
      00FF4D5DH   LINE      CODE     ---       #373
      00FF4DA1H   LINE      CODE     ---       #377
      00FF4DC2H   LINE      CODE     ---       #381
      00FF4DE8H   LINE      CODE     ---       #382
      00FF4E10H   LINE      CODE     ---       #386
      ---         BLOCKEND  ---      ---       LVL=0
      WR30        REGSYM    ---      INT       pwmch
      DR24        REGSYM    ---      DWORD     freq
      DR0         REGSYM    ---      DWORD     match_temp
L251 LINKER/LOCATER V4.66.93.0                                                        02/27/2024  23:09:55  PAGE 44


      DR24        REGSYM    ---      DWORD     period_temp
      WR28        REGSYM    ---      WORD      freq_div

      ---         MODULE    ---      ---       zf_spi
      000000CFH   SFRSYM    DATA     BYTE      SPDAT
      000000D0H   SFRSYM    DATA     BYTE      PSW
      000000B7H   SFRSYM    DATA     BYTE      IPH
      000000CDH   SFRSYM    DATA     BYTE      SPSTAT
      00000088H   SFRSYM    DATA     BYTE      TCON
      00000098H   SFRSYM    DATA     BYTE      SCON
      000000BCH   SFRSYM    DATA     BYTE      ADC_CONTR
      000000DEH   SFRSYM    DATA     BYTE      ADCCFG
      000000B8H   SFRSYM    DATA     BYTE      IP
      000000A8H   SFRSYM    DATA     BYTE      IE
      000000A2H   SFRSYM    DATA     BYTE      P_SW1
      000000CEH   SFRSYM    DATA     BYTE      SPCTL
      000000F8H   SFRSYM    DATA     BYTE      P7
      000000E8H   SFRSYM    DATA     BYTE      P6
      000000C8H   SFRSYM    DATA     BYTE      P5
      000000C0H   SFRSYM    DATA     BYTE      P4
      000000B0H   SFRSYM    DATA     BYTE      P3
      000000A0H   SFRSYM    DATA     BYTE      P2
      00000090H   SFRSYM    DATA     BYTE      P1
      00000080H   SFRSYM    DATA     BYTE      P0
      WR14        REGSYM    ---      INT       spi_n
      R13         REGSYM    ---      BYTE      mode
      R11         REGSYM    ---      BYTE      dat
      WR14        REGSYM    ---      INT       spi_n
      R7          REGSYM    ---      BYTE      mode

      ---         MODULE    ---      ---       zf_tim
      00FF5A6DH   PUBLIC    CODE     ---       ctimer_count_read
      00FF4FF2H   PUBLIC    CODE     ---       pit_timer_ms
      00FF5B07H   PUBLIC    CODE     ---       ctimer_count_init
      00FF5A1CH   PUBLIC    CODE     ---       ctimer_count_clean
      000000D0H   SFRSYM    DATA     BYTE      PSW
      000000B7H   SFRSYM    DATA     BYTE      IPH
      000000DDH   SFRSYM    DATA     BYTE      T4T3M
      00000088H.6 SFRSYM    DATA     BIT       TR1
      00000088H.4 SFRSYM    DATA     BIT       TR0
      000000D3H   SFRSYM    DATA     BYTE      T4L
      000000D5H   SFRSYM    DATA     BYTE      T3L
      000000D7H   SFRSYM    DATA     BYTE      T2L
      0000008BH   SFRSYM    DATA     BYTE      TL1
      0000008AH   SFRSYM    DATA     BYTE      TL0
      000000D2H   SFRSYM    DATA     BYTE      T4H
      000000D4H   SFRSYM    DATA     BYTE      T3H
      000000D6H   SFRSYM    DATA     BYTE      T2H
      0000008DH   SFRSYM    DATA     BYTE      TH1
      0000008CH   SFRSYM    DATA     BYTE      TH0
      000000A8H.3 SFRSYM    DATA     BIT       ET1
      000000A8H.1 SFRSYM    DATA     BIT       ET0
      0000008EH   SFRSYM    DATA     BYTE      AUXR
      000000AFH   SFRSYM    DATA     BYTE      IE2
      00000088H   SFRSYM    DATA     BYTE      TCON
      00000089H   SFRSYM    DATA     BYTE      TMOD
      00000098H   SFRSYM    DATA     BYTE      SCON
      000000BCH   SFRSYM    DATA     BYTE      ADC_CONTR
      000000DEH   SFRSYM    DATA     BYTE      ADCCFG
      000000B8H   SFRSYM    DATA     BYTE      IP
      000000A8H   SFRSYM    DATA     BYTE      IE
      000000F8H   SFRSYM    DATA     BYTE      P7
      000000E8H   SFRSYM    DATA     BYTE      P6
      000000C8H   SFRSYM    DATA     BYTE      P5
      000000C0H   SFRSYM    DATA     BYTE      P4
L251 LINKER/LOCATER V4.66.93.0                                                        02/27/2024  23:09:55  PAGE 45


      000000B0H   SFRSYM    DATA     BYTE      P3
      000000A0H   SFRSYM    DATA     BYTE      P2
      00000090H   SFRSYM    DATA     BYTE      P1
      00000080H   SFRSYM    DATA     BYTE      P0

      00FF5B07H   BLOCK     CODE     ---       LVL=0
      WR6         REGSYM    ---      INT       tim_n
      00FF5B07H   LINE      CODE     ---       #39
      00FF5B07H   LINE      CODE     ---       #42
      00FF5B1BH   LINE      CODE     ---       #44
      00FF5B1BH   LINE      CODE     ---       #46
      00FF5B1EH   LINE      CODE     ---       #47
      00FF5B21H   LINE      CODE     ---       #48
      00FF5B24H   LINE      CODE     ---       #49
      00FF5B26H   LINE      CODE     ---       #50
      00FF5B27H   LINE      CODE     ---       #53
      00FF5B27H   LINE      CODE     ---       #55
      00FF5B2AH   LINE      CODE     ---       #56
      00FF5B2DH   LINE      CODE     ---       #57
      00FF5B30H   LINE      CODE     ---       #58
      00FF5B32H   LINE      CODE     ---       #59
      00FF5B33H   LINE      CODE     ---       #62
      00FF5B33H   LINE      CODE     ---       #64
      00FF5B36H   LINE      CODE     ---       #65
      00FF5B39H   LINE      CODE     ---       #66
      00FF5B3CH   LINE      CODE     ---       #67
      00FF5B3DH   LINE      CODE     ---       #70
      00FF5B3DH   LINE      CODE     ---       #72
      00FF5B40H   LINE      CODE     ---       #73
      00FF5B43H   LINE      CODE     ---       #74
      00FF5B46H   LINE      CODE     ---       #75
      00FF5B47H   LINE      CODE     ---       #78
      00FF5B47H   LINE      CODE     ---       #80
      00FF5B4AH   LINE      CODE     ---       #81
      00FF5B4DH   LINE      CODE     ---       #82
      00FF5B50H   LINE      CODE     ---       #83
      00FF5B50H   LINE      CODE     ---       #86
      00FF5B50H   LINE      CODE     ---       #87
      ---         BLOCKEND  ---      ---       LVL=0

      00FF5A6DH   BLOCK     CODE     ---       LVL=0
      WR4         REGSYM    ---      INT       tim_n
      00FF5A6FH   BLOCK     CODE     NEAR LAB  LVL=1
      WR6         REGSYM    ---      WORD      dat
      ---         BLOCKEND  ---      ---       LVL=1
      00FF5A6DH   LINE      CODE     ---       #95
      00FF5A6FH   LINE      CODE     ---       #96
      00FF5A6FH   LINE      CODE     ---       #97
      00FF5A71H   LINE      CODE     ---       #99
      00FF5A85H   LINE      CODE     ---       #101
      00FF5A85H   LINE      CODE     ---       #103
      00FF5A8BH   LINE      CODE     ---       #104
      00FF5A8DH   LINE      CODE     ---       #105
      00FF5A8FH   LINE      CODE     ---       #107
      00FF5A8FH   LINE      CODE     ---       #109
      00FF5A95H   LINE      CODE     ---       #110
      00FF5A97H   LINE      CODE     ---       #111
      00FF5A99H   LINE      CODE     ---       #113
      00FF5A99H   LINE      CODE     ---       #115
      00FF5A9FH   LINE      CODE     ---       #116
      00FF5AA1H   LINE      CODE     ---       #117
      00FF5AA3H   LINE      CODE     ---       #119
      00FF5AA3H   LINE      CODE     ---       #121
      00FF5AA9H   LINE      CODE     ---       #122
      00FF5AABH   LINE      CODE     ---       #123
L251 LINKER/LOCATER V4.66.93.0                                                        02/27/2024  23:09:55  PAGE 46


      00FF5AADH   LINE      CODE     ---       #125
      00FF5AADH   LINE      CODE     ---       #127
      00FF5AB3H   LINE      CODE     ---       #128
      00FF5AB9H   LINE      CODE     ---       #129
      00FF5AB9H   LINE      CODE     ---       #132
      00FF5AB9H   LINE      CODE     ---       #133
      00FF5AB9H   LINE      CODE     ---       #134
      ---         BLOCKEND  ---      ---       LVL=0

      00FF5A1CH   BLOCK     CODE     ---       LVL=0
      WR6         REGSYM    ---      INT       tim_n
      00FF5A1CH   LINE      CODE     ---       #143
      00FF5A1CH   LINE      CODE     ---       #145
      00FF5A30H   LINE      CODE     ---       #147
      00FF5A30H   LINE      CODE     ---       #149
      00FF5A32H   LINE      CODE     ---       #150
      00FF5A35H   LINE      CODE     ---       #151
      00FF5A38H   LINE      CODE     ---       #152
      00FF5A3AH   LINE      CODE     ---       #153
      00FF5A3BH   LINE      CODE     ---       #155
      00FF5A3BH   LINE      CODE     ---       #157
      00FF5A3DH   LINE      CODE     ---       #158
      00FF5A40H   LINE      CODE     ---       #159
      00FF5A43H   LINE      CODE     ---       #160
      00FF5A45H   LINE      CODE     ---       #161
      00FF5A46H   LINE      CODE     ---       #163
      00FF5A46H   LINE      CODE     ---       #165
      00FF5A49H   LINE      CODE     ---       #166
      00FF5A4CH   LINE      CODE     ---       #167
      00FF5A4FH   LINE      CODE     ---       #168
      00FF5A52H   LINE      CODE     ---       #169
      00FF5A53H   LINE      CODE     ---       #171
      00FF5A53H   LINE      CODE     ---       #173
      00FF5A56H   LINE      CODE     ---       #174
      00FF5A59H   LINE      CODE     ---       #175
      00FF5A5CH   LINE      CODE     ---       #176
      00FF5A5FH   LINE      CODE     ---       #177
      00FF5A60H   LINE      CODE     ---       #179
      00FF5A60H   LINE      CODE     ---       #181
      00FF5A63H   LINE      CODE     ---       #182
      00FF5A66H   LINE      CODE     ---       #183
      00FF5A69H   LINE      CODE     ---       #184
      00FF5A6CH   LINE      CODE     ---       #185
      00FF5A6CH   LINE      CODE     ---       #187
      00FF5A6CH   LINE      CODE     ---       #188
      ---         BLOCKEND  ---      ---       LVL=0

      00FF4FF2H   BLOCK     CODE     ---       LVL=0
      WR30        REGSYM    ---      INT       tim_n
      WR28        REGSYM    ---      WORD      time_ms
      00FF4FF4H   BLOCK     CODE     NEAR LAB  LVL=1
      WR28        REGSYM    ---      WORD      temp
      ---         BLOCKEND  ---      ---       LVL=1
      00FF4FF2H   LINE      CODE     ---       #198
      00FF4FF4H   LINE      CODE     ---       #199
      00FF4FF4H   LINE      CODE     ---       #201
      00FF5011H   LINE      CODE     ---       #203
      00FF5015H   LINE      CODE     ---       #205
      00FF5019H   LINE      CODE     ---       #206
      00FF501FH   LINE      CODE     ---       #207
      00FF5023H   LINE      CODE     ---       #208
      00FF5025H   LINE      CODE     ---       #209
      00FF5027H   LINE      CODE     ---       #210
      00FF5028H   LINE      CODE     ---       #211
      00FF502EH   LINE      CODE     ---       #213
L251 LINKER/LOCATER V4.66.93.0                                                        02/27/2024  23:09:55  PAGE 47


      00FF5032H   LINE      CODE     ---       #214
      00FF5038H   LINE      CODE     ---       #215
      00FF503CH   LINE      CODE     ---       #216
      00FF503EH   LINE      CODE     ---       #217
      00FF5040H   LINE      CODE     ---       #218
      00FF5041H   LINE      CODE     ---       #219
      00FF5047H   LINE      CODE     ---       #221
      00FF504DH   LINE      CODE     ---       #222
      00FF5051H   LINE      CODE     ---       #223
      00FF5054H   LINE      CODE     ---       #224
      00FF5057H   LINE      CODE     ---       #225
      00FF5058H   LINE      CODE     ---       #226
      00FF505EH   LINE      CODE     ---       #228
      00FF5064H   LINE      CODE     ---       #229
      00FF5068H   LINE      CODE     ---       #230
      00FF506BH   LINE      CODE     ---       #231
      00FF506EH   LINE      CODE     ---       #232
      00FF506FH   LINE      CODE     ---       #233
      00FF5075H   LINE      CODE     ---       #235
      00FF507BH   LINE      CODE     ---       #236
      00FF507FH   LINE      CODE     ---       #237
      00FF5082H   LINE      CODE     ---       #238
      00FF5085H   LINE      CODE     ---       #239
      ---         BLOCKEND  ---      ---       LVL=0

      ---         MODULE    ---      ---       zf_uart
      00FF58CCH   PUBLIC    CODE     ---       uart_putchar
      00FF3F69H   PUBLIC    CODE     ---       uart_init
      00000109H   PUBLIC    EDATA    ---       uart1_rx_buff
      0000016DH   PUBLIC    EDATA    ---       uart1_tx_buff
      000001D1H   PUBLIC    EDATA    ---       busy
      000001DCH   PUBLIC    EDATA    BYTE      ?uart_init?BYTE
      000000D0H   SFRSYM    DATA     BYTE      PSW
      000000FDH   SFRSYM    DATA     BYTE      S4CON
      000000ACH   SFRSYM    DATA     BYTE      S3CON
      0000009AH   SFRSYM    DATA     BYTE      S2CON
      000000FEH   SFRSYM    DATA     BYTE      S4BUF
      000000ADH   SFRSYM    DATA     BYTE      S3BUF
      0000009BH   SFRSYM    DATA     BYTE      S2BUF
      000000B7H   SFRSYM    DATA     BYTE      IPH
      000000DDH   SFRSYM    DATA     BYTE      T4T3M
      00000088H.6 SFRSYM    DATA     BIT       TR1
      000000D3H   SFRSYM    DATA     BYTE      T4L
      000000D5H   SFRSYM    DATA     BYTE      T3L
      000000D7H   SFRSYM    DATA     BYTE      T2L
      0000008BH   SFRSYM    DATA     BYTE      TL1
      000000D2H   SFRSYM    DATA     BYTE      T4H
      000000D4H   SFRSYM    DATA     BYTE      T3H
      000000D6H   SFRSYM    DATA     BYTE      T2H
      0000008DH   SFRSYM    DATA     BYTE      TH1
      0000008EH   SFRSYM    DATA     BYTE      AUXR
      000000AFH   SFRSYM    DATA     BYTE      IE2
      00000088H   SFRSYM    DATA     BYTE      TCON
      00000089H   SFRSYM    DATA     BYTE      TMOD
      00000098H   SFRSYM    DATA     BYTE      SCON
      00000099H   SFRSYM    DATA     BYTE      SBUF
      000000BCH   SFRSYM    DATA     BYTE      ADC_CONTR
      000000DEH   SFRSYM    DATA     BYTE      ADCCFG
      000000B8H   SFRSYM    DATA     BYTE      IP
      000000A8H.4 SFRSYM    DATA     BIT       ES
      000000A8H   SFRSYM    DATA     BYTE      IE
      000000BAH   SFRSYM    DATA     BYTE      P_SW2
      000000A2H   SFRSYM    DATA     BYTE      P_SW1
      000000F8H   SFRSYM    DATA     BYTE      P7
      000000E8H   SFRSYM    DATA     BYTE      P6
L251 LINKER/LOCATER V4.66.93.0                                                        02/27/2024  23:09:55  PAGE 48


      000000C8H   SFRSYM    DATA     BYTE      P5
      000000C0H   SFRSYM    DATA     BYTE      P4
      000000C9H   SFRSYM    DATA     BYTE      P5M1
      000000B0H   SFRSYM    DATA     BYTE      P3
      000000CAH   SFRSYM    DATA     BYTE      P5M0
      000000A0H   SFRSYM    DATA     BYTE      P2
      00000090H   SFRSYM    DATA     BYTE      P1
      00000080H   SFRSYM    DATA     BYTE      P0

      00FF3F69H   BLOCK     CODE     ---       LVL=0
      WR24        REGSYM    ---      INT       uart_n
      WR28        REGSYM    ---      INT       uart_rx_pin
      WR30        REGSYM    ---      INT       uart_tx_pin
      000001E2H   SYMBOL    EDATA    DWORD     baud
      WR26        REGSYM    ---      INT       tim_n
      00FF3F71H   BLOCK     CODE     NEAR LAB  LVL=1
      WR6         REGSYM    ---      WORD      brt
      ---         BLOCKEND  ---      ---       LVL=1
      00FF3F69H   LINE      CODE     ---       #48
      00FF3F71H   LINE      CODE     ---       #49
      00FF3F71H   LINE      CODE     ---       #52
      00FF3F94H   LINE      CODE     ---       #55
      00FF3FB2H   LINE      CODE     ---       #57
      00FF3FB2H   LINE      CODE     ---       #59
      00FF3FB8H   LINE      CODE     ---       #61
      00FF3FBBH   LINE      CODE     ---       #62
      00FF3FBFH   LINE      CODE     ---       #63
      00FF3FC3H   LINE      CODE     ---       #64
      00FF3FC7H   LINE      CODE     ---       #65
      00FF3FCAH   LINE      CODE     ---       #66
      00FF3FCCH   LINE      CODE     ---       #67
      00FF3FD1H   LINE      CODE     ---       #68
      00FF3FD3H   LINE      CODE     ---       #69
      00FF3FD9H   LINE      CODE     ---       #71
      00FF3FDCH   LINE      CODE     ---       #72
      00FF3FE0H   LINE      CODE     ---       #73
      00FF3FE4H   LINE      CODE     ---       #74
      00FF3FE7H   LINE      CODE     ---       #75
      00FF3FE7H   LINE      CODE     ---       #76
      00FF3FEAH   LINE      CODE     ---       #77
      00FF3FF4H   LINE      CODE     ---       #79
      00FF3FF8H   LINE      CODE     ---       #80
      00FF3FFAH   LINE      CODE     ---       #81
      00FF4006H   LINE      CODE     ---       #83
      00FF4009H   LINE      CODE     ---       #84
      00FF400BH   LINE      CODE     ---       #85
      00FF4017H   LINE      CODE     ---       #87
      00FF401AH   LINE      CODE     ---       #88
      00FF401CH   LINE      CODE     ---       #89
      00FF4028H   LINE      CODE     ---       #91
      00FF402BH   LINE      CODE     ---       #92
      00FF402BH   LINE      CODE     ---       #93
      00FF4030H   LINE      CODE     ---       #94
      00FF4032H   LINE      CODE     ---       #95
      00FF4033H   LINE      CODE     ---       #98
      00FF4033H   LINE      CODE     ---       #100
      00FF4039H   LINE      CODE     ---       #102
      00FF403CH   LINE      CODE     ---       #103
      00FF4040H   LINE      CODE     ---       #104
      00FF4044H   LINE      CODE     ---       #105
      00FF4047H   LINE      CODE     ---       #106
      00FF4047H   LINE      CODE     ---       #108
      00FF404AH   LINE      CODE     ---       #109
      00FF4056H   LINE      CODE     ---       #111
      00FF405AH   LINE      CODE     ---       #112
L251 LINKER/LOCATER V4.66.93.0                                                        02/27/2024  23:09:55  PAGE 49


      00FF405CH   LINE      CODE     ---       #113
      00FF4068H   LINE      CODE     ---       #115
      00FF406BH   LINE      CODE     ---       #116
      00FF406BH   LINE      CODE     ---       #118
      00FF406EH   LINE      CODE     ---       #119
      00FF4073H   LINE      CODE     ---       #120
      00FF4074H   LINE      CODE     ---       #123
      00FF4074H   LINE      CODE     ---       #125
      00FF407AH   LINE      CODE     ---       #127
      00FF407DH   LINE      CODE     ---       #128
      00FF4081H   LINE      CODE     ---       #129
      00FF4085H   LINE      CODE     ---       #130
      00FF4088H   LINE      CODE     ---       #131
      00FF408AH   LINE      CODE     ---       #132
      00FF4090H   LINE      CODE     ---       #134
      00FF4093H   LINE      CODE     ---       #135
      00FF4097H   LINE      CODE     ---       #136
      00FF409BH   LINE      CODE     ---       #137
      00FF409EH   LINE      CODE     ---       #138
      00FF409EH   LINE      CODE     ---       #140
      00FF40A1H   LINE      CODE     ---       #141
      00FF40ADH   LINE      CODE     ---       #143
      00FF40B1H   LINE      CODE     ---       #144
      00FF40B3H   LINE      CODE     ---       #145
      00FF40BFH   LINE      CODE     ---       #147
      00FF40C2H   LINE      CODE     ---       #148
      00FF40C2H   LINE      CODE     ---       #150
      00FF40C5H   LINE      CODE     ---       #151
      00FF40CAH   LINE      CODE     ---       #152
      00FF40CBH   LINE      CODE     ---       #155
      00FF40CBH   LINE      CODE     ---       #157
      00FF40D1H   LINE      CODE     ---       #159
      00FF40D4H   LINE      CODE     ---       #160
      00FF40D8H   LINE      CODE     ---       #161
      00FF40DCH   LINE      CODE     ---       #162
      00FF40DFH   LINE      CODE     ---       #163
      00FF40E1H   LINE      CODE     ---       #164
      00FF40E7H   LINE      CODE     ---       #166
      00FF40EAH   LINE      CODE     ---       #167
      00FF40EEH   LINE      CODE     ---       #168
      00FF40F2H   LINE      CODE     ---       #169
      00FF40F5H   LINE      CODE     ---       #170
      00FF40F5H   LINE      CODE     ---       #172
      00FF40F8H   LINE      CODE     ---       #173
      00FF4104H   LINE      CODE     ---       #175
      00FF4108H   LINE      CODE     ---       #176
      00FF410AH   LINE      CODE     ---       #177
      00FF4116H   LINE      CODE     ---       #179
      00FF4119H   LINE      CODE     ---       #180
      00FF411CH   LINE      CODE     ---       #181
      00FF411FH   LINE      CODE     ---       #182
      00FF411FH   LINE      CODE     ---       #183
      00FF4122H   LINE      CODE     ---       #184
      00FF4127H   LINE      CODE     ---       #185
      00FF4127H   LINE      CODE     ---       #188
      00FF4127H   LINE      CODE     ---       #190
      ---         BLOCKEND  ---      ---       LVL=0

      00FF58CCH   BLOCK     CODE     ---       LVL=0
      WR6         REGSYM    ---      INT       uart_n
      R10         REGSYM    ---      BYTE      dat
      00FF58CCH   LINE      CODE     ---       #199
      00FF58CEH   LINE      CODE     ---       #201
      00FF58E0H   LINE      CODE     ---       #203
      00FF58E0H   LINE      CODE     ---       #204
L251 LINKER/LOCATER V4.66.93.0                                                        02/27/2024  23:09:55  PAGE 50


      00FF58E6H   LINE      CODE     ---       #205
      00FF58ECH   LINE      CODE     ---       #206
      00FF58EFH   LINE      CODE     ---       #207
      00FF58F0H   LINE      CODE     ---       #208
      00FF58F0H   LINE      CODE     ---       #209
      00FF58F6H   LINE      CODE     ---       #210
      00FF58FCH   LINE      CODE     ---       #211
      00FF58FFH   LINE      CODE     ---       #212
      00FF5900H   LINE      CODE     ---       #213
      00FF5900H   LINE      CODE     ---       #214
      00FF5906H   LINE      CODE     ---       #215
      00FF590CH   LINE      CODE     ---       #216
      00FF590FH   LINE      CODE     ---       #217
      00FF5910H   LINE      CODE     ---       #218
      00FF5910H   LINE      CODE     ---       #219
      00FF5916H   LINE      CODE     ---       #220
      00FF591CH   LINE      CODE     ---       #221
      00FF591FH   LINE      CODE     ---       #222
      00FF591FH   LINE      CODE     ---       #223
      00FF591FH   LINE      CODE     ---       #224
      ---         BLOCKEND  ---      ---       LVL=0
      REG=3       REGSYM    ---      ---       p
      REG=3       REGSYM    ---      ---       str

      ---         MODULE    ---      ---       zf_fifo
      00FF5C1FH   PUBLIC    CODE     ---       fifo_head_offset
      00FF49FEH   PUBLIC    CODE     ---       fifo_write_buffer
      000001D2H   PUBLIC    EDATA    BYTE      ?fifo_write_buffer?BYTE
      000000D0H   SFRSYM    DATA     BYTE      PSW
      000000B7H   SFRSYM    DATA     BYTE      IPH
      00000088H   SFRSYM    DATA     BYTE      TCON
      00000098H   SFRSYM    DATA     BYTE      SCON
      000000BCH   SFRSYM    DATA     BYTE      ADC_CONTR
      000000DEH   SFRSYM    DATA     BYTE      ADCCFG
      000000B8H   SFRSYM    DATA     BYTE      IP
      000000A8H   SFRSYM    DATA     BYTE      IE
      000000F8H   SFRSYM    DATA     BYTE      P7
      000000E8H   SFRSYM    DATA     BYTE      P6
      000000C8H   SFRSYM    DATA     BYTE      P5
      000000C0H   SFRSYM    DATA     BYTE      P4
      000000B0H   SFRSYM    DATA     BYTE      P3
      000000A0H   SFRSYM    DATA     BYTE      P2
      00000090H   SFRSYM    DATA     BYTE      P1
      00000080H   SFRSYM    DATA     BYTE      P0
      REG=2       REGSYM    ---      ---       fifo
      REG=7       REGSYM    ---      ---       buffer_addr

      00FF5C1FH   BLOCK     CODE     ---       LVL=0
      REG=7       REGSYM    ---      ---       fifo
      DR24        REGSYM    ---      DWORD     offset
      00FF5C1FH   LINE      CODE     ---       #61
      00FF5C23H   LINE      CODE     ---       #63
      00FF5C2EH   LINE      CODE     ---       #65
      00FF5C30H   LINE      CODE     ---       #67
      00FF5C4CH   LINE      CODE     ---       #68
      00FF5C60H   LINE      CODE     ---       #69
      ---         BLOCKEND  ---      ---       LVL=0
      REG=7       REGSYM    ---      ---       fifo
      DR24        REGSYM    ---      DWORD     offset
      REG=2       REGSYM    ---      ---       fifo
      REG=7       REGSYM    ---      ---       fifo

      00FF49FEH   BLOCK     CODE     ---       LVL=0
      REG=3       REGSYM    ---      ---       fifo
      000001D6H   SYMBOL    EDATA    ---       dat
L251 LINKER/LOCATER V4.66.93.0                                                        02/27/2024  23:09:55  PAGE 51


      000001DAH   SYMBOL    EDATA    DWORD     length
      00FF4A06H   BLOCK     CODE     NEAR LAB  LVL=1
      000001DEH   SYMBOL    EDATA    DWORD     temp_length
      ---         BLOCKEND  ---      ---       LVL=1
      00FF49FEH   LINE      CODE     ---       #120
      00FF4A06H   LINE      CODE     ---       #121
      00FF4A06H   LINE      CODE     ---       #124
      00FF4A19H   LINE      CODE     ---       #126
      00FF4A2FH   LINE      CODE     ---       #128
      00FF4A33H   LINE      CODE     ---       #130
      00FF4A4BH   LINE      CODE     ---       #131
      00FF4A54H   LINE      CODE     ---       #132
      00FF4A64H   LINE      CODE     ---       #133
      00FF4A84H   LINE      CODE     ---       #134
      00FF4A90H   LINE      CODE     ---       #135
      00FF4A92H   LINE      CODE     ---       #138
      00FF4AAEH   LINE      CODE     ---       #139
      00FF4AB7H   LINE      CODE     ---       #140
      00FF4AB7H   LINE      CODE     ---       #142
      00FF4AD1H   LINE      CODE     ---       #143
      00FF4AD3H   LINE      CODE     ---       #146
      00FF4AD9H   LINE      CODE     ---       #147
      00FF4AD9H   LINE      CODE     ---       #149
      00FF4ADBH   LINE      CODE     ---       #150
      ---         BLOCKEND  ---      ---       LVL=0
      REG=3       REGSYM    ---      ---       fifo

      ---         MODULE    ---      ---       SEEKFREE_18TFT
      000000D0H   SFRSYM    DATA     BYTE      PSW
      000000B7H   SFRSYM    DATA     BYTE      IPH
      000000A0H.5 SFRSYM    DATA     BIT       P25
      00000088H   SFRSYM    DATA     BYTE      TCON
      000000A0H.3 SFRSYM    DATA     BIT       P23
      00000098H   SFRSYM    DATA     BYTE      SCON
      000000A0H.2 SFRSYM    DATA     BIT       P22
      000000A0H.1 SFRSYM    DATA     BIT       P21
      000000A0H.0 SFRSYM    DATA     BIT       P20
      000000BCH   SFRSYM    DATA     BYTE      ADC_CONTR
      000000DEH   SFRSYM    DATA     BYTE      ADCCFG
      000000B8H   SFRSYM    DATA     BYTE      IP
      000000A8H   SFRSYM    DATA     BYTE      IE
      000000F8H   SFRSYM    DATA     BYTE      P7
      000000E8H   SFRSYM    DATA     BYTE      P6
      000000C8H   SFRSYM    DATA     BYTE      P5
      000000C0H   SFRSYM    DATA     BYTE      P4
      000000B0H   SFRSYM    DATA     BYTE      P3
      000000A0H   SFRSYM    DATA     BYTE      P2
      00000090H   SFRSYM    DATA     BYTE      P1
      00000080H   SFRSYM    DATA     BYTE      P0
      R7          REGSYM    ---      BYTE      dat
      R6          REGSYM    ---      BYTE      i
      R7          REGSYM    ---      BYTE      dat
      R6          REGSYM    ---      BYTE      i
      WR4         REGSYM    ---      WORD      dat
      R10         REGSYM    ---      BYTE      i
      WR12        REGSYM    ---      WORD      x_end
      WR14        REGSYM    ---      WORD      y_end
      WR14        REGSYM    ---      INT       color
      R13         REGSYM    ---      BYTE      i
      R12         REGSYM    ---      BYTE      j
      WR2         REGSYM    ---      WORD      x
      WR0         REGSYM    ---      WORD      y
      WR14        REGSYM    ---      WORD      color
      WR12        REGSYM    ---      WORD      x
      WR14        REGSYM    ---      WORD      y
L251 LINKER/LOCATER V4.66.93.0                                                        02/27/2024  23:09:55  PAGE 52


      REG=3       REGSYM    ---      ---       dat
      WR12        REGSYM    ---      WORD      x
      WR14        REGSYM    ---      WORD      y
      WR12        REGSYM    ---      WORD      x
      WR14        REGSYM    ---      WORD      y
      R10         REGSYM    ---      BYTE      dat
      WR12        REGSYM    ---      WORD      x
      WR14        REGSYM    ---      WORD      y
      WR12        REGSYM    ---      WORD      x
      WR14        REGSYM    ---      WORD      y
      WR2         REGSYM    ---      WORD      dat
      WR12        REGSYM    ---      WORD      y
      R15         REGSYM    ---      BYTE      num
      R14         REGSYM    ---      BYTE      length
      DR12        REGSYM    ---      FLOAT     dat
      R7          REGSYM    ---      CHAR      point
      R7          REGSYM    ---      BYTE      dat
      R7          REGSYM    ---      BYTE      dat
      WR4         REGSYM    ---      WORD      dat
      WR12        REGSYM    ---      WORD      x_end
      WR14        REGSYM    ---      WORD      y_end
      WR14        REGSYM    ---      INT       color
      R13         REGSYM    ---      BYTE      i
      R12         REGSYM    ---      BYTE      j
      WR2         REGSYM    ---      WORD      x
      WR0         REGSYM    ---      WORD      y
      WR14        REGSYM    ---      WORD      color
      WR12        REGSYM    ---      WORD      x
      WR14        REGSYM    ---      WORD      y
      REG=3       REGSYM    ---      ---       dat
      WR12        REGSYM    ---      WORD      x
      WR14        REGSYM    ---      WORD      y
      WR12        REGSYM    ---      WORD      x
      WR14        REGSYM    ---      WORD      y
      R10         REGSYM    ---      BYTE      dat
      WR12        REGSYM    ---      WORD      x
      WR14        REGSYM    ---      WORD      y
      WR12        REGSYM    ---      WORD      x
      WR14        REGSYM    ---      WORD      y
      WR2         REGSYM    ---      WORD      dat
      WR12        REGSYM    ---      WORD      y
      R15         REGSYM    ---      BYTE      num
      R14         REGSYM    ---      BYTE      length
      DR12        REGSYM    ---      FLOAT     dat
      R7          REGSYM    ---      CHAR      point
      REG=3       REGSYM    ---      ---       p

      ---         MODULE    ---      ---       SEEKFREE_ABSOLUTE_ENCODER
      000000D0H   SFRSYM    DATA     BYTE      PSW
      000000B7H   SFRSYM    DATA     BYTE      IPH
      000000A0H.7 SFRSYM    DATA     BIT       P27
      000000A0H.6 SFRSYM    DATA     BIT       P26
      000000A0H.5 SFRSYM    DATA     BIT       P25
      000000A0H.4 SFRSYM    DATA     BIT       P24
      00000088H   SFRSYM    DATA     BYTE      TCON
      00000098H   SFRSYM    DATA     BYTE      SCON
      000000A0H.2 SFRSYM    DATA     BIT       P22
      000000BCH   SFRSYM    DATA     BYTE      ADC_CONTR
      000000DEH   SFRSYM    DATA     BYTE      ADCCFG
      000000B8H   SFRSYM    DATA     BYTE      IP
      000000A8H   SFRSYM    DATA     BYTE      IE
      000000F8H   SFRSYM    DATA     BYTE      P7
      000000E8H   SFRSYM    DATA     BYTE      P6
      000000C8H   SFRSYM    DATA     BYTE      P5
      000000C0H   SFRSYM    DATA     BYTE      P4
L251 LINKER/LOCATER V4.66.93.0                                                        02/27/2024  23:09:55  PAGE 53


      000000B0H   SFRSYM    DATA     BYTE      P3
      000000A0H   SFRSYM    DATA     BYTE      P2
      00000090H   SFRSYM    DATA     BYTE      P1
      00000080H   SFRSYM    DATA     BYTE      P0
      WR6         REGSYM    ---      WORD      x
      R6          REGSYM    ---      BYTE      byte
      R7          REGSYM    ---      BYTE      i
      R7          REGSYM    ---      BYTE      cmd
      R15         REGSYM    ---      BYTE      val
      R7          REGSYM    ---      BYTE      cmd
      REG=3       REGSYM    ---      ---       val
      R7          REGSYM    ---      BYTE      cmd
      R15         REGSYM    ---      BYTE      val
      R14         REGSYM    ---      BYTE      dat
      R7          REGSYM    ---      BYTE      cmd
      REG=3       REGSYM    ---      ---       val
      WR14        REGSYM    ---      WORD      zero_position
      WR14        REGSYM    ---      WORD      angle
      R10         REGSYM    ---      BYTE      byte
      R7          REGSYM    ---      BYTE      cmd
      R15         REGSYM    ---      BYTE      val
      R7          REGSYM    ---      BYTE      cmd
      REG=3       REGSYM    ---      ---       val
      R7          REGSYM    ---      BYTE      cmd
      R15         REGSYM    ---      BYTE      val
      R14         REGSYM    ---      BYTE      dat
      R7          REGSYM    ---      BYTE      cmd
      REG=3       REGSYM    ---      ---       val
      WR14        REGSYM    ---      WORD      zero_position
      WR14        REGSYM    ---      WORD      angle

      ---         MODULE    ---      ---       SEEKFREE_FONT
      00FF00A6H   PUBLIC    CODE     ---       oled_8x16
      00FF0696H   PUBLIC    CODE     ---       tft_ascii
      00FF0C86H   PUBLIC    CODE     ---       oled_6x8
      000000D0H   SFRSYM    DATA     BYTE      PSW
      000000B7H   SFRSYM    DATA     BYTE      IPH
      00000088H   SFRSYM    DATA     BYTE      TCON
      00000098H   SFRSYM    DATA     BYTE      SCON
      000000BCH   SFRSYM    DATA     BYTE      ADC_CONTR
      000000DEH   SFRSYM    DATA     BYTE      ADCCFG
      000000B8H   SFRSYM    DATA     BYTE      IP
      000000A8H   SFRSYM    DATA     BYTE      IE
      000000F8H   SFRSYM    DATA     BYTE      P7
      000000E8H   SFRSYM    DATA     BYTE      P6
      000000C8H   SFRSYM    DATA     BYTE      P5
      000000C0H   SFRSYM    DATA     BYTE      P4
      000000B0H   SFRSYM    DATA     BYTE      P3
      000000A0H   SFRSYM    DATA     BYTE      P2
      00000090H   SFRSYM    DATA     BYTE      P1
      00000080H   SFRSYM    DATA     BYTE      P0

      ---         MODULE    ---      ---       SEEKFREE_IIC
      0000051AH   PUBLIC    EDATA    BYTE      IIC_ad_main
      0000051BH   PUBLIC    EDATA    BYTE      IIC_num
      0000051CH   PUBLIC    EDATA    BYTE      IIC_ad_sub
      0000051DH   PUBLIC    EDATA    ---       IIC_buf
      000000D0H   SFRSYM    DATA     BYTE      PSW
      000000B7H   SFRSYM    DATA     BYTE      IPH
      00000088H   SFRSYM    DATA     BYTE      TCON
      000000C0H.1 SFRSYM    DATA     BIT       P41
      00000098H   SFRSYM    DATA     BYTE      SCON
      000000C0H.0 SFRSYM    DATA     BIT       P40
      000000BCH   SFRSYM    DATA     BYTE      ADC_CONTR
      000000DEH   SFRSYM    DATA     BYTE      ADCCFG
L251 LINKER/LOCATER V4.66.93.0                                                        02/27/2024  23:09:55  PAGE 54


      000000B8H   SFRSYM    DATA     BYTE      IP
      000000A8H   SFRSYM    DATA     BYTE      IE
      000000F8H   SFRSYM    DATA     BYTE      P7
      000000E8H   SFRSYM    DATA     BYTE      P6
      000000C8H   SFRSYM    DATA     BYTE      P5
      000000C0H   SFRSYM    DATA     BYTE      P4
      000000B0H   SFRSYM    DATA     BYTE      P3
      000000A0H   SFRSYM    DATA     BYTE      P2
      00000090H   SFRSYM    DATA     BYTE      P1
      00000080H   SFRSYM    DATA     BYTE      P0
      WR6         REGSYM    ---      WORD      j
      R15         REGSYM    ---      BYTE      ack_dat
      R15         REGSYM    ---      BYTE      c
      R14         REGSYM    ---      BYTE      i
      R15         REGSYM    ---      BYTE      ack_x
      R13         REGSYM    ---      BYTE      i
      R14         REGSYM    ---      BYTE      c
      R13         REGSYM    ---      BYTE      dev_add
      R14         REGSYM    ---      BYTE      reg
      R15         REGSYM    ---      BYTE      dat
      R15         REGSYM    ---      BYTE      dev_add
      R14         REGSYM    ---      BYTE      reg
      WR12        REGSYM    ---      INT       type
      R15         REGSYM    ---      BYTE      dat
      REG=3       REGSYM    ---      ---       dat_add

      ---         MODULE    ---      ---       SEEKFREE_MPU6050
      000004F8H   PUBLIC    EDATA    INT       mpu_acc_x
      000004FAH   PUBLIC    EDATA    INT       mpu_acc_y
      000004FCH   PUBLIC    EDATA    INT       mpu_acc_z
      000004FEH   PUBLIC    EDATA    INT       mpu_gyro_x
      00000500H   PUBLIC    EDATA    INT       mpu_gyro_y
      00000502H   PUBLIC    EDATA    INT       mpu_gyro_z
      000000D0H   SFRSYM    DATA     BYTE      PSW
      000000B7H   SFRSYM    DATA     BYTE      IPH
      00000088H   SFRSYM    DATA     BYTE      TCON
      00000098H   SFRSYM    DATA     BYTE      SCON
      000000BCH   SFRSYM    DATA     BYTE      ADC_CONTR
      000000DEH   SFRSYM    DATA     BYTE      ADCCFG
      000000B8H   SFRSYM    DATA     BYTE      IP
      000000A8H   SFRSYM    DATA     BYTE      IE
      000000F8H   SFRSYM    DATA     BYTE      P7
      000000E8H   SFRSYM    DATA     BYTE      P6
      000000C8H   SFRSYM    DATA     BYTE      P5
      000000C0H   SFRSYM    DATA     BYTE      P4
      000000B0H   SFRSYM    DATA     BYTE      P3
      000000A0H   SFRSYM    DATA     BYTE      P2
      00000090H   SFRSYM    DATA     BYTE      P1
      00000080H   SFRSYM    DATA     BYTE      P0

      ---         MODULE    ---      ---       SEEKFREE_OLED
      00FF614EH   PUBLIC    CODE     ---       oled_set_pos
      00FF4643H   PUBLIC    CODE     ---       oled_printf_float
      00FF6087H   PUBLIC    CODE     ---       oled_wrcmd
      00FF60B0H   PUBLIC    CODE     ---       oled_wrdat
      00FF5EDFH   PUBLIC    CODE     ---       oled_fill
      00FF4EB7H   PUBLIC    CODE     ---       oled_init
      00FF4832H   PUBLIC    CODE     ---       oled_p8x16str
      000001DEH   PUBLIC    EDATA    BYTE      ?oled_printf_float?BYTE
      000000D0H   SFRSYM    DATA     BYTE      PSW
      000000B7H   SFRSYM    DATA     BYTE      IPH
      000000A0H.5 SFRSYM    DATA     BIT       P25
      00000088H   SFRSYM    DATA     BYTE      TCON
      000000A0H.3 SFRSYM    DATA     BIT       P23
      00000098H   SFRSYM    DATA     BYTE      SCON
L251 LINKER/LOCATER V4.66.93.0                                                        02/27/2024  23:09:55  PAGE 55


      000000A0H.2 SFRSYM    DATA     BIT       P22
      000000A0H.1 SFRSYM    DATA     BIT       P21
      000000A0H.0 SFRSYM    DATA     BIT       P20
      000000BCH   SFRSYM    DATA     BYTE      ADC_CONTR
      000000DEH   SFRSYM    DATA     BYTE      ADCCFG
      000000B8H   SFRSYM    DATA     BYTE      IP
      000000A8H   SFRSYM    DATA     BYTE      IE
      000000F8H   SFRSYM    DATA     BYTE      P7
      000000E8H   SFRSYM    DATA     BYTE      P6
      000000C8H   SFRSYM    DATA     BYTE      P5
      000000C0H   SFRSYM    DATA     BYTE      P4
      000000B0H   SFRSYM    DATA     BYTE      P3
      000000A0H   SFRSYM    DATA     BYTE      P2
      00000090H   SFRSYM    DATA     BYTE      P1
      00000080H   SFRSYM    DATA     BYTE      P0

      00FF60B0H   BLOCK     CODE     ---       LVL=0
      R7          REGSYM    ---      BYTE      dat
      00FF60B2H   BLOCK     CODE     NEAR LAB  LVL=1
      R6          REGSYM    ---      BYTE      i
      ---         BLOCKEND  ---      ---       LVL=1
      00FF60B0H   LINE      CODE     ---       #47
      00FF60B2H   LINE      CODE     ---       #48
      00FF60B2H   LINE      CODE     ---       #49
      00FF60B5H   LINE      CODE     ---       #51
      00FF60B7H   LINE      CODE     ---       #52
      00FF60B9H   LINE      CODE     ---       #53
      00FF60BBH   LINE      CODE     ---       #54
      00FF60BDH   LINE      CODE     ---       #56
      00FF60C6H   LINE      CODE     ---       #57
      00FF60C8H   LINE      CODE     ---       #58
      00FF60CAH   LINE      CODE     ---       #60
      00FF60CCH   LINE      CODE     ---       #61
      00FF60CEH   LINE      CODE     ---       #62
      00FF60D6H   LINE      CODE     ---       #63
      00FF60D8H   LINE      CODE     ---       #64
      ---         BLOCKEND  ---      ---       LVL=0

      00FF6087H   BLOCK     CODE     ---       LVL=0
      R7          REGSYM    ---      BYTE      cmd
      00FF6089H   BLOCK     CODE     NEAR LAB  LVL=1
      R6          REGSYM    ---      BYTE      i
      ---         BLOCKEND  ---      ---       LVL=1
      00FF6087H   LINE      CODE     ---       #98
      00FF6089H   LINE      CODE     ---       #99
      00FF6089H   LINE      CODE     ---       #100
      00FF608CH   LINE      CODE     ---       #102
      00FF608EH   LINE      CODE     ---       #103
      00FF6090H   LINE      CODE     ---       #104
      00FF6092H   LINE      CODE     ---       #106
      00FF6094H   LINE      CODE     ---       #108
      00FF609DH   LINE      CODE     ---       #109
      00FF609FH   LINE      CODE     ---       #110
      00FF60A1H   LINE      CODE     ---       #112
      00FF60A3H   LINE      CODE     ---       #113
      00FF60A5H   LINE      CODE     ---       #114
      00FF60ADH   LINE      CODE     ---       #115
      00FF60AFH   LINE      CODE     ---       #116
      ---         BLOCKEND  ---      ---       LVL=0
      WR8         REGSYM    ---      WORD      hex
      REG=7       REGSYM    ---      ---       Print
      R5          REGSYM    ---      BYTE      hexcheck
      R10         REGSYM    ---      BYTE      TEMP

      00FF4EB7H   BLOCK     CODE     ---       LVL=0
L251 LINKER/LOCATER V4.66.93.0                                                        02/27/2024  23:09:55  PAGE 56


      00FF4EB7H   LINE      CODE     ---       #148
      00FF4EB7H   LINE      CODE     ---       #151
      00FF4EB9H   LINE      CODE     ---       #152
      00FF4EBBH   LINE      CODE     ---       #154
      00FF4EBDH   LINE      CODE     ---       #155
      00FF4EC4H   LINE      CODE     ---       #156
      00FF4EC6H   LINE      CODE     ---       #158
      00FF4ECBH   LINE      CODE     ---       #159
      00FF4ECFH   LINE      CODE     ---       #160
      00FF4ED4H   LINE      CODE     ---       #161
      00FF4ED9H   LINE      CODE     ---       #162
      00FF4EDEH   LINE      CODE     ---       #163
      00FF4EE3H   LINE      CODE     ---       #166
      00FF4EE8H   LINE      CODE     ---       #167
      00FF4EEDH   LINE      CODE     ---       #173
      00FF4EF2H   LINE      CODE     ---       #174
      00FF4EF7H   LINE      CODE     ---       #175
      00FF4EFCH   LINE      CODE     ---       #176
      00FF4F01H   LINE      CODE     ---       #177
      00FF4F05H   LINE      CODE     ---       #178
      00FF4F0AH   LINE      CODE     ---       #179
      00FF4F0FH   LINE      CODE     ---       #180
      00FF4F14H   LINE      CODE     ---       #181
      00FF4F19H   LINE      CODE     ---       #182
      00FF4F1EH   LINE      CODE     ---       #183
      00FF4F23H   LINE      CODE     ---       #184
      00FF4F28H   LINE      CODE     ---       #185
      00FF4F2DH   LINE      CODE     ---       #186
      00FF4F32H   LINE      CODE     ---       #187
      00FF4F37H   LINE      CODE     ---       #188
      00FF4F3CH   LINE      CODE     ---       #189
      00FF4F41H   LINE      CODE     ---       #190
      00FF4F46H   LINE      CODE     ---       #191
      00FF4F4BH   LINE      CODE     ---       #192
      00FF4F50H   LINE      CODE     ---       #193
      00FF4F54H   LINE      CODE     ---       #194
      ---         BLOCKEND  ---      ---       LVL=0

      00FF614EH   BLOCK     CODE     ---       LVL=0
      R15         REGSYM    ---      BYTE      x
      R10         REGSYM    ---      BYTE      y
      00FF614EH   LINE      CODE     ---       #205
      00FF6152H   LINE      CODE     ---       #207
      00FF6159H   LINE      CODE     ---       #208
      00FF6167H   LINE      CODE     ---       #209
      00FF616EH   LINE      CODE     ---       #210
      ---         BLOCKEND  ---      ---       LVL=0

      00FF5EDFH   BLOCK     CODE     ---       LVL=0
      R15         REGSYM    ---      BYTE      bmp_data
      00FF5EE5H   BLOCK     CODE     NEAR LAB  LVL=1
      R14         REGSYM    ---      BYTE      y
      R13         REGSYM    ---      BYTE      x
      ---         BLOCKEND  ---      ---       LVL=1
      00FF5EDFH   LINE      CODE     ---       #219
      00FF5EE5H   LINE      CODE     ---       #220
      00FF5EE5H   LINE      CODE     ---       #223
      00FF5EE7H   LINE      CODE     ---       #225
      00FF5EEEH   LINE      CODE     ---       #226
      00FF5EF3H   LINE      CODE     ---       #227
      00FF5EF8H   LINE      CODE     ---       #228
      00FF5F06H   LINE      CODE     ---       #229
      00FF5F0DH   LINE      CODE     ---       #230
      ---         BLOCKEND  ---      ---       LVL=0
      R15         REGSYM    ---      BYTE      x
L251 LINKER/LOCATER V4.66.93.0                                                        02/27/2024  23:09:55  PAGE 57


      R14         REGSYM    ---      BYTE      y
      R13         REGSYM    ---      BYTE      data1
      R15         REGSYM    ---      BYTE      x
      R14         REGSYM    ---      BYTE      y
      REG=3       REGSYM    ---      ---       ch

      00FF4832H   BLOCK     CODE     ---       LVL=0
      0000020DH   SYMBOL    EDATA    BYTE      x
      0000020EH   SYMBOL    EDATA    BYTE      y
      REG=3       REGSYM    ---      ---       ch
      00FF483EH   BLOCK     CODE     NEAR LAB  LVL=1
      0000020FH   SYMBOL    EDATA    BYTE      c
      00000210H   SYMBOL    EDATA    BYTE      i
      00000211H   SYMBOL    EDATA    BYTE      j
      ---         BLOCKEND  ---      ---       LVL=1
      00FF4832H   LINE      CODE     ---       #302
      00FF483EH   LINE      CODE     ---       #303
      00FF483EH   LINE      CODE     ---       #304
      00FF4847H   LINE      CODE     ---       #306
      00FF484AH   LINE      CODE     ---       #308
      00FF4861H   LINE      CODE     ---       #309
      00FF4878H   LINE      CODE     ---       #311
      00FF4883H   LINE      CODE     ---       #312
      00FF48B4H   LINE      CODE     ---       #314
      00FF48C1H   LINE      CODE     ---       #315
      00FF48F2H   LINE      CODE     ---       #317
      00FF48FCH   LINE      CODE     ---       #318
      00FF4905H   LINE      CODE     ---       #319
      00FF4917H   LINE      CODE     ---       #320
      ---         BLOCKEND  ---      ---       LVL=0
      R14         REGSYM    ---      BYTE      x
      R15         REGSYM    ---      BYTE      y
      WR4         REGSYM    ---      WORD      num
      R15         REGSYM    ---      BYTE      x
      R14         REGSYM    ---      BYTE      y
      WR12        REGSYM    ---      INT       num
      WR12        REGSYM    ---      WORD      y
      R15         REGSYM    ---      BYTE      num
      R14         REGSYM    ---      BYTE      length

      00FF4643H   BLOCK     CODE     ---       LVL=0
      000001E2H   SYMBOL    EDATA    WORD      x
      000001E4H   SYMBOL    EDATA    WORD      y
      DR12        REGSYM    ---      FLOAT     dat
      000001E6H   SYMBOL    EDATA    BYTE      num
      000001E7H   SYMBOL    EDATA    BYTE      pointnum
      00FF4653H   BLOCK     CODE     NEAR LAB  LVL=1
      000001E8H   SYMBOL    EDATA    BYTE      length
      000001E9H   SYMBOL    EDATA    ---       buff
      0000020BH   SYMBOL    EDATA    CHAR      start
      0000020CH   SYMBOL    EDATA    CHAR      end
      R7          REGSYM    ---      CHAR      point
      ---         BLOCKEND  ---      ---       LVL=1
      00FF4643H   LINE      CODE     ---       #412
      00FF4653H   LINE      CODE     ---       #413
      00FF4653H   LINE      CODE     ---       #418
      00FF4662H   LINE      CODE     ---       #419
      00FF4671H   LINE      CODE     ---       #421
      00FF4693H   LINE      CODE     ---       #424
      00FF46ACH   LINE      CODE     ---       #425
      00FF46B1H   LINE      CODE     ---       #426
      00FF46B1H   LINE      CODE     ---       #427
      00FF46BBH   LINE      CODE     ---       #428
      00FF46CBH   LINE      CODE     ---       #429
      00FF46DBH   LINE      CODE     ---       #430
L251 LINKER/LOCATER V4.66.93.0                                                        02/27/2024  23:09:55  PAGE 58


      00FF46E0H   LINE      CODE     ---       #432
      00FF46EAH   LINE      CODE     ---       #433
      00FF46F3H   LINE      CODE     ---       #434
      00FF46FCH   LINE      CODE     ---       #435
      00FF4705H   LINE      CODE     ---       #437
      00FF4712H   LINE      CODE     ---       #438
      00FF471EH   LINE      CODE     ---       #440
      00FF4729H   LINE      CODE     ---       #442
      00FF4738H   LINE      CODE     ---       #443
      ---         BLOCKEND  ---      ---       LVL=0
      WR4         REGSYM    ---      WORD      high
      REG=3       REGSYM    ---      ---       p
      REG=3       REGSYM    ---      ---       p
      R7          REGSYM    ---      BYTE      dat
      R7          REGSYM    ---      BYTE      cmd
      WR8         REGSYM    ---      WORD      hex
      REG=7       REGSYM    ---      ---       Print
      R5          REGSYM    ---      BYTE      hexcheck
      R10         REGSYM    ---      BYTE      TEMP
      R15         REGSYM    ---      BYTE      x
      R10         REGSYM    ---      BYTE      y
      R15         REGSYM    ---      BYTE      bmp_data
      R14         REGSYM    ---      BYTE      y
      R13         REGSYM    ---      BYTE      x
      R15         REGSYM    ---      BYTE      x
      R14         REGSYM    ---      BYTE      y
      R13         REGSYM    ---      BYTE      data1
      R15         REGSYM    ---      BYTE      x
      R14         REGSYM    ---      BYTE      y
      REG=3       REGSYM    ---      ---       ch
      REG=3       REGSYM    ---      ---       ch
      R14         REGSYM    ---      BYTE      x
      R15         REGSYM    ---      BYTE      y
      WR4         REGSYM    ---      WORD      num
      R15         REGSYM    ---      BYTE      x
      R14         REGSYM    ---      BYTE      y
      WR12        REGSYM    ---      INT       num
      WR12        REGSYM    ---      WORD      y
      R15         REGSYM    ---      BYTE      num
      R14         REGSYM    ---      BYTE      length
      DR12        REGSYM    ---      FLOAT     dat
      R7          REGSYM    ---      CHAR      point
      WR4         REGSYM    ---      WORD      high
      REG=3       REGSYM    ---      ---       p
      REG=3       REGSYM    ---      ---       p

      ---         MODULE    ---      ---       SEEKFREE_AT24C02
      000000D0H   SFRSYM    DATA     BYTE      PSW
      000000B7H   SFRSYM    DATA     BYTE      IPH
      00000088H   SFRSYM    DATA     BYTE      TCON
      00000098H   SFRSYM    DATA     BYTE      SCON
      000000BCH   SFRSYM    DATA     BYTE      ADC_CONTR
      000000DEH   SFRSYM    DATA     BYTE      ADCCFG
      000000B8H   SFRSYM    DATA     BYTE      IP
      000000A8H   SFRSYM    DATA     BYTE      IE
      000000F8H   SFRSYM    DATA     BYTE      P7
      000000E8H   SFRSYM    DATA     BYTE      P6
      000000C8H   SFRSYM    DATA     BYTE      P5
      000000C0H   SFRSYM    DATA     BYTE      P4
      000000B0H   SFRSYM    DATA     BYTE      P3
      000000A0H   SFRSYM    DATA     BYTE      P2
      00000090H   SFRSYM    DATA     BYTE      P1
      00000080H   SFRSYM    DATA     BYTE      P0
      R14         REGSYM    ---      BYTE      byte_reg
      R15         REGSYM    ---      BYTE      dat
L251 LINKER/LOCATER V4.66.93.0                                                        02/27/2024  23:09:55  PAGE 59


      R15         REGSYM    ---      BYTE      byte_reg
      REG=3       REGSYM    ---      ---       dat_add
      REG=3       REGSYM    ---      ---       dat_add

      ---         MODULE    ---      ---       SEEKFREE_BLUETOOTH_CH9141
      00FF624CH   PUBLIC    CODE     ---       bluetooth_ch9141_uart_callback
      000000D0H   SFRSYM    DATA     BYTE      PSW
      000000FEH   SFRSYM    DATA     BYTE      S4BUF
      000000B7H   SFRSYM    DATA     BYTE      IPH
      00000080H.7 SFRSYM    DATA     BIT       P07
      00000088H   SFRSYM    DATA     BYTE      TCON
      00000098H   SFRSYM    DATA     BYTE      SCON
      000000BCH   SFRSYM    DATA     BYTE      ADC_CONTR
      000000DEH   SFRSYM    DATA     BYTE      ADCCFG
      000000B8H   SFRSYM    DATA     BYTE      IP
      000000A8H   SFRSYM    DATA     BYTE      IE
      000000F8H   SFRSYM    DATA     BYTE      P7
      000000E8H   SFRSYM    DATA     BYTE      P6
      000000C8H   SFRSYM    DATA     BYTE      P5
      000000C0H   SFRSYM    DATA     BYTE      P4
      000000B0H   SFRSYM    DATA     BYTE      P3
      000000A0H   SFRSYM    DATA     BYTE      P2
      00000090H   SFRSYM    DATA     BYTE      P1
      00000080H   SFRSYM    DATA     BYTE      P0
      0000034CH   SYMBOL    EDATA    ---       bluetooth_ch9141_buffer
      0000038CH   SYMBOL    EDATA    BYTE      bluetooth_ch9141_data
      0000038DH   SYMBOL    EDATA    ---       bluetooth_ch9141_fifo

      00FF624CH   BLOCK     CODE     ---       LVL=0
      00FF624CH   LINE      CODE     ---       #67
      00FF624CH   LINE      CODE     ---       #70
      00FF6252H   LINE      CODE     ---       #71
      ---         BLOCKEND  ---      ---       LVL=0
      DR12        REGSYM    ---      DWORD     len
      REG=7       REGSYM    ---      ---       buff
      DR8         REGSYM    ---      DWORD     len

      ---         MODULE    ---      ---       SEEKFREE_ICM20602
      00000504H   PUBLIC    EDATA    INT       icm_acc_x
      00000506H   PUBLIC    EDATA    INT       icm_acc_y
      00000508H   PUBLIC    EDATA    INT       icm_acc_z
      0000050AH   PUBLIC    EDATA    INT       icm_gyro_x
      0000050CH   PUBLIC    EDATA    INT       icm_gyro_y
      0000050EH   PUBLIC    EDATA    INT       icm_gyro_z
      000000D0H   SFRSYM    DATA     BYTE      PSW
      000000B7H   SFRSYM    DATA     BYTE      IPH
      000000C0H.3 SFRSYM    DATA     BIT       P43
      000000C0H.2 SFRSYM    DATA     BIT       P42
      00000088H   SFRSYM    DATA     BYTE      TCON
      000000C0H.1 SFRSYM    DATA     BIT       P41
      00000098H   SFRSYM    DATA     BYTE      SCON
      000000C0H.0 SFRSYM    DATA     BIT       P40
      000000BCH   SFRSYM    DATA     BYTE      ADC_CONTR
      000000DEH   SFRSYM    DATA     BYTE      ADCCFG
      000000B8H   SFRSYM    DATA     BYTE      IP
      000000A8H   SFRSYM    DATA     BYTE      IE
      000000F8H   SFRSYM    DATA     BYTE      P7
      000000E8H   SFRSYM    DATA     BYTE      P6
      000000C8H   SFRSYM    DATA     BYTE      P5
      000000C0H   SFRSYM    DATA     BYTE      P4
      000000B0H   SFRSYM    DATA     BYTE      P3
      000000A0H   SFRSYM    DATA     BYTE      P2
      00000090H   SFRSYM    DATA     BYTE      P1
      00000080H   SFRSYM    DATA     BYTE      P0
      R15         REGSYM    ---      BYTE      dat
L251 LINKER/LOCATER V4.66.93.0                                                        02/27/2024  23:09:55  PAGE 60


      R6          REGSYM    ---      BYTE      byte
      R7          REGSYM    ---      BYTE      i
      R7          REGSYM    ---      BYTE      cmd
      R15         REGSYM    ---      BYTE      val
      R7          REGSYM    ---      BYTE      cmd
      REG=3       REGSYM    ---      ---       val
      R7          REGSYM    ---      BYTE      cmd
      REG=3       REGSYM    ---      ---       val

      ---         MODULE    ---      ---       SEEKFREE_IPS114_SPI
      000000D0H   SFRSYM    DATA     BYTE      PSW
      000000B7H   SFRSYM    DATA     BYTE      IPH
      000000A0H.7 SFRSYM    DATA     BIT       P27
      000000A0H.5 SFRSYM    DATA     BIT       P25
      00000088H   SFRSYM    DATA     BYTE      TCON
      000000A0H.3 SFRSYM    DATA     BIT       P23
      00000098H   SFRSYM    DATA     BYTE      SCON
      000000A0H.2 SFRSYM    DATA     BIT       P22
      000000A0H.1 SFRSYM    DATA     BIT       P21
      000000A0H.0 SFRSYM    DATA     BIT       P20
      000000BCH   SFRSYM    DATA     BYTE      ADC_CONTR
      000000DEH   SFRSYM    DATA     BYTE      ADCCFG
      000000B8H   SFRSYM    DATA     BYTE      IP
      000000A8H   SFRSYM    DATA     BYTE      IE
      000000F8H   SFRSYM    DATA     BYTE      P7
      000000E8H   SFRSYM    DATA     BYTE      P6
      000000C8H   SFRSYM    DATA     BYTE      P5
      000000C0H   SFRSYM    DATA     BYTE      P4
      000000B0H   SFRSYM    DATA     BYTE      P3
      000000A0H   SFRSYM    DATA     BYTE      P2
      00000090H   SFRSYM    DATA     BYTE      P1
      00000080H   SFRSYM    DATA     BYTE      P0
      R7          REGSYM    ---      BYTE      dat
      R6          REGSYM    ---      BYTE      i
      R7          REGSYM    ---      BYTE      dat
      R6          REGSYM    ---      BYTE      i
      WR4         REGSYM    ---      WORD      dat
      R10         REGSYM    ---      BYTE      i
      WR12        REGSYM    ---      WORD      x2
      WR14        REGSYM    ---      WORD      y2
      WR14        REGSYM    ---      WORD      color
      R13         REGSYM    ---      BYTE      i
      WR2         REGSYM    ---      WORD      x
      WR0         REGSYM    ---      WORD      y
      WR14        REGSYM    ---      WORD      color
      WR12        REGSYM    ---      WORD      x
      WR14        REGSYM    ---      WORD      y
      REG=3       REGSYM    ---      ---       dat
      WR12        REGSYM    ---      WORD      x
      WR14        REGSYM    ---      WORD      y
      WR12        REGSYM    ---      WORD      x
      WR14        REGSYM    ---      WORD      y
      R10         REGSYM    ---      BYTE      dat
      WR12        REGSYM    ---      WORD      x
      WR14        REGSYM    ---      WORD      y
      WR12        REGSYM    ---      WORD      x
      WR14        REGSYM    ---      WORD      y
      WR2         REGSYM    ---      WORD      dat
      WR12        REGSYM    ---      WORD      y
      R15         REGSYM    ---      BYTE      num
      R14         REGSYM    ---      BYTE      length
      DR12        REGSYM    ---      FLOAT     dat
      R7          REGSYM    ---      CHAR      point
      R7          REGSYM    ---      BYTE      dat
      R7          REGSYM    ---      BYTE      dat
L251 LINKER/LOCATER V4.66.93.0                                                        02/27/2024  23:09:55  PAGE 61


      WR4         REGSYM    ---      WORD      dat
      WR12        REGSYM    ---      WORD      x2
      WR14        REGSYM    ---      WORD      y2
      WR14        REGSYM    ---      WORD      color
      R13         REGSYM    ---      BYTE      i
      WR2         REGSYM    ---      WORD      x
      WR0         REGSYM    ---      WORD      y
      WR14        REGSYM    ---      WORD      color
      WR12        REGSYM    ---      WORD      x
      WR14        REGSYM    ---      WORD      y
      REG=3       REGSYM    ---      ---       dat
      WR12        REGSYM    ---      WORD      x
      WR14        REGSYM    ---      WORD      y
      WR12        REGSYM    ---      WORD      x
      WR14        REGSYM    ---      WORD      y
      R10         REGSYM    ---      BYTE      dat
      WR12        REGSYM    ---      WORD      x
      WR14        REGSYM    ---      WORD      y
      WR12        REGSYM    ---      WORD      x
      WR14        REGSYM    ---      WORD      y
      WR2         REGSYM    ---      WORD      dat
      WR12        REGSYM    ---      WORD      y
      R15         REGSYM    ---      BYTE      num
      R14         REGSYM    ---      BYTE      length
      DR12        REGSYM    ---      FLOAT     dat
      R7          REGSYM    ---      CHAR      point

      ---         MODULE    ---      ---       SEEKFREE_TSL1401
      00000008H   PUBLIC    EDATA    BYTE      tsl1401_finish_flag
      00000009H   PUBLIC    EDATA    ---       ccd_data
      000000D0H   SFRSYM    DATA     BYTE      PSW
      000000B7H   SFRSYM    DATA     BYTE      IPH
      000000B0H.3 SFRSYM    DATA     BIT       P33
      00000088H   SFRSYM    DATA     BYTE      TCON
      000000B0H.2 SFRSYM    DATA     BIT       P32
      00000098H   SFRSYM    DATA     BYTE      SCON
      000000BCH   SFRSYM    DATA     BYTE      ADC_CONTR
      000000DEH   SFRSYM    DATA     BYTE      ADCCFG
      000000B8H   SFRSYM    DATA     BYTE      IP
      000000A8H   SFRSYM    DATA     BYTE      IE
      000000F8H   SFRSYM    DATA     BYTE      P7
      000000E8H   SFRSYM    DATA     BYTE      P6
      000000C8H   SFRSYM    DATA     BYTE      P5
      000000C0H   SFRSYM    DATA     BYTE      P4
      000000B0H   SFRSYM    DATA     BYTE      P3
      000000A0H   SFRSYM    DATA     BYTE      P2
      00000090H   SFRSYM    DATA     BYTE      P1
      00000080H   SFRSYM    DATA     BYTE      P0
      REG=3       REGSYM    ---      ---       dat
      R15         REGSYM    ---      BYTE      i

      ---         MODULE    ---      ---       SEEKFREE_VIRSCO
      00000510H   PUBLIC    EDATA    ---       virtual_scope_data
      000000D0H   SFRSYM    DATA     BYTE      PSW
      000000B7H   SFRSYM    DATA     BYTE      IPH
      00000088H   SFRSYM    DATA     BYTE      TCON
      00000098H   SFRSYM    DATA     BYTE      SCON
      000000BCH   SFRSYM    DATA     BYTE      ADC_CONTR
      000000DEH   SFRSYM    DATA     BYTE      ADCCFG
      000000B8H   SFRSYM    DATA     BYTE      IP
      000000A8H   SFRSYM    DATA     BYTE      IE
      000000F8H   SFRSYM    DATA     BYTE      P7
      000000E8H   SFRSYM    DATA     BYTE      P6
      000000C8H   SFRSYM    DATA     BYTE      P5
      000000C0H   SFRSYM    DATA     BYTE      P4
L251 LINKER/LOCATER V4.66.93.0                                                        02/27/2024  23:09:55  PAGE 62


      000000B0H   SFRSYM    DATA     BYTE      P3
      000000A0H   SFRSYM    DATA     BYTE      P2
      00000090H   SFRSYM    DATA     BYTE      P1
      00000080H   SFRSYM    DATA     BYTE      P0
      REG=7       REGSYM    ---      ---       Buf
      R10         REGSYM    ---      BYTE      CRC_CNT
      WR6         REGSYM    ---      WORD      CRC_Temp
      R5          REGSYM    ---      BYTE      i
      R4          REGSYM    ---      BYTE      j
      WR0         REGSYM    ---      INT       data1
      WR30        REGSYM    ---      INT       data2
      WR8         REGSYM    ---      INT       data3
      WR10        REGSYM    ---      INT       data4
      WR6         REGSYM    ---      WORD      CRC16

      ---         MODULE    ---      ---       SEEKFREE_WIRELESS
      00FF6265H   PUBLIC    CODE     ---       wireless_uart_callback
      000000D0H   SFRSYM    DATA     BYTE      PSW
      000000FEH   SFRSYM    DATA     BYTE      S4BUF
      000000B7H   SFRSYM    DATA     BYTE      IPH
      00000080H.7 SFRSYM    DATA     BIT       P07
      00000088H   SFRSYM    DATA     BYTE      TCON
      00000098H   SFRSYM    DATA     BYTE      SCON
      000000BCH   SFRSYM    DATA     BYTE      ADC_CONTR
      000000DEH   SFRSYM    DATA     BYTE      ADCCFG
      000000B8H   SFRSYM    DATA     BYTE      IP
      000000A8H   SFRSYM    DATA     BYTE      IE
      000000F8H   SFRSYM    DATA     BYTE      P7
      000000E8H   SFRSYM    DATA     BYTE      P6
      000000C8H   SFRSYM    DATA     BYTE      P5
      000000C0H   SFRSYM    DATA     BYTE      P4
      000000B0H   SFRSYM    DATA     BYTE      P3
      000000A0H   SFRSYM    DATA     BYTE      P2
      00000090H   SFRSYM    DATA     BYTE      P1
      00000080H   SFRSYM    DATA     BYTE      P0
      000003A1H   SYMBOL    EDATA    BYTE      wireless_uart_data
      000003A2H   SYMBOL    EDATA    ---       wireless_uart_fifo
      000003B6H   SYMBOL    EDATA    ---       wireless_uart_buffer

      00FF6265H   BLOCK     CODE     ---       LVL=0
      00FF6265H   LINE      CODE     ---       #48
      00FF6265H   LINE      CODE     ---       #51
      00FF626BH   LINE      CODE     ---       #52
      ---         BLOCKEND  ---      ---       LVL=0
      REG=3       REGSYM    ---      ---       buff
      REG=7       REGSYM    ---      ---       buff
      DR8         REGSYM    ---      DWORD     len

      ---         MODULE    ---      ---       SEEKFREE_WIRELESS_CH573
      00FF627EH   PUBLIC    CODE     ---       wireless_ch573_callback
      000000D0H   SFRSYM    DATA     BYTE      PSW
      000000FEH   SFRSYM    DATA     BYTE      S4BUF
      000000B7H   SFRSYM    DATA     BYTE      IPH
      00000080H.7 SFRSYM    DATA     BIT       P07
      00000088H   SFRSYM    DATA     BYTE      TCON
      00000098H   SFRSYM    DATA     BYTE      SCON
      000000BCH   SFRSYM    DATA     BYTE      ADC_CONTR
      000000DEH   SFRSYM    DATA     BYTE      ADCCFG
      000000B8H   SFRSYM    DATA     BYTE      IP
      000000A8H   SFRSYM    DATA     BYTE      IE
      000000F8H   SFRSYM    DATA     BYTE      P7
      000000E8H   SFRSYM    DATA     BYTE      P6
      000000C8H   SFRSYM    DATA     BYTE      P5
      000000C0H   SFRSYM    DATA     BYTE      P4
      000000B0H   SFRSYM    DATA     BYTE      P3
L251 LINKER/LOCATER V4.66.93.0                                                        02/27/2024  23:09:55  PAGE 63


      000000A0H   SFRSYM    DATA     BYTE      P2
      00000090H   SFRSYM    DATA     BYTE      P1
      00000080H   SFRSYM    DATA     BYTE      P0
      000003F6H   SYMBOL    EDATA    ---       wireless_ch573_buffer
      00000436H   SYMBOL    EDATA    BYTE      wireless_ch573_data
      00000437H   SYMBOL    EDATA    ---       wireless_ch573_fifo

      00FF627EH   BLOCK     CODE     ---       LVL=0
      00FF627EH   LINE      CODE     ---       #39
      00FF627EH   LINE      CODE     ---       #42
      00FF6284H   LINE      CODE     ---       #43
      ---         BLOCKEND  ---      ---       LVL=0
      REG=3       REGSYM    ---      ---       buff
      REG=7       REGSYM    ---      ---       buff
      DR8         REGSYM    ---      DWORD     len

      ---         MODULE    ---      ---       isr
      00FF5D1CH   PUBLIC    CODE     ---       UART1_Isr
      00FF61F6H   PUBLIC    CODE     ---       UART2_Isr
      00FF6214H   PUBLIC    CODE     ---       UART3_Isr
      00FF5572H   PUBLIC    CODE     ---       UART4_Isr
      00FF640BH   PUBLIC    CODE     ---       INT0_Isr
      00FF0011H   PUBLIC    CODE     ---       INT1_Isr
      00FF63E3H   PUBLIC    CODE     ---       INT2_Isr
      00FF63EBH   PUBLIC    CODE     ---       INT3_Isr
      00FF63F3H   PUBLIC    CODE     ---       INT4_Isr
      00FF0012H   PUBLIC    CODE     ---       TM0_Isr
      00FF0019H   PUBLIC    CODE     ---       TM1_Isr
      00FF63FBH   PUBLIC    CODE     ---       TM2_Isr
      00FF6403H   PUBLIC    CODE     ---       TM3_Isr
      00FF5E40H   PUBLIC    CODE     ---       TM4_Isr
      0000052EH   PUBLIC    EDATA    CHAR      count
      000000D0H   SFRSYM    DATA     BYTE      PSW
      000000EFH   SFRSYM    DATA     BYTE      AUXINTIF
      000000FDH   SFRSYM    DATA     BYTE      S4CON
      000000ACH   SFRSYM    DATA     BYTE      S3CON
      0000009AH   SFRSYM    DATA     BYTE      S2CON
      000000B7H   SFRSYM    DATA     BYTE      IPH
      000000C7H   SFRSYM    DATA     BYTE      IAP_CONTR
      000000C8H.2 SFRSYM    DATA     BIT       P52
      00000088H   SFRSYM    DATA     BYTE      TCON
      00000098H   SFRSYM    DATA     BYTE      SCON
      00000099H   SFRSYM    DATA     BYTE      SBUF
      000000BCH   SFRSYM    DATA     BYTE      ADC_CONTR
      000000DEH   SFRSYM    DATA     BYTE      ADCCFG
      000000B8H   SFRSYM    DATA     BYTE      IP
      000000A8H   SFRSYM    DATA     BYTE      IE
      000000F8H   SFRSYM    DATA     BYTE      P7
      000000E8H   SFRSYM    DATA     BYTE      P6
      000000C8H   SFRSYM    DATA     BYTE      P5
      000000C0H   SFRSYM    DATA     BYTE      P4
      000000B0H   SFRSYM    DATA     BYTE      P3
      000000A0H   SFRSYM    DATA     BYTE      P2
      00000090H   SFRSYM    DATA     BYTE      P1
      00000080H   SFRSYM    DATA     BYTE      P0

      00FF5D1CH   BLOCK     CODE     ---       LVL=0
      00FF5D20H   BLOCK     CODE     NEAR LAB  LVL=1
      R11         REGSYM    ---      BYTE      res
      0000052FH   SYMBOL    EDATA    BYTE      dwon_count
      ---         BLOCKEND  ---      ---       LVL=1
      00FF5D1CH   LINE      CODE     ---       #25
      00FF5D20H   LINE      CODE     ---       #26
      00FF5D20H   LINE      CODE     ---       #29
      00FF5D25H   LINE      CODE     ---       #31
L251 LINKER/LOCATER V4.66.93.0                                                        02/27/2024  23:09:55  PAGE 64


      00FF5D28H   LINE      CODE     ---       #32
      00FF5D2DH   LINE      CODE     ---       #33
      00FF5D2DH   LINE      CODE     ---       #34
      00FF5D32H   LINE      CODE     ---       #36
      00FF5D35H   LINE      CODE     ---       #37
      00FF5D37H   LINE      CODE     ---       #39
      00FF5D3AH   LINE      CODE     ---       #41
      00FF5D4AH   LINE      CODE     ---       #42
      00FF5D4DH   LINE      CODE     ---       #43
      00FF5D4FH   LINE      CODE     ---       #46
      00FF5D54H   LINE      CODE     ---       #47
      00FF5D54H   LINE      CODE     ---       #48
      ---         BLOCKEND  ---      ---       LVL=0

      00FF61F6H   BLOCK     CODE     ---       LVL=0
      00FF61F6H   LINE      CODE     ---       #52
      00FF61FAH   LINE      CODE     ---       #54
      00FF61FFH   LINE      CODE     ---       #56
      00FF6202H   LINE      CODE     ---       #57
      00FF6207H   LINE      CODE     ---       #58
      00FF6207H   LINE      CODE     ---       #59
      00FF620CH   LINE      CODE     ---       #61
      00FF620FH   LINE      CODE     ---       #64
      ---         BLOCKEND  ---      ---       LVL=0

      00FF6214H   BLOCK     CODE     ---       LVL=0
      00FF6214H   LINE      CODE     ---       #69
      00FF6218H   LINE      CODE     ---       #71
      00FF621DH   LINE      CODE     ---       #73
      00FF6220H   LINE      CODE     ---       #74
      00FF6225H   LINE      CODE     ---       #75
      00FF6225H   LINE      CODE     ---       #76
      00FF622AH   LINE      CODE     ---       #78
      00FF622DH   LINE      CODE     ---       #81
      ---         BLOCKEND  ---      ---       LVL=0

      00FF5572H   BLOCK     CODE     ---       LVL=0
      00FF5572H   LINE      CODE     ---       #86
      00FF558AH   LINE      CODE     ---       #88
      00FF558FH   LINE      CODE     ---       #90
      00FF5592H   LINE      CODE     ---       #91
      00FF5597H   LINE      CODE     ---       #92
      00FF5597H   LINE      CODE     ---       #93
      00FF559CH   LINE      CODE     ---       #95
      00FF559FH   LINE      CODE     ---       #98
      00FF55A9H   LINE      CODE     ---       #100
      00FF55ACH   LINE      CODE     ---       #101
      00FF55AEH   LINE      CODE     ---       #102
      00FF55B4H   LINE      CODE     ---       #104
      00FF55B7H   LINE      CODE     ---       #105
      00FF55B9H   LINE      CODE     ---       #106
      00FF55BFH   LINE      CODE     ---       #108
      00FF55C2H   LINE      CODE     ---       #109
      00FF55C2H   LINE      CODE     ---       #111
      ---         BLOCKEND  ---      ---       LVL=0

      00FF640BH   BLOCK     CODE     ---       LVL=0
      00FF640BH   LINE      CODE     ---       #114
      00FF640DH   LINE      CODE     ---       #116
      00FF640FH   LINE      CODE     ---       #117
      ---         BLOCKEND  ---      ---       LVL=0

      00FF0011H   BLOCK     CODE     ---       LVL=0
      00FF0011H   LINE      CODE     ---       #118
      00FF0011H   LINE      CODE     ---       #121
L251 LINKER/LOCATER V4.66.93.0                                                        02/27/2024  23:09:55  PAGE 65


      ---         BLOCKEND  ---      ---       LVL=0

      00FF63E3H   BLOCK     CODE     ---       LVL=0
      00FF63E3H   LINE      CODE     ---       #122
      00FF63E5H   LINE      CODE     ---       #124
      00FF63E8H   LINE      CODE     ---       #125
      ---         BLOCKEND  ---      ---       LVL=0

      00FF63EBH   BLOCK     CODE     ---       LVL=0
      00FF63EBH   LINE      CODE     ---       #126
      00FF63EDH   LINE      CODE     ---       #128
      00FF63F0H   LINE      CODE     ---       #129
      ---         BLOCKEND  ---      ---       LVL=0

      00FF63F3H   BLOCK     CODE     ---       LVL=0
      00FF63F3H   LINE      CODE     ---       #131
      00FF63F5H   LINE      CODE     ---       #133
      00FF63F8H   LINE      CODE     ---       #134
      ---         BLOCKEND  ---      ---       LVL=0

      00FF0012H   BLOCK     CODE     ---       LVL=0
      00FF0012H   LINE      CODE     ---       #136
      00FF0012H   LINE      CODE     ---       #139
      ---         BLOCKEND  ---      ---       LVL=0

      00FF0019H   BLOCK     CODE     ---       LVL=0
      00FF0019H   LINE      CODE     ---       #140
      00FF0019H   LINE      CODE     ---       #143
      ---         BLOCKEND  ---      ---       LVL=0

      00FF63FBH   BLOCK     CODE     ---       LVL=0
      00FF63FBH   LINE      CODE     ---       #144
      00FF63FDH   LINE      CODE     ---       #146
      00FF6400H   LINE      CODE     ---       #148
      ---         BLOCKEND  ---      ---       LVL=0

      00FF6403H   BLOCK     CODE     ---       LVL=0
      00FF6403H   LINE      CODE     ---       #149
      00FF6405H   LINE      CODE     ---       #151
      00FF6408H   LINE      CODE     ---       #153
      ---         BLOCKEND  ---      ---       LVL=0

      00FF5E40H   BLOCK     CODE     ---       LVL=0
      00FF5E40H   LINE      CODE     ---       #156
      00FF5E46H   LINE      CODE     ---       #158
      00FF5E49H   LINE      CODE     ---       #159
      00FF5E52H   LINE      CODE     ---       #160
      00FF5E58H   LINE      CODE     ---       #161
      00FF5E61H   LINE      CODE     ---       #163
      00FF5E6AH   LINE      CODE     ---       #164
      00FF5E6FH   LINE      CODE     ---       #165
      ---         BLOCKEND  ---      ---       LVL=0

      ---         MODULE    ---      ---       main
      00FF4F5AH   PUBLIC    CODE     ---       Get_Ratio
      00FF31AAH   PUBLIC    CODE     ---       main
      00FF473BH   PUBLIC    CODE     ---       Init_all
      0000049BH   PUBLIC    EDATA    FLOAT     Ratio
      0000049FH   PUBLIC    EDATA    FLOAT     Exp_Speed
      000004A3H   PUBLIC    EDATA    FLOAT     KeyAdjust
      000004A7H   PUBLIC    EDATA    FLOAT     Plus_Mid
      000004ABH   PUBLIC    EDATA    FLOAT     Plus
      000004AFH   PUBLIC    EDATA    FLOAT     Exp_Speed_L
      000004B3H   PUBLIC    EDATA    FLOAT     Exp_Speed_R
      000004B7H   PUBLIC    EDATA    INT       dis
L251 LINKER/LOCATER V4.66.93.0                                                        02/27/2024  23:09:55  PAGE 66


      000004B9H   PUBLIC    EDATA    FLOAT     sum
      000004BDH   PUBLIC    EDATA    INT       gx
      000004BFH   PUBLIC    EDATA    INT       gy
      000004C1H   PUBLIC    EDATA    INT       gz
      000004C3H   PUBLIC    EDATA    CHAR      Isr_flag_10
      000004C4H   PUBLIC    EDATA    CHAR      Isr_flag_20
      000004C5H   PUBLIC    EDATA    FLOAT     Diff_Mid
      000004C9H   PUBLIC    EDATA    FLOAT     Diff
      000004CDH   PUBLIC    EDATA    FLOAT     Ratio_Mid
      000000D0H   SFRSYM    DATA     BYTE      PSW
      000000B7H   SFRSYM    DATA     BYTE      IPH
      000000E9H   SFRSYM    DATA     BYTE      WTST
      000000F8H.1 SFRSYM    DATA     BIT       P71
      000000F8H.0 SFRSYM    DATA     BIT       P70
      00000088H   SFRSYM    DATA     BYTE      TCON
      00000098H   SFRSYM    DATA     BYTE      SCON
      000000BCH   SFRSYM    DATA     BYTE      ADC_CONTR
      000000DEH   SFRSYM    DATA     BYTE      ADCCFG
      000000B8H   SFRSYM    DATA     BYTE      IP
      000000A8H   SFRSYM    DATA     BYTE      IE
      000000F8H   SFRSYM    DATA     BYTE      P7
      000000E8H   SFRSYM    DATA     BYTE      P6
      000000C8H   SFRSYM    DATA     BYTE      P5
      000000C0H   SFRSYM    DATA     BYTE      P4
      000000B0H   SFRSYM    DATA     BYTE      P3
      000000A0H   SFRSYM    DATA     BYTE      P2
      00000090H   SFRSYM    DATA     BYTE      P1
      00000080H   SFRSYM    DATA     BYTE      P0

      00FF473BH   BLOCK     CODE     ---       LVL=0
      00FF473BH   LINE      CODE     ---       #31
      00FF473BH   LINE      CODE     ---       #33
      00FF473EH   LINE      CODE     ---       #34
      00FF4741H   LINE      CODE     ---       #35
      00FF474DH   LINE      CODE     ---       #38
      00FF4750H   LINE      CODE     ---       #41
      00FF4759H   LINE      CODE     ---       #42
      00FF4762H   LINE      CODE     ---       #45
      00FF476BH   LINE      CODE     ---       #46
      00FF4774H   LINE      CODE     ---       #50
      00FF4777H   LINE      CODE     ---       #53
      00FF477AH   LINE      CODE     ---       #56
      00FF477DH   LINE      CODE     ---       #59
      00FF4788H   LINE      CODE     ---       #62
      00FF478DH   LINE      CODE     ---       #63
      00FF4794H   LINE      CODE     ---       #69
      00FF4797H   LINE      CODE     ---       #72
      00FF47A8H   LINE      CODE     ---       #75
      00FF47ABH   LINE      CODE     ---       #78
      00FF47DCH   LINE      CODE     ---       #79
      00FF480DH   LINE      CODE     ---       #80
      ---         BLOCKEND  ---      ---       LVL=0

      00FF4F5AH   BLOCK     CODE     ---       LVL=0
      00FF4F5AH   LINE      CODE     ---       #84
      00FF4F5CH   LINE      CODE     ---       #86
      00FF4F81H   LINE      CODE     ---       #90
      00FF4F8EH   LINE      CODE     ---       #91
      00FF4F9BH   LINE      CODE     ---       #93
      00FF4FA8H   LINE      CODE     ---       #94
      00FF4FB5H   LINE      CODE     ---       #98
      00FF4FC0H   LINE      CODE     ---       #99
      00FF4FCBH   LINE      CODE     ---       #100
      00FF4FE7H   LINE      CODE     ---       #102
      00FF4FEFH   LINE      CODE     ---       #103
L251 LINKER/LOCATER V4.66.93.0                                                        02/27/2024  23:09:55  PAGE 67


      ---         BLOCKEND  ---      ---       LVL=0

      00FF31AAH   BLOCK     CODE     ---       LVL=0
      00FF31AAH   LINE      CODE     ---       #108
      00FF31AAH   LINE      CODE     ---       #110
      00FF31ADH   LINE      CODE     ---       #111
      00FF31B0H   LINE      CODE     ---       #112
      00FF31BAH   LINE      CODE     ---       #113
      00FF31BAH   LINE      CODE     ---       #115
      00FF31CDH   LINE      CODE     ---       #116
      00FF31E2H   LINE      CODE     ---       #117
      00FF31F7H   LINE      CODE     ---       #118
      00FF320CH   LINE      CODE     ---       #120
      00FF322FH   LINE      CODE     ---       #121
      00FF3246H   LINE      CODE     ---       #126
      00FF324CH   LINE      CODE     ---       #128
      00FF3252H   LINE      CODE     ---       #129
      00FF3263H   LINE      CODE     ---       #130
      00FF3263H   LINE      CODE     ---       #131
      00FF3269H   LINE      CODE     ---       #133
      00FF326FH   LINE      CODE     ---       #134
      00FF3280H   LINE      CODE     ---       #135
      00FF3280H   LINE      CODE     ---       #137
      00FF328CH   LINE      CODE     ---       #139
      00FF328FH   LINE      CODE     ---       #140
      00FF3292H   LINE      CODE     ---       #141
      00FF32A5H   LINE      CODE     ---       #142
      00FF32A8H   LINE      CODE     ---       #145
      00FF32CAH   LINE      CODE     ---       #147
      00FF32D4H   LINE      CODE     ---       #148
      00FF32E0H   LINE      CODE     ---       #149
      00FF32EEH   LINE      CODE     ---       #150
      00FF32FAH   LINE      CODE     ---       #151
      00FF32FEH   LINE      CODE     ---       #152
      00FF3300H   LINE      CODE     ---       #155
      00FF330AH   LINE      CODE     ---       #156
      00FF3316H   LINE      CODE     ---       #157
      00FF3324H   LINE      CODE     ---       #158
      00FF3334H   LINE      CODE     ---       #159
      00FF333EH   LINE      CODE     ---       #160
      00FF333EH   LINE      CODE     ---       #163
      00FF3344H   LINE      CODE     ---       #165
      00FF3347H   LINE      CODE     ---       #166
      00FF334DH   LINE      CODE     ---       #168
      00FF3357H   LINE      CODE     ---       #170
      00FF335DH   LINE      CODE     ---       #171
      00FF335DH   LINE      CODE     ---       #173
      00FF3369H   LINE      CODE     ---       #174
      00FF3369H   LINE      CODE     ---       #177
      00FF3399H   LINE      CODE     ---       #179
      00FF33A4H   LINE      CODE     ---       #181
      00FF33AAH   LINE      CODE     ---       #182
      00FF33D0H   LINE      CODE     ---       #183
      00FF33D2H   LINE      CODE     ---       #184
      00FF33DDH   LINE      CODE     ---       #186
      00FF33E3H   LINE      CODE     ---       #187
      00FF3409H   LINE      CODE     ---       #188
      00FF3409H   LINE      CODE     ---       #192
      00FF3437H   LINE      CODE     ---       #193
      00FF3450H   LINE      CODE     ---       #196
      00FF3466H   LINE      CODE     ---       #199
      00FF3488H   LINE      CODE     ---       #200
      00FF3492H   LINE      CODE     ---       #201
      00FF34B0H   LINE      CODE     ---       #202
      00FF34BBH   LINE      CODE     ---       #204
L251 LINKER/LOCATER V4.66.93.0                                                        02/27/2024  23:09:55  PAGE 68


      00FF34BEH   LINE      CODE     ---       #206
      00FF34D1H   LINE      CODE     ---       #207
      00FF34E4H   LINE      CODE     ---       #210
      00FF34FAH   LINE      CODE     ---       #212
      00FF3500H   LINE      CODE     ---       #213
      00FF3504H   LINE      CODE     ---       #214
      00FF3504H   LINE      CODE     ---       #219
      00FF350DH   LINE      CODE     ---       #220
      00FF3516H   LINE      CODE     ---       #221
      00FF351BH   LINE      CODE     ---       #222
      ---         BLOCKEND  ---      ---       LVL=0

      ---         MODULE    ---      ---       motor
      00FF5118H   PUBLIC    CODE     ---       Right_SetSpeed
      00FF5BDBH   PUBLIC    CODE     ---       Motor_Init
      00FF519EH   PUBLIC    CODE     ---       Left_SetSpeed
      00FF6007H   PUBLIC    CODE     ---       Limit_Out
      00FF5643H   PUBLIC    CODE     ---       Get_Speed
      00FF6310H   PUBLIC    CODE     ---       Num2Abs
      0000026DH   PUBLIC    EDATA    ---       Right_Wheel_PID
      00000291H   PUBLIC    EDATA    FLOAT     Speed_L
      00000295H   PUBLIC    EDATA    ---       Left_Wheel_PID
      000002B9H   PUBLIC    EDATA    FLOAT     Speed_R
      000002BDH   PUBLIC    EDATA    ---       Turn_PID
      000001DEH   PUBLIC    EDATA    BYTE      ?Limit_Out?BYTE
      000000D0H   SFRSYM    DATA     BYTE      PSW
      000000B7H   SFRSYM    DATA     BYTE      IPH
      000000B0H.5 SFRSYM    DATA     BIT       P35
      000000C8H.3 SFRSYM    DATA     BIT       P53
      00000088H   SFRSYM    DATA     BYTE      TCON
      00000098H   SFRSYM    DATA     BYTE      SCON
      000000BCH   SFRSYM    DATA     BYTE      ADC_CONTR
      000000DEH   SFRSYM    DATA     BYTE      ADCCFG
      000000B8H   SFRSYM    DATA     BYTE      IP
      000000A8H   SFRSYM    DATA     BYTE      IE
      000000F8H   SFRSYM    DATA     BYTE      P7
      000000E8H   SFRSYM    DATA     BYTE      P6
      000000C8H   SFRSYM    DATA     BYTE      P5
      000000C0H   SFRSYM    DATA     BYTE      P4
      000000B0H   SFRSYM    DATA     BYTE      P3
      000000A0H   SFRSYM    DATA     BYTE      P2
      00000090H   SFRSYM    DATA     BYTE      P1
      00000080H   SFRSYM    DATA     BYTE      P0

      00FF6007H   BLOCK     CODE     ---       LVL=0
      REG=7       REGSYM    ---      ---       Output
      DR24        REGSYM    ---      FLOAT     Limit_Min
      000001E6H   SYMBOL    EDATA    FLOAT     Limit_Max
      00FF6007H   LINE      CODE     ---       #18
      00FF600BH   LINE      CODE     ---       #20
      00FF601DH   LINE      CODE     ---       #21
      00FF6031H   LINE      CODE     ---       #22
      ---         BLOCKEND  ---      ---       LVL=0

      00FF6310H   BLOCK     CODE     ---       LVL=0
      DR28        REGSYM    ---      FLOAT     x
      00FF6310H   LINE      CODE     ---       #24
      00FF6312H   LINE      CODE     ---       #26
      00FF6319H   LINE      CODE     ---       #27
      00FF631EH   LINE      CODE     ---       #28
      00FF6320H   LINE      CODE     ---       #29
      ---         BLOCKEND  ---      ---       LVL=0

      00FF5BDBH   BLOCK     CODE     ---       LVL=0
      00FF5BDBH   LINE      CODE     ---       #31
L251 LINKER/LOCATER V4.66.93.0                                                        02/27/2024  23:09:55  PAGE 69


      00FF5BDBH   LINE      CODE     ---       #33
      00FF5BECH   LINE      CODE     ---       #34
      00FF5BFDH   LINE      CODE     ---       #35
      00FF5C0EH   LINE      CODE     ---       #36
      ---         BLOCKEND  ---      ---       LVL=0

      00FF519EH   BLOCK     CODE     ---       LVL=0
      DR12        REGSYM    ---      FLOAT     speed
      00FF519EH   LINE      CODE     ---       #40
      00FF51A2H   LINE      CODE     ---       #41
      00FF51B5H   LINE      CODE     ---       #42
      00FF51C8H   LINE      CODE     ---       #43
      00FF51D1H   LINE      CODE     ---       #45
      00FF51E4H   LINE      CODE     ---       #46
      00FF51E4H   LINE      CODE     ---       #47
      00FF51E6H   LINE      CODE     ---       #48
      00FF51EFH   LINE      CODE     ---       #50
      00FF51F8H   LINE      CODE     ---       #51
      00FF520DH   LINE      CODE     ---       #52
      00FF520FH   LINE      CODE     ---       #55
      00FF5218H   LINE      CODE     ---       #56
      00FF5221H   LINE      CODE     ---       #57
      00FF5221H   LINE      CODE     ---       #58
      ---         BLOCKEND  ---      ---       LVL=0

      00FF5118H   BLOCK     CODE     ---       LVL=0
      DR12        REGSYM    ---      FLOAT     speed
      00FF5118H   LINE      CODE     ---       #60
      00FF511CH   LINE      CODE     ---       #61
      00FF512FH   LINE      CODE     ---       #62
      00FF5142H   LINE      CODE     ---       #63
      00FF514BH   LINE      CODE     ---       #65
      00FF515EH   LINE      CODE     ---       #66
      00FF515EH   LINE      CODE     ---       #67
      00FF5160H   LINE      CODE     ---       #68
      00FF5169H   LINE      CODE     ---       #70
      00FF5172H   LINE      CODE     ---       #71
      00FF5187H   LINE      CODE     ---       #72
      00FF5189H   LINE      CODE     ---       #75
      00FF5192H   LINE      CODE     ---       #76
      00FF519BH   LINE      CODE     ---       #77
      00FF519BH   LINE      CODE     ---       #78
      ---         BLOCKEND  ---      ---       LVL=0

      00FF5643H   BLOCK     CODE     ---       LVL=0
      00FF5643H   LINE      CODE     ---       #80
      00FF5643H   LINE      CODE     ---       #82
      00FF5658H   LINE      CODE     ---       #83
      00FF5670H   LINE      CODE     ---       #84
      00FF5677H   LINE      CODE     ---       #87
      00FF568BH   LINE      CODE     ---       #88
      00FF56A1H   LINE      CODE     ---       #89
      ---         BLOCKEND  ---      ---       LVL=0

      ---         MODULE    ---      ---       ADC
      00FF42A4H   PUBLIC    CODE     ---       ADC_GetValue
      00FF6032H   PUBLIC    CODE     ---       ADC_InitAll
      0000044BH   PUBLIC    EDATA    ---       ADC_Array_Original
      00000487H   PUBLIC    EDATA    ---       ADC_proc
      000000D0H   SFRSYM    DATA     BYTE      PSW
      000000B7H   SFRSYM    DATA     BYTE      IPH
      00000088H   SFRSYM    DATA     BYTE      TCON
      00000098H   SFRSYM    DATA     BYTE      SCON
      000000BCH   SFRSYM    DATA     BYTE      ADC_CONTR
      000000DEH   SFRSYM    DATA     BYTE      ADCCFG
L251 LINKER/LOCATER V4.66.93.0                                                        02/27/2024  23:09:55  PAGE 70


      000000B8H   SFRSYM    DATA     BYTE      IP
      000000A8H   SFRSYM    DATA     BYTE      IE
      000000F8H   SFRSYM    DATA     BYTE      P7
      000000E8H   SFRSYM    DATA     BYTE      P6
      000000C8H   SFRSYM    DATA     BYTE      P5
      000000C0H   SFRSYM    DATA     BYTE      P4
      000000B0H   SFRSYM    DATA     BYTE      P3
      000000A0H   SFRSYM    DATA     BYTE      P2
      00000090H   SFRSYM    DATA     BYTE      P1
      00000080H   SFRSYM    DATA     BYTE      P0

      00FF6032H   BLOCK     CODE     ---       LVL=0
      00FF6032H   LINE      CODE     ---       #11
      00FF6032H   LINE      CODE     ---       #13
      00FF603BH   LINE      CODE     ---       #14
      00FF6044H   LINE      CODE     ---       #16
      00FF604BH   LINE      CODE     ---       #18
      00FF6054H   LINE      CODE     ---       #19
      ---         BLOCKEND  ---      ---       LVL=0

      00FF42A4H   BLOCK     CODE     ---       LVL=0
      00FF42A6H   BLOCK     CODE     NEAR LAB  LVL=1
      DR28        REGSYM    ---      FLOAT     temp
      R15         REGSYM    ---      CHAR      i
      R14         REGSYM    ---      CHAR      j
      R15         REGSYM    ---      CHAR      k
      ---         BLOCKEND  ---      ---       LVL=1
      00FF42A4H   LINE      CODE     ---       #22
      00FF42A6H   LINE      CODE     ---       #23
      00FF42A6H   LINE      CODE     ---       #26
      00FF42A8H   LINE      CODE     ---       #28
      00FF42C7H   LINE      CODE     ---       #29
      00FF42E6H   LINE      CODE     ---       #31
      00FF4303H   LINE      CODE     ---       #33
      00FF4322H   LINE      CODE     ---       #34
      00FF4341H   LINE      CODE     ---       #35
      00FF434BH   LINE      CODE     ---       #36
      00FF434DH   LINE      CODE     ---       #38
      00FF434FH   LINE      CODE     ---       #39
      00FF4351H   LINE      CODE     ---       #41
      00FF4370H   LINE      CODE     ---       #42
      00FF4377H   LINE      CODE     ---       #43
      00FF4390H   LINE      CODE     ---       #44
      00FF43A9H   LINE      CODE     ---       #45
      00FF43C0H   LINE      CODE     ---       #47
      00FF43E2H   LINE      CODE     ---       #48
      00FF43ECH   LINE      CODE     ---       #49
      ---         BLOCKEND  ---      ---       LVL=0

      ---         MODULE    ---      ---       PID
      00FF4C92H   PUBLIC    CODE     ---       PID_Calculate
      00FF5920H   PUBLIC    CODE     ---       PID_Init
      000001DAH   PUBLIC    EDATA    BYTE      ?PID_Init?BYTE
      000001DAH   PUBLIC    EDATA    BYTE      ?PID_Calculate?BYTE
      000000D0H   SFRSYM    DATA     BYTE      PSW
      000000B7H   SFRSYM    DATA     BYTE      IPH
      00000088H   SFRSYM    DATA     BYTE      TCON
      00000098H   SFRSYM    DATA     BYTE      SCON
      000000BCH   SFRSYM    DATA     BYTE      ADC_CONTR
      000000DEH   SFRSYM    DATA     BYTE      ADCCFG
      000000B8H   SFRSYM    DATA     BYTE      IP
      000000A8H   SFRSYM    DATA     BYTE      IE
      000000F8H   SFRSYM    DATA     BYTE      P7
      000000E8H   SFRSYM    DATA     BYTE      P6
      000000C8H   SFRSYM    DATA     BYTE      P5
L251 LINKER/LOCATER V4.66.93.0                                                        02/27/2024  23:09:55  PAGE 71


      000000C0H   SFRSYM    DATA     BYTE      P4
      000000B0H   SFRSYM    DATA     BYTE      P3
      000000A0H   SFRSYM    DATA     BYTE      P2
      00000090H   SFRSYM    DATA     BYTE      P1
      00000080H   SFRSYM    DATA     BYTE      P0

      00FF5920H   BLOCK     CODE     ---       LVL=0
      REG=2       REGSYM    ---      ---       PID_Struct
      DR4         REGSYM    ---      FLOAT     Kp
      000001E2H   SYMBOL    EDATA    FLOAT     Ki
      000001E6H   SYMBOL    EDATA    FLOAT     Kd
      000001EAH   SYMBOL    EDATA    FLOAT     Out_Limit
      000001EEH   SYMBOL    EDATA    FLOAT     Integral_Limit
      00FF5920H   LINE      CODE     ---       #10
      00FF5922H   LINE      CODE     ---       #12
      00FF592AH   LINE      CODE     ---       #13
      00FF5936H   LINE      CODE     ---       #14
      00FF5942H   LINE      CODE     ---       #16
      00FF594BH   LINE      CODE     ---       #17
      00FF5953H   LINE      CODE     ---       #19
      00FF595BH   LINE      CODE     ---       #20
      00FF5967H   LINE      CODE     ---       #21
      00FF5973H   LINE      CODE     ---       #22
      ---         BLOCKEND  ---      ---       LVL=0

      00FF4C92H   BLOCK     CODE     ---       LVL=0
      REG=3       REGSYM    ---      ---       PID_Struct
      DR28        REGSYM    ---      FLOAT     Exp_Val
      000001E2H   SYMBOL    EDATA    FLOAT     Act_Val
      00FF4C92H   LINE      CODE     ---       #24
      00FF4C96H   LINE      CODE     ---       #26
      00FF4CA4H   LINE      CODE     ---       #27
      00FF4CC2H   LINE      CODE     ---       #28
      00FF4CDAH   LINE      CODE     ---       #29
      00FF4D2FH   LINE      CODE     ---       #33
      00FF4D47H   LINE      CODE     ---       #34
      00FF4D56H   LINE      CODE     ---       #35
      ---         BLOCKEND  ---      ---       LVL=0

      ---         MODULE    ---      ---       MPU6050
      00FF62ECH   PUBLIC    CODE     ---       i2c_nack
      00FF63D0H   PUBLIC    CODE     ---       Delay1ms
      00FF52A5H   PUBLIC    CODE     ---       loadfirmware
      00FF62AEH   PUBLIC    CODE     ---       i2c_ack
      00FF62FEH   PUBLIC    CODE     ---       i2c_start
      00FF5507H   PUBLIC    CODE     ---       i2c_read_bits
      00FF5E09H   PUBLIC    CODE     ---       i2c_read_byte
      00FF55DBH   PUBLIC    CODE     ---       xdmpUpdates
      00FF581CH   PUBLIC    CODE     ---       MPU_Get_Gyroscope
      00FF5F12H   PUBLIC    CODE     ---       i2c_read_bit
      00FF53A3H   PUBLIC    CODE     ---       i2c_mem_read
      00FF4E11H   PUBLIC    CODE     ---       loadcfgupd
      00FF001EH   PUBLIC    CODE     ---       I2C_SDA_H
      00FF5326H   PUBLIC    CODE     ---       i2c_write_bits
      00FF61B6H   PUBLIC    CODE     ---       getDeviceID
      00FF0056H   PUBLIC    CODE     ---       I2C_SDA_L
      00FF5F45H   PUBLIC    CODE     ---       i2c_write_byte
      00FF605DH   PUBLIC    CODE     ---       i2c_wait_ack
      00FF6342H   PUBLIC    CODE     ---       i2c_stop
      00FF005EH   PUBLIC    CODE     ---       I2C_SCL_H
      00FF0086H   PUBLIC    CODE     ---       I2C_SCL_L
      00FF57C0H   PUBLIC    CODE     ---       i2c_write_bit
      00FF56A6H   PUBLIC    CODE     ---       i2c_mem_write
      00FF3AA3H   PUBLIC    CODE     ---       MPU6050_Refresh_DMP
      00FF0046H   PUBLIC    CODE     ---       MPU_Read_Bits
L251 LINKER/LOCATER V4.66.93.0                                                        02/27/2024  23:09:55  PAGE 72


      00FF63DAH   PUBLIC    CODE     ---       MPU_Read_Bit
      00FF63A4H   PUBLIC    CODE     ---       MPU_Read_Len
      00FF0006H   PUBLIC    CODE     ---       I2C_SDA_Read
      00FF637DH   PUBLIC    CODE     ---       MPU_Write_Bits
      00FF62C3H   PUBLIC    CODE     ---       MPU_Write_Byte
      00FF3D3DH   PUBLIC    CODE     ---       dmpInitialize
      00FF63AFH   PUBLIC    CODE     ---       i2c_timeout_delay
      00FF6351H   PUBLIC    CODE     ---       readdmp
      00FF638AH   PUBLIC    CODE     ---       MPU_Write_Bit
      00FF63BAH   PUBLIC    CODE     ---       MPU_Write_Len
      00FF62D8H   PUBLIC    CODE     ---       MPU_Delay_Ms
      00FF63C5H   PUBLIC    CODE     ---       i2c_delay
      00FF0026H   PUBLIC    CODE     ---       getFIFOCount
      00FF5F78H   PUBLIC    CODE     ---       initMPU6050
      00FF6171H   PUBLIC    CODE     ---       MPU6050_DMP_Init
      000002E1H   PUBLIC    EDATA    FLOAT     z_add
      000002E5H   PUBLIC    EDATA    FLOAT     z_last
      000002E9H   PUBLIC    EDATA    FLOAT     Roll
      000002EDH   PUBLIC    EDATA    FLOAT     x1
      000002F1H   PUBLIC    EDATA    FLOAT     y1
      000002F5H   PUBLIC    EDATA    FLOAT     z1
      000002F9H   PUBLIC    EDATA    FLOAT     z_now
      000002FDH   PUBLIC    EDATA    FLOAT     Yaw
      00000301H   PUBLIC    EDATA    ---       Q
      00000311H   PUBLIC    EDATA    ---       dmpdatas
      0000033BH   PUBLIC    EDATA    CHAR      mpu_state
      0000033CH   PUBLIC    EDATA    FLOAT     Pitch
      00FF1A26H   PUBLIC    CODE     ---       dmpUpdates
      00FF1A55H   PUBLIC    CODE     ---       dmpcfgupddata
      00FF1B15H   PUBLIC    CODE     ---       dmpmemorydata
      000001DEH   PUBLIC    EDATA    BYTE      ?MPU_Get_Gyroscope?BYTE
      000000D0H   SFRSYM    DATA     BYTE      PSW
      000000B7H   SFRSYM    DATA     BYTE      IPH
      000000C8H.1 SFRSYM    DATA     BIT       P51
      00000088H   SFRSYM    DATA     BYTE      TCON
      000000C8H.0 SFRSYM    DATA     BIT       P50
      00000098H   SFRSYM    DATA     BYTE      SCON
      000000BCH   SFRSYM    DATA     BYTE      ADC_CONTR
      000000DEH   SFRSYM    DATA     BYTE      ADCCFG
      000000B8H   SFRSYM    DATA     BYTE      IP
      000000A8H   SFRSYM    DATA     BYTE      IE
      000000F8H   SFRSYM    DATA     BYTE      P7
      000000E8H   SFRSYM    DATA     BYTE      P6
      000000C8H   SFRSYM    DATA     BYTE      P5
      000000C0H   SFRSYM    DATA     BYTE      P4
      000000B0H   SFRSYM    DATA     BYTE      P3
      000000A0H   SFRSYM    DATA     BYTE      P2
      00000090H   SFRSYM    DATA     BYTE      P1
      00000080H   SFRSYM    DATA     BYTE      P0

      00FF63AFH   BLOCK     CODE     ---       LVL=0
      R10         REGSYM    ---      CHAR      i
      00FF63AFH   LINE      CODE     ---       #10
      00FF63AFH   LINE      CODE     ---       #11
      00FF63AFH   LINE      CODE     ---       #13
      00FF63B2H   LINE      CODE     ---       #14
      00FF63B9H   LINE      CODE     ---       #15
      ---         BLOCKEND  ---      ---       LVL=0

      00FF63C5H   BLOCK     CODE     ---       LVL=0
      R10         REGSYM    ---      CHAR      i
      00FF63C5H   LINE      CODE     ---       #17
      00FF63C5H   LINE      CODE     ---       #18
      00FF63C5H   LINE      CODE     ---       #20
      00FF63C8H   LINE      CODE     ---       #21
L251 LINKER/LOCATER V4.66.93.0                                                        02/27/2024  23:09:55  PAGE 73


      00FF63CFH   LINE      CODE     ---       #22
      ---         BLOCKEND  ---      ---       LVL=0

      00FF005EH   BLOCK     CODE     ---       LVL=0
      00FF005EH   LINE      CODE     ---       #25
      00FF005EH   LINE      CODE     ---       #27
      00FF0060H   LINE      CODE     ---       #28
      ---         BLOCKEND  ---      ---       LVL=0

      00FF0086H   BLOCK     CODE     ---       LVL=0
      00FF0086H   LINE      CODE     ---       #31
      00FF0086H   LINE      CODE     ---       #33
      00FF0088H   LINE      CODE     ---       #34
      ---         BLOCKEND  ---      ---       LVL=0

      00FF001EH   BLOCK     CODE     ---       LVL=0
      00FF001EH   LINE      CODE     ---       #37
      00FF001EH   LINE      CODE     ---       #39
      00FF0020H   LINE      CODE     ---       #40
      ---         BLOCKEND  ---      ---       LVL=0

      00FF0056H   BLOCK     CODE     ---       LVL=0
      00FF0056H   LINE      CODE     ---       #43
      00FF0056H   LINE      CODE     ---       #45
      00FF0058H   LINE      CODE     ---       #46
      ---         BLOCKEND  ---      ---       LVL=0

      00FF0006H   BLOCK     CODE     ---       LVL=0
      00FF0006H   LINE      CODE     ---       #49
      00FF0006H   LINE      CODE     ---       #51
      00FF000AH   LINE      CODE     ---       #52
      ---         BLOCKEND  ---      ---       LVL=0

      00FF62FEH   BLOCK     CODE     ---       LVL=0
      00FF62FEH   LINE      CODE     ---       #60
      00FF62FEH   LINE      CODE     ---       #62
      00FF6301H   LINE      CODE     ---       #63
      00FF6304H   LINE      CODE     ---       #64
      00FF6307H   LINE      CODE     ---       #66
      00FF630AH   LINE      CODE     ---       #67
      00FF630DH   LINE      CODE     ---       #68
      ---         BLOCKEND  ---      ---       LVL=0

      00FF6342H   BLOCK     CODE     ---       LVL=0
      00FF6342H   LINE      CODE     ---       #77
      00FF6342H   LINE      CODE     ---       #79
      00FF6345H   LINE      CODE     ---       #80
      00FF6348H   LINE      CODE     ---       #81
      00FF634BH   LINE      CODE     ---       #83
      00FF634EH   LINE      CODE     ---       #84
      ---         BLOCKEND  ---      ---       LVL=0

      00FF62AEH   BLOCK     CODE     ---       LVL=0
      00FF62AEH   LINE      CODE     ---       #93
      00FF62AEH   LINE      CODE     ---       #95
      00FF62B1H   LINE      CODE     ---       #96
      00FF62B4H   LINE      CODE     ---       #97
      00FF62B7H   LINE      CODE     ---       #99
      00FF62BAH   LINE      CODE     ---       #100
      00FF62BDH   LINE      CODE     ---       #101
      00FF62C0H   LINE      CODE     ---       #102
      ---         BLOCKEND  ---      ---       LVL=0

      00FF62ECH   BLOCK     CODE     ---       LVL=0
      00FF62ECH   LINE      CODE     ---       #111
L251 LINKER/LOCATER V4.66.93.0                                                        02/27/2024  23:09:55  PAGE 74


      00FF62ECH   LINE      CODE     ---       #113
      00FF62EFH   LINE      CODE     ---       #114
      00FF62F2H   LINE      CODE     ---       #115
      00FF62F5H   LINE      CODE     ---       #117
      00FF62F8H   LINE      CODE     ---       #118
      00FF62FBH   LINE      CODE     ---       #119
      ---         BLOCKEND  ---      ---       LVL=0

      00FF605DH   BLOCK     CODE     ---       LVL=0
      00FF605FH   BLOCK     CODE     NEAR LAB  LVL=1
      WR14        REGSYM    ---      WORD      time_temp
      ---         BLOCKEND  ---      ---       LVL=1
      00FF605DH   LINE      CODE     ---       #129
      00FF605FH   LINE      CODE     ---       #130
      00FF605FH   LINE      CODE     ---       #131
      00FF6061H   LINE      CODE     ---       #133
      00FF6064H   LINE      CODE     ---       #134
      00FF6067H   LINE      CODE     ---       #135
      00FF6069H   LINE      CODE     ---       #137
      00FF606BH   LINE      CODE     ---       #138
      00FF606EH   LINE      CODE     ---       #139
      00FF6074H   LINE      CODE     ---       #141
      00FF6077H   LINE      CODE     ---       #142
      00FF607BH   LINE      CODE     ---       #143
      00FF6080H   LINE      CODE     ---       #145
      00FF6083H   LINE      CODE     ---       #146
      00FF6084H   LINE      CODE     ---       #147
      ---         BLOCKEND  ---      ---       LVL=0

      00FF5F45H   BLOCK     CODE     ---       LVL=0
      R15         REGSYM    ---      BYTE      dat
      00FF5F49H   BLOCK     CODE     NEAR LAB  LVL=1
      R14         REGSYM    ---      BYTE      i
      ---         BLOCKEND  ---      ---       LVL=1
      00FF5F45H   LINE      CODE     ---       #155
      00FF5F49H   LINE      CODE     ---       #156
      00FF5F49H   LINE      CODE     ---       #157
      00FF5F49H   LINE      CODE     ---       #159
      00FF5F4CH   LINE      CODE     ---       #160
      00FF5F4FH   LINE      CODE     ---       #162
      00FF5F58H   LINE      CODE     ---       #163
      00FF5F5DH   LINE      CODE     ---       #165
      00FF5F60H   LINE      CODE     ---       #166
      00FF5F62H   LINE      CODE     ---       #167
      00FF5F65H   LINE      CODE     ---       #168
      00FF5F68H   LINE      CODE     ---       #169
      00FF5F6BH   LINE      CODE     ---       #170
      00FF5F6EH   LINE      CODE     ---       #171
      00FF5F71H   LINE      CODE     ---       #172
      00FF5F75H   LINE      CODE     ---       #173
      ---         BLOCKEND  ---      ---       LVL=0

      00FF5E09H   BLOCK     CODE     ---       LVL=0
      R15         REGSYM    ---      BYTE      ack
      00FF5E0FH   BLOCK     CODE     NEAR LAB  LVL=1
      R13         REGSYM    ---      BYTE      i
      R14         REGSYM    ---      BYTE      receive
      ---         BLOCKEND  ---      ---       LVL=1
      00FF5E09H   LINE      CODE     ---       #181
      00FF5E0FH   LINE      CODE     ---       #182
      00FF5E0FH   LINE      CODE     ---       #183
      00FF5E11H   LINE      CODE     ---       #185
      00FF5E14H   LINE      CODE     ---       #187
      00FF5E17H   LINE      CODE     ---       #188
      00FF5E1AH   LINE      CODE     ---       #189
L251 LINKER/LOCATER V4.66.93.0                                                        02/27/2024  23:09:55  PAGE 75


      00FF5E1DH   LINE      CODE     ---       #190
      00FF5E1FH   LINE      CODE     ---       #191
      00FF5E24H   LINE      CODE     ---       #192
      00FF5E26H   LINE      CODE     ---       #193
      00FF5E29H   LINE      CODE     ---       #194
      00FF5E2DH   LINE      CODE     ---       #195
      00FF5E31H   LINE      CODE     ---       #196
      00FF5E36H   LINE      CODE     ---       #198
      00FF5E39H   LINE      CODE     ---       #200
      00FF5E3BH   LINE      CODE     ---       #201
      ---         BLOCKEND  ---      ---       LVL=0

      00FF56A6H   BLOCK     CODE     ---       LVL=0
      000001EBH   SYMBOL    EDATA    BYTE      DevAddress
      000001ECH   SYMBOL    EDATA    BYTE      MemAddress
      REG=3       REGSYM    ---      ---       pData
      000001EDH   SYMBOL    EDATA    WORD      Len
      00FF56A6H   LINE      CODE     ---       #209
      00FF56B6H   LINE      CODE     ---       #211
      00FF56B9H   LINE      CODE     ---       #212
      00FF56C2H   LINE      CODE     ---       #213
      00FF56C7H   LINE      CODE     ---       #214
      00FF56CBH   LINE      CODE     ---       #215
      00FF56D2H   LINE      CODE     ---       #216
      00FF56D7H   LINE      CODE     ---       #217
      00FF56DBH   LINE      CODE     ---       #218
      00FF56DDH   LINE      CODE     ---       #220
      00FF56E5H   LINE      CODE     ---       #221
      00FF56EAH   LINE      CODE     ---       #222
      00FF56EEH   LINE      CODE     ---       #223
      00FF56FEH   LINE      CODE     ---       #224
      00FF5701H   LINE      CODE     ---       #225
      00FF5702H   LINE      CODE     ---       #226
      ---         BLOCKEND  ---      ---       LVL=0

      00FF53A3H   BLOCK     CODE     ---       LVL=0
      000001F0H   SYMBOL    EDATA    BYTE      DevAddress
      000001F1H   SYMBOL    EDATA    BYTE      MemAddress
      REG=3       REGSYM    ---      ---       pBuffer
      000001F2H   SYMBOL    EDATA    WORD      Len
      00FF53A3H   LINE      CODE     ---       #234
      00FF53B3H   LINE      CODE     ---       #236
      00FF53B6H   LINE      CODE     ---       #237
      00FF53BFH   LINE      CODE     ---       #238
      00FF53C4H   LINE      CODE     ---       #239
      00FF53C8H   LINE      CODE     ---       #240
      00FF53CFH   LINE      CODE     ---       #241
      00FF53D4H   LINE      CODE     ---       #242
      00FF53D8H   LINE      CODE     ---       #243
      00FF53DBH   LINE      CODE     ---       #244
      00FF53E6H   LINE      CODE     ---       #245
      00FF53EBH   LINE      CODE     ---       #246
      00FF53EFH   LINE      CODE     ---       #247
      00FF53F1H   LINE      CODE     ---       #249
      00FF5406H   LINE      CODE     ---       #250
      00FF5416H   LINE      CODE     ---       #251
      00FF5419H   LINE      CODE     ---       #252
      00FF541AH   LINE      CODE     ---       #253
      ---         BLOCKEND  ---      ---       LVL=0

      00FF57C0H   BLOCK     CODE     ---       LVL=0
      R13         REGSYM    ---      BYTE      DevAddress
      R14         REGSYM    ---      BYTE      addr
      R15         REGSYM    ---      BYTE      bitNum
      R12         REGSYM    ---      BYTE      Data
L251 LINKER/LOCATER V4.66.93.0                                                        02/27/2024  23:09:55  PAGE 76


      00FF57CAH   BLOCK     CODE     NEAR LAB  LVL=1
      000001E8H   SYMBOL    EDATA    BYTE      b
      ---         BLOCKEND  ---      ---       LVL=1
      00FF57C0H   LINE      CODE     ---       #262
      00FF57CAH   LINE      CODE     ---       #263
      00FF57CAH   LINE      CODE     ---       #265
      00FF57D7H   LINE      CODE     ---       #267
      00FF5806H   LINE      CODE     ---       #268
      00FF5817H   LINE      CODE     ---       #269
      00FF5817H   LINE      CODE     ---       #271
      00FF5819H   LINE      CODE     ---       #272
      ---         BLOCKEND  ---      ---       LVL=0

      00FF5326H   BLOCK     CODE     ---       LVL=0
      000001E8H   SYMBOL    EDATA    BYTE      DevAddress
      R12         REGSYM    ---      BYTE      addr
      R13         REGSYM    ---      BYTE      bitStart
      R14         REGSYM    ---      BYTE      length
      R15         REGSYM    ---      BYTE      Data
      00FF5334H   BLOCK     CODE     NEAR LAB  LVL=1
      00000340H   SYMBOL    EDATA    BYTE      b
      00000341H   SYMBOL    EDATA    BYTE      mask
      ---         BLOCKEND  ---      ---       LVL=1
      00FF5326H   LINE      CODE     ---       #282
      00FF5334H   LINE      CODE     ---       #283
      00FF5334H   LINE      CODE     ---       #292
      00FF5341H   LINE      CODE     ---       #294
      00FF5367H   LINE      CODE     ---       #295
      00FF5370H   LINE      CODE     ---       #296
      00FF5372H   LINE      CODE     ---       #297
      00FF5381H   LINE      CODE     ---       #298
      00FF538BH   LINE      CODE     ---       #300
      00FF539EH   LINE      CODE     ---       #301
      00FF539EH   LINE      CODE     ---       #303
      00FF53A0H   LINE      CODE     ---       #304
      ---         BLOCKEND  ---      ---       LVL=0

      00FF5F12H   BLOCK     CODE     ---       LVL=0
      R11         REGSYM    ---      BYTE      DevAddress
      R10         REGSYM    ---      BYTE      addr
      000001E8H   SYMBOL    EDATA    BYTE      bitNum
      REG=3       REGSYM    ---      ---       Data
      00FF5F1AH   BLOCK     CODE     NEAR LAB  LVL=1
      000001E9H   SYMBOL    EDATA    BYTE      b
      ---         BLOCKEND  ---      ---       LVL=1
      00FF5F12H   LINE      CODE     ---       #312
      00FF5F1AH   LINE      CODE     ---       #313
      00FF5F1AH   LINE      CODE     ---       #315
      00FF5F27H   LINE      CODE     ---       #317
      00FF5F3DH   LINE      CODE     ---       #318
      00FF5F40H   LINE      CODE     ---       #319
      00FF5F40H   LINE      CODE     ---       #322
      00FF5F42H   LINE      CODE     ---       #323
      00FF5F42H   LINE      CODE     ---       #324
      ---         BLOCKEND  ---      ---       LVL=0

      00FF5507H   BLOCK     CODE     ---       LVL=0
      R11         REGSYM    ---      BYTE      DevAddress
      R10         REGSYM    ---      BYTE      addr
      R14         REGSYM    ---      BYTE      bitStart
      R15         REGSYM    ---      BYTE      length
      000001E8H   SYMBOL    EDATA    ---       Data
      00FF5511H   BLOCK     CODE     NEAR LAB  LVL=1
      00000342H   SYMBOL    EDATA    BYTE      b
      00000343H   SYMBOL    EDATA    BYTE      mask
L251 LINKER/LOCATER V4.66.93.0                                                        02/27/2024  23:09:55  PAGE 77


      ---         BLOCKEND  ---      ---       LVL=1
      00FF5507H   LINE      CODE     ---       #333
      00FF5511H   LINE      CODE     ---       #334
      00FF5511H   LINE      CODE     ---       #341
      00FF551EH   LINE      CODE     ---       #344
      00FF5540H   LINE      CODE     ---       #345
      00FF5548H   LINE      CODE     ---       #346
      00FF555FH   LINE      CODE     ---       #347
      00FF556AH   LINE      CODE     ---       #348
      00FF556DH   LINE      CODE     ---       #349
      00FF556DH   LINE      CODE     ---       #351
      00FF556FH   LINE      CODE     ---       #352
      ---         BLOCKEND  ---      ---       LVL=0

      00FF63D0H   BLOCK     CODE     ---       LVL=0
      DR4         REGSYM    ---      DWORD     i
      00FF63D0H   LINE      CODE     ---       #356
      00FF63D0H   LINE      CODE     ---       #357
      00FF63D0H   LINE      CODE     ---       #359
      00FF63D1H   LINE      CODE     ---       #360
      00FF63D5H   LINE      CODE     ---       #361
      00FF63D9H   LINE      CODE     ---       #362
      ---         BLOCKEND  ---      ---       LVL=0

      00FF62D8H   BLOCK     CODE     ---       LVL=0
      WR14        REGSYM    ---      WORD      Milliseconds
      00FF62D8H   LINE      CODE     ---       #365
      00FF62DCH   LINE      CODE     ---       #367
      00FF62E9H   LINE      CODE     ---       #369
      ---         BLOCKEND  ---      ---       LVL=0

      00FF63BAH   BLOCK     CODE     ---       LVL=0
      R7          REGSYM    ---      BYTE      reg
      R6          REGSYM    ---      BYTE      len
      REG=0       REGSYM    ---      ---       buf
      00FF63BAH   LINE      CODE     ---       #377
      00FF63BEH   LINE      CODE     ---       #379
      ---         BLOCKEND  ---      ---       LVL=0

      00FF63A4H   BLOCK     CODE     ---       LVL=0
      R7          REGSYM    ---      BYTE      reg
      R6          REGSYM    ---      BYTE      len
      REG=0       REGSYM    ---      ---       buf
      00FF63A4H   LINE      CODE     ---       #388
      00FF63A8H   LINE      CODE     ---       #390
      ---         BLOCKEND  ---      ---       LVL=0

      00FF62C3H   BLOCK     CODE     ---       LVL=0
      R10         REGSYM    ---      BYTE      reg
      000001EAH   SYMBOL    EDATA    BYTE      Data
      00FF62C3H   LINE      CODE     ---       #398
      00FF62C9H   LINE      CODE     ---       #400
      ---         BLOCKEND  ---      ---       LVL=0
      R10         REGSYM    ---      BYTE      reg

      00FF638AH   BLOCK     CODE     ---       LVL=0
      R7          REGSYM    ---      BYTE      addr
      R6          REGSYM    ---      BYTE      bitNum
      R10         REGSYM    ---      BYTE      Data
      00FF638AH   LINE      CODE     ---       #414
      00FF6390H   LINE      CODE     ---       #416
      ---         BLOCKEND  ---      ---       LVL=0

      00FF637DH   BLOCK     CODE     ---       LVL=0
      R7          REGSYM    ---      BYTE      addr
L251 LINKER/LOCATER V4.66.93.0                                                        02/27/2024  23:09:55  PAGE 78


      R6          REGSYM    ---      BYTE      bitStart
      R5          REGSYM    ---      BYTE      length
      R4          REGSYM    ---      BYTE      Data
      00FF637DH   LINE      CODE     ---       #420
      00FF6385H   LINE      CODE     ---       #422
      ---         BLOCKEND  ---      ---       LVL=0

      00FF63DAH   BLOCK     CODE     ---       LVL=0
      R7          REGSYM    ---      BYTE      addr
      R6          REGSYM    ---      BYTE      bitNum
      REG=0       REGSYM    ---      ---       Data
      00FF63DAH   LINE      CODE     ---       #426
      00FF63DEH   LINE      CODE     ---       #428
      ---         BLOCKEND  ---      ---       LVL=0

      00FF0046H   BLOCK     CODE     ---       LVL=0
      R7          REGSYM    ---      BYTE      addr
      R6          REGSYM    ---      BYTE      bitStart
      R10         REGSYM    ---      BYTE      length
      REG=0       REGSYM    ---      ---       Data
      00FF0046H   LINE      CODE     ---       #432
      00FF004CH   LINE      CODE     ---       #434
      ---         BLOCKEND  ---      ---       LVL=0
      R11         REGSYM    ---      BYTE      res
      R10         REGSYM    ---      BYTE      fsr
      R10         REGSYM    ---      BYTE      fsr
      WR6         REGSYM    ---      WORD      lpf
      R10         REGSYM    ---      BYTE      Data
      WR14        REGSYM    ---      WORD      rate
      00000344H   SYMBOL    EDATA    BYTE      Data
      WR4         REGSYM    ---      INT       raw
      DR4         REGSYM    ---      FLOAT     temp

      00FF581CH   BLOCK     CODE     ---       LVL=0
      000001E2H   SYMBOL    EDATA    ---       gx
      REG=3       REGSYM    ---      ---       gy
      000001E6H   SYMBOL    EDATA    ---       gz
      00FF5824H   BLOCK     CODE     NEAR LAB  LVL=1
      000001EAH   SYMBOL    EDATA    ---       buf
      R11         REGSYM    ---      BYTE      res
      ---         BLOCKEND  ---      ---       LVL=1
      00FF581CH   LINE      CODE     ---       #543
      00FF5824H   LINE      CODE     ---       #544
      00FF5824H   LINE      CODE     ---       #546
      00FF5830H   LINE      CODE     ---       #547
      00FF5832H   LINE      CODE     ---       #549
      00FF5849H   LINE      CODE     ---       #550
      00FF585CH   LINE      CODE     ---       #551
      00FF5871H   LINE      CODE     ---       #552
      00FF5871H   LINE      CODE     ---       #553
      00FF5871H   LINE      CODE     ---       #554
      ---         BLOCKEND  ---      ---       LVL=0
      REG=3       REGSYM    ---      ---       ay
      R11         REGSYM    ---      BYTE      res

      00FF52A5H   BLOCK     CODE     ---       LVL=0
      00FF52A7H   BLOCK     CODE     NEAR LAB  LVL=1
      WR14        REGSYM    ---      WORD      datanum
      000001E8H   SYMBOL    EDATA    BYTE      ye
      000001E9H   SYMBOL    EDATA    BYTE      i
      R12         REGSYM    ---      BYTE      bank
      R13         REGSYM    ---      BYTE      addr
      ---         BLOCKEND  ---      ---       LVL=1
      00FF52A5H   LINE      CODE     ---       #790
      00FF52A7H   LINE      CODE     ---       #791
L251 LINKER/LOCATER V4.66.93.0                                                        02/27/2024  23:09:55  PAGE 79


      00FF52A7H   LINE      CODE     ---       #792
      00FF52A9H   LINE      CODE     ---       #794
      00FF52ABH   LINE      CODE     ---       #795
      00FF52ADH   LINE      CODE     ---       #797
      00FF52ADH   LINE      CODE     ---       #799
      00FF52B2H   LINE      CODE     ---       #800
      00FF52B6H   LINE      CODE     ---       #802
      00FF52BCH   LINE      CODE     ---       #803
      00FF52BFH   LINE      CODE     ---       #805
      00FF52C6H   LINE      CODE     ---       #806
      00FF52CDH   LINE      CODE     ---       #807
      00FF52DFH   LINE      CODE     ---       #808
      00FF52E3H   LINE      CODE     ---       #809
      00FF52E6H   LINE      CODE     ---       #810
      00FF52F9H   LINE      CODE     ---       #811
      00FF5300H   LINE      CODE     ---       #812
      00FF5308H   LINE      CODE     ---       #813
      00FF530FH   LINE      CODE     ---       #814
      00FF5321H   LINE      CODE     ---       #815
      00FF5321H   LINE      CODE     ---       #816
      00FF5323H   LINE      CODE     ---       #817
      ---         BLOCKEND  ---      ---       LVL=0

      00FF4E11H   BLOCK     CODE     ---       LVL=0
      00FF4E13H   BLOCK     CODE     NEAR LAB  LVL=1
      R14         REGSYM    ---      BYTE      line
      000001E8H   SYMBOL    EDATA    BYTE      bank
      R15         REGSYM    ---      BYTE      datacounts
      R13         REGSYM    ---      BYTE      bytes2write
      000001E9H   SYMBOL    EDATA    BYTE      offset
      00000345H   SYMBOL    EDATA    BYTE      writingcounts
      R12         REGSYM    ---      BYTE      special
      ---         BLOCKEND  ---      ---       LVL=1
      00FF4E11H   LINE      CODE     ---       #819
      00FF4E13H   LINE      CODE     ---       #820
      00FF4E13H   LINE      CODE     ---       #823
      00FF4E15H   LINE      CODE     ---       #829
      00FF4E18H   LINE      CODE     ---       #831
      00FF4E2EH   LINE      CODE     ---       #832
      00FF4E44H   LINE      CODE     ---       #833
      00FF4E58H   LINE      CODE     ---       #834
      00FF4E61H   LINE      CODE     ---       #835
      00FF4E6AH   LINE      CODE     ---       #836
      00FF4E7BH   LINE      CODE     ---       #837
      00FF4E7FH   LINE      CODE     ---       #838
      00FF4E81H   LINE      CODE     ---       #839
      00FF4E85H   LINE      CODE     ---       #841
      00FF4E99H   LINE      CODE     ---       #842
      00FF4E9EH   LINE      CODE     ---       #847
      00FF4EA6H   LINE      CODE     ---       #848
      00FF4EA8H   LINE      CODE     ---       #850
      00FF4EABH   LINE      CODE     ---       #851
      00FF4EB2H   LINE      CODE     ---       #853
      00FF4EB4H   LINE      CODE     ---       #854
      ---         BLOCKEND  ---      ---       LVL=0

      00FF55DBH   BLOCK     CODE     ---       LVL=0
      R15         REGSYM    ---      BYTE      datacounts
      00FF55E1H   BLOCK     CODE     NEAR LAB  LVL=1
      00000346H   SYMBOL    EDATA    BYTE      writingcounts
      R7          REGSYM    ---      BYTE      bank
      R13         REGSYM    ---      BYTE      offset
      R14         REGSYM    ---      BYTE      bytes2write
      ---         BLOCKEND  ---      ---       LVL=1
      00FF55DBH   LINE      CODE     ---       #857
L251 LINKER/LOCATER V4.66.93.0                                                        02/27/2024  23:09:55  PAGE 80


      00FF55E1H   LINE      CODE     ---       #858
      00FF55E1H   LINE      CODE     ---       #862
      00FF55F3H   LINE      CODE     ---       #863
      00FF5607H   LINE      CODE     ---       #864
      00FF561BH   LINE      CODE     ---       #865
      00FF5620H   LINE      CODE     ---       #866
      00FF5627H   LINE      CODE     ---       #867
      00FF5638H   LINE      CODE     ---       #868
      00FF563CH   LINE      CODE     ---       #869
      00FF563CH   LINE      CODE     ---       #870
      00FF563EH   LINE      CODE     ---       #871
      ---         BLOCKEND  ---      ---       LVL=0

      00FF0026H   BLOCK     CODE     ---       LVL=0
      000001E8H   SYMBOL    EDATA    ---       i
      00FF0026H   LINE      CODE     ---       #875
      00FF0026H   LINE      CODE     ---       #876
      00FF0026H   LINE      CODE     ---       #878
      00FF0032H   LINE      CODE     ---       #879
      00FF0042H   LINE      CODE     ---       #880
      ---         BLOCKEND  ---      ---       LVL=0

      00FF6351H   BLOCK     CODE     ---       LVL=0
      REG=7       REGSYM    ---      ---       Data
      00FF6351H   LINE      CODE     ---       #886
      00FF6351H   LINE      CODE     ---       #888
      00FF635FH   LINE      CODE     ---       #889
      ---         BLOCKEND  ---      ---       LVL=0

      00FF3D3DH   BLOCK     CODE     ---       LVL=0
      000001E2H   SYMBOL    EDATA    BYTE      hwRevision
      000001E3H   SYMBOL    EDATA    BYTE      otpValid
      000001E4H   SYMBOL    EDATA    BYTE      mpuIntStatus
      000001E5H   SYMBOL    EDATA    BYTE      xgOffsetTC
      000001E6H   SYMBOL    EDATA    BYTE      ygOffsetTC
      000001E7H   SYMBOL    EDATA    BYTE      zgOffsetTC
      00000347H   SYMBOL    EDATA    WORD      fifoCount
      00FF3D3DH   LINE      CODE     ---       #892
      00FF3D3DH   LINE      CODE     ---       #893
      00FF3D3DH   LINE      CODE     ---       #897
      00FF3D48H   LINE      CODE     ---       #898
      00FF3D4FH   LINE      CODE     ---       #899
      00FF3D59H   LINE      CODE     ---       #900
      00FF3D61H   LINE      CODE     ---       #901
      00FF3D69H   LINE      CODE     ---       #902
      00FF3D75H   LINE      CODE     ---       #903
      00FF3D7CH   LINE      CODE     ---       #904
      00FF3D86H   LINE      CODE     ---       #905
      00FF3D94H   LINE      CODE     ---       #906
      00FF3DA3H   LINE      CODE     ---       #907
      00FF3DB2H   LINE      CODE     ---       #911
      00FF3DBDH   LINE      CODE     ---       #912
      00FF3DC4H   LINE      CODE     ---       #913
      00FF3DC9H   LINE      CODE     ---       #914
      00FF3DCBH   LINE      CODE     ---       #915
      00FF3DD0H   LINE      CODE     ---       #916
      00FF3DD2H   LINE      CODE     ---       #917
      00FF3DE0H   LINE      CODE     ---       #918
      00FF3DE8H   LINE      CODE     ---       #919
      00FF3DF0H   LINE      CODE     ---       #920
      00FF3DFEH   LINE      CODE     ---       #921
      00FF3E0CH   LINE      CODE     ---       #922
      00FF3E1AH   LINE      CODE     ---       #923
      00FF3E22H   LINE      CODE     ---       #924
      00FF3E29H   LINE      CODE     ---       #925
L251 LINKER/LOCATER V4.66.93.0                                                        02/27/2024  23:09:55  PAGE 81


      00FF3E31H   LINE      CODE     ---       #926
      00FF3E3DH   LINE      CODE     ---       #927
      00FF3E4AH   LINE      CODE     ---       #928
      00FF3E57H   LINE      CODE     ---       #929
      00FF3E5DH   LINE      CODE     ---       #930
      00FF3E5FH   LINE      CODE     ---       #931
      00FF3E66H   LINE      CODE     ---       #932
      00FF3E68H   LINE      CODE     ---       #933
      00FF3E73H   LINE      CODE     ---       #934
      00FF3E7AH   LINE      CODE     ---       #936
      00FF3E85H   LINE      CODE     ---       #938
      00FF3E8DH   LINE      CODE     ---       #939
      00FF3E95H   LINE      CODE     ---       #940
      00FF3E9DH   LINE      CODE     ---       #941
      00FF3EA4H   LINE      CODE     ---       #942
      00FF3EAFH   LINE      CODE     ---       #943
      00FF3EBAH   LINE      CODE     ---       #944
      00FF3EC5H   LINE      CODE     ---       #945
      00FF3ED0H   LINE      CODE     ---       #946
      00FF3ED7H   LINE      CODE     ---       #947
      00FF3ED9H   LINE      CODE     ---       #948
      00FF3EE0H   LINE      CODE     ---       #949
      00FF3EE2H   LINE      CODE     ---       #950
      00FF3EE9H   LINE      CODE     ---       #951
      00FF3EEBH   LINE      CODE     ---       #952
      00FF3EF8H   LINE      CODE     ---       #953
      00FF3F03H   LINE      CODE     ---       #955
      00FF3F0FH   LINE      CODE     ---       #956
      00FF3F16H   LINE      CODE     ---       #957
      00FF3F18H   LINE      CODE     ---       #958
      00FF3F25H   LINE      CODE     ---       #959
      00FF3F30H   LINE      CODE     ---       #961
      00FF3F3CH   LINE      CODE     ---       #962
      00FF3F43H   LINE      CODE     ---       #963
      00FF3F45H   LINE      CODE     ---       #964
      00FF3F4FH   LINE      CODE     ---       #965
      00FF3F5AH   LINE      CODE     ---       #966
      00FF3F66H   LINE      CODE     ---       #968
      00FF3F68H   LINE      CODE     ---       #969
      ---         BLOCKEND  ---      ---       LVL=0

      00FF5F78H   BLOCK     CODE     ---       LVL=0
      00FF5F78H   LINE      CODE     ---       #972
      00FF5F78H   LINE      CODE     ---       #974
      00FF5F86H   LINE      CODE     ---       #975
      00FF5F93H   LINE      CODE     ---       #976
      00FF5FA0H   LINE      CODE     ---       #977
      ---         BLOCKEND  ---      ---       LVL=0

      00FF61B6H   BLOCK     CODE     ---       LVL=0
      000001E2H   SYMBOL    EDATA    BYTE      b
      00FF61B6H   LINE      CODE     ---       #981
      00FF61B6H   LINE      CODE     ---       #982
      00FF61B6H   LINE      CODE     ---       #983
      00FF61BBH   LINE      CODE     ---       #984
      00FF61CAH   LINE      CODE     ---       #985
      00FF61D5H   LINE      CODE     ---       #987
      ---         BLOCKEND  ---      ---       LVL=0

      00FF6171H   BLOCK     CODE     ---       LVL=0
      00FF6171H   LINE      CODE     ---       #989
      00FF6171H   LINE      CODE     ---       #991
      00FF6174H   LINE      CODE     ---       #992
      00FF6179H   LINE      CODE     ---       #993
      00FF617EH   LINE      CODE     ---       #994
L251 LINKER/LOCATER V4.66.93.0                                                        02/27/2024  23:09:55  PAGE 82


      00FF6189H   LINE      CODE     ---       #995
      ---         BLOCKEND  ---      ---       LVL=0

      00FF3AA3H   BLOCK     CODE     ---       LVL=0
      00FF3AA5H   BLOCK     CODE     NEAR LAB  LVL=1
      00000349H   SYMBOL    EDATA    BYTE      zd
      0000034AH   SYMBOL    EDATA    WORD      i
      ---         BLOCKEND  ---      ---       LVL=1
      00FF3AA3H   LINE      CODE     ---       #999
      00FF3AA5H   LINE      CODE     ---       #1000
      00FF3AA5H   LINE      CODE     ---       #1004
      00FF3AACH   LINE      CODE     ---       #1005
      00FF3AB8H   LINE      CODE     ---       #1006
      00FF3ACBH   LINE      CODE     ---       #1008
      00FF3AD6H   LINE      CODE     ---       #1009
      00FF3AD9H   LINE      CODE     ---       #1010
      00FF3AE1H   LINE      CODE     ---       #1012
      00FF3AF4H   LINE      CODE     ---       #1014
      00FF3AFDH   LINE      CODE     ---       #1016
      00FF3B1BH   LINE      CODE     ---       #1017
      00FF3B33H   LINE      CODE     ---       #1018
      00FF3B4BH   LINE      CODE     ---       #1019
      00FF3B63H   LINE      CODE     ---       #1020
      00FF3B63H   LINE      CODE     ---       #1025
      00FF3BABH   LINE      CODE     ---       #1026
      00FF3C22H   LINE      CODE     ---       #1027
      00FF3CA6H   LINE      CODE     ---       #1029
      00FF3CC1H   LINE      CODE     ---       #1030
      00FF3CD7H   LINE      CODE     ---       #1032
      00FF3CE7H   LINE      CODE     ---       #1033
      00FF3D06H   LINE      CODE     ---       #1034
      00FF3D25H   LINE      CODE     ---       #1036
      00FF3D2DH   LINE      CODE     ---       #1038
      00FF3D3AH   LINE      CODE     ---       #1040
      ---         BLOCKEND  ---      ---       LVL=0

      ---         MODULE    ---      ---       TOF
      00FF5763H   PUBLIC    CODE     ---       vl53l0x_get_distance
      00FF229EH   PUBLIC    CODE     ---       vl53l0x_init
      00000529H   PUBLIC    EDATA    WORD      vl53l0x_distance_mm
      0000052BH   PUBLIC    EDATA    BYTE      vl53l0x_finsh_flag
      000000D0H   SFRSYM    DATA     BYTE      PSW
      000000B7H   SFRSYM    DATA     BYTE      IPH
      000000C0H.7 SFRSYM    DATA     BIT       P47
      000000B0H.3 SFRSYM    DATA     BIT       P33
      00000088H   SFRSYM    DATA     BYTE      TCON
      000000B0H.2 SFRSYM    DATA     BIT       P32
      00000098H   SFRSYM    DATA     BYTE      SCON
      000000BCH   SFRSYM    DATA     BYTE      ADC_CONTR
      000000DEH   SFRSYM    DATA     BYTE      ADCCFG
      000000B8H   SFRSYM    DATA     BYTE      IP
      000000A8H   SFRSYM    DATA     BYTE      IE
      000000F8H   SFRSYM    DATA     BYTE      P7
      000000E8H   SFRSYM    DATA     BYTE      P6
      000000C8H   SFRSYM    DATA     BYTE      P5
      000000C0H   SFRSYM    DATA     BYTE      P4
      000000B0H   SFRSYM    DATA     BYTE      P3
      000000A0H   SFRSYM    DATA     BYTE      P2
      00000090H   SFRSYM    DATA     BYTE      P1
      00000080H   SFRSYM    DATA     BYTE      P0
      00FF61D6H   SYMBOL    CODE     ---       vl53l0x_simiic_sendack
      00FF5D59H   SYMBOL    CODE     ---       vl53l0x_timeout_microseconds_to_mclks
      00FF5CDEH   SYMBOL    CODE     ---       vl53l0x_timeout_mclks_to_microseconds
      00FF6102H   SYMBOL    CODE     ---       vl53l0x_set_signal_rate_limit
      00FF5D95H   SYMBOL    CODE     ---       vl53l0x_read_ch
L251 LINKER/LOCATER V4.66.93.0                                                        02/27/2024  23:09:55  PAGE 83


      00FF6332H   SYMBOL    CODE     ---       vl53l0x_decode_timeout
      00FF5FD9H   SYMBOL    CODE     ---       vl53l0x_send_ch
      00FF4128H   SYMBOL    CODE     ---       vl53l0x_get_spad_info
      00FF5EABH   SYMBOL    CODE     ---       vl53l0x_encode_timeout
      00FF5874H   SYMBOL    CODE     ---       vl53l0x_get_sequence_step_enables
      00FF0066H   SYMBOL    CODE     ---       vl53l0x_sccb_waitack
      00FF6397H   SYMBOL    CODE     ---       vl53l0x_simiic_delay
      00FF541DH   SYMBOL    CODE     ---       vl53l0x_perform_single_ref_calibration
      00FF4ADEH   SYMBOL    CODE     ---       vl53l0x_get_sequence_step_timeouts
      00FF6360H   SYMBOL    CODE     ---       vl53l0x_simiic_start
      00FF5974H   SYMBOL    CODE     ---       vl53l0x_simiic_read_regs
      00FF5494H   SYMBOL    CODE     ---       vl53l0x_get_measurement_timing_budget
      00FF5E76H   SYMBOL    CODE     ---       vl53l0x_simiic_write_dats
      00FF60D9H   SYMBOL    CODE     ---       vl53l0x_simiic_read_reg
      00FF59C8H   SYMBOL    CODE     ---       vl53l0x_simiic_read_regs_1
      00FF491AH   SYMBOL    CODE     ---       vl53l0x_set_measurement_timing_budget
      00FF6321H   SYMBOL    CODE     ---       vl53l0x_simiic_stop
      00FF6194H   SYMBOL    CODE     ---       vl53l0x_simiic_write_reg
      00FF5ABAH   SYMBOL    CODE     ---       vl53l0x_get_vcsel_pulse_period

      00FF6397H   BLOCK     CODE     ---       LVL=0
      WR6         REGSYM    ---      WORD      j
      00FF6397H   LINE      CODE     ---       #77
      00FF6397H   LINE      CODE     ---       #78
      00FF6397H   LINE      CODE     ---       #79
      00FF639BH   LINE      CODE     ---       #80
      00FF63A3H   LINE      CODE     ---       #81
      ---         BLOCKEND  ---      ---       LVL=0

      00FF6360H   BLOCK     CODE     ---       LVL=0
      00FF6360H   LINE      CODE     ---       #84
      00FF6360H   LINE      CODE     ---       #86
      00FF6362H   LINE      CODE     ---       #87
      00FF6364H   LINE      CODE     ---       #88
      00FF6367H   LINE      CODE     ---       #89
      00FF6369H   LINE      CODE     ---       #90
      00FF636CH   LINE      CODE     ---       #91
      00FF636EH   LINE      CODE     ---       #92
      ---         BLOCKEND  ---      ---       LVL=0

      00FF6321H   BLOCK     CODE     ---       LVL=0
      00FF6321H   LINE      CODE     ---       #95
      00FF6321H   LINE      CODE     ---       #97
      00FF6323H   LINE      CODE     ---       #98
      00FF6325H   LINE      CODE     ---       #99
      00FF6328H   LINE      CODE     ---       #100
      00FF632AH   LINE      CODE     ---       #101
      00FF632DH   LINE      CODE     ---       #102
      00FF632FH   LINE      CODE     ---       #103
      ---         BLOCKEND  ---      ---       LVL=0

      00FF61D6H   BLOCK     CODE     ---       LVL=0
      R15         REGSYM    ---      BYTE      ack_dat
      00FF61D6H   LINE      CODE     ---       #108
      00FF61DAH   LINE      CODE     ---       #110
      00FF61DCH   LINE      CODE     ---       #111
      00FF61DFH   LINE      CODE     ---       #112
      00FF61E7H   LINE      CODE     ---       #113
      00FF61E9H   LINE      CODE     ---       #115
      00FF61EBH   LINE      CODE     ---       #116
      00FF61EEH   LINE      CODE     ---       #117
      00FF61F0H   LINE      CODE     ---       #118
      00FF61F3H   LINE      CODE     ---       #119
      ---         BLOCKEND  ---      ---       LVL=0

L251 LINKER/LOCATER V4.66.93.0                                                        02/27/2024  23:09:55  PAGE 84


      00FF0066H   BLOCK     CODE     ---       LVL=0
      00FF0066H   LINE      CODE     ---       #122
      00FF0066H   LINE      CODE     ---       #124
      00FF0068H   LINE      CODE     ---       #126
      00FF006BH   LINE      CODE     ---       #128
      00FF006DH   LINE      CODE     ---       #129
      00FF0070H   LINE      CODE     ---       #131
      00FF0073H   LINE      CODE     ---       #134
      00FF0075H   LINE      CODE     ---       #135
      00FF0078H   LINE      CODE     ---       #136
      00FF0078H   LINE      CODE     ---       #138
      00FF007AH   LINE      CODE     ---       #139
      00FF007DH   LINE      CODE     ---       #140
      00FF0081H   LINE      CODE     ---       #141
      ---         BLOCKEND  ---      ---       LVL=0

      00FF5FD9H   BLOCK     CODE     ---       LVL=0
      R15         REGSYM    ---      BYTE      c
      00FF5FDDH   BLOCK     CODE     NEAR LAB  LVL=1
      R14         REGSYM    ---      BYTE      i
      ---         BLOCKEND  ---      ---       LVL=1
      00FF5FD9H   LINE      CODE     ---       #147
      00FF5FDDH   LINE      CODE     ---       #148
      00FF5FDDH   LINE      CODE     ---       #149
      00FF5FE0H   LINE      CODE     ---       #150
      00FF5FE2H   LINE      CODE     ---       #152
      00FF5FEBH   LINE      CODE     ---       #153
      00FF5FEDH   LINE      CODE     ---       #154
      00FF5FEFH   LINE      CODE     ---       #155
      00FF5FF2H   LINE      CODE     ---       #156
      00FF5FF4H   LINE      CODE     ---       #157
      00FF5FF7H   LINE      CODE     ---       #158
      00FF5FF9H   LINE      CODE     ---       #159
      00FF6001H   LINE      CODE     ---       #160
      00FF6004H   LINE      CODE     ---       #161
      ---         BLOCKEND  ---      ---       LVL=0

      00FF5D95H   BLOCK     CODE     ---       LVL=0
      R15         REGSYM    ---      BYTE      ack_x
      00FF5D9BH   BLOCK     CODE     NEAR LAB  LVL=1
      R13         REGSYM    ---      BYTE      i
      R14         REGSYM    ---      BYTE      c
      ---         BLOCKEND  ---      ---       LVL=1
      00FF5D95H   LINE      CODE     ---       #167
      00FF5D9BH   LINE      CODE     ---       #168
      00FF5D9BH   LINE      CODE     ---       #171
      00FF5D9DH   LINE      CODE     ---       #172
      00FF5D9FH   LINE      CODE     ---       #173
      00FF5DA2H   LINE      CODE     ---       #174
      00FF5DA4H   LINE      CODE     ---       #176
      00FF5DA7H   LINE      CODE     ---       #178
      00FF5DAAH   LINE      CODE     ---       #179
      00FF5DACH   LINE      CODE     ---       #180
      00FF5DAFH   LINE      CODE     ---       #181
      00FF5DB1H   LINE      CODE     ---       #182
      00FF5DB4H   LINE      CODE     ---       #183
      00FF5DB6H   LINE      CODE     ---       #184
      00FF5DB9H   LINE      CODE     ---       #186
      00FF5DBBH   LINE      CODE     ---       #187
      00FF5DBFH   LINE      CODE     ---       #190
      00FF5DC1H   LINE      CODE     ---       #191
      00FF5DC4H   LINE      CODE     ---       #192
      00FF5DC9H   LINE      CODE     ---       #194
      00FF5DCBH   LINE      CODE     ---       #195
      ---         BLOCKEND  ---      ---       LVL=0
L251 LINKER/LOCATER V4.66.93.0                                                        02/27/2024  23:09:55  PAGE 85



      00FF5E76H   BLOCK     CODE     ---       LVL=0
      00000217H   SYMBOL    EDATA    BYTE      dev_add
      00000218H   SYMBOL    EDATA    ---       dat
      DR12        REGSYM    ---      DWORD     len
      00FF5E76H   LINE      CODE     ---       #207
      00FF5E82H   LINE      CODE     ---       #209
      00FF5E85H   LINE      CODE     ---       #210
      00FF5E8BH   LINE      CODE     ---       #211
      00FF5E8DH   LINE      CODE     ---       #213
      00FF5E9DH   LINE      CODE     ---       #214
      00FF5EA5H   LINE      CODE     ---       #217
      00FF5EA8H   LINE      CODE     ---       #218
      ---         BLOCKEND  ---      ---       LVL=0

      00FF6194H   BLOCK     CODE     ---       LVL=0
      R13         REGSYM    ---      BYTE      dev_add
      R14         REGSYM    ---      BYTE      reg
      R15         REGSYM    ---      BYTE      dat
      00FF6194H   LINE      CODE     ---       #230
      00FF619CH   LINE      CODE     ---       #232
      00FF619FH   LINE      CODE     ---       #233
      00FF61A4H   LINE      CODE     ---       #234
      00FF61A9H   LINE      CODE     ---       #235
      00FF61AEH   LINE      CODE     ---       #236
      00FF61B1H   LINE      CODE     ---       #237
      ---         BLOCKEND  ---      ---       LVL=0

      00FF60D9H   BLOCK     CODE     ---       LVL=0
      R15         REGSYM    ---      BYTE      dev_add
      R14         REGSYM    ---      BYTE      reg
      00FF60DFH   BLOCK     CODE     NEAR LAB  LVL=1
      R15         REGSYM    ---      BYTE      dat
      ---         BLOCKEND  ---      ---       LVL=1
      00FF60D9H   LINE      CODE     ---       #248
      00FF60DFH   LINE      CODE     ---       #249
      00FF60DFH   LINE      CODE     ---       #251
      00FF60E2H   LINE      CODE     ---       #252
      00FF60E7H   LINE      CODE     ---       #253
      00FF60ECH   LINE      CODE     ---       #256
      00FF60EFH   LINE      CODE     ---       #257
      00FF60F8H   LINE      CODE     ---       #258
      00FF60FCH   LINE      CODE     ---       #259
      00FF60FFH   LINE      CODE     ---       #261
      00FF60FFH   LINE      CODE     ---       #262
      ---         BLOCKEND  ---      ---       LVL=0

      00FF5974H   BLOCK     CODE     ---       LVL=0
      0000021EH   SYMBOL    EDATA    BYTE      dev_add
      0000021FH   SYMBOL    EDATA    BYTE      reg
      REG=3       REGSYM    ---      ---       dat_add
      00000220H   SYMBOL    EDATA    DWORD     num
      00FF5974H   LINE      CODE     ---       #275
      00FF5980H   LINE      CODE     ---       #277
      00FF5983H   LINE      CODE     ---       #278
      00FF598CH   LINE      CODE     ---       #279
      00FF5993H   LINE      CODE     ---       #282
      00FF5996H   LINE      CODE     ---       #283
      00FF59A1H   LINE      CODE     ---       #284
      00FF59A3H   LINE      CODE     ---       #286
      00FF59ABH   LINE      CODE     ---       #287
      00FF59ADH   LINE      CODE     ---       #288
      00FF59BBH   LINE      CODE     ---       #289
      00FF59C2H   LINE      CODE     ---       #290
      00FF59C5H   LINE      CODE     ---       #291
L251 LINKER/LOCATER V4.66.93.0                                                        02/27/2024  23:09:55  PAGE 86


      ---         BLOCKEND  ---      ---       LVL=0

      00FF59C8H   BLOCK     CODE     ---       LVL=0
      000001E5H   SYMBOL    EDATA    BYTE      dev_add
      000001E6H   SYMBOL    EDATA    BYTE      reg
      REG=3       REGSYM    ---      ---       dat_add
      000001E7H   SYMBOL    EDATA    DWORD     num
      00FF59C8H   LINE      CODE     ---       #304
      00FF59D4H   LINE      CODE     ---       #306
      00FF59D7H   LINE      CODE     ---       #307
      00FF59E0H   LINE      CODE     ---       #308
      00FF59E7H   LINE      CODE     ---       #311
      00FF59EAH   LINE      CODE     ---       #312
      00FF59F5H   LINE      CODE     ---       #313
      00FF59F7H   LINE      CODE     ---       #315
      00FF59FFH   LINE      CODE     ---       #316
      00FF5A01H   LINE      CODE     ---       #317
      00FF5A0FH   LINE      CODE     ---       #318
      00FF5A16H   LINE      CODE     ---       #319
      00FF5A19H   LINE      CODE     ---       #320
      ---         BLOCKEND  ---      ---       LVL=0

      00FF4128H   BLOCK     CODE     ---       LVL=0
      000001F4H   SYMBOL    EDATA    ---       index
      REG=3       REGSYM    ---      ---       type_is_aperture
      00FF4130H   BLOCK     CODE     NEAR LAB  LVL=1
      000001F8H   SYMBOL    EDATA    BYTE      tmp
      000001F9H   SYMBOL    EDATA    BYTE      return_state
      000001FAH   SYMBOL    EDATA    WORD      loop_count
      ---         BLOCKEND  ---      ---       LVL=1
      00FF4128H   LINE      CODE     ---       #352
      00FF4130H   LINE      CODE     ---       #353
      00FF4130H   LINE      CODE     ---       #354
      00FF4135H   LINE      CODE     ---       #355
      00FF4139H   LINE      CODE     ---       #356
      00FF413FH   LINE      CODE     ---       #358
      00FF413FH   LINE      CODE     ---       #360
      00FF414AH   LINE      CODE     ---       #361
      00FF4155H   LINE      CODE     ---       #362
      00FF415EH   LINE      CODE     ---       #364
      00FF4169H   LINE      CODE     ---       #365
      00FF417DH   LINE      CODE     ---       #366
      00FF418CH   LINE      CODE     ---       #367
      00FF4197H   LINE      CODE     ---       #368
      00FF41A2H   LINE      CODE     ---       #370
      00FF41ADH   LINE      CODE     ---       #372
      00FF41B8H   LINE      CODE     ---       #373
      00FF41C2H   LINE      CODE     ---       #375
      00FF41C7H   LINE      CODE     ---       #376
      00FF41C9H   LINE      CODE     ---       #378
      00FF41DDH   LINE      CODE     ---       #379
      00FF41E7H   LINE      CODE     ---       #380
      00FF41F1H   LINE      CODE     ---       #382
      00FF41F7H   LINE      CODE     ---       #383
      00FF41F9H   LINE      CODE     ---       #384
      00FF4200H   LINE      CODE     ---       #387
      00FF4209H   LINE      CODE     ---       #389
      00FF4209H   LINE      CODE     ---       #390
      00FF4209H   LINE      CODE     ---       #391
      00FF4214H   LINE      CODE     ---       #392
      00FF4228H   LINE      CODE     ---       #394
      00FF4235H   LINE      CODE     ---       #395
      00FF423FH   LINE      CODE     ---       #397
      00FF4249H   LINE      CODE     ---       #398
      00FF4254H   LINE      CODE     ---       #399
L251 LINKER/LOCATER V4.66.93.0                                                        02/27/2024  23:09:55  PAGE 87


      00FF4268H   LINE      CODE     ---       #400
      00FF4274H   LINE      CODE     ---       #401
      00FF427FH   LINE      CODE     ---       #402
      00FF4289H   LINE      CODE     ---       #404
      00FF4293H   LINE      CODE     ---       #405
      00FF429DH   LINE      CODE     ---       #406
      00FF429DH   LINE      CODE     ---       #408
      00FF42A1H   LINE      CODE     ---       #409
      ---         BLOCKEND  ---      ---       LVL=0

      00FF5CDEH   BLOCK     CODE     ---       LVL=0
      WR30        REGSYM    ---      WORD      timeout_period_mclks
      R5          REGSYM    ---      BYTE      vcsel_period_pclks
      00FF5CE0H   BLOCK     CODE     NEAR LAB  LVL=1
      DR24        REGSYM    ---      DWORD     macro_period_ns
      ---         BLOCKEND  ---      ---       LVL=1
      00FF5CDEH   LINE      CODE     ---       #419
      00FF5CE0H   LINE      CODE     ---       #420
      00FF5CE0H   LINE      CODE     ---       #421
      00FF5D01H   LINE      CODE     ---       #423
      ---         BLOCKEND  ---      ---       LVL=0

      00FF5D59H   BLOCK     CODE     ---       LVL=0
      DR28        REGSYM    ---      DWORD     timeout_period_us
      R3          REGSYM    ---      BYTE      vcsel_period_pclks
      00FF5D5BH   BLOCK     CODE     NEAR LAB  LVL=1
      DR8         REGSYM    ---      DWORD     macro_period_ns
      ---         BLOCKEND  ---      ---       LVL=1
      00FF5D59H   LINE      CODE     ---       #434
      00FF5D5BH   LINE      CODE     ---       #435
      00FF5D5BH   LINE      CODE     ---       #436
      00FF5D7CH   LINE      CODE     ---       #438
      ---         BLOCKEND  ---      ---       LVL=0

      00FF6332H   BLOCK     CODE     ---       LVL=0
      WR4         REGSYM    ---      WORD      reg_val
      00FF6332H   LINE      CODE     ---       #448
      00FF6334H   LINE      CODE     ---       #451
      00FF6341H   LINE      CODE     ---       #453
      ---         BLOCKEND  ---      ---       LVL=0

      00FF5EABH   BLOCK     CODE     ---       LVL=0
      WR2         REGSYM    ---      WORD      timeout_mclks
      00FF5EADH   BLOCK     CODE     NEAR LAB  LVL=1
      DR8         REGSYM    ---      DWORD     ls_byte
      WR4         REGSYM    ---      WORD      ms_byte
      WR6         REGSYM    ---      WORD      return_data
      ---         BLOCKEND  ---      ---       LVL=1
      00FF5EABH   LINE      CODE     ---       #462
      00FF5EADH   LINE      CODE     ---       #463
      00FF5EADH   LINE      CODE     ---       #464
      00FF5EADH   LINE      CODE     ---       #465
      00FF5EB1H   LINE      CODE     ---       #466
      00FF5EB1H   LINE      CODE     ---       #468
      00FF5EB7H   LINE      CODE     ---       #471
      00FF5EBDH   LINE      CODE     ---       #472
      00FF5EBFH   LINE      CODE     ---       #474
      00FF5EC8H   LINE      CODE     ---       #475
      00FF5ECAH   LINE      CODE     ---       #476
      00FF5ED4H   LINE      CODE     ---       #477
      00FF5EDEH   LINE      CODE     ---       #478
      00FF5EDEH   LINE      CODE     ---       #479
      00FF5EDEH   LINE      CODE     ---       #480
      ---         BLOCKEND  ---      ---       LVL=0

L251 LINKER/LOCATER V4.66.93.0                                                        02/27/2024  23:09:55  PAGE 88


      00FF5874H   BLOCK     CODE     ---       LVL=0
      REG=3       REGSYM    ---      ---       enables
      00FF5878H   BLOCK     CODE     NEAR LAB  LVL=1
      00000217H   SYMBOL    EDATA    BYTE      sequence_config
      ---         BLOCKEND  ---      ---       LVL=1
      00FF5874H   LINE      CODE     ---       #489
      00FF5878H   LINE      CODE     ---       #490
      00FF5878H   LINE      CODE     ---       #491
      00FF587DH   LINE      CODE     ---       #492
      00FF588EH   LINE      CODE     ---       #494
      00FF5898H   LINE      CODE     ---       #495
      00FF58A4H   LINE      CODE     ---       #496
      00FF58B2H   LINE      CODE     ---       #497
      00FF58BEH   LINE      CODE     ---       #498
      00FF58C9H   LINE      CODE     ---       #499
      ---         BLOCKEND  ---      ---       LVL=0

      00FF5ABAH   BLOCK     CODE     ---       LVL=0
      WR6         REGSYM    ---      INT       type
      0000021DH   SYMBOL    EDATA    BYTE      data_buffer
      00FF5ABAH   LINE      CODE     ---       #508
      00FF5ABAH   LINE      CODE     ---       #509
      00FF5ABAH   LINE      CODE     ---       #510
      00FF5ABFH   LINE      CODE     ---       #511
      00FF5AC3H   LINE      CODE     ---       #513
      00FF5AD0H   LINE      CODE     ---       #514
      00FF5AD0H   LINE      CODE     ---       #515
      00FF5AD2H   LINE      CODE     ---       #516
      00FF5AD8H   LINE      CODE     ---       #518
      00FF5AECH   LINE      CODE     ---       #519
      00FF5AFAH   LINE      CODE     ---       #520
      00FF5AFCH   LINE      CODE     ---       #523
      00FF5B02H   LINE      CODE     ---       #524
      00FF5B02H   LINE      CODE     ---       #525
      00FF5B06H   LINE      CODE     ---       #526
      ---         BLOCKEND  ---      ---       LVL=0

      00FF4ADEH   BLOCK     CODE     ---       LVL=0
      00000217H   SYMBOL    EDATA    ---       enables
      REG=3       REGSYM    ---      ---       timeouts
      00FF4AE6H   BLOCK     CODE     NEAR LAB  LVL=1
      0000021BH   SYMBOL    EDATA    ---       reg_buffer
      WR6         REGSYM    ---      WORD      reg16_buffer
      ---         BLOCKEND  ---      ---       LVL=1
      00FF4ADEH   LINE      CODE     ---       #536
      00FF4AE6H   LINE      CODE     ---       #537
      00FF4AE6H   LINE      CODE     ---       #539
      00FF4AE6H   LINE      CODE     ---       #541
      00FF4AF0H   LINE      CODE     ---       #543
      00FF4B04H   LINE      CODE     ---       #544
      00FF4B10H   LINE      CODE     ---       #545
      00FF4B1EH   LINE      CODE     ---       #547
      00FF4B32H   LINE      CODE     ---       #548
      00FF4B3EH   LINE      CODE     ---       #549
      00FF4B45H   LINE      CODE     ---       #550
      00FF4B53H   LINE      CODE     ---       #552
      00FF4B60H   LINE      CODE     ---       #554
      00FF4B74H   LINE      CODE     ---       #555
      00FF4B80H   LINE      CODE     ---       #556
      00FF4B87H   LINE      CODE     ---       #558
      00FF4B91H   LINE      CODE     ---       #560
      00FF4BA3H   LINE      CODE     ---       #561
      00FF4BA3H   LINE      CODE     ---       #563
      00FF4BB6H   LINE      CODE     ---       #564
      ---         BLOCKEND  ---      ---       LVL=0
L251 LINKER/LOCATER V4.66.93.0                                                        02/27/2024  23:09:55  PAGE 89



      00FF541DH   BLOCK     CODE     ---       LVL=0
      R10         REGSYM    ---      BYTE      vhv_init_byte
      00FF5421H   BLOCK     CODE     NEAR LAB  LVL=1
      R15         REGSYM    ---      BYTE      return_state
      000001F4H   SYMBOL    EDATA    BYTE      data_buffer
      000001F5H   SYMBOL    EDATA    WORD      loop_count
      ---         BLOCKEND  ---      ---       LVL=1
      00FF541DH   LINE      CODE     ---       #573
      00FF5421H   LINE      CODE     ---       #574
      00FF5421H   LINE      CODE     ---       #575
      00FF5423H   LINE      CODE     ---       #576
      00FF5428H   LINE      CODE     ---       #577
      00FF542EH   LINE      CODE     ---       #578
      00FF542EH   LINE      CODE     ---       #580
      00FF5438H   LINE      CODE     ---       #581
      00FF5438H   LINE      CODE     ---       #582
      00FF543AH   LINE      CODE     ---       #584
      00FF5444H   LINE      CODE     ---       #586
      00FF5447H   LINE      CODE     ---       #587
      00FF5449H   LINE      CODE     ---       #588
      00FF5449H   LINE      CODE     ---       #589
      00FF545BH   LINE      CODE     ---       #591
      00FF546FH   LINE      CODE     ---       #592
      00FF5477H   LINE      CODE     ---       #594
      00FF547BH   LINE      CODE     ---       #596
      00FF547BH   LINE      CODE     ---       #597
      00FF547BH   LINE      CODE     ---       #598
      00FF5486H   LINE      CODE     ---       #599
      00FF548FH   LINE      CODE     ---       #600
      00FF548FH   LINE      CODE     ---       #602
      00FF5491H   LINE      CODE     ---       #603
      ---         BLOCKEND  ---      ---       LVL=0

      00FF491AH   BLOCK     CODE     ---       LVL=0
      DR12        REGSYM    ---      DWORD     budget_us
      00FF491EH   BLOCK     CODE     NEAR LAB  LVL=1
      000001F4H   SYMBOL    EDATA    BYTE      return_state
      000001F5H   SYMBOL    EDATA    ---       data_buffer
      WR6         REGSYM    ---      WORD      dat
      000001F8H   SYMBOL    EDATA    DWORD     used_budget_us
      DR4         REGSYM    ---      DWORD     final_range_timeout_us
      WR6         REGSYM    ---      WORD      final_range_timeout_mclks
      000001FCH   SYMBOL    EDATA    ---       enables
      00000201H   SYMBOL    EDATA    ---       timeouts
      ---         BLOCKEND  ---      ---       LVL=1
      00FF491AH   LINE      CODE     ---       #616
      00FF491EH   LINE      CODE     ---       #617
      00FF491EH   LINE      CODE     ---       #618
      00FF4923H   LINE      CODE     ---       #620
      00FF4923H   LINE      CODE     ---       #628
      00FF4923H   LINE      CODE     ---       #630
      00FF4929H   LINE      CODE     ---       #632
      00FF4929H   LINE      CODE     ---       #633
      00FF492CH   LINE      CODE     ---       #634
      00FF492CH   LINE      CODE     ---       #636
      00FF4934H   LINE      CODE     ---       #637
      00FF493BH   LINE      CODE     ---       #638
      00FF4946H   LINE      CODE     ---       #640
      00FF494CH   LINE      CODE     ---       #642
      00FF495CH   LINE      CODE     ---       #643
      00FF495CH   LINE      CODE     ---       #645
      00FF4962H   LINE      CODE     ---       #647
      00FF496EH   LINE      CODE     ---       #648
      00FF4970H   LINE      CODE     ---       #649
L251 LINKER/LOCATER V4.66.93.0                                                        02/27/2024  23:09:55  PAGE 90


      00FF4976H   LINE      CODE     ---       #651
      00FF4988H   LINE      CODE     ---       #652
      00FF4988H   LINE      CODE     ---       #654
      00FF498EH   LINE      CODE     ---       #656
      00FF49A0H   LINE      CODE     ---       #657
      00FF49A0H   LINE      CODE     ---       #659
      00FF49A6H   LINE      CODE     ---       #664
      00FF49B2H   LINE      CODE     ---       #665
      00FF49BAH   LINE      CODE     ---       #668
      00FF49C0H   LINE      CODE     ---       #669
      00FF49C2H   LINE      CODE     ---       #670
      00FF49C2H   LINE      CODE     ---       #675
      00FF49C6H   LINE      CODE     ---       #676
      00FF49CDH   LINE      CODE     ---       #680
      00FF49D3H   LINE      CODE     ---       #682
      00FF49D9H   LINE      CODE     ---       #683
      00FF49D9H   LINE      CODE     ---       #685
      00FF49DCH   LINE      CODE     ---       #686
      00FF49E2H   LINE      CODE     ---       #687
      00FF49E6H   LINE      CODE     ---       #688
      00FF49EAH   LINE      CODE     ---       #689
      00FF49F7H   LINE      CODE     ---       #690
      00FF49F7H   LINE      CODE     ---       #692
      00FF49FBH   LINE      CODE     ---       #693
      ---         BLOCKEND  ---      ---       LVL=0

      00FF5494H   BLOCK     CODE     ---       LVL=0
      00FF5496H   BLOCK     CODE     NEAR LAB  LVL=1
      000001F4H   SYMBOL    EDATA    ---       enables
      000001F9H   SYMBOL    EDATA    ---       timeouts
      DR12        REGSYM    ---      DWORD     budget_us
      ---         BLOCKEND  ---      ---       LVL=1
      00FF5494H   LINE      CODE     ---       #702
      00FF5496H   LINE      CODE     ---       #703
      00FF5496H   LINE      CODE     ---       #708
      00FF549AH   LINE      CODE     ---       #710
      00FF54A1H   LINE      CODE     ---       #711
      00FF54ACH   LINE      CODE     ---       #713
      00FF54B2H   LINE      CODE     ---       #715
      00FF54BEH   LINE      CODE     ---       #716
      00FF54BEH   LINE      CODE     ---       #718
      00FF54C4H   LINE      CODE     ---       #720
      00FF54D0H   LINE      CODE     ---       #721
      00FF54D2H   LINE      CODE     ---       #722
      00FF54D8H   LINE      CODE     ---       #724
      00FF54E2H   LINE      CODE     ---       #725
      00FF54E2H   LINE      CODE     ---       #727
      00FF54E8H   LINE      CODE     ---       #729
      00FF54F2H   LINE      CODE     ---       #730
      00FF54F2H   LINE      CODE     ---       #732
      00FF54F8H   LINE      CODE     ---       #734
      00FF5502H   LINE      CODE     ---       #735
      00FF5502H   LINE      CODE     ---       #737
      00FF5504H   LINE      CODE     ---       #738
      ---         BLOCKEND  ---      ---       LVL=0

      00FF6102H   BLOCK     CODE     ---       LVL=0
      DR4         REGSYM    ---      FLOAT     limit_mcps
      000001F4H   SYMBOL    EDATA    ---       data_buffer
      WR6         REGSYM    ---      WORD      limit_mcps_16bit
      00FF6102H   LINE      CODE     ---       #751
      00FF6102H   LINE      CODE     ---       #752
      00FF6102H   LINE      CODE     ---       #754
      00FF610EH   LINE      CODE     ---       #758
      00FF6114H   LINE      CODE     ---       #759
L251 LINKER/LOCATER V4.66.93.0                                                        02/27/2024  23:09:55  PAGE 91


      00FF6118H   LINE      CODE     ---       #760
      00FF611CH   LINE      CODE     ---       #762
      ---         BLOCKEND  ---      ---       LVL=0

      00FF5763H   BLOCK     CODE     ---       LVL=0
      000001E2H   SYMBOL    EDATA    ---       reg_databuffer
      00FF5763H   LINE      CODE     ---       #772
      00FF5763H   LINE      CODE     ---       #773
      00FF5763H   LINE      CODE     ---       #776
      00FF5777H   LINE      CODE     ---       #777
      00FF577FH   LINE      CODE     ---       #779
      00FF5780H   LINE      CODE     ---       #780
      00FF5782H   LINE      CODE     ---       #784
      00FF5796H   LINE      CODE     ---       #785
      00FF57A0H   LINE      CODE     ---       #786
      00FF57AEH   LINE      CODE     ---       #788
      00FF57B9H   LINE      CODE     ---       #789
      00FF57BFH   LINE      CODE     ---       #790
      00FF57BFH   LINE      CODE     ---       #791
      ---         BLOCKEND  ---      ---       LVL=0

      00FF229EH   BLOCK     CODE     ---       LVL=0
      00FF22A2H   BLOCK     CODE     NEAR LAB  LVL=1
      000001E2H   SYMBOL    EDATA    DWORD     measurement_timing_budget_us
      000001E6H   SYMBOL    EDATA    BYTE      stop_variable
      R15         REGSYM    ---      BYTE      return_state
      R14         REGSYM    ---      BYTE      reg_data_buffer
      000001E7H   SYMBOL    EDATA    ---       ref_spad_map
      000001EDH   SYMBOL    EDATA    ---       data_buffer
      R13         REGSYM    ---      BYTE      i
      ---         BLOCKEND  ---      ---       LVL=1
      00FF229EH   LINE      CODE     ---       #800
      00FF22A2H   LINE      CODE     ---       #801
      00FF22A2H   LINE      CODE     ---       #802
      00FF22A2H   LINE      CODE     ---       #803
      00FF22A7H   LINE      CODE     ---       #804
      00FF22A9H   LINE      CODE     ---       #805
      00FF22A9H   LINE      CODE     ---       #808
      00FF22A9H   LINE      CODE     ---       #810
      00FF22B4H   LINE      CODE     ---       #811
      00FF22C0H   LINE      CODE     ---       #815
      00FF22C0H   LINE      CODE     ---       #817
      00FF22C7H   LINE      CODE     ---       #818
      00FF22C9H   LINE      CODE     ---       #819
      00FF22D0H   LINE      CODE     ---       #820
      00FF22D2H   LINE      CODE     ---       #821
      00FF22D9H   LINE      CODE     ---       #824
      00FF22E3H   LINE      CODE     ---       #825
      00FF22F0H   LINE      CODE     ---       #827
      00FF22FAH   LINE      CODE     ---       #829
      00FF2305H   LINE      CODE     ---       #830
      00FF2310H   LINE      CODE     ---       #831
      00FF2319H   LINE      CODE     ---       #833
      00FF232DH   LINE      CODE     ---       #835
      00FF2337H   LINE      CODE     ---       #836
      00FF2341H   LINE      CODE     ---       #837
      00FF234BH   LINE      CODE     ---       #840
      00FF2355H   LINE      CODE     ---       #841
      00FF2362H   LINE      CODE     ---       #843
      00FF236BH   LINE      CODE     ---       #844
      00FF2376H   LINE      CODE     ---       #848
      00FF2383H   LINE      CODE     ---       #850
      00FF2386H   LINE      CODE     ---       #855
      00FF2391H   LINE      CODE     ---       #856
      00FF2394H   LINE      CODE     ---       #857
L251 LINKER/LOCATER V4.66.93.0                                                        02/27/2024  23:09:55  PAGE 92


      00FF2394H   LINE      CODE     ---       #860
      00FF23A8H   LINE      CODE     ---       #862
      00FF23B3H   LINE      CODE     ---       #863
      00FF23BDH   LINE      CODE     ---       #864
      00FF23C8H   LINE      CODE     ---       #865
      00FF23D2H   LINE      CODE     ---       #866
      00FF23DDH   LINE      CODE     ---       #868
      00FF23EEH   LINE      CODE     ---       #869
      00FF23F0H   LINE      CODE     ---       #871
      00FF2402H   LINE      CODE     ---       #876
      00FF2430H   LINE      CODE     ---       #877
      00FF2432H   LINE      CODE     ---       #878
      00FF2455H   LINE      CODE     ---       #880
      00FF245EH   LINE      CODE     ---       #881
      00FF2465H   LINE      CODE     ---       #884
      00FF246BH   LINE      CODE     ---       #885
      00FF246EH   LINE      CODE     ---       #887
      00FF2478H   LINE      CODE     ---       #888
      00FF247FH   LINE      CODE     ---       #889
      00FF248CH   LINE      CODE     ---       #892
      00FF2497H   LINE      CODE     ---       #893
      00FF24A0H   LINE      CODE     ---       #894
      00FF24AAH   LINE      CODE     ---       #895
      00FF24B4H   LINE      CODE     ---       #896
      00FF24BEH   LINE      CODE     ---       #897
      00FF24C8H   LINE      CODE     ---       #898
      00FF24D3H   LINE      CODE     ---       #899
      00FF24DEH   LINE      CODE     ---       #900
      00FF24E8H   LINE      CODE     ---       #901
      00FF24F3H   LINE      CODE     ---       #902
      00FF24FEH   LINE      CODE     ---       #903
      00FF2508H   LINE      CODE     ---       #904
      00FF2513H   LINE      CODE     ---       #905
      00FF251DH   LINE      CODE     ---       #906
      00FF2528H   LINE      CODE     ---       #907
      00FF2532H   LINE      CODE     ---       #908
      00FF253DH   LINE      CODE     ---       #909
      00FF2548H   LINE      CODE     ---       #910
      00FF2553H   LINE      CODE     ---       #911
      00FF255EH   LINE      CODE     ---       #912
      00FF2568H   LINE      CODE     ---       #913
      00FF2572H   LINE      CODE     ---       #914
      00FF257DH   LINE      CODE     ---       #915
      00FF2587H   LINE      CODE     ---       #916
      00FF2592H   LINE      CODE     ---       #917
      00FF259DH   LINE      CODE     ---       #918
      00FF25A8H   LINE      CODE     ---       #919
      00FF25B2H   LINE      CODE     ---       #920
      00FF25BCH   LINE      CODE     ---       #921
      00FF25C6H   LINE      CODE     ---       #922
      00FF25D0H   LINE      CODE     ---       #923
      00FF25DBH   LINE      CODE     ---       #924
      00FF25E6H   LINE      CODE     ---       #925
      00FF25F1H   LINE      CODE     ---       #926
      00FF25FCH   LINE      CODE     ---       #927
      00FF2607H   LINE      CODE     ---       #928
      00FF2611H   LINE      CODE     ---       #929
      00FF261BH   LINE      CODE     ---       #930
      00FF2626H   LINE      CODE     ---       #931
      00FF2630H   LINE      CODE     ---       #932
      00FF263BH   LINE      CODE     ---       #933
      00FF2646H   LINE      CODE     ---       #934
      00FF2651H   LINE      CODE     ---       #935
      00FF265BH   LINE      CODE     ---       #936
      00FF2666H   LINE      CODE     ---       #937
L251 LINKER/LOCATER V4.66.93.0                                                        02/27/2024  23:09:55  PAGE 93


      00FF2671H   LINE      CODE     ---       #938
      00FF267CH   LINE      CODE     ---       #939
      00FF2687H   LINE      CODE     ---       #940
      00FF2692H   LINE      CODE     ---       #941
      00FF269DH   LINE      CODE     ---       #942
      00FF26A8H   LINE      CODE     ---       #943
      00FF26B2H   LINE      CODE     ---       #944
      00FF26BDH   LINE      CODE     ---       #945
      00FF26C8H   LINE      CODE     ---       #946
      00FF26D3H   LINE      CODE     ---       #947
      00FF26DEH   LINE      CODE     ---       #948
      00FF26E9H   LINE      CODE     ---       #949
      00FF26F4H   LINE      CODE     ---       #950
      00FF26FFH   LINE      CODE     ---       #951
      00FF2709H   LINE      CODE     ---       #952
      00FF2713H   LINE      CODE     ---       #953
      00FF271EH   LINE      CODE     ---       #954
      00FF2729H   LINE      CODE     ---       #955
      00FF2734H   LINE      CODE     ---       #956
      00FF273EH   LINE      CODE     ---       #957
      00FF2749H   LINE      CODE     ---       #958
      00FF2754H   LINE      CODE     ---       #959
      00FF275FH   LINE      CODE     ---       #960
      00FF2769H   LINE      CODE     ---       #961
      00FF2773H   LINE      CODE     ---       #962
      00FF277EH   LINE      CODE     ---       #963
      00FF2789H   LINE      CODE     ---       #964
      00FF2793H   LINE      CODE     ---       #965
      00FF279EH   LINE      CODE     ---       #966
      00FF27A9H   LINE      CODE     ---       #967
      00FF27B4H   LINE      CODE     ---       #968
      00FF27BFH   LINE      CODE     ---       #969
      00FF27C9H   LINE      CODE     ---       #970
      00FF27D3H   LINE      CODE     ---       #971
      00FF27DDH   LINE      CODE     ---       #974
      00FF27E8H   LINE      CODE     ---       #975
      00FF27F2H   LINE      CODE     ---       #976
      00FF27FFH   LINE      CODE     ---       #977
      00FF280AH   LINE      CODE     ---       #979
      00FF2811H   LINE      CODE     ---       #984
      00FF281CH   LINE      CODE     ---       #985
      00FF2823H   LINE      CODE     ---       #988
      00FF282EH   LINE      CODE     ---       #989
      00FF2835H   LINE      CODE     ---       #991
      00FF2835H   LINE      CODE     ---       #992
      00FF2837H   LINE      CODE     ---       #993
      00FF2837H   LINE      CODE     ---       #994
      00FF2842H   LINE      CODE     ---       #995
      00FF2848H   LINE      CODE     ---       #997
      00FF284BH   LINE      CODE     ---       #998
      00FF284DH   LINE      CODE     ---       #999
      00FF284DH   LINE      CODE     ---       #1000
      00FF2858H   LINE      CODE     ---       #1002
      00FF285FH   LINE      CODE     ---       #1004
      00FF286AH   LINE      CODE     ---       #1005
      00FF2875H   LINE      CODE     ---       #1006
      00FF287EH   LINE      CODE     ---       #1007
      00FF288AH   LINE      CODE     ---       #1008
      00FF2894H   LINE      CODE     ---       #1009
      00FF289EH   LINE      CODE     ---       #1010
      00FF28A8H   LINE      CODE     ---       #1012
      00FF28B2H   LINE      CODE     ---       #1013
      00FF28B2H   LINE      CODE     ---       #1015
      00FF28B4H   LINE      CODE     ---       #1016
      ---         BLOCKEND  ---      ---       LVL=0
L251 LINKER/LOCATER V4.66.93.0                                                        02/27/2024  23:09:55  PAGE 94



      ---         MODULE    ---      ---       Element
      00FF5B51H   PUBLIC    CODE     ---       Elem_Up_Down
      00FF4BB9H   PUBLIC    CODE     ---       Elem_Barrier
      00FF43EFH   PUBLIC    CODE     ---       Elem_Circle_L
      00FF4519H   PUBLIC    CODE     ---       Elem_Circle_R
      000004D1H   PUBLIC    EDATA    FLOAT     Sum_Angle
      000004D5H   PUBLIC    EDATA    CHAR      Up_Down_Flag
      000004D6H   PUBLIC    EDATA    CHAR      circle_flag_L
      000004D7H   PUBLIC    EDATA    CHAR      circle_Force_Flag
      000004D8H   PUBLIC    EDATA    CHAR      circle_flag_R
      000004D9H   PUBLIC    EDATA    CHAR      Barrier_Flag1
      000004DAH   PUBLIC    EDATA    CHAR      Barrier_Flag2
      000004DBH   PUBLIC    EDATA    CHAR      Barrier_Flag3
      000004DCH   PUBLIC    EDATA    CHAR      Barrier_Flag4
      000004DDH   PUBLIC    EDATA    CHAR      Barrier_Executed
      000004DEH   PUBLIC    EDATA    CHAR      circle_In_Flag
      000004DFH   PUBLIC    EDATA    CHAR      circle_Out_Flag
      000000D0H   SFRSYM    DATA     BYTE      PSW
      000000B7H   SFRSYM    DATA     BYTE      IPH
      00000088H   SFRSYM    DATA     BYTE      TCON
      00000098H   SFRSYM    DATA     BYTE      SCON
      000000BCH   SFRSYM    DATA     BYTE      ADC_CONTR
      000000DEH   SFRSYM    DATA     BYTE      ADCCFG
      000000B8H   SFRSYM    DATA     BYTE      IP
      000000A8H   SFRSYM    DATA     BYTE      IE
      000000F8H   SFRSYM    DATA     BYTE      P7
      000000E8H   SFRSYM    DATA     BYTE      P6
      000000C8H   SFRSYM    DATA     BYTE      P5
      000000C0H   SFRSYM    DATA     BYTE      P4
      000000B0H   SFRSYM    DATA     BYTE      P3
      000000A0H   SFRSYM    DATA     BYTE      P2
      00000090H   SFRSYM    DATA     BYTE      P1
      00000080H   SFRSYM    DATA     BYTE      P0

      00FF5B51H   BLOCK     CODE     ---       LVL=0
      DR12        REGSYM    ---      FLOAT     Angle
      DR0         REGSYM    ---      FLOAT     Gyro
      00FF5B51H   LINE      CODE     ---       #35
      00FF5B55H   LINE      CODE     ---       #37
      00FF5B65H   LINE      CODE     ---       #39
      00FF5B7CH   LINE      CODE     ---       #41
      ---         BLOCKEND  ---      ---       LVL=0

      00FF4BB9H   BLOCK     CODE     ---       LVL=0
      DR28        REGSYM    ---      FLOAT     Gyro_Z
      00FF4BB9H   LINE      CODE     ---       #46
      00FF4BBBH   LINE      CODE     ---       #48
      00FF4BC7H   LINE      CODE     ---       #50
      00FF4BC7H   LINE      CODE     ---       #51
      00FF4BC7H   LINE      CODE     ---       #52
      00FF4BDDH   LINE      CODE     ---       #53
      00FF4BE4H   LINE      CODE     ---       #55
      00FF4BF0H   LINE      CODE     ---       #56
      00FF4C08H   LINE      CODE     ---       #58
      00FF4C08H   LINE      CODE     ---       #59
      00FF4C17H   LINE      CODE     ---       #61
      00FF4C1CH   LINE      CODE     ---       #62
      00FF4C22H   LINE      CODE     ---       #63
      00FF4C28H   LINE      CODE     ---       #64
      00FF4C28H   LINE      CODE     ---       #65
      00FF4C2FH   LINE      CODE     ---       #67
      00FF4C47H   LINE      CODE     ---       #68
      00FF4C56H   LINE      CODE     ---       #70
      00FF4C62H   LINE      CODE     ---       #71
L251 LINKER/LOCATER V4.66.93.0                                                        02/27/2024  23:09:55  PAGE 95


      00FF4C63H   LINE      CODE     ---       #72
      00FF4C65H   LINE      CODE     ---       #74
      00FF4C6BH   LINE      CODE     ---       #75
      00FF4C6BH   LINE      CODE     ---       #76
      00FF4C72H   LINE      CODE     ---       #78
      00FF4C78H   LINE      CODE     ---       #79
      00FF4C7EH   LINE      CODE     ---       #80
      00FF4C83H   LINE      CODE     ---       #81
      00FF4C87H   LINE      CODE     ---       #82
      00FF4C8BH   LINE      CODE     ---       #83
      00FF4C91H   LINE      CODE     ---       #84
      ---         BLOCKEND  ---      ---       LVL=0

      00FF4519H   BLOCK     CODE     ---       LVL=0
      DR24        REGSYM    ---      FLOAT     Speed
      DR28        REGSYM    ---      FLOAT     Gyro_Z
      00FF451DH   BLOCK     CODE     NEAR LAB  LVL=1
      000004E0H   SYMBOL    EDATA    FLOAT     Sum_Dis1
      000004E4H   SYMBOL    EDATA    FLOAT     Sum_Dis2
      000004E8H   SYMBOL    EDATA    FLOAT     Sum_Angle_C
      ---         BLOCKEND  ---      ---       LVL=1
      00FF4519H   LINE      CODE     ---       #88
      00FF451DH   LINE      CODE     ---       #89
      00FF451DH   LINE      CODE     ---       #93
      00FF4529H   LINE      CODE     ---       #95
      00FF4536H   LINE      CODE     ---       #96
      00FF4545H   LINE      CODE     ---       #98
      00FF455BH   LINE      CODE     ---       #99
      00FF4571H   LINE      CODE     ---       #101
      00FF4580H   LINE      CODE     ---       #103
      00FF4586H   LINE      CODE     ---       #104
      00FF458CH   LINE      CODE     ---       #105
      00FF458EH   LINE      CODE     ---       #107
      00FF459AH   LINE      CODE     ---       #108
      00FF459AH   LINE      CODE     ---       #109
      00FF45A1H   LINE      CODE     ---       #111
      00FF45B5H   LINE      CODE     ---       #112
      00FF45CBH   LINE      CODE     ---       #113
      00FF45DAH   LINE      CODE     ---       #114
      00FF45E0H   LINE      CODE     ---       #115
      00FF45E0H   LINE      CODE     ---       #116
      00FF45F8H   LINE      CODE     ---       #118
      00FF4605H   LINE      CODE     ---       #119
      00FF4616H   LINE      CODE     ---       #120
      00FF4623H   LINE      CODE     ---       #123
      00FF4629H   LINE      CODE     ---       #124
      00FF462EH   LINE      CODE     ---       #125
      00FF4632H   LINE      CODE     ---       #126
      00FF4636H   LINE      CODE     ---       #127
      00FF463AH   LINE      CODE     ---       #128
      00FF463EH   LINE      CODE     ---       #129
      00FF4642H   LINE      CODE     ---       #130
      00FF4642H   LINE      CODE     ---       #131
      00FF4642H   LINE      CODE     ---       #133
      ---         BLOCKEND  ---      ---       LVL=0

      00FF43EFH   BLOCK     CODE     ---       LVL=0
      DR24        REGSYM    ---      FLOAT     Speed
      DR28        REGSYM    ---      FLOAT     Gyro_Z
      00FF43F3H   BLOCK     CODE     NEAR LAB  LVL=1
      000004ECH   SYMBOL    EDATA    FLOAT     Sum_Dis1
      000004F0H   SYMBOL    EDATA    FLOAT     Sum_Dis2
      000004F4H   SYMBOL    EDATA    FLOAT     Sum_Angle_C
      ---         BLOCKEND  ---      ---       LVL=1
      00FF43EFH   LINE      CODE     ---       #140
L251 LINKER/LOCATER V4.66.93.0                                                        02/27/2024  23:09:55  PAGE 96


      00FF43F3H   LINE      CODE     ---       #141
      00FF43F3H   LINE      CODE     ---       #145
      00FF43FFH   LINE      CODE     ---       #147
      00FF440CH   LINE      CODE     ---       #148
      00FF441BH   LINE      CODE     ---       #150
      00FF4431H   LINE      CODE     ---       #151
      00FF4447H   LINE      CODE     ---       #153
      00FF4456H   LINE      CODE     ---       #155
      00FF445CH   LINE      CODE     ---       #156
      00FF4462H   LINE      CODE     ---       #157
      00FF4464H   LINE      CODE     ---       #159
      00FF4470H   LINE      CODE     ---       #160
      00FF4470H   LINE      CODE     ---       #161
      00FF4477H   LINE      CODE     ---       #163
      00FF448BH   LINE      CODE     ---       #164
      00FF44A1H   LINE      CODE     ---       #165
      00FF44B0H   LINE      CODE     ---       #166
      00FF44B6H   LINE      CODE     ---       #167
      00FF44B6H   LINE      CODE     ---       #168
      00FF44CEH   LINE      CODE     ---       #170
      00FF44DBH   LINE      CODE     ---       #171
      00FF44ECH   LINE      CODE     ---       #172
      00FF44F9H   LINE      CODE     ---       #175
      00FF44FFH   LINE      CODE     ---       #176
      00FF4504H   LINE      CODE     ---       #177
      00FF4508H   LINE      CODE     ---       #178
      00FF450CH   LINE      CODE     ---       #179
      00FF4510H   LINE      CODE     ---       #180
      00FF4514H   LINE      CODE     ---       #181
      00FF4518H   LINE      CODE     ---       #182
      00FF4518H   LINE      CODE     ---       #183
      00FF4518H   LINE      CODE     ---       #185
      ---         BLOCKEND  ---      ---       LVL=0

      ---         MODULE    ---      ---       ?C?FPADD
      00FF0EB4H   PUBLIC    CODE     ---       ?C?FPADD
      00FF0EB1H   PUBLIC    CODE     ---       ?C?FPSUB

      ---         MODULE    ---      ---       ?C?FPMUL
      00FF0F6CH   PUBLIC    CODE     ---       ?C?FPMUL

      ---         MODULE    ---      ---       ?C?FPDIV
      00FF100CH   PUBLIC    CODE     ---       ?C?FPDIV

      ---         MODULE    ---      ---       ?C?FPCMP
      00FF108FH   PUBLIC    CODE     ---       ?C?FPCMP
      00FF108DH   PUBLIC    CODE     ---       ?C?FPCMP3

      ---         MODULE    ---      ---       ?C?FPNEG
      00FF10D3H   PUBLIC    CODE     ---       ?C?FPNEG

      ---         MODULE    ---      ---       ?C?FCAST
      00FF10EBH   PUBLIC    CODE     NEAR LAB  ?C?FCASTC
      00FF10E6H   PUBLIC    CODE     NEAR LAB  ?C?FCASTI
      00FF10E1H   PUBLIC    CODE     NEAR LAB  ?C?FCASTL

      ---         MODULE    ---      ---       ?C?CASTF
      00FF111EH   PUBLIC    CODE     NEAR LAB  ?C?CASTF

      ---         MODULE    ---      ---       PRINTF
      0000021CH   PUBLIC    EDATA    ---       ?PRINTF?BYTE
      00FF115BH   PUBLIC    CODE     NEAR LAB  PRINTF

      ---         MODULE    ---      ---       ASIN?_
      00FF1187H   PUBLIC    CODE     ---       ASIN?_
L251 LINKER/LOCATER V4.66.93.0                                                        02/27/2024  23:09:55  PAGE 97



      ---         MODULE    ---      ---       atan2
      00FF5B96H   PUBLIC    CODE     ---       atan2?_

      ---         MODULE    ---      ---       ?C?FPGETOPN
      00FF11A7H   PUBLIC    CODE     ---       ?C?FPGETOPN2
      00FF11E4H   PUBLIC    CODE     ---       ?C?FPNANRESULT
      00FF11ECH   PUBLIC    CODE     ---       ?C?FPOVERFLOW
      00FF11C0H   PUBLIC    CODE     ---       ?C?FPRESULT
      00FF11D6H   PUBLIC    CODE     ---       ?C?FPRESULT2
      00FF11E9H   PUBLIC    CODE     ---       ?C?FPUNDERFLOW

      ---         MODULE    ---      ---       ?C?PRNFMT
      00FF1225H   PUBLIC    CODE     ---       ?C?PRNFMT

      ---         MODULE    ---      ---       SQRT?_
      00FF1634H   PUBLIC    CODE     ---       SQRT?_

      ---         MODULE    ---      ---       ATAN?_
      00FF16E4H   PUBLIC    CODE     ---       ATAN?_

      ---         MODULE    ---      ---       ?C?FPCONVERT
      00FF17C4H   PUBLIC    CODE     ---       ?C?FPCONVERT
      00FF187CH   PUBLIC    CODE     ---       ?C?FPROUND

      ---         MODULE    ---      ---       ?C?FPSERIES
      00FF18BFH   PUBLIC    CODE     ---       ?C?FP2SERIES
      00FF18C8H   PUBLIC    CODE     ---       ?C?FPSERIES

      ---         MODULE    ---      ---       ?C?FTNPWR
      00FF191CH   PUBLIC    CODE     ---       ?C?FTNPWR

      ---         MODULE    ---      ---       ?C_START
      00FF0000H   PUBLIC    CODE     ---       ?C?STARTUP
      00FF0000H   PUBLIC    CODE     ---       ?C_STARTUP

      ---         MODULE    ---      ---       ?C?INITEDATA
      00FF5C74H   PUBLIC    CODE     ---       ?C?INITEDATA

      ---         MODULE    ---      ---       ?C?SIDIV
      00FF1953H   PUBLIC    CODE     ---       ?C?SIDIV

      ---         MODULE    ---      ---       ?C?LMUL
      00FF1985H   PUBLIC    CODE     ---       ?C?LMUL

      ---         MODULE    ---      ---       ?C?LIMUL
      00FF1996H   PUBLIC    CODE     ---       ?C?LIMUL

      ---         MODULE    ---      ---       ?C?ULDIV
      00FF19A1H   PUBLIC    CODE     NEAR LAB  ?C?ULDIV
      00FF199FH   PUBLIC    CODE     NEAR LAB  ?C?ULIDIV

      ---         MODULE    ---      ---       ?C?SLDIV
      00FF19F2H   PUBLIC    CODE     NEAR LAB  ?C?SLDIV

      ---         MODULE    ---      ---       memcpy
      00FF6129H   PUBLIC    CODE     ---       memcpy?_

      ---         MODULE    ---      ---       memset
      00FF6232H   PUBLIC    CODE     ---       memset?_

      ---         MODULE    ---      ---       ?C?INITEDATA_END
      00FF6532H   PUBLIC    HCONST   WORD      ?C?INITEDATA_END

Program Size: data=8.0 edata+hdata=1576 xdata=0 const=426 code=25593
L251 LINKER/LOCATER V4.66.93.0                                                        02/27/2024  23:09:55  PAGE 98


L251 RUN COMPLETE.  0 WARNING(S),  0 ERROR(S)
