L251 LINKER/LOCATER V4.66.93.0                                                          03/21/2024  17:39:21  PAGE 1


L251 LINKER/LOCATER V4.66.93.0, INVOKED BY:
D:\KEIL5\KEIL5_MDK\KEIL5_MDK_32\C251\BIN\L251.EXE .\Out_File\board.obj, .\Out_File\common.obj, .\Out_File\SEEKFREE_PRINT
>> F.obj, .\Out_File\zf_adc.obj, .\Out_File\zf_delay.obj, .\Out_File\zf_eeprom.obj, .\Out_File\zf_exti.obj, .\Out_File\z
>> f_gpio.obj, .\Out_File\zf_iic.obj, .\Out_File\zf_nvic.obj, .\Out_File\zf_pwm.obj, .\Out_File\zf_spi.obj, .\Out_File\z
>> f_tim.obj, .\Out_File\zf_uart.obj, .\Out_File\zf_fifo.obj, .\Out_File\SEEKFREE_18TFT.obj, .\Out_File\SEEKFREE_ABSOLUT
>> E_ENCODER.obj, .\Out_File\SEEKFREE_FONT.obj, .\Out_File\SEEKFREE_IIC.obj, .\Out_File\SEEKFREE_MPU6050.obj, .\Out_File
>> \SEEKFREE_OLED.obj, .\Out_File\SEEKFREE_AT24C02.obj, .\Out_File\SEEKFREE_BLUETOOTH_CH9141.obj, .\Out_File\SEEKFREE_IC
>> M20602.obj, .\Out_File\SEEKFREE_IPS114_SPI.obj, .\Out_File\SEEKFREE_TSL1401.obj, .\Out_File\SEEKFREE_VIRSCO.obj, .\Ou
>> t_File\SEEKFREE_WIRELESS.obj, .\Out_File\SEEKFREE_WIRELESS_CH573.obj, .\Out_File\isr.obj, .\Out_File\main.obj, .\Out_
>> File\motor.obj, .\Out_File\ADC.obj, .\Out_File\PID.obj, .\Out_File\MPU6050.obj, .\Out_File\TOF.obj, .\Out_File\Elemen
>> t.obj, .\Out_File\Buzzer.obj, .\Out_File\Key.obj, .\Out_File\UI.obj TO .\Out_File\SEEKFREE PRINT (.\Out_File\SEEKFREE
>> .map) CASE DISABLEWARNING (16, 57) REMOVEUNUSED CLASSES (EDATA (0X0-0XFFF), HDATA (0X0-0XFFF))


CPU MODE:     251 SOURCE MODE
INTR FRAME:   2 BYTES SAVED ON INTERRUPT
MEMORY MODEL: XSMALL WITH FLOATING POINT ARITHMETIC


INPUT MODULES INCLUDED:
  .\Out_File\board.obj (board)
         COMMENT TYPE 0: C251 V5.60.0
  .\Out_File\common.obj (common)
         COMMENT TYPE 0: C251 V5.60.0
  .\Out_File\SEEKFREE_PRINTF.obj (SEEKFREE_PRINTF)
         COMMENT TYPE 0: C251 V5.60.0
  .\Out_File\zf_adc.obj (zf_adc)
         COMMENT TYPE 0: C251 V5.60.0
  .\Out_File\zf_delay.obj (zf_delay)
         COMMENT TYPE 0: C251 V5.60.0
  .\Out_File\zf_eeprom.obj (zf_eeprom)
         COMMENT TYPE 0: C251 V5.60.0
  .\Out_File\zf_exti.obj (zf_exti)
         COMMENT TYPE 0: C251 V5.60.0
  .\Out_File\zf_gpio.obj (zf_gpio)
         COMMENT TYPE 0: C251 V5.60.0
  .\Out_File\zf_iic.obj (zf_iic)
         COMMENT TYPE 0: C251 V5.60.0
  .\Out_File\zf_nvic.obj (zf_nvic)
         COMMENT TYPE 0: C251 V5.60.0
  .\Out_File\zf_pwm.obj (zf_pwm)
         COMMENT TYPE 0: C251 V5.60.0
  .\Out_File\zf_spi.obj (zf_spi)
         COMMENT TYPE 0: C251 V5.60.0
  .\Out_File\zf_tim.obj (zf_tim)
         COMMENT TYPE 0: C251 V5.60.0
  .\Out_File\zf_uart.obj (zf_uart)
         COMMENT TYPE 0: C251 V5.60.0
  .\Out_File\zf_fifo.obj (zf_fifo)
         COMMENT TYPE 0: C251 V5.60.0
  .\Out_File\SEEKFREE_18TFT.obj (SEEKFREE_18TFT)
         COMMENT TYPE 0: C251 V5.60.0
  .\Out_File\SEEKFREE_ABSOLUTE_ENCODER.obj (SEEKFREE_ABSOLUTE_ENCODER)
         COMMENT TYPE 0: C251 V5.60.0
  .\Out_File\SEEKFREE_FONT.obj (SEEKFREE_FONT)
         COMMENT TYPE 0: C251 V5.60.0
  .\Out_File\SEEKFREE_IIC.obj (SEEKFREE_IIC)
         COMMENT TYPE 0: C251 V5.60.0
  .\Out_File\SEEKFREE_MPU6050.obj (SEEKFREE_MPU6050)
         COMMENT TYPE 0: C251 V5.60.0
  .\Out_File\SEEKFREE_OLED.obj (SEEKFREE_OLED)
         COMMENT TYPE 0: C251 V5.60.0
  .\Out_File\SEEKFREE_AT24C02.obj (SEEKFREE_AT24C02)
         COMMENT TYPE 0: C251 V5.60.0
  .\Out_File\SEEKFREE_BLUETOOTH_CH9141.obj (SEEKFREE_BLUETOOTH_CH9141)
         COMMENT TYPE 0: C251 V5.60.0
L251 LINKER/LOCATER V4.66.93.0                                                        03/21/2024  17:39:21  PAGE 2


  .\Out_File\SEEKFREE_ICM20602.obj (SEEKFREE_ICM20602)
         COMMENT TYPE 0: C251 V5.60.0
  .\Out_File\SEEKFREE_IPS114_SPI.obj (SEEKFREE_IPS114_SPI)
         COMMENT TYPE 0: C251 V5.60.0
  .\Out_File\SEEKFREE_TSL1401.obj (SEEKFREE_TSL1401)
         COMMENT TYPE 0: C251 V5.60.0
  .\Out_File\SEEKFREE_VIRSCO.obj (SEEKFREE_VIRSCO)
         COMMENT TYPE 0: C251 V5.60.0
  .\Out_File\SEEKFREE_WIRELESS.obj (SEEKFREE_WIRELESS)
         COMMENT TYPE 0: C251 V5.60.0
  .\Out_File\SEEKFREE_WIRELESS_CH573.obj (SEEKFREE_WIRELESS_CH573)
         COMMENT TYPE 0: C251 V5.60.0
  .\Out_File\isr.obj (isr)
         COMMENT TYPE 0: C251 V5.60.0
  .\Out_File\main.obj (main)
         COMMENT TYPE 0: C251 V5.60.0
  .\Out_File\motor.obj (motor)
         COMMENT TYPE 0: C251 V5.60.0
  .\Out_File\ADC.obj (ADC)
         COMMENT TYPE 0: C251 V5.60.0
  .\Out_File\PID.obj (PID)
         COMMENT TYPE 0: C251 V5.60.0
  .\Out_File\MPU6050.obj (MPU6050)
         COMMENT TYPE 0: C251 V5.60.0
  .\Out_File\TOF.obj (TOF)
         COMMENT TYPE 0: C251 V5.60.0
  .\Out_File\Element.obj (Element)
         COMMENT TYPE 0: C251 V5.60.0
  .\Out_File\Buzzer.obj (Buzzer)
         COMMENT TYPE 0: C251 V5.60.0
  .\Out_File\Key.obj (Key)
         COMMENT TYPE 0: C251 V5.60.0
  .\Out_File\UI.obj (UI)
         COMMENT TYPE 0: C251 V5.60.0
  D:\KEIL5\KEIL5_MDK\KEIL5_MDK_32\C251\LIB\C2SFPXS.LIB (?C?FPADD)
         COMMENT TYPE 0: A251 V4.69.6.0
  D:\KEIL5\KEIL5_MDK\KEIL5_MDK_32\C251\LIB\C2SFPXS.LIB (?C?FPMUL)
         COMMENT TYPE 0: A251 V4.69.6.0
  D:\KEIL5\KEIL5_MDK\KEIL5_MDK_32\C251\LIB\C2SFPXS.LIB (?C?FPDIV)
         COMMENT TYPE 0: A251 V4.69.6.0
  D:\KEIL5\KEIL5_MDK\KEIL5_MDK_32\C251\LIB\C2SFPXS.LIB (?C?FPCMP)
         COMMENT TYPE 0: A251 V4.69.6.0
  D:\KEIL5\KEIL5_MDK\KEIL5_MDK_32\C251\LIB\C2SFPXS.LIB (?C?FPNEG)
         COMMENT TYPE 0: A251 V4.69.6.0
  D:\KEIL5\KEIL5_MDK\KEIL5_MDK_32\C251\LIB\C2SFPXS.LIB (?C?FCAST)
         COMMENT TYPE 0: A251 V4.69.6.0
  D:\KEIL5\KEIL5_MDK\KEIL5_MDK_32\C251\LIB\C2SFPXS.LIB (?C?CASTF)
         COMMENT TYPE 0: A251 V4.69.6.0
  D:\KEIL5\KEIL5_MDK\KEIL5_MDK_32\C251\LIB\C2SFPXS.LIB (PRINTF)
         COMMENT TYPE 0: A251 V4.69.6.0
  D:\KEIL5\KEIL5_MDK\KEIL5_MDK_32\C251\LIB\C2SFPXS.LIB (SQRT?_)
         COMMENT TYPE 0: A251 V4.69.6.0
  D:\KEIL5\KEIL5_MDK\KEIL5_MDK_32\C251\LIB\C2SFPXS.LIB (ASIN?_)
         COMMENT TYPE 0: A251 V4.69.6.0
  D:\KEIL5\KEIL5_MDK\KEIL5_MDK_32\C251\LIB\C2SFPXS.LIB (atan2)
         COMMENT TYPE 0: C251 V5.58.7
  D:\KEIL5\KEIL5_MDK\KEIL5_MDK_32\C251\LIB\C2SFPXS.LIB (?C?FPGETOPN)
         COMMENT TYPE 0: A251 V4.69.6.0
  D:\KEIL5\KEIL5_MDK\KEIL5_MDK_32\C251\LIB\C2SFPXS.LIB (?C?PRNFMT)
         COMMENT TYPE 0: A251 V4.69.6.0
  D:\KEIL5\KEIL5_MDK\KEIL5_MDK_32\C251\LIB\C2SFPXS.LIB (ATAN?_)
         COMMENT TYPE 0: A251 V4.69.6.0
  D:\KEIL5\KEIL5_MDK\KEIL5_MDK_32\C251\LIB\C2SFPXS.LIB (?C?FPCONVERT)
         COMMENT TYPE 0: A251 V4.69.6.0
  D:\KEIL5\KEIL5_MDK\KEIL5_MDK_32\C251\LIB\C2SFPXS.LIB (?C?FPSERIES)
L251 LINKER/LOCATER V4.66.93.0                                                        03/21/2024  17:39:21  PAGE 3


         COMMENT TYPE 0: A251 V4.69.6.0
  D:\KEIL5\KEIL5_MDK\KEIL5_MDK_32\C251\LIB\C2SFPXS.LIB (?C?FTNPWR)
         COMMENT TYPE 0: A251 V4.69.6.0
  D:\KEIL5\KEIL5_MDK\KEIL5_MDK_32\C251\LIB\C2SXS.LIB (?C_START)
         COMMENT TYPE 0: A251 V4.69.6.0
  D:\KEIL5\KEIL5_MDK\KEIL5_MDK_32\C251\LIB\C2SXS.LIB (?C?INITEDATA)
         COMMENT TYPE 0: A251 V4.69.6.0
  D:\KEIL5\KEIL5_MDK\KEIL5_MDK_32\C251\LIB\C2SXS.LIB (?C?SIDIV)
         COMMENT TYPE 0: A251 V4.69.6.0
  D:\KEIL5\KEIL5_MDK\KEIL5_MDK_32\C251\LIB\C2SXS.LIB (?C?LMUL)
         COMMENT TYPE 0: A251 V4.69.6.0
  D:\KEIL5\KEIL5_MDK\KEIL5_MDK_32\C251\LIB\C2SXS.LIB (?C?LIMUL)
         COMMENT TYPE 0: A251 V4.69.6.0
  D:\KEIL5\KEIL5_MDK\KEIL5_MDK_32\C251\LIB\C2SXS.LIB (?C?ULDIV)
         COMMENT TYPE 0: A251 V4.69.6.0
  D:\KEIL5\KEIL5_MDK\KEIL5_MDK_32\C251\LIB\C2SXS.LIB (?C?SLDIV)
         COMMENT TYPE 0: A251 V4.69.6.0
  D:\KEIL5\KEIL5_MDK\KEIL5_MDK_32\C251\LIB\C2SXS.LIB (ABS)
         COMMENT TYPE 0: C251 V5.58.7
  D:\KEIL5\KEIL5_MDK\KEIL5_MDK_32\C251\LIB\C2SXS.LIB (STRCPY?_)
         COMMENT TYPE 0: A251 V4.69.6.0
  D:\KEIL5\KEIL5_MDK\KEIL5_MDK_32\C251\LIB\C2SXS.LIB (memcpy)
         COMMENT TYPE 0: C251 V5.58.7
  D:\KEIL5\KEIL5_MDK\KEIL5_MDK_32\C251\LIB\C2SXS.LIB (memset)
         COMMENT TYPE 0: C251 V5.58.7
  D:\KEIL5\KEIL5_MDK\KEIL5_MDK_32\C251\LIB\C2SXS.LIB (?C?INITEDATA_END)
         COMMENT TYPE 0: A251 V4.69.6.0


ACTIVE MEMORY CLASSES OF MODULE:  .\Out_File\SEEKFREE (board)

BASE        START       END         USED      MEMORY CLASS
==========================================================
000000H     000000H     000FFFH     0007FAH   EDATA
000000H     000000H     000FFFH               HDATA
FF0000H     FF0000H     FFFFFFH     0065C2H   CODE
000000H     FF0000H     FFFFFFH     000268H   HCONST
FF0000H     FF0000H     FFFFFFH     000004H   CONST
000000H     000000H     00007FH     000008H   DATA


MEMORY MAP OF MODULE:  .\Out_File\SEEKFREE (board)


START     STOP      LENGTH    ALIGN  RELOC    MEMORY CLASS   SEGMENT NAME
=========================================================================
000000H   000007H   000008H   ---    AT..     DATA           "REG BANK 0"
000008H   00013CH   000135H   BYTE   UNIT     EDATA          ?ED?UI
00013DH   00023DH   000101H   BYTE   UNIT     EDATA          ?ED?SEEKFREE_TSL1401
00023EH   000330H   0000F3H   BYTE   UNIT     EDATA          ?ED?PID
000331H   0003FDH   0000CDH   BYTE   UNIT     EDATA          ?ED?ZF_UART
0003FEH   000494H   000097H   BYTE   UNIT     EDATA          _EDATA_GROUP_
000495H   0004FFH   00006BH   BYTE   UNIT     EDATA          ?ED?MPU6050
000500H   000554H   000055H   BYTE   UNIT     EDATA          ?ED?SEEKFREE_BLUETOOTH_CH9141
000555H   0005A9H   000055H   BYTE   UNIT     EDATA          ?ED?SEEKFREE_WIRELESS
0005AAH   0005FEH   000055H   BYTE   UNIT     EDATA          ?ED?SEEKFREE_WIRELESS_CH573
0005FFH   00064EH   000050H   BYTE   UNIT     EDATA          ?ED?ADC
00064FH   000696H   000048H   BYTE   UNIT     EDATA          ?ED?MAIN
000697H   0006B6H   000020H   BYTE   UNIT     EDATA          ?ED?ELEMENT
0006B7H   0006C4H   00000EH   BYTE   UNIT     EDATA          ?ED?MOTOR
0006C5H   0006D0H   00000CH   BYTE   UNIT     EDATA          ?ED?SEEKFREE_MPU6050
0006D1H   0006DCH   00000CH   BYTE   UNIT     EDATA          ?ED?SEEKFREE_ICM20602
0006DDH   0006E6H   00000AH   BYTE   UNIT     EDATA          ?ED?SEEKFREE_VIRSCO
0006E7H   0006EDH   000007H   BYTE   UNIT     EDATA          ?ED?SEEKFREE_IIC
0006EEH   0006F1H   000004H   BYTE   UNIT     EDATA          ?ED?BOARD
L251 LINKER/LOCATER V4.66.93.0                                                        03/21/2024  17:39:21  PAGE 4


0006F2H   0006F5H   000004H   BYTE   UNIT     EDATA          ?ED?ZF_DELAY
0006F6H   0006F8H   000003H   BYTE   UNIT     EDATA          ?ED?TOF
0006F9H   0006FBH   000003H   BYTE   UNIT     EDATA          ?ED?KEY
0006FCH   0006FDH   000002H   BYTE   UNIT     EDATA          ?ED?COMMON
0006FEH   0006FFH   000002H   BYTE   UNIT     EDATA          ?ED?ISR
000700H   000701H   000002H   BYTE   UNIT     EDATA          ?ED?BUZZER
000702H   000801H   000100H   BYTE   UNIT     EDATA          ?STACK
000802H   FEFFFFH   FEF7FEH   ---    ---      **GAP**
FF0000H   FF0002H   000003H   ---    OFFS..   CODE           ?CO?start251?4
FF0003H   FF0005H   000003H   ---    OFFS..   CODE           ?PR?IV?0
FF0006H   FF000AH   000005H   BYTE   INSEG    CODE           ?PR?I2C_SDA_READ?MPU6050
FF000BH   FF000DH   000003H   ---    OFFS..   CODE           ?PR?IV?1
FF000EH   FF0010H   000003H   BYTE   INSEG    CODE           ?PR?ENABLEGLOBALIRQ?BOARD
FF0011H   FF0011H   000001H   BYTE   INSEG    CODE           ?PR?INT1_ISR?ISR
FF0012H   FF0012H   000001H   BYTE   INSEG    CODE           ?PR?TM0_ISR?ISR
FF0013H   FF0015H   000003H   ---    OFFS..   CODE           ?PR?IV?2
FF0016H   FF0018H   000003H   BYTE   INSEG    CODE           ?PR?DISABLEGLOBALIRQ?BOARD
FF0019H   FF0019H   000001H   BYTE   INSEG    CODE           ?PR?TM1_ISR?ISR
FF001AH   FF001AH   000001H   ---    ---      **GAP**
FF001BH   FF001DH   000003H   ---    OFFS..   CODE           ?PR?IV?3
FF001EH   FF0020H   000003H   BYTE   INSEG    CODE           ?PR?I2C_SDA_H?MPU6050
FF0021H   FF0022H   000002H   ---    ---      **GAP**
FF0023H   FF0025H   000003H   ---    OFFS..   CODE           ?PR?IV?4
FF0026H   FF0042H   00001DH   BYTE   INSEG    CODE           ?PR?GETFIFOCOUNT?MPU6050
FF0043H   FF0045H   000003H   ---    OFFS..   CODE           ?PR?IV?8
FF0046H   FF0052H   00000DH   BYTE   INSEG    CODE           ?PR?MPU_READ_BITS?MPU6050
FF0053H   FF0055H   000003H   ---    OFFS..   CODE           ?PR?IV?10
FF0056H   FF0058H   000003H   BYTE   INSEG    CODE           ?PR?I2C_SDA_L?MPU6050
FF0059H   FF005AH   000002H   ---    ---      **GAP**
FF005BH   FF005DH   000003H   ---    OFFS..   CODE           ?PR?IV?11
FF005EH   FF0060H   000003H   BYTE   INSEG    CODE           ?PR?I2C_SCL_H?MPU6050
FF0061H   FF0062H   000002H   ---    ---      **GAP**
FF0063H   FF0065H   000003H   ---    OFFS..   CODE           ?PR?IV?12
FF0066H   FF0081H   00001CH   BYTE   INSEG    CODE           ?PR?VL53L0X_SCCB_WAITACK?TOF
FF0082H   FF0082H   000001H   ---    ---      **GAP**
FF0083H   FF0085H   000003H   ---    OFFS..   CODE           ?PR?IV?16
FF0086H   FF0088H   000003H   BYTE   INSEG    CODE           ?PR?I2C_SCL_L?MPU6050
FF0089H   FF008AH   000002H   ---    ---      **GAP**
FF008BH   FF008DH   000003H   ---    OFFS..   CODE           ?PR?IV?17
FF008EH   FF0091H   000004H   BYTE   UNIT     CONST          ?CO?PRINTF
FF0092H   FF0092H   000001H   ---    ---      **GAP**
FF0093H   FF0095H   000003H   ---    OFFS..   CODE           ?PR?IV?18
FF0096H   FF009AH   000005H   ---    ---      **GAP**
FF009BH   FF009DH   000003H   ---    OFFS..   CODE           ?PR?IV?19
FF009EH   FF00A2H   000005H   ---    ---      **GAP**
FF00A3H   FF00A5H   000003H   ---    OFFS..   CODE           ?PR?IV?20
FF00A6H   FF0EADH   000E08H   BYTE   UNIT     CODE           ?CO?SEEKFREE_FONT
FF0EAEH   FF1A25H   000B78H   BYTE   UNIT     CODE           ?C?LIB_CODE
FF1A26H   FF229DH   000878H   BYTE   UNIT     CODE           ?CO?MPU6050
FF229EH   FF28B8H   00061BH   BYTE   INSEG    CODE           ?PR?VL53L0X_INIT?TOF
FF28B9H   FF2DB2H   0004FAH   BYTE   INSEG    CODE           ?PR?ZF_SPRINTF?SEEKFREE_PRINTF
FF2DB3H   FF31A9H   0003F7H   BYTE   INSEG    CODE           ?PR?GPIO_MODE?ZF_GPIO
FF31AAH   FF3544H   00039BH   BYTE   INSEG    CODE           ?PR?MAIN?MAIN
FF3545H   FF3828H   0002E4H   BYTE   INSEG    CODE           ?PR?PWM_INIT?ZF_PWM
FF3829H   FF3AC9H   0002A1H   BYTE   INSEG    CODE           ?PR?PWM_SET_GPIO?ZF_PWM
FF3ACAH   FF3D63H   00029AH   BYTE   INSEG    CODE           ?PR?MPU6050_REFRESH_DMP?MPU6050
FF3D64H   FF3F8FH   00022CH   BYTE   INSEG    CODE           ?PR?DMPINITIALIZE?MPU6050
FF3F90H   FF414EH   0001BFH   BYTE   INSEG    CODE           ?PR?UART_INIT?ZF_UART
FF414FH   FF42CAH   00017CH   BYTE   INSEG    CODE           ?PR?VL53L0X_GET_SPAD_INFO?TOF
FF42CBH   FF441DH   000153H   BYTE   INSEG    CODE           ?PR?ELEM_CIRCLE?ELEMENT
FF441EH   FF4568H   00014BH   BYTE   INSEG    CODE           ?PR?ADC_GETVALUE?ADC
FF4569H   FF4660H   0000F8H   BYTE   INSEG    CODE           ?PR?OLED_PRINTF_FLOAT?SEEKFREE_OLED
FF4661H   FF4750H   0000F0H   BYTE   INSEG    CODE           ?PR?VALUE_NAME_INIT?UI
FF4751H   FF4838H   0000E8H   BYTE   INSEG    CODE           ?PR?OLED_P8X16STR?SEEKFREE_OLED
FF4839H   FF491CH   0000E4H   BYTE   INSEG    CODE           ?PR?VL53L0X_SET_MEASUREMENT_TIMING_BUDGET?TOF
L251 LINKER/LOCATER V4.66.93.0                                                        03/21/2024  17:39:21  PAGE 5


FF491DH   FF49FCH   0000E0H   BYTE   INSEG    CODE           ?PR?FIFO_WRITE_BUFFER?ZF_FIFO
FF49FDH   FF4AD7H   0000DBH   BYTE   INSEG    CODE           ?PR?VL53L0X_GET_SEQUENCE_STEP_TIMEOUTS?TOF
FF4AD8H   FF4BB1H   0000DAH   BYTE   INSEG    CODE           ?PR?INIT_ALL?MAIN
FF4BB2H   FF4C78H   0000C7H   BYTE   INSEG    CODE           ?PR?PID_CALCULATE?PID
FF4C79H   FF4D3BH   0000C3H   BYTE   INSEG    CODE           ?PR?LEFT_SETSPEED?MOTOR
FF4D3CH   FF4DF3H   0000B8H   BYTE   INSEG    CODE           ?PR?PWM_DUTY?ZF_PWM
FF4DF4H   FF4EA3H   0000B0H   BYTE   INSEG    CODE           ?PR?RIGHT_SETSPEED?MOTOR
FF4EA4H   FF4F49H   0000A6H   BYTE   INSEG    CODE           ?PR?GET_RATIO?MAIN
FF4F4AH   FF4FEFH   0000A6H   BYTE   INSEG    CODE           ?PR?LOADCFGUPD?MPU6050
FF4FF0H   FF5092H   0000A3H   BYTE   INSEG    CODE           ?PR?OLED_INIT?SEEKFREE_OLED
FF5093H   FF5126H   000094H   BYTE   INSEG    CODE           ?PR?PIT_TIMER_MS?ZF_TIM
FF5127H   FF51B8H   000092H   BYTE   INSEG    CODE           ?PR?NUMBER_CONVERSION_ASCII?SEEKFREE_PRINTF
FF51B9H   FF5243H   00008BH   BYTE   INSEG    CODE           ?PR?XDMPUPDATES?MPU6050
FF5244H   FF52C8H   000085H   BYTE   INSEG    CODE           ?PR?REFRESH_VALUE?UI
FF52C9H   FF5349H   000081H   BYTE   INSEG    CODE           ?PR?BOARD_INIT?BOARD
FF534AH   FF53CAH   000081H   BYTE   INSEG    CODE           ?PR?LOADFIRMWARE?MPU6050
FF53CBH   FF544AH   000080H   BYTE   INSEG    CODE           ?PR?TM4_ISR?ISR
FF544BH   FF54C7H   00007DH   BYTE   INSEG    CODE           ?PR?I2C_WRITE_BITS?MPU6050
FF54C8H   FF5541H   00007AH   BYTE   INSEG    CODE           ?PR?I2C_MEM_READ?MPU6050
FF5542H   FF55B8H   000077H   BYTE   INSEG    CODE           ?PR?VL53L0X_PERFORM_SINGLE_REF_CALIBRATION?TOF
FF55B9H   FF562EH   000076H   BYTE   INSEG    CODE           ?PR?GETKEY_VALUE?KEY
FF562FH   FF56A1H   000073H   BYTE   INSEG    CODE           ?PR?VL53L0X_GET_MEASUREMENT_TIMING_BUDGET?TOF
FF56A2H   FF570CH   00006BH   BYTE   INSEG    CODE           ?PR?I2C_READ_BITS?MPU6050
FF570DH   FF5775H   000069H   BYTE   INSEG    CODE           ?PR?UART4_ISR?ISR
FF5776H   FF57D8H   000063H   BYTE   INSEG    CODE           ?PR?GET_SPEED?MOTOR
FF57D9H   FF5837H   00005FH   BYTE   INSEG    CODE           ?PR?I2C_MEM_WRITE?MPU6050
FF5838H   FF5895H   00005EH   BYTE   INSEG    CODE           ?PR?ADC_INIT?ZF_ADC
FF5896H   FF58F2H   00005DH   BYTE   INSEG    CODE           ?PR?VL53L0X_GET_DISTANCE?TOF
FF58F3H   FF594EH   00005CH   BYTE   INSEG    CODE           ?PR?I2C_WRITE_BIT?MPU6050
FF594FH   FF59A6H   000058H   BYTE   INSEG    CODE           ?PR?MPU_GET_GYROSCOPE?MPU6050
FF59A7H   FF59FEH   000058H   BYTE   INSEG    CODE           ?PR?VL53L0X_GET_SEQUENCE_STEP_ENABLES?TOF
FF59FFH   FF5A52H   000054H   BYTE   INSEG    CODE           ?PR?UART_PUTCHAR?ZF_UART
FF5A53H   FF5AA6H   000054H   BYTE   INSEG    CODE           ?PR?PID_INIT?PID
FF5AA7H   FF5AFAH   000054H   BYTE   INSEG    CODE           ?PR?VL53L0X_SIMIIC_READ_REGS?TOF
FF5AFBH   FF5B4EH   000054H   BYTE   INSEG    CODE           ?PR?VL53L0X_SIMIIC_READ_REGS_1?TOF
FF5B4FH   FF5B9FH   000051H   BYTE   INSEG    CODE           ?PR?CTIMER_COUNT_CLEAN?ZF_TIM
FF5BA0H   FF5BECH   00004DH   BYTE   INSEG    CODE           ?PR?CTIMER_COUNT_READ?ZF_TIM
FF5BEDH   FF5C39H   00004DH   BYTE   INSEG    CODE           ?PR?VL53L0X_GET_VCSEL_PULSE_PERIOD?TOF
FF5C3AH   FF5C83H   00004AH   BYTE   INSEG    CODE           ?PR?CTIMER_COUNT_INIT?ZF_TIM
FF5C84H   FF5CC8H   000045H   BYTE   INSEG    CODE           ?PR?ATAN2?_?ATAN2
FF5CC9H   FF5D0CH   000044H   BYTE   INSEG    CODE           ?PR?MOTOR_INIT?MOTOR
FF5D0DH   FF5D4EH   000042H   BYTE   INSEG    CODE           ?PR?FIFO_HEAD_OFFSET?ZF_FIFO
FF5D4FH   FF5D8EH   000040H   BYTE   INSEG    CODE           ?PR?OLED_SHOW?UI
FF5D8FH   FF5DCDH   00003FH   BYTE   INSEG    CODE           ?PR?OLED_ALL_STATIC_STATE?UI
FF5DCEH   FF5DE0H   000013H   BYTE   UNIT     CODE           ?C_C51STARTUP
FF5DE1H   FF5E09H   000029H   BYTE   UNIT     CODE           ?C_C51STARTUP?2
FF5E0AH   FF5E0CH   000003H   BYTE   UNIT     CODE           ?C_C51STARTUP?3
FF5E0DH   FF5E4AH   00003EH   BYTE   INSEG    CODE           ?PR?PRINTF_REVERSE_ORDER?SEEKFREE_PRINTF
FF5E4BH   FF5E88H   00003EH   BYTE   INSEG    CODE           ?PR?VL53L0X_TIMEOUT_MCLKS_TO_MICROSECONDS?TOF
FF5E89H   FF5EC5H   00003DH   BYTE   INSEG    CODE           ?PR?UART1_ISR?ISR
FF5EC6H   FF5F01H   00003CH   BYTE   INSEG    CODE           ?PR?VL53L0X_TIMEOUT_MICROSECONDS_TO_MCLKS?TOF
FF5F02H   FF5F3DH   00003CH   BYTE   INSEG    CODE           ?PR?ELEM_UP_DOWN?ELEMENT
FF5F3EH   FF5F78H   00003BH   BYTE   INSEG    CODE           ?PR?VL53L0X_READ_CH?TOF
FF5F79H   FF5FB1H   000039H   BYTE   INSEG    CODE           ?PR?DELAY_INIT?ZF_DELAY
FF5FB2H   FF5FE8H   000037H   BYTE   INSEG    CODE           ?PR?I2C_READ_BYTE?MPU6050
FF5FE9H   FF601DH   000035H   BYTE   INSEG    CODE           ?PR?VL53L0X_SIMIIC_WRITE_DATS?TOF
FF601EH   FF6051H   000034H   BYTE   INSEG    CODE           ?PR?VL53L0X_ENCODE_TIMEOUT?TOF
FF6052H   FF6084H   000033H   BYTE   INSEG    CODE           ?PR?OLED_FILL?SEEKFREE_OLED
FF6085H   FF60B7H   000033H   BYTE   INSEG    CODE           ?PR?I2C_READ_BIT?MPU6050
FF60B8H   FF60EAH   000033H   BYTE   INSEG    CODE           ?PR?I2C_WRITE_BYTE?MPU6050
FF60EBH   FF611DH   000033H   BYTE   INSEG    CODE           ?PR?INITMPU6050?MPU6050
FF611EH   FF614BH   00002EH   BYTE   INSEG    CODE           ?PR?ADC_ONCE?ZF_ADC
FF614CH   FF6179H   00002EH   BYTE   INSEG    CODE           ?PR?VL53L0X_SEND_CH?TOF
FF617AH   FF61A4H   00002BH   BYTE   INSEG    CODE           ?PR?LIMIT_OUT?MOTOR
FF61A5H   FF61CFH   00002BH   BYTE   INSEG    CODE           ?PR?ADC_INITALL?ADC
L251 LINKER/LOCATER V4.66.93.0                                                        03/21/2024  17:39:21  PAGE 6


FF61D0H   FF61F9H   00002AH   BYTE   INSEG    CODE           ?PR?I2C_WAIT_ACK?MPU6050
FF61FAH   FF6222H   000029H   BYTE   INSEG    CODE           ?PR?OLED_WRCMD?SEEKFREE_OLED
FF6223H   FF624BH   000029H   BYTE   INSEG    CODE           ?PR?OLED_WRDAT?SEEKFREE_OLED
FF624CH   FF6274H   000029H   BYTE   INSEG    CODE           ?PR?VL53L0X_SIMIIC_READ_REG?TOF
FF6275H   FF629BH   000027H   BYTE   INSEG    CODE           ?PR?VL53L0X_SET_SIGNAL_RATE_LIMIT?TOF
FF629CH   FF62C0H   000025H   BYTE   INSEG    CODE           ?PR?MEMCPY?_?MEMCPY
FF62C1H   FF62E4H   000024H   BYTE   INSEG    CODE           ?PR?KEY_INIT?KEY
FF62E5H   FF6307H   000023H   BYTE   INSEG    CODE           ?PR?OLED_SET_POS?SEEKFREE_OLED
FF6308H   FF632AH   000023H   BYTE   INSEG    CODE           ?PR?MPU6050_DMP_INIT?MPU6050
FF632BH   FF634CH   000022H   BYTE   INSEG    CODE           ?PR?VL53L0X_SIMIIC_WRITE_REG?TOF
FF634DH   FF636CH   000020H   BYTE   INSEG    CODE           ?PR?GETDEVICEID?MPU6050
FF636DH   FF638CH   000020H   BYTE   INSEG    CODE           ?PR?VL53L0X_SIMIIC_SENDACK?TOF
FF638DH   FF63AAH   00001EH   BYTE   INSEG    CODE           ?PR?UART2_ISR?ISR
FF63ABH   FF63C8H   00001EH   BYTE   INSEG    CODE           ?PR?UART3_ISR?ISR
FF63C9H   FF63E2H   00001AH   BYTE   INSEG    CODE           ?PR?MEMSET?_?MEMSET
FF63E3H   FF63FBH   000019H   BYTE   INSEG    CODE           ?PR?BLUETOOTH_CH9141_UART_CALLBACK?SEEKFREE_BLUETOOTH_CH91
                                                             -41
FF63FCH   FF6414H   000019H   BYTE   INSEG    CODE           ?PR?WIRELESS_UART_CALLBACK?SEEKFREE_WIRELESS
FF6415H   FF642DH   000019H   BYTE   INSEG    CODE           ?PR?WIRELESS_CH573_CALLBACK?SEEKFREE_WIRELESS_CH573
FF642EH   FF6444H   000017H   BYTE   INSEG    CODE           ?PR?DELAY_MS?ZF_DELAY
FF6445H   FF6459H   000015H   BYTE   INSEG    CODE           ?PR?I2C_ACK?MPU6050
FF645AH   FF646EH   000015H   BYTE   INSEG    CODE           ?PR?MPU_WRITE_BYTE?MPU6050
FF646FH   FF6482H   000014H   BYTE   INSEG    CODE           ?PR?MPU_DELAY_MS?MPU6050
FF6483H   FF6495H   000013H   BYTE   UNIT     CODE           ?PR?STRCPY?_
FF6496H   FF64A7H   000012H   BYTE   INSEG    CODE           ?PR?I2C_NACK?MPU6050
FF64A8H   FF64B9H   000012H   BYTE   INSEG    CODE           ?PR?I2C_START?MPU6050
FF64BAH   FF64CAH   000011H   BYTE   INSEG    CODE           ?PR?VL53L0X_SIMIIC_STOP?TOF
FF64CBH   FF64DBH   000011H   BYTE   INSEG    CODE           ?PR?BUZZER_INIT?BUZZER
FF64DCH   FF64EBH   000010H   BYTE   INSEG    CODE           ?PR?VL53L0X_DECODE_TIMEOUT?TOF
FF64ECH   FF64FBH   000010H   BYTE   INSEG    CODE           ?PR?ABS?_?ABS
FF64FCH   FF650AH   00000FH   BYTE   INSEG    CODE           ?PR?I2C_STOP?MPU6050
FF650BH   FF6519H   00000FH   BYTE   INSEG    CODE           ?PR?READDMP?MPU6050
FF651AH   FF6528H   00000FH   BYTE   INSEG    CODE           ?PR?VL53L0X_SIMIIC_START?TOF
FF6529H   FF6536H   00000EH   BYTE   INSEG    CODE           ?PR?PUTCHAR?BOARD
FF6537H   FF6543H   00000DH   BYTE   INSEG    CODE           ?PR?MPU_WRITE_BITS?MPU6050
FF6544H   FF6550H   00000DH   BYTE   INSEG    CODE           ?PR?MPU_WRITE_BIT?MPU6050
FF6551H   FF655DH   00000DH   BYTE   INSEG    CODE           ?PR?VL53L0X_SIMIIC_DELAY?TOF
FF655EH   FF6568H   00000BH   BYTE   INSEG    CODE           ?PR?MPU_READ_LEN?MPU6050
FF6569H   FF6573H   00000BH   BYTE   INSEG    CODE           ?PR?I2C_TIMEOUT_DELAY?MPU6050
FF6574H   FF657EH   00000BH   BYTE   INSEG    CODE           ?PR?MPU_WRITE_LEN?MPU6050
FF657FH   FF6589H   00000BH   BYTE   INSEG    CODE           ?PR?I2C_DELAY?MPU6050
FF658AH   FF6593H   00000AH   BYTE   INSEG    CODE           ?PR?DELAY1MS?MPU6050
FF6594H   FF659CH   000009H   BYTE   INSEG    CODE           ?PR?MPU_READ_BIT?MPU6050
FF659DH   FF65A5H   000009H   BYTE   INSEG    CODE           ?PR?UI_INIT?UI
FF65A6H   FF65ADH   000008H   BYTE   INSEG    CODE           ?PR?INT2_ISR?ISR
FF65AEH   FF65B5H   000008H   BYTE   INSEG    CODE           ?PR?INT3_ISR?ISR
FF65B6H   FF65BDH   000008H   BYTE   INSEG    CODE           ?PR?INT4_ISR?ISR
FF65BEH   FF65C5H   000008H   BYTE   INSEG    CODE           ?PR?TM2_ISR?ISR
FF65C6H   FF65CDH   000008H   BYTE   INSEG    CODE           ?PR?TM3_ISR?ISR
FF65CEH   FF65D4H   000007H   BYTE   INSEG    CODE           ?PR?INT0_ISR?ISR
FF65D5H   FF65DAH   000006H   BYTE   INSEG    CODE           ?PR?UI_SHOW?UI
FF65DBH   FF672CH   000152H   BYTE   UNIT     HCONST         ?C_INITEDATA
FF672DH   FF679EH   000072H   BYTE   UNIT     HCONST         ?HC?UI
FF679FH   FF67F6H   000058H   BYTE   UNIT     HCONST         ?HC?ZF_PWM
FF67F7H   FF6816H   000020H   BYTE   UNIT     HCONST         ?HC?MAIN
FF6817H   FF682CH   000016H   BYTE   UNIT     HCONST         ?HC?TOF
FF682DH   FF6836H   00000AH   BYTE   UNIT     HCONST         ?HC?SEEKFREE_OLED
FF6837H   FF683CH   000006H   BYTE   UNIT     HCONST         ?HC?SEEKFREE_18TFT
FF683DH   FF6842H   000006H   BYTE   UNIT     HCONST         ?HC?SEEKFREE_IPS114_SPI

* * * * * * * * *   R E M O V E D     S E G M E N T S   * * * * * * * *
   *DEL*:           000019H   BYTE   INSEG    CODE           ?PR?DELAY_US?ZF_DELAY
   *DEL*:           000016H   BYTE   INSEG    CODE           ?PR?IAP_SET_TPS?ZF_EEPROM
   *DEL*:           000015H   BYTE   INSEG    CODE           ?PR?EEPROM_TRIG?ZF_EEPROM
   *DEL*:           00000EH   BYTE   INSEG    CODE           ?PR?IAP_ERASE_PAGE?ZF_EEPROM
L251 LINKER/LOCATER V4.66.93.0                                                        03/21/2024  17:39:21  PAGE 7


   *DEL*:           000004H   BYTE   INSEG    CODE           ?PR?IAP_IDLE?ZF_EEPROM
   *DEL*:           000047H   BYTE   INSEG    CODE           ?PR?IAP_READ_BYTES?ZF_EEPROM
   *DEL*:           00006DH   BYTE   INSEG    CODE           ?PR?EXTERN_IAP_WRITE_BYTES?ZF_EEPROM
   *DEL*:           000006H   BYTE   INSEG    CODE           ?PR?IAP_INIT?ZF_EEPROM
   *DEL*:           000047H   BYTE   INSEG    CODE           ?PR?IAP_WRITE_BYTES?ZF_EEPROM
   *DEL*:           00000CH   BYTE   INSEG    CODE           ?PR?IAP_GET_CMD_STATE?ZF_EEPROM
   *DEL*:           000004H   BYTE   UNIT     EDATA          ?ED?IAP_READ_BYTES?ZF_EEPROM
   *DEL*:           000004H   BYTE   UNIT     EDATA          ?ED?IAP_WRITE_BYTES?ZF_EEPROM
   *DEL*:           000204H   BYTE   UNIT     EDATA          ?ED?EXTERN_IAP_WRITE_BYTES?ZF_EEPROM
   *DEL*:           00003EH   BYTE   INSEG    CODE           ?PR?EXIT_INIT?ZF_EXTI
   *DEL*:           00006EH   BYTE   INSEG    CODE           ?PR?GPIO_PULL_SET?ZF_GPIO
   *DEL*:           000017H   BYTE   INSEG    CODE           ?PR?SEND_DATA?ZF_IIC
   *DEL*:           00002FH   BYTE   INSEG    CODE           ?PR?IIC_CHANGE_PIN?ZF_IIC
   *DEL*:           00001CH   BYTE   INSEG    CODE           ?PR?RECV_DATA?ZF_IIC
   *DEL*:           000010H   BYTE   INSEG    CODE           ?PR?START?ZF_IIC
   *DEL*:           000045H   BYTE   INSEG    CODE           ?PR?WAIT?ZF_IIC
   *DEL*:           000018H   BYTE   INSEG    CODE           ?PR?SEND_ACK?ZF_IIC
   *DEL*:           000010H   BYTE   INSEG    CODE           ?PR?RECV_ACK?ZF_IIC
   *DEL*:           000010H   BYTE   INSEG    CODE           ?PR?STOP?ZF_IIC
   *DEL*:           000019H   BYTE   INSEG    CODE           ?PR?SEND_NAK?ZF_IIC
   *DEL*:           00005EH   BYTE   INSEG    CODE           ?PR?IIC_INIT?ZF_IIC
   *DEL*:           000075H   BYTE   INSEG    CODE           ?PR?IIC_READ_REG?ZF_IIC
   *DEL*:           00009CH   BYTE   INSEG    CODE           ?PR?IIC_READ_REG_BYTES?ZF_IIC
   *DEL*:           000060H   BYTE   INSEG    CODE           ?PR?IIC_WRITE_REG?ZF_IIC
   *DEL*:           000015H   BYTE   INSEG    CODE           ?PR?IIC_DELAY_US?ZF_IIC
   *DEL*:           000004H   BYTE   UNIT     EDATA          ?ED?IIC_INIT?ZF_IIC
   *DEL*:           000004H   BYTE   UNIT     EDATA          ?ED?IIC_READ_REG?ZF_IIC
   *DEL*:           000003H   BYTE   UNIT     EDATA          ?ED?IIC_READ_REG_BYTES?ZF_IIC
   *DEL*:           00006CH   BYTE   INSEG    CODE           ?PR?NVIC_SETPRIORITY?ZF_NVIC
   *DEL*:           000121H   BYTE   INSEG    CODE           ?PR?PWM_FREQ?ZF_PWM
   *DEL*:           000004H   BYTE   UNIT     EDATA          ?ED?PWM_FREQ?ZF_PWM
   *DEL*:           00001DH   BYTE   INSEG    CODE           ?PR?SPI_CHANGE_MODE?ZF_SPI
   *DEL*:           0000AEH   BYTE   INSEG    CODE           ?PR?SPI_CHANGE_PIN?ZF_SPI
   *DEL*:           0000DFH   BYTE   INSEG    CODE           ?PR?SPI_INIT?ZF_SPI
   *DEL*:           00000EH   BYTE   INSEG    CODE           ?PR?SPI_MOSI?ZF_SPI
   *DEL*:           000004H   BYTE   UNIT     EDATA          ?ED?SPI_INIT?ZF_SPI
   *DEL*:           00002DH   BYTE   INSEG    CODE           ?PR?UART_PUTBUFF?ZF_UART
   *DEL*:           00001EH   BYTE   INSEG    CODE           ?PR?UART_PUTSTR?ZF_UART
   *DEL*:           000004H   BYTE   UNIT     EDATA          ?ED?UART_PUTBUFF?ZF_UART
   *DEL*:           000002H   BYTE   UNIT     EDATA          ?ED?UART_PUTSTR?ZF_UART
   *DEL*:           000113H   BYTE   INSEG    CODE           ?PR?FIFO_READ_BUFFER?ZF_FIFO
   *DEL*:           000025H   BYTE   INSEG    CODE           ?PR?FIFO_CLEAR?ZF_FIFO
   *DEL*:           000046H   BYTE   INSEG    CODE           ?PR?FIFO_END_OFFSET?ZF_FIFO
   *DEL*:           000015H   BYTE   INSEG    CODE           ?PR?FIFO_USED?ZF_FIFO
   *DEL*:           000043H   BYTE   INSEG    CODE           ?PR?FIFO_INIT?ZF_FIFO
   *DEL*:           000004H   BYTE   UNIT     EDATA          ?ED?FIFO_INIT?ZF_FIFO
   *DEL*:           00000FH   BYTE   UNIT     EDATA          ?ED?FIFO_READ_BUFFER?ZF_FIFO
   *DEL*:           00008BH   BYTE   INSEG    CODE           ?PR?LCD_SHOWUINT16?SEEKFREE_18TFT
   *DEL*:           000082H   BYTE   INSEG    CODE           ?PR?LCD_SHOWINT32_SIMSPI?SEEKFREE_18TFT
   *DEL*:           0000DDH   BYTE   INSEG    CODE           ?PR?LCD_SHOWINT16_SIMSPI?SEEKFREE_18TFT
   *DEL*:           000082H   BYTE   INSEG    CODE           ?PR?LCD_SHOWINT32?SEEKFREE_18TFT
   *DEL*:           0000DDH   BYTE   INSEG    CODE           ?PR?LCD_SHOWINT16?SEEKFREE_18TFT
   *DEL*:           00002BH   BYTE   INSEG    CODE           ?PR?LCD_CLEAR_SIMSPI?SEEKFREE_18TFT
   *DEL*:           00002BH   BYTE   INSEG    CODE           ?PR?LCD_CLEAR?SEEKFREE_18TFT
   *DEL*:           00004EH   BYTE   INSEG    CODE           ?PR?LCD_SHOWSTR_SIMSPI?SEEKFREE_18TFT
   *DEL*:           00004EH   BYTE   INSEG    CODE           ?PR?LCD_SHOWSTR?SEEKFREE_18TFT
   *DEL*:           000029H   BYTE   INSEG    CODE           ?PR?LCD_WRITEINDEX_SIMSPI?SEEKFREE_18TFT
   *DEL*:           000029H   BYTE   INSEG    CODE           ?PR?LCD_WRITEDATA_SIMSPI?SEEKFREE_18TFT
   *DEL*:           00000AH   BYTE   INSEG    CODE           ?PR?LCD_WRITEINDEX?SEEKFREE_18TFT
   *DEL*:           00000AH   BYTE   INSEG    CODE           ?PR?LCD_WRITEDATA?SEEKFREE_18TFT
   *DEL*:           00002CH   BYTE   INSEG    CODE           ?PR?LCD_WRITEDATA_16BIT_SIMSPI?SEEKFREE_18TFT
   *DEL*:           00004CH   BYTE   INSEG    CODE           ?PR?LCD_SET_REGION_SIMSPI?SEEKFREE_18TFT
   *DEL*:           0001F1H   BYTE   INSEG    CODE           ?PR?LCD_INIT_SIMSPI?SEEKFREE_18TFT
   *DEL*:           00009AH   BYTE   INSEG    CODE           ?PR?SHOWIMAGE?SEEKFREE_18TFT
   *DEL*:           000050H   BYTE   INSEG    CODE           ?PR?LCD_SET_REGION?SEEKFREE_18TFT
L251 LINKER/LOCATER V4.66.93.0                                                        03/21/2024  17:39:21  PAGE 8


   *DEL*:           0001EEH   BYTE   INSEG    CODE           ?PR?LCD_INIT?SEEKFREE_18TFT
   *DEL*:           00007BH   BYTE   INSEG    CODE           ?PR?LCD_SHOWUINT8_SIMSPI?SEEKFREE_18TFT
   *DEL*:           00007BH   BYTE   INSEG    CODE           ?PR?LCD_SHOWUINT8?SEEKFREE_18TFT
   *DEL*:           0000B9H   BYTE   INSEG    CODE           ?PR?LCD_SHOWINT8_SIMSPI?SEEKFREE_18TFT
   *DEL*:           0000B9H   BYTE   INSEG    CODE           ?PR?LCD_SHOWINT8?SEEKFREE_18TFT
   *DEL*:           00001FH   BYTE   INSEG    CODE           ?PR?LCD_WRITEDATA_16BIT?SEEKFREE_18TFT
   *DEL*:           0000F8H   BYTE   INSEG    CODE           ?PR?LCD_SHOWFLOAT_SIMSPI?SEEKFREE_18TFT
   *DEL*:           000013H   BYTE   INSEG    CODE           ?PR?LCD_DRAWPOINT_SIMSPI?SEEKFREE_18TFT
   *DEL*:           0000F8H   BYTE   INSEG    CODE           ?PR?LCD_SHOWFLOAT?SEEKFREE_18TFT
   *DEL*:           000013H   BYTE   INSEG    CODE           ?PR?LCD_DRAWPOINT?SEEKFREE_18TFT
   *DEL*:           00008EH   BYTE   INSEG    CODE           ?PR?LCD_SHOWCHAR_SIMSPI?SEEKFREE_18TFT
   *DEL*:           00008EH   BYTE   INSEG    CODE           ?PR?LCD_SHOWCHAR?SEEKFREE_18TFT
   *DEL*:           00008BH   BYTE   INSEG    CODE           ?PR?LCD_SHOWUINT16_SIMSPI?SEEKFREE_18TFT
   *DEL*:           000004H   BYTE   UNIT     EDATA          ?ED?LCD_SET_REGION_SIMSPI?SEEKFREE_18TFT
   *DEL*:           000004H   BYTE   UNIT     EDATA          ?ED?LCD_SHOWCHAR_SIMSPI?SEEKFREE_18TFT
   *DEL*:           000006H   BYTE   UNIT     EDATA          ?ED?LCD_SHOWSTR_SIMSPI?SEEKFREE_18TFT
   *DEL*:           000005H   BYTE   UNIT     EDATA          ?ED?LCD_SHOWINT8_SIMSPI?SEEKFREE_18TFT
   *DEL*:           000004H   BYTE   UNIT     EDATA          ?ED?LCD_SHOWUINT8_SIMSPI?SEEKFREE_18TFT
   *DEL*:           000008H   BYTE   UNIT     EDATA          ?ED?LCD_SHOWINT16_SIMSPI?SEEKFREE_18TFT
   *DEL*:           000006H   BYTE   UNIT     EDATA          ?ED?LCD_SHOWUINT16_SIMSPI?SEEKFREE_18TFT
   *DEL*:           000028H   BYTE   UNIT     EDATA          ?ED?LCD_SHOWINT32_SIMSPI?SEEKFREE_18TFT
   *DEL*:           00002BH   BYTE   UNIT     EDATA          ?ED?LCD_SHOWFLOAT_SIMSPI?SEEKFREE_18TFT
   *DEL*:           000002H   BYTE   UNIT     EDATA          ?ED?LCD_WRITEDATA_16BIT?SEEKFREE_18TFT
   *DEL*:           000004H   BYTE   UNIT     EDATA          ?ED?LCD_SET_REGION?SEEKFREE_18TFT
   *DEL*:           000004H   BYTE   UNIT     EDATA          ?ED?LCD_SHOWCHAR?SEEKFREE_18TFT
   *DEL*:           000006H   BYTE   UNIT     EDATA          ?ED?LCD_SHOWSTR?SEEKFREE_18TFT
   *DEL*:           000005H   BYTE   UNIT     EDATA          ?ED?LCD_SHOWINT8?SEEKFREE_18TFT
   *DEL*:           000004H   BYTE   UNIT     EDATA          ?ED?LCD_SHOWUINT8?SEEKFREE_18TFT
   *DEL*:           000008H   BYTE   UNIT     EDATA          ?ED?LCD_SHOWINT16?SEEKFREE_18TFT
   *DEL*:           000006H   BYTE   UNIT     EDATA          ?ED?LCD_SHOWUINT16?SEEKFREE_18TFT
   *DEL*:           000028H   BYTE   UNIT     EDATA          ?ED?LCD_SHOWINT32?SEEKFREE_18TFT
   *DEL*:           00002BH   BYTE   UNIT     EDATA          ?ED?LCD_SHOWFLOAT?SEEKFREE_18TFT
   *DEL*:           000008H   BYTE   UNIT     EDATA          ?ED?SHOWIMAGE?SEEKFREE_18TFT
   *DEL*:           000011H   BYTE   INSEG    CODE           ?PR?ENCODER_SELF4_CHECK?SEEKFREE_ABSOLUTE_ENCODER
   *DEL*:           000011H   BYTE   INSEG    CODE           ?PR?ENCODER_SELF5_CHECK?SEEKFREE_ABSOLUTE_ENCODER
   *DEL*:           00002FH   BYTE   INSEG    CODE           ?PR?ENCODER_SPI_R_REG_BYTE?SEEKFREE_ABSOLUTE_ENCODER
   *DEL*:           000005H   BYTE   INSEG    CODE           ?PR?ENCODER_DELAY_US?SEEKFREE_ABSOLUTE_ENCODER
   *DEL*:           000038H   BYTE   INSEG    CODE           ?PR?ENCODER_SPI_W_REG_BYTE?SEEKFREE_ABSOLUTE_ENCODER
   *DEL*:           00001CH   BYTE   INSEG    CODE           ?PR?SIMSPI_R_REG_BYTE?SEEKFREE_ABSOLUTE_ENCODER
   *DEL*:           00001AH   BYTE   INSEG    CODE           ?PR?SIMSPI_W_REG_BYTE?SEEKFREE_ABSOLUTE_ENCODER
   *DEL*:           000029H   BYTE   INSEG    CODE           ?PR?ENCODER_INIT_SPI?SEEKFREE_ABSOLUTE_ENCODER
   *DEL*:           000004H   BYTE   INSEG    CODE           ?PR?SPI_WR_BYTE?SEEKFREE_ABSOLUTE_ENCODER
   *DEL*:           000024H   BYTE   INSEG    CODE           ?PR?SET_ZERO_POSITION_SIMSPI?SEEKFREE_ABSOLUTE_ENCODER
   *DEL*:           000023H   BYTE   INSEG    CODE           ?PR?ENCODER_ANGLE_SIMSPI?SEEKFREE_ABSOLUTE_ENCODER
   *DEL*:           00001CH   BYTE   INSEG    CODE           ?PR?SPI_R_REG_BYTE?SEEKFREE_ABSOLUTE_ENCODER
   *DEL*:           00001AH   BYTE   INSEG    CODE           ?PR?SPI_W_REG_BYTE?SEEKFREE_ABSOLUTE_ENCODER
   *DEL*:           00002FH   BYTE   INSEG    CODE           ?PR?ENCODER_SIMSPI_R_REG_BYTE?SEEKFREE_ABSOLUTE_ENCODER
   *DEL*:           000038H   BYTE   INSEG    CODE           ?PR?ENCODER_SIMSPI_W_REG_BYTE?SEEKFREE_ABSOLUTE_ENCODER
   *DEL*:           00000FH   BYTE   INSEG    CODE           ?PR?ENCODER_INIT_SIMSPI?SEEKFREE_ABSOLUTE_ENCODER
   *DEL*:           000024H   BYTE   INSEG    CODE           ?PR?SET_ZERO_POSITION_SPI?SEEKFREE_ABSOLUTE_ENCODER
   *DEL*:           00001FH   BYTE   INSEG    CODE           ?PR?SIMSPI_WR_BYTE?SEEKFREE_ABSOLUTE_ENCODER
   *DEL*:           000023H   BYTE   INSEG    CODE           ?PR?ENCODER_ANGLE_SPI?SEEKFREE_ABSOLUTE_ENCODER
   *DEL*:           000001H   BYTE   UNIT     EDATA          ?ED?ENCODER_SELF4_CHECK?SEEKFREE_ABSOLUTE_ENCODER
   *DEL*:           000001H   BYTE   UNIT     EDATA          ?ED?ENCODER_SELF5_CHECK?SEEKFREE_ABSOLUTE_ENCODER
   *DEL*:           00000FH   BYTE   INSEG    CODE           ?PR?SIMIIC_START?SEEKFREE_IIC
   *DEL*:           000066H   BYTE   INSEG    CODE           ?PR?SIMIIC_READ_REGS?SEEKFREE_IIC
   *DEL*:           000001H   BYTE   INSEG    CODE           ?PR?SIMIIC_INIT?SEEKFREE_IIC
   *DEL*:           000034H   BYTE   INSEG    CODE           ?PR?SIMIIC_READ_REG?SEEKFREE_IIC
   *DEL*:           000011H   BYTE   INSEG    CODE           ?PR?SIMIIC_STOP?SEEKFREE_IIC
   *DEL*:           000022H   BYTE   INSEG    CODE           ?PR?SIMIIC_WRITE_REG?SEEKFREE_IIC
   *DEL*:           000020H   BYTE   INSEG    CODE           ?PR?SIMIIC_SENDACK?SEEKFREE_IIC
   *DEL*:           00003BH   BYTE   INSEG    CODE           ?PR?READ_CH?SEEKFREE_IIC
   *DEL*:           00002EH   BYTE   INSEG    CODE           ?PR?SEND_CH?SEEKFREE_IIC
   *DEL*:           00001CH   BYTE   INSEG    CODE           ?PR?SCCB_WAITACK?SEEKFREE_IIC
   *DEL*:           00000BH   BYTE   INSEG    CODE           ?PR?SIMIIC_DELAY?SEEKFREE_IIC
L251 LINKER/LOCATER V4.66.93.0                                                        03/21/2024  17:39:21  PAGE 9


   *DEL*:           000005H   BYTE   UNIT     EDATA          ?ED?SIMIIC_READ_REGS?SEEKFREE_IIC
   *DEL*:           000055H   BYTE   INSEG    CODE           ?PR?MPU6050_INIT?SEEKFREE_MPU6050
   *DEL*:           00002CH   BYTE   INSEG    CODE           ?PR?MPU6050_SELF1_CHECK?SEEKFREE_MPU6050
   *DEL*:           000044H   BYTE   INSEG    CODE           ?PR?MPU6050_GET_GYRO?SEEKFREE_MPU6050
   *DEL*:           000044H   BYTE   INSEG    CODE           ?PR?MPU6050_GET_ACCDATA?SEEKFREE_MPU6050
   *DEL*:           000006H   BYTE   UNIT     EDATA          ?ED?MPU6050_GET_ACCDATA?SEEKFREE_MPU6050
   *DEL*:           000006H   BYTE   UNIT     EDATA          ?ED?MPU6050_GET_GYRO?SEEKFREE_MPU6050
   *DEL*:           000033H   BYTE   INSEG    CODE           ?PR?OLED_PUTPIXEL?SEEKFREE_OLED
   *DEL*:           000032H   BYTE   INSEG    CODE           ?PR?OLED_HEXASCII_SPI?SEEKFREE_OLED
   *DEL*:           000325H   BYTE   INSEG    CODE           ?PR?OLED_DIS_BMP_SPI?SEEKFREE_OLED
   *DEL*:           0000E8H   BYTE   INSEG    CODE           ?PR?OLED_P8X16STR_SPI?SEEKFREE_OLED
   *DEL*:           00002AH   BYTE   INSEG    CODE           ?PR?OLED_CLRPIXEL_SPI?SEEKFREE_OLED
   *DEL*:           000090H   BYTE   INSEG    CODE           ?PR?OLED_PRINT_CHINESE_SPI?SEEKFREE_OLED
   *DEL*:           000082H   BYTE   INSEG    CODE           ?PR?OLED_PRINTF_INT32?SEEKFREE_OLED
   *DEL*:           00001DH   BYTE   INSEG    CODE           ?PR?OLED_UINT16?SEEKFREE_OLED
   *DEL*:           000031H   BYTE   INSEG    CODE           ?PR?OLED_PUTPIXEL_SPI?SEEKFREE_OLED
   *DEL*:           000021H   BYTE   INSEG    CODE           ?PR?OLED_SET_POS_SPI?SEEKFREE_OLED
   *DEL*:           0000A9H   BYTE   INSEG    CODE           ?PR?OLED_P6X8STR?SEEKFREE_OLED
   *DEL*:           00004BH   BYTE   INSEG    CODE           ?PR?OLED_INT16?SEEKFREE_OLED
   *DEL*:           0000F8H   BYTE   INSEG    CODE           ?PR?OLED_PRINTF_FLOAT_SPI?SEEKFREE_OLED
   *DEL*:           00000AH   BYTE   INSEG    CODE           ?PR?OLED_WRCMD_SPI?SEEKFREE_OLED
   *DEL*:           00000AH   BYTE   INSEG    CODE           ?PR?OLED_WRDAT_SPI?SEEKFREE_OLED
   *DEL*:           000032H   BYTE   INSEG    CODE           ?PR?OLED_HEXASCII?SEEKFREE_OLED
   *DEL*:           000033H   BYTE   INSEG    CODE           ?PR?OLED_FILL_SPI?SEEKFREE_OLED
   *DEL*:           000082H   BYTE   INSEG    CODE           ?PR?OLED_PRINTF_INT32_SPI?SEEKFREE_OLED
   *DEL*:           00001DH   BYTE   INSEG    CODE           ?PR?OLED_UINT16_SPI?SEEKFREE_OLED
   *DEL*:           0000A9H   BYTE   INSEG    CODE           ?PR?OLED_P6X8STR_SPI?SEEKFREE_OLED
   *DEL*:           00004BH   BYTE   INSEG    CODE           ?PR?OLED_INT16_SPI?SEEKFREE_OLED
   *DEL*:           00033BH   BYTE   INSEG    CODE           ?PR?OLED_DIS_BMP?SEEKFREE_OLED
   *DEL*:           0000BFH   BYTE   INSEG    CODE           ?PR?OLED_INIT_SPI?SEEKFREE_OLED
   *DEL*:           00002CH   BYTE   INSEG    CODE           ?PR?OLED_CLRPIXEL?SEEKFREE_OLED
   *DEL*:           000090H   BYTE   INSEG    CODE           ?PR?OLED_PRINT_CHINESE?SEEKFREE_OLED
   *DEL*:           000005H   BYTE   UNIT     EDATA          ?ED?OLED_P6X8STR?SEEKFREE_OLED
   *DEL*:           000007H   BYTE   UNIT     EDATA          ?ED?OLED_UINT16?SEEKFREE_OLED
   *DEL*:           000007H   BYTE   UNIT     EDATA          ?ED?OLED_INT16?SEEKFREE_OLED
   *DEL*:           000028H   BYTE   UNIT     EDATA          ?ED?OLED_PRINTF_INT32?SEEKFREE_OLED
   *DEL*:           00000CH   BYTE   UNIT     EDATA          ?ED?OLED_DIS_BMP?SEEKFREE_OLED
   *DEL*:           00000AH   BYTE   UNIT     EDATA          ?ED?OLED_PRINT_CHINESE?SEEKFREE_OLED
   *DEL*:           000005H   BYTE   UNIT     EDATA          ?ED?OLED_P6X8STR_SPI?SEEKFREE_OLED
   *DEL*:           000005H   BYTE   UNIT     EDATA          ?ED?OLED_P8X16STR_SPI?SEEKFREE_OLED
   *DEL*:           000007H   BYTE   UNIT     EDATA          ?ED?OLED_UINT16_SPI?SEEKFREE_OLED
   *DEL*:           000007H   BYTE   UNIT     EDATA          ?ED?OLED_INT16_SPI?SEEKFREE_OLED
   *DEL*:           000028H   BYTE   UNIT     EDATA          ?ED?OLED_PRINTF_INT32_SPI?SEEKFREE_OLED
   *DEL*:           00002BH   BYTE   UNIT     EDATA          ?ED?OLED_PRINTF_FLOAT_SPI?SEEKFREE_OLED
   *DEL*:           00000CH   BYTE   UNIT     EDATA          ?ED?OLED_DIS_BMP_SPI?SEEKFREE_OLED
   *DEL*:           00000AH   BYTE   UNIT     EDATA          ?ED?OLED_PRINT_CHINESE_SPI?SEEKFREE_OLED
   *DEL*:           00005EH   BYTE   INSEG    CODE           ?PR?AT24C02_READ_BYTES?SEEKFREE_AT24C02
   *DEL*:           000017H   BYTE   INSEG    CODE           ?PR?AT24C02_READ_BYTE?SEEKFREE_AT24C02
   *DEL*:           00005BH   BYTE   INSEG    CODE           ?PR?AT24C02_WRITE_BYTES?SEEKFREE_AT24C02
   *DEL*:           000019H   BYTE   INSEG    CODE           ?PR?AT24C02_WRITE_BYTE?SEEKFREE_AT24C02
   *DEL*:           000002H   BYTE   UNIT     EDATA          ?ED?AT24C02_WRITE_BYTES?SEEKFREE_AT24C02
   *DEL*:           000002H   BYTE   UNIT     EDATA          ?ED?AT24C02_READ_BYTES?SEEKFREE_AT24C02
   *DEL*:           000022H   BYTE   INSEG    CODE           ?PR?BLUETOOTH_CH9141_READ_BUFF?SEEKFREE_BLUETOOTH_CH9141
   *DEL*:           0000ABH   BYTE   INSEG    CODE           ?PR?BLUETOOTH_CH9141_SEND_BUFF?SEEKFREE_BLUETOOTH_CH9141
   *DEL*:           00003CH   BYTE   INSEG    CODE           ?PR?BLUETOOTH_CH9141_INIT?SEEKFREE_BLUETOOTH_CH9141
   *DEL*:           000006H   BYTE   UNIT     EDATA          ?ED?BLUETOOTH_CH9141_SEND_BUFF?SEEKFREE_BLUETOOTH_CH9141
   *DEL*:           000004H   BYTE   UNIT     EDATA          ?ED?BLUETOOTH_CH9141_READ_BUFF?SEEKFREE_BLUETOOTH_CH9141
   *DEL*:           00001FH   BYTE   INSEG    CODE           ?PR?ICM_SIMSPI_WR_BYTE?SEEKFREE_ICM20602
   *DEL*:           000075H   BYTE   INSEG    CODE           ?PR?ICM20602_INIT_SIMIIC?SEEKFREE_ICM20602
   *DEL*:           000040H   BYTE   INSEG    CODE           ?PR?ICM_SIMSPI_R_REG_BYTES?SEEKFREE_ICM20602
   *DEL*:           00001CH   BYTE   INSEG    CODE           ?PR?ICM_SIMSPI_R_REG_BYTE?SEEKFREE_ICM20602
   *DEL*:           000013H   BYTE   INSEG    CODE           ?PR?ICM_SIMSPI_W_REG_BYTE?SEEKFREE_ICM20602
   *DEL*:           000059H   BYTE   INSEG    CODE           ?PR?ICM20602_INIT_SIMSPI?SEEKFREE_ICM20602
   *DEL*:           00002BH   BYTE   INSEG    CODE           ?PR?ICM20602_SELF1_CHECK?SEEKFREE_ICM20602
   *DEL*:           000011H   BYTE   INSEG    CODE           ?PR?ICM20602_SELF4_CHECK?SEEKFREE_ICM20602
L251 LINKER/LOCATER V4.66.93.0                                                        03/21/2024  17:39:21  PAGE 10


   *DEL*:           000044H   BYTE   INSEG    CODE           ?PR?GET_ICM20602_GYRO_SIMIIC?SEEKFREE_ICM20602
   *DEL*:           000044H   BYTE   INSEG    CODE           ?PR?GET_ICM20602_ACCDATA_SIMIIC?SEEKFREE_ICM20602
   *DEL*:           00003DH   BYTE   INSEG    CODE           ?PR?GET_ICM20602_GYRO_SIMSPI?SEEKFREE_ICM20602
   *DEL*:           00003DH   BYTE   INSEG    CODE           ?PR?GET_ICM20602_ACCDATA_SIMSPI?SEEKFREE_ICM20602
   *DEL*:           000006H   BYTE   UNIT     EDATA          ?ED?GET_ICM20602_ACCDATA_SIMIIC?SEEKFREE_ICM20602
   *DEL*:           000006H   BYTE   UNIT     EDATA          ?ED?GET_ICM20602_GYRO_SIMIIC?SEEKFREE_ICM20602
   *DEL*:           000003H   BYTE   UNIT     EDATA          ?ED?ICM_SIMSPI_R_REG_BYTES?SEEKFREE_ICM20602
   *DEL*:           000001H   BYTE   UNIT     EDATA          ?ED?ICM20602_SELF4_CHECK?SEEKFREE_ICM20602
   *DEL*:           000001H   BYTE   UNIT     EDATA          ?ED?ICM20602_INIT_SIMSPI?SEEKFREE_ICM20602
   *DEL*:           000006H   BYTE   UNIT     EDATA          ?ED?GET_ICM20602_ACCDATA_SIMSPI?SEEKFREE_ICM20602
   *DEL*:           000006H   BYTE   UNIT     EDATA          ?ED?GET_ICM20602_GYRO_SIMSPI?SEEKFREE_ICM20602
   *DEL*:           00007BH   BYTE   INSEG    CODE           ?PR?IPS114_SHOWUINT8_SIMSPI?SEEKFREE_IPS114_SPI
   *DEL*:           000077H   BYTE   INSEG    CODE           ?PR?IPS114_SHOWUINT8?SEEKFREE_IPS114_SPI
   *DEL*:           0000B9H   BYTE   INSEG    CODE           ?PR?IPS114_SHOWINT8_SIMSPI?SEEKFREE_IPS114_SPI
   *DEL*:           0000B5H   BYTE   INSEG    CODE           ?PR?IPS114_SHOWINT8?SEEKFREE_IPS114_SPI
   *DEL*:           00001FH   BYTE   INSEG    CODE           ?PR?IPS114_WRITEDATA_16BIT?SEEKFREE_IPS114_SPI
   *DEL*:           0000F8H   BYTE   INSEG    CODE           ?PR?IPS114_SHOWFLOAT_SIMSPI?SEEKFREE_IPS114_SPI
   *DEL*:           000013H   BYTE   INSEG    CODE           ?PR?IPS114_DRAWPOINT_SIMSPI?SEEKFREE_IPS114_SPI
   *DEL*:           0000F8H   BYTE   INSEG    CODE           ?PR?IPS114_SHOWFLOAT?SEEKFREE_IPS114_SPI
   *DEL*:           000013H   BYTE   INSEG    CODE           ?PR?IPS114_DRAWPOINT?SEEKFREE_IPS114_SPI
   *DEL*:           00008EH   BYTE   INSEG    CODE           ?PR?IPS114_SHOWCHAR_SIMSPI?SEEKFREE_IPS114_SPI
   *DEL*:           00008EH   BYTE   INSEG    CODE           ?PR?IPS114_SHOWCHAR?SEEKFREE_IPS114_SPI
   *DEL*:           00008BH   BYTE   INSEG    CODE           ?PR?IPS114_SHOWUINT16_SIMSPI?SEEKFREE_IPS114_SPI
   *DEL*:           00008BH   BYTE   INSEG    CODE           ?PR?IPS114_SHOWUINT16?SEEKFREE_IPS114_SPI
   *DEL*:           000082H   BYTE   INSEG    CODE           ?PR?IPS114_SHOWINT32_SIMSPI?SEEKFREE_IPS114_SPI
   *DEL*:           0000DDH   BYTE   INSEG    CODE           ?PR?IPS114_SHOWINT16_SIMSPI?SEEKFREE_IPS114_SPI
   *DEL*:           000082H   BYTE   INSEG    CODE           ?PR?IPS114_SHOWINT32?SEEKFREE_IPS114_SPI
   *DEL*:           0000D9H   BYTE   INSEG    CODE           ?PR?IPS114_SHOWINT16?SEEKFREE_IPS114_SPI
   *DEL*:           00003CH   BYTE   INSEG    CODE           ?PR?IPS114_CLEAR_SIMSPI?SEEKFREE_IPS114_SPI
   *DEL*:           00003CH   BYTE   INSEG    CODE           ?PR?IPS114_CLEAR?SEEKFREE_IPS114_SPI
   *DEL*:           00002CH   BYTE   INSEG    CODE           ?PR?IPS114_WRITEDATAI_16BIT_SIMSPI?SEEKFREE_IPS114_SPI
   *DEL*:           00004EH   BYTE   INSEG    CODE           ?PR?IPS114_SHOWSTR_SIMSPI?SEEKFREE_IPS114_SPI
   *DEL*:           00004EH   BYTE   INSEG    CODE           ?PR?IPS114_SHOWSTR?SEEKFREE_IPS114_SPI
   *DEL*:           000029H   BYTE   INSEG    CODE           ?PR?IPS114_WRITEINDEX_SIMSPI?SEEKFREE_IPS114_SPI
   *DEL*:           000029H   BYTE   INSEG    CODE           ?PR?IPS114_WRITEDATA_SIMSPI?SEEKFREE_IPS114_SPI
   *DEL*:           00000AH   BYTE   INSEG    CODE           ?PR?IPS114_WRITEINDEX?SEEKFREE_IPS114_SPI
   *DEL*:           00000AH   BYTE   INSEG    CODE           ?PR?IPS114_WRITEDATA?SEEKFREE_IPS114_SPI
   *DEL*:           000044H   BYTE   INSEG    CODE           ?PR?IPS114_SET_REGION_SIMSPI?SEEKFREE_IPS114_SPI
   *DEL*:           00014FH   BYTE   INSEG    CODE           ?PR?IPS114_INIT_SIMSPI?SEEKFREE_IPS114_SPI
   *DEL*:           000048H   BYTE   INSEG    CODE           ?PR?IPS114_SET_REGION?SEEKFREE_IPS114_SPI
   *DEL*:           00016DH   BYTE   INSEG    CODE           ?PR?IPS114_INIT?SEEKFREE_IPS114_SPI
   *DEL*:           000004H   BYTE   UNIT     EDATA          ?ED?IPS114_SET_REGION_SIMSPI?SEEKFREE_IPS114_SPI
   *DEL*:           000002H   BYTE   UNIT     EDATA          ?ED?IPS114_CLEAR_SIMSPI?SEEKFREE_IPS114_SPI
   *DEL*:           000004H   BYTE   UNIT     EDATA          ?ED?IPS114_SHOWCHAR_SIMSPI?SEEKFREE_IPS114_SPI
   *DEL*:           000006H   BYTE   UNIT     EDATA          ?ED?IPS114_SHOWSTR_SIMSPI?SEEKFREE_IPS114_SPI
   *DEL*:           000005H   BYTE   UNIT     EDATA          ?ED?IPS114_SHOWINT8_SIMSPI?SEEKFREE_IPS114_SPI
   *DEL*:           000004H   BYTE   UNIT     EDATA          ?ED?IPS114_SHOWUINT8_SIMSPI?SEEKFREE_IPS114_SPI
   *DEL*:           000008H   BYTE   UNIT     EDATA          ?ED?IPS114_SHOWINT16_SIMSPI?SEEKFREE_IPS114_SPI
   *DEL*:           000006H   BYTE   UNIT     EDATA          ?ED?IPS114_SHOWUINT16_SIMSPI?SEEKFREE_IPS114_SPI
   *DEL*:           000028H   BYTE   UNIT     EDATA          ?ED?IPS114_SHOWINT32_SIMSPI?SEEKFREE_IPS114_SPI
   *DEL*:           00002BH   BYTE   UNIT     EDATA          ?ED?IPS114_SHOWFLOAT_SIMSPI?SEEKFREE_IPS114_SPI
   *DEL*:           000002H   BYTE   UNIT     EDATA          ?ED?IPS114_WRITEDATA_16BIT?SEEKFREE_IPS114_SPI
   *DEL*:           000004H   BYTE   UNIT     EDATA          ?ED?IPS114_SET_REGION?SEEKFREE_IPS114_SPI
   *DEL*:           000002H   BYTE   UNIT     EDATA          ?ED?IPS114_CLEAR?SEEKFREE_IPS114_SPI
   *DEL*:           000004H   BYTE   UNIT     EDATA          ?ED?IPS114_SHOWCHAR?SEEKFREE_IPS114_SPI
   *DEL*:           000006H   BYTE   UNIT     EDATA          ?ED?IPS114_SHOWSTR?SEEKFREE_IPS114_SPI
   *DEL*:           000005H   BYTE   UNIT     EDATA          ?ED?IPS114_SHOWINT8?SEEKFREE_IPS114_SPI
   *DEL*:           000004H   BYTE   UNIT     EDATA          ?ED?IPS114_SHOWUINT8?SEEKFREE_IPS114_SPI
   *DEL*:           000008H   BYTE   UNIT     EDATA          ?ED?IPS114_SHOWINT16?SEEKFREE_IPS114_SPI
   *DEL*:           000006H   BYTE   UNIT     EDATA          ?ED?IPS114_SHOWUINT16?SEEKFREE_IPS114_SPI
   *DEL*:           000028H   BYTE   UNIT     EDATA          ?ED?IPS114_SHOWINT32?SEEKFREE_IPS114_SPI
   *DEL*:           00002BH   BYTE   UNIT     EDATA          ?ED?IPS114_SHOWFLOAT?SEEKFREE_IPS114_SPI
   *DEL*:           000070H   BYTE   INSEG    CODE           ?PR?CCD_SEND_DATA?SEEKFREE_TSL1401
   *DEL*:           000016H   BYTE   INSEG    CODE           ?PR?CCD_INIT?SEEKFREE_TSL1401
   *DEL*:           000035H   BYTE   INSEG    CODE           ?PR?CCD_COLLECT?SEEKFREE_TSL1401
L251 LINKER/LOCATER V4.66.93.0                                                        03/21/2024  17:39:21  PAGE 11


   *DEL*:           000003H   BYTE   UNIT     EDATA          ?ED?CCD_SEND_DATA?SEEKFREE_TSL1401
   *DEL*:           00003AH   BYTE   INSEG    CODE           ?PR?CRC_CHECK?SEEKFREE_VIRSCO
   *DEL*:           000069H   BYTE   INSEG    CODE           ?PR?DATA_CONVERSION?SEEKFREE_VIRSCO
   *DEL*:           000004H   BYTE   UNIT     EDATA          ?ED?DATA_CONVERSION?SEEKFREE_VIRSCO
   *DEL*:           000022H   BYTE   INSEG    CODE           ?PR?WIRELESS_UART_READ_BUFF?SEEKFREE_WIRELESS
   *DEL*:           00005DH   BYTE   INSEG    CODE           ?PR?WIRELESS_UART_SEND_BUFF?SEEKFREE_WIRELESS
   *DEL*:           00003CH   BYTE   INSEG    CODE           ?PR?WIRELESS_UART_INIT?SEEKFREE_WIRELESS
   *DEL*:           000002H   BYTE   UNIT     EDATA          ?ED?WIRELESS_UART_SEND_BUFF?SEEKFREE_WIRELESS
   *DEL*:           000004H   BYTE   UNIT     EDATA          ?ED?WIRELESS_UART_READ_BUFF?SEEKFREE_WIRELESS
   *DEL*:           000022H   BYTE   INSEG    CODE           ?PR?WIRELESS_CH573_READ_BUFF?SEEKFREE_WIRELESS_CH573
   *DEL*:           00005DH   BYTE   INSEG    CODE           ?PR?WIRELESS_CH573_SEND_BUFF?SEEKFREE_WIRELESS_CH573
   *DEL*:           00003CH   BYTE   INSEG    CODE           ?PR?WIRELESS_CH573_INIT?SEEKFREE_WIRELESS_CH573
   *DEL*:           000002H   BYTE   UNIT     EDATA          ?ED?WIRELESS_CH573_SEND_BUFF?SEEKFREE_WIRELESS_CH573
   *DEL*:           000004H   BYTE   UNIT     EDATA          ?ED?WIRELESS_CH573_READ_BUFF?SEEKFREE_WIRELESS_CH573
   *DEL*:           000012H   BYTE   INSEG    CODE           ?PR?MOTOR_TEST?MOTOR
   *DEL*:           000011H   BYTE   INSEG    CODE           ?PR?NUM2ABS?MOTOR
   *DEL*:           000130H   BYTE   INSEG    CODE           ?PR?PID_INCREMENTAL_CALC?PID
   *DEL*:           000081H   BYTE   INSEG    CODE           ?PR?PID_INCREMENTAL_INIT?PID
   *DEL*:           00000DH   BYTE   UNIT     EDATA          ?ED?PID_INCREMENTAL_INIT?PID
   *DEL*:           000004H   BYTE   UNIT     EDATA          ?ED?PID_INCREMENTAL_CALC?PID
   *DEL*:           000013H   BYTE   INSEG    CODE           ?PR?MPU_SET_GYRO_FSR?MPU6050
   *DEL*:           000058H   BYTE   INSEG    CODE           ?PR?MPU_GET_ACCELEROMETER?MPU6050
   *DEL*:           000041H   BYTE   INSEG    CODE           ?PR?MPU_SET_LPF?MPU6050
   *DEL*:           000016H   BYTE   INSEG    CODE           ?PR?MPU_READ_BYTE?MPU6050
   *DEL*:           000013H   BYTE   INSEG    CODE           ?PR?MPU_SET_ACCEL_FSR?MPU6050
   *DEL*:           000031H   BYTE   INSEG    CODE           ?PR?ZERO_ALL?MPU6050
   *DEL*:           000069H   BYTE   INSEG    CODE           ?PR?MPU_INIT?MPU6050
   *DEL*:           00003BH   BYTE   INSEG    CODE           ?PR?MPU_GET_TEMPERATURE?MPU6050
   *DEL*:           000037H   BYTE   INSEG    CODE           ?PR?MPU_SET_RATE?MPU6050
   *DEL*:           000001H   BYTE   UNIT     EDATA          ?ED?MPU_READ_BYTE?MPU6050
   *DEL*:           000002H   BYTE   UNIT     EDATA          ?ED?MPU_GET_TEMPERATURE?MPU6050
   *DEL*:           00000EH   BYTE   UNIT     EDATA          ?ED?MPU_GET_ACCELEROMETER?MPU6050
   *DEL*:           0000D3H   BYTE   INSEG    CODE           ?PR?ELEM_BARRIER?ELEMENT
   *DEL*:           00002DH   BYTE   INSEG    CODE           ?PR?OLED_CHANGE_VALUE?UI



OVERLAY MAP OF MODULE:   .\Out_File\SEEKFREE (board)


FUNCTION/MODULE                               EDATA_GROUP
--> CALLED FUNCTION/MODULE                    START  STOP
=========================================================
UART1_Isr/isr                                 ----- -----

*** NEW ROOT ********************************

UART2_Isr/isr                                 ----- -----

*** NEW ROOT ********************************

UART3_Isr/isr                                 ----- -----

*** NEW ROOT ********************************

UART4_Isr/isr                                 ----- -----
  +--> wireless_uart_callback/SEEKFREE_WIRELESS
  +--> bluetooth_ch9141_uart_callback/SEEKFREE_BLUETOOTH_CH9141
  +--> wireless_ch573_callback/SEEKFREE_WIRELESS_CH573

wireless_uart_callback/SEEKFREE_WIRELESS      ----- -----
  +--> fifo_write_buffer/zf_fifo

fifo_write_buffer/zf_fifo                     03FEH 0409H
  +--> memcpy?_/memcpy
L251 LINKER/LOCATER V4.66.93.0                                                        03/21/2024  17:39:21  PAGE 12


  +--> fifo_head_offset/zf_fifo

memcpy?_/memcpy                               ----- -----

fifo_head_offset/zf_fifo                      ----- -----

bluetooth_ch9141_uart_callback/SEEKFREE_+     ----- -----
... BLUETOOTH_CH9141
  +--> fifo_write_buffer/zf_fifo

wireless_ch573_callback/SEEKFREE_WIRELES+     ----- -----
... S_CH573
  +--> fifo_write_buffer/zf_fifo

*** NEW ROOT ********************************

INT0_Isr/isr                                  ----- -----

*** NEW ROOT ********************************

INT1_Isr/isr                                  ----- -----

*** NEW ROOT ********************************

INT2_Isr/isr                                  ----- -----

*** NEW ROOT ********************************

INT3_Isr/isr                                  ----- -----

*** NEW ROOT ********************************

INT4_Isr/isr                                  ----- -----

*** NEW ROOT ********************************

TM0_Isr/isr                                   ----- -----

*** NEW ROOT ********************************

TM1_Isr/isr                                   ----- -----

*** NEW ROOT ********************************

TM2_Isr/isr                                   ----- -----

*** NEW ROOT ********************************

TM3_Isr/isr                                   ----- -----

*** NEW ROOT ********************************

TM4_Isr/isr                                   ----- -----
  +--> pwm_duty/zf_pwm

pwm_duty/zf_pwm                               ----- -----

*** NEW ROOT ********************************

?C_C51STARTUP                                 ----- -----

*** NEW ROOT ********************************

?C_C51STARTUP?3                               ----- -----
  +--> main/main
L251 LINKER/LOCATER V4.66.93.0                                                        03/21/2024  17:39:21  PAGE 13



main/main                                     ----- -----
  +--> Init_all/main
  +--> EnableGlobalIRQ/board
  +--> PRINTF/PRINTF
  +--> ui_show/UI
  +--> GetKey_Value/Key
  +--> oled_all_static_state/UI
  +--> ADC_GetValue/ADC
  +--> MPU6050_Refresh_DMP/MPU6050
  +--> MPU_Get_Gyroscope/MPU6050
  +--> Get_Ratio/main
  +--> vl53l0x_get_distance/TOF
  +--> Elem_Circle/Element
  +--> PID_Calculate/PID
  +--> Limit_Out/motor
  +--> Elem_Up_Down/Element
  +--> Get_Speed/motor
  +--> Left_SetSpeed/motor
  +--> Right_SetSpeed/motor

Init_all/main                                 ----- -----
  +--> DisableGlobalIRQ/board
  +--> board_init/board
  +--> gpio_mode/zf_gpio
  +--> Key_Init/Key
  +--> vl53l0x_init/TOF
  +--> ui_init/UI
  +--> MPU6050_DMP_Init/MPU6050
  +--> pit_timer_ms/zf_tim
  +--> ctimer_count_init/zf_tim
  +--> Motor_Init/motor
  +--> Buzzer_Init/Buzzer
  +--> ADC_InitAll/ADC
  +--> PID_Init/PID

DisableGlobalIRQ/board                        ----- -----

board_init/board                              ----- -----
  +--> delay_init/zf_delay
  +--> uart_init/zf_uart

delay_init/zf_delay                           ----- -----
  +--> ?C?SLDIV/?C?SLDIV

?C?SLDIV/?C?SLDIV                             ----- -----
  +--> ?C?ULIDIV/?C?ULDIV

?C?ULIDIV/?C?ULDIV                            ----- -----

uart_init/zf_uart                             040AH 040FH
  +--> ?C?ULIDIV/?C?ULDIV

gpio_mode/zf_gpio                             ----- -----

Key_Init/Key                                  ----- -----
  +--> gpio_mode/zf_gpio

vl53l0x_init/TOF                              040AH 041BH
  +--> memset?_/memset
  +--> delay_ms/zf_delay
  +--> vl53l0x_simiic_read_reg/TOF
  +--> vl53l0x_simiic_write_reg/TOF
  +--> vl53l0x_simiic_read_regs/TOF
  +--> vl53l0x_set_signal_rate_limit/TOF
L251 LINKER/LOCATER V4.66.93.0                                                        03/21/2024  17:39:21  PAGE 14


  +--> vl53l0x_get_spad_info/TOF
  +--> PRINTF/PRINTF
  +--> vl53l0x_simiic_write_dats/TOF
  +--> vl53l0x_get_measurement_timing_budget/TOF
  +--> vl53l0x_set_measurement_timing_budget/TOF
  +--> vl53l0x_perform_single_ref_calibration/TOF

memset?_/memset                               ----- -----

delay_ms/zf_delay                             ----- -----

vl53l0x_simiic_read_reg/TOF                   ----- -----
  +--> vl53l0x_simiic_start/TOF
  +--> vl53l0x_send_ch/TOF
  +--> vl53l0x_read_ch/TOF
  +--> vl53l0x_simiic_stop/TOF

vl53l0x_simiic_start/TOF                      ----- -----
  +--> vl53l0x_simiic_delay/TOF

vl53l0x_simiic_delay/TOF                      ----- -----

vl53l0x_send_ch/TOF                           ----- -----
  +--> vl53l0x_simiic_delay/TOF
  +--> vl53l0x_sccb_waitack/TOF

vl53l0x_sccb_waitack/TOF                      ----- -----
  +--> vl53l0x_simiic_delay/TOF

vl53l0x_read_ch/TOF                           ----- -----
  +--> vl53l0x_simiic_delay/TOF
  +--> vl53l0x_simiic_sendack/TOF

vl53l0x_simiic_sendack/TOF                    ----- -----
  +--> vl53l0x_simiic_delay/TOF

vl53l0x_simiic_stop/TOF                       ----- -----
  +--> vl53l0x_simiic_delay/TOF

vl53l0x_simiic_write_reg/TOF                  ----- -----
  +--> vl53l0x_simiic_start/TOF
  +--> vl53l0x_send_ch/TOF
  +--> vl53l0x_simiic_stop/TOF

vl53l0x_simiic_read_regs/TOF                  0446H 044BH
  +--> vl53l0x_simiic_start/TOF
  +--> vl53l0x_send_ch/TOF
  +--> vl53l0x_read_ch/TOF
  +--> vl53l0x_simiic_stop/TOF

vl53l0x_set_signal_rate_limit/TOF             041CH 041EH
  +--> vl53l0x_simiic_write_dats/TOF

vl53l0x_simiic_write_dats/TOF                 043FH 0443H
  +--> vl53l0x_simiic_start/TOF
  +--> vl53l0x_send_ch/TOF
  +--> vl53l0x_simiic_stop/TOF

vl53l0x_get_spad_info/TOF                     041CH 0423H
  +--> vl53l0x_simiic_write_reg/TOF
  +--> vl53l0x_simiic_read_regs/TOF

PRINTF/PRINTF                                 041CH 0443H
  +--> OUT/PRINTF

L251 LINKER/LOCATER V4.66.93.0                                                        03/21/2024  17:39:21  PAGE 15


OUT/PRINTF                                    ----- -----
  +--> PUTCH/PRINTF

PUTCH/PRINTF                                  ----- -----
  +--> putchar/board
  +--> OUT/PRINTF

putchar/board                                 ----- -----
  +--> uart_putchar/zf_uart

uart_putchar/zf_uart                          ----- -----

vl53l0x_get_measurement_timing_budget/TO+     041CH 0436H
... F
  +--> vl53l0x_get_sequence_step_enables/TOF
  +--> vl53l0x_get_sequence_step_timeouts/TOF

vl53l0x_get_sequence_step_enables/TOF         043FH 043FH
  +--> vl53l0x_simiic_read_regs/TOF

vl53l0x_get_sequence_step_timeouts/TOF        043FH 0444H
  +--> vl53l0x_get_vcsel_pulse_period/TOF
  +--> vl53l0x_simiic_read_regs/TOF
  +--> vl53l0x_timeout_mclks_to_microseconds/TOF
  +--> vl53l0x_decode_timeout/TOF

vl53l0x_get_vcsel_pulse_period/TOF            0445H 0445H
  +--> vl53l0x_simiic_read_regs/TOF

vl53l0x_timeout_mclks_to_microseconds/TO+     ----- -----
... F
  +--> ?C?ULIDIV/?C?ULDIV

vl53l0x_decode_timeout/TOF                    ----- -----

vl53l0x_set_measurement_timing_budget/TO+     041CH 043EH
... F
  +--> vl53l0x_get_sequence_step_enables/TOF
  +--> vl53l0x_get_sequence_step_timeouts/TOF
  +--> vl53l0x_timeout_microseconds_to_mclks/TOF
  +--> vl53l0x_encode_timeout/TOF
  +--> vl53l0x_simiic_write_dats/TOF

vl53l0x_timeout_microseconds_to_mclks/TO+     ----- -----
... F
  +--> ?C?ULIDIV/?C?ULDIV

vl53l0x_encode_timeout/TOF                    ----- -----

vl53l0x_perform_single_ref_calibration/T+     041CH 041EH
... OF
  +--> vl53l0x_simiic_write_reg/TOF
  +--> vl53l0x_simiic_read_regs/TOF

ui_init/UI                                    ----- -----
  +--> oled_init/SEEKFREE_OLED
  +--> value_name_init/UI
  +--> oled_all_static_state/UI

oled_init/SEEKFREE_OLED                       ----- -----
  +--> delay_ms/zf_delay
  +--> oled_wrcmd/SEEKFREE_OLED
  +--> oled_fill/SEEKFREE_OLED
  +--> oled_set_pos/SEEKFREE_OLED

L251 LINKER/LOCATER V4.66.93.0                                                        03/21/2024  17:39:21  PAGE 16


oled_wrcmd/SEEKFREE_OLED                      ----- -----

oled_fill/SEEKFREE_OLED                       ----- -----
  +--> oled_wrcmd/SEEKFREE_OLED
  +--> oled_wrdat/SEEKFREE_OLED

oled_wrdat/SEEKFREE_OLED                      ----- -----

oled_set_pos/SEEKFREE_OLED                    ----- -----
  +--> oled_wrcmd/SEEKFREE_OLED

value_name_init/UI                            ----- -----
  +--> STRCPY?_/STRCPY?_

STRCPY?_/STRCPY?_                             ----- -----

oled_all_static_state/UI                      ----- -----
  +--> oled_p8x16str/SEEKFREE_OLED

oled_p8x16str/SEEKFREE_OLED                   0435H 0439H
  +--> oled_set_pos/SEEKFREE_OLED
  +--> oled_wrdat/SEEKFREE_OLED

MPU6050_DMP_Init/MPU6050                      ----- -----
  +--> initMPU6050/MPU6050
  +--> getDeviceID/MPU6050
  +--> dmpInitialize/MPU6050
  +--> MPU_Write_Bit/MPU6050

initMPU6050/MPU6050                           ----- -----
  +--> MPU_Write_Bits/MPU6050
  +--> MPU_Write_Bit/MPU6050

MPU_Write_Bits/MPU6050                        ----- -----
  +--> i2c_write_bits/MPU6050

i2c_write_bits/MPU6050                        0410H 0410H
  +--> i2c_mem_read/MPU6050
  +--> i2c_mem_write/MPU6050

i2c_mem_read/MPU6050                          0418H 041BH
  +--> i2c_start/MPU6050
  +--> i2c_write_byte/MPU6050
  +--> i2c_wait_ack/MPU6050
  +--> i2c_read_byte/MPU6050
  +--> i2c_stop/MPU6050

i2c_start/MPU6050                             ----- -----
  +--> I2C_SDA_H/MPU6050
  +--> I2C_SCL_H/MPU6050
  +--> i2c_delay/MPU6050
  +--> I2C_SDA_L/MPU6050
  +--> I2C_SCL_L/MPU6050

I2C_SDA_H/MPU6050                             ----- -----

I2C_SCL_H/MPU6050                             ----- -----

i2c_delay/MPU6050                             ----- -----

I2C_SDA_L/MPU6050                             ----- -----

I2C_SCL_L/MPU6050                             ----- -----

i2c_write_byte/MPU6050                        ----- -----
L251 LINKER/LOCATER V4.66.93.0                                                        03/21/2024  17:39:21  PAGE 17


  +--> I2C_SCL_L/MPU6050
  +--> I2C_SDA_H/MPU6050
  +--> I2C_SDA_L/MPU6050
  +--> i2c_delay/MPU6050
  +--> I2C_SCL_H/MPU6050

i2c_wait_ack/MPU6050                          ----- -----
  +--> I2C_SCL_H/MPU6050
  +--> i2c_delay/MPU6050
  +--> i2c_timeout_delay/MPU6050
  +--> i2c_stop/MPU6050
  +--> I2C_SDA_Read/MPU6050
  +--> I2C_SCL_L/MPU6050

i2c_timeout_delay/MPU6050                     ----- -----

i2c_stop/MPU6050                              ----- -----
  +--> I2C_SDA_L/MPU6050
  +--> I2C_SCL_H/MPU6050
  +--> i2c_delay/MPU6050
  +--> I2C_SDA_H/MPU6050

I2C_SDA_Read/MPU6050                          ----- -----

i2c_read_byte/MPU6050                         ----- -----
  +--> I2C_SCL_L/MPU6050
  +--> i2c_delay/MPU6050
  +--> I2C_SCL_H/MPU6050
  +--> I2C_SDA_Read/MPU6050
  +--> i2c_nack/MPU6050
  +--> i2c_ack/MPU6050

i2c_nack/MPU6050                              ----- -----
  +--> I2C_SCL_L/MPU6050
  +--> I2C_SDA_H/MPU6050
  +--> i2c_delay/MPU6050
  +--> I2C_SCL_H/MPU6050

i2c_ack/MPU6050                               ----- -----
  +--> I2C_SCL_L/MPU6050
  +--> I2C_SDA_L/MPU6050
  +--> i2c_delay/MPU6050
  +--> I2C_SCL_H/MPU6050
  +--> I2C_SDA_H/MPU6050

i2c_mem_write/MPU6050                         0413H 0416H
  +--> i2c_start/MPU6050
  +--> i2c_write_byte/MPU6050
  +--> i2c_wait_ack/MPU6050
  +--> i2c_stop/MPU6050

MPU_Write_Bit/MPU6050                         ----- -----
  +--> i2c_write_bit/MPU6050

i2c_write_bit/MPU6050                         0410H 0410H
  +--> i2c_mem_read/MPU6050
  +--> i2c_mem_write/MPU6050

getDeviceID/MPU6050                           040AH 040AH
  +--> MPU_Read_Bits/MPU6050

MPU_Read_Bits/MPU6050                         ----- -----
  +--> i2c_read_bits/MPU6050

i2c_read_bits/MPU6050                         0410H 0413H
L251 LINKER/LOCATER V4.66.93.0                                                        03/21/2024  17:39:21  PAGE 18


  +--> i2c_mem_read/MPU6050

dmpInitialize/MPU6050                         040AH 040FH
  +--> MPU_Write_Bit/MPU6050
  +--> MPU_Delay_Ms/MPU6050
  +--> MPU_Write_Byte/MPU6050
  +--> MPU_Read_Len/MPU6050
  +--> MPU_Read_Bit/MPU6050
  +--> MPU_Read_Bits/MPU6050
  +--> loadfirmware/MPU6050
  +--> loadcfgupd/MPU6050
  +--> MPU_Write_Bits/MPU6050
  +--> xdmpUpdates/MPU6050
  +--> getFIFOCount/MPU6050

MPU_Delay_Ms/MPU6050                          ----- -----
  +--> Delay1ms/MPU6050

Delay1ms/MPU6050                              ----- -----

MPU_Write_Byte/MPU6050                        0412H 0412H
  +--> i2c_mem_write/MPU6050

MPU_Read_Len/MPU6050                          ----- -----
  +--> i2c_mem_read/MPU6050

MPU_Read_Bit/MPU6050                          ----- -----
  +--> i2c_read_bit/MPU6050

i2c_read_bit/MPU6050                          0410H 0411H
  +--> i2c_mem_read/MPU6050

loadfirmware/MPU6050                          0410H 0411H
  +--> MPU_Write_Byte/MPU6050
  +--> MPU_Write_Len/MPU6050

MPU_Write_Len/MPU6050                         ----- -----
  +--> i2c_mem_write/MPU6050

loadcfgupd/MPU6050                            0410H 0411H
  +--> MPU_Write_Byte/MPU6050
  +--> MPU_Write_Len/MPU6050

xdmpUpdates/MPU6050                           0410H 0410H
  +--> MPU_Write_Byte/MPU6050
  +--> MPU_Write_Len/MPU6050

getFIFOCount/MPU6050                          0410H 0411H
  +--> MPU_Read_Len/MPU6050

pit_timer_ms/zf_tim                           ----- -----
  +--> ?C?SLDIV/?C?SLDIV

ctimer_count_init/zf_tim                      ----- -----

Motor_Init/motor                              ----- -----
  +--> pwm_init/zf_pwm

pwm_init/zf_pwm                               040AH 0411H
  +--> pwm_set_gpio/zf_pwm
  +--> ?C?ULIDIV/?C?ULDIV

pwm_set_gpio/zf_pwm                           ----- -----
  +--> gpio_mode/zf_gpio

L251 LINKER/LOCATER V4.66.93.0                                                        03/21/2024  17:39:21  PAGE 19


Buzzer_Init/Buzzer                            ----- -----
  +--> pwm_init/zf_pwm

ADC_InitAll/ADC                               ----- -----
  +--> adc_init/zf_adc

adc_init/zf_adc                               ----- -----

PID_Init/PID                                  040AH 0419H

EnableGlobalIRQ/board                         ----- -----

ui_show/UI                                    ----- -----
  +--> refresh_value/UI
  +--> oled_show/UI

refresh_value/UI                              ----- -----

oled_show/UI                                  ----- -----
  +--> refresh_value/UI
  +--> oled_printf_float/SEEKFREE_OLED

oled_printf_float/SEEKFREE_OLED               040AH 0434H
  +--> zf_sprintf/SEEKFREE_PRINTF
  +--> oled_p8x16str/SEEKFREE_OLED

zf_sprintf/SEEKFREE_PRINTF                    0435H 0493H
  +--> number_conversion_ascii/SEEKFREE_PRINTF
  +--> printf_reverse_order/SEEKFREE_PRINTF
  +--> memcpy?_/memcpy

number_conversion_ascii/SEEKFREE_PRINTF       0494H 0494H
  +--> ?C?SLDIV/?C?SLDIV
  +--> ?C?ULIDIV/?C?ULDIV

printf_reverse_order/SEEKFREE_PRINTF          ----- -----

GetKey_Value/Key                              ----- -----

ADC_GetValue/ADC                              ----- -----
  +--> adc_once/zf_adc

adc_once/zf_adc                               ----- -----

MPU6050_Refresh_DMP/MPU6050                   ----- -----
  +--> getFIFOCount/MPU6050
  +--> MPU_Read_Len/MPU6050
  +--> MPU_Write_Bit/MPU6050
  +--> readdmp/MPU6050
  +--> atan2?_/atan2

readdmp/MPU6050                               ----- -----
  +--> MPU_Read_Len/MPU6050

atan2?_/atan2                                 ----- -----

MPU_Get_Gyroscope/MPU6050                     040AH 0417H
  +--> MPU_Read_Len/MPU6050

Get_Ratio/main                                ----- -----
  +--> Limit_Out/motor

Limit_Out/motor                               040EH 0411H

vl53l0x_get_distance/TOF                      040AH 040CH
L251 LINKER/LOCATER V4.66.93.0                                                        03/21/2024  17:39:21  PAGE 20


  +--> vl53l0x_simiic_read_regs_1/TOF
  +--> vl53l0x_simiic_write_reg/TOF

vl53l0x_simiic_read_regs_1/TOF                040DH 0412H
  +--> vl53l0x_simiic_start/TOF
  +--> vl53l0x_send_ch/TOF
  +--> vl53l0x_read_ch/TOF
  +--> vl53l0x_simiic_stop/TOF

Elem_Circle/Element                           ----- -----

PID_Calculate/PID                             040AH 040DH
  +--> Limit_Out/motor

Elem_Up_Down/Element                          ----- -----

Get_Speed/motor                               ----- -----
  +--> ctimer_count_read/zf_tim
  +--> ctimer_count_clean/zf_tim

ctimer_count_read/zf_tim                      ----- -----

ctimer_count_clean/zf_tim                     ----- -----

Left_SetSpeed/motor                           ----- -----
  +--> abs?_/ABS
  +--> pwm_duty/zf_pwm

abs?_/ABS                                     ----- -----

Right_SetSpeed/motor                          ----- -----
  +--> abs?_/ABS
  +--> pwm_duty/zf_pwm

*** NEW ROOT ********************************

?C_C51STARTUP?2                               ----- -----



PUBLIC SYMBOLS OF MODULE:  .\Out_File\SEEKFREE (board)


      VALUE       CLASS    TYPE      PUBLIC SYMBOL NAME
      =================================================
      00FF111EH   CODE     NEAR LAB  ?C?CASTF
      000000FFH   NUMBER   ---       ?C?CODESEG
      00FF10EBH   CODE     NEAR LAB  ?C?FCASTC
      00FF10E6H   CODE     NEAR LAB  ?C?FCASTI
      00FF10E1H   CODE     NEAR LAB  ?C?FCASTL
      00FF18BFH   CODE     ---       ?C?FP2SERIES
      00FF0EB4H   CODE     ---       ?C?FPADD
      00FF108FH   CODE     ---       ?C?FPCMP
      00FF108DH   CODE     ---       ?C?FPCMP3
      00FF17C4H   CODE     ---       ?C?FPCONVERT
      00FF100CH   CODE     ---       ?C?FPDIV
      00FF1237H   CODE     ---       ?C?FPGETOPN2
      00FF0F6CH   CODE     ---       ?C?FPMUL
      00FF1274H   CODE     ---       ?C?FPNANRESULT
      00FF10D3H   CODE     ---       ?C?FPNEG
      00FF127CH   CODE     ---       ?C?FPOVERFLOW
      00FF1250H   CODE     ---       ?C?FPRESULT
      00FF1266H   CODE     ---       ?C?FPRESULT2
      00FF187CH   CODE     ---       ?C?FPROUND
      00FF18C8H   CODE     ---       ?C?FPSERIES
L251 LINKER/LOCATER V4.66.93.0                                                        03/21/2024  17:39:21  PAGE 21


      00FF0EB1H   CODE     ---       ?C?FPSUB
      00FF1279H   CODE     ---       ?C?FPUNDERFLOW
      00FF191CH   CODE     ---       ?C?FTNPWR
      00FF5DE1H   CODE     ---       ?C?INITEDATA
      00FF672BH   HCONST   WORD      ?C?INITEDATA_END
      00FF1996H   CODE     ---       ?C?LIMUL
      00FF1985H   CODE     ---       ?C?LMUL
      00FF12B5H   CODE     ---       ?C?PRNFMT
      00FF1953H   CODE     ---       ?C?SIDIV
      00FF19F2H   CODE     NEAR LAB  ?C?SLDIV
      00FF0000H   CODE     ---       ?C?STARTUP
      00FF19A1H   CODE     NEAR LAB  ?C?ULDIV
      00FF199FH   CODE     NEAR LAB  ?C?ULIDIV
      00000001H   NUMBER   ---       ?C?XDATASEG
      00FF0000H   CODE     ---       ?C_STARTUP
*DEL*:1FFFFFF8H   EDATA    BYTE      ?data_conversion?BYTE
*DEL*:1FFFFFF8H   EDATA    BYTE      ?fifo_init?BYTE
*DEL*:1FFFFFFCH   EDATA    BYTE      ?fifo_read_buffer?BYTE
      000003FAH   EDATA    BYTE      ?fifo_write_buffer?BYTE
*DEL*:1FFFFFFAH   EDATA    BYTE      ?iic_init?BYTE
*DEL*:1FFFFFFCH   EDATA    BYTE      ?ips114_showfloat?BYTE
*DEL*:1FFFFFFCH   EDATA    BYTE      ?ips114_showfloat_simspi?BYTE
*DEL*:1FFFFFFCH   EDATA    BYTE      ?lcd_showfloat?BYTE
*DEL*:1FFFFFFCH   EDATA    BYTE      ?lcd_showfloat_simspi?BYTE
      00000406H   EDATA    BYTE      ?Limit_Out?BYTE
*DEL*:1FFFFFFCH   EDATA    BYTE      ?MPU_Get_Accelerometer?BYTE
      00000406H   EDATA    BYTE      ?MPU_Get_Gyroscope?BYTE
      0000048BH   EDATA    BYTE      ?number_conversion_ascii?BYTE
      00000406H   EDATA    BYTE      ?oled_printf_float?BYTE
*DEL*:1FFFFFFCH   EDATA    BYTE      ?oled_printf_float_spi?BYTE
      00000402H   EDATA    BYTE      ?PID_Calculate?BYTE
*DEL*:1FFFFFF8H   EDATA    BYTE      ?PID_Incremental_Calc?BYTE
*DEL*:1FFFFFF8H   EDATA    BYTE      ?PID_Incremental_Init?BYTE
      00000402H   EDATA    BYTE      ?PID_Init?BYTE
      00000444H   EDATA    ---       ?printf?BYTE
*DEL*:1FFFFFFAH   EDATA    BYTE      ?pwm_freq?BYTE
      00000408H   EDATA    BYTE      ?pwm_init?BYTE
*DEL*:1FFFFFF7H   EDATA    BYTE      ?spi_init?BYTE
      00000404H   EDATA    BYTE      ?uart_init?BYTE
      0000045DH   EDATA    BYTE      ?zf_sprintf?BYTE
      000006BFH   EDATA    CHAR      A
      000006C0H   EDATA    CHAR      A1
      00FF64ECH   CODE     ---       abs?_
      000005FFH   EDATA    ---       ADC_Array_Original
*SFR* 000000BCH   DATA     BYTE      ADC_CONTR
      00FF441EH   CODE     ---       ADC_GetValue
      00FF5838H   CODE     ---       adc_init
      00FF61A5H   CODE     ---       ADC_InitAll
      00FF611EH   CODE     ---       adc_once
      0000063BH   EDATA    ---       ADC_proc
*SFR* 000000BDH   DATA     BYTE      ADC_RES
*SFR* 000000BEH   DATA     BYTE      ADC_RESL
*SFR* 000000DEH   DATA     BYTE      ADCCFG
      00000687H   EDATA    FLOAT     Adjust_Val
      00FF1217H   CODE     ---       asin?_
*DEL*:00000000H   CODE     ---       at24c02_read_byte
*DEL*:00000000H   CODE     ---       at24c02_read_bytes
*DEL*:00000000H   CODE     ---       at24c02_write_byte
*DEL*:00000000H   CODE     ---       at24c02_write_bytes
      00FF5C84H   CODE     ---       atan2?_
      00FF16E4H   CODE     ---       ATAN?_
*SFR* 000000EFH   DATA     BYTE      AUXINTIF
*SFR* 0000008EH   DATA     BYTE      AUXR
      000006B2H   EDATA    CHAR      Avoid_ON
      000006A9H   EDATA    CHAR      Barrier_Executed
L251 LINKER/LOCATER V4.66.93.0                                                        03/21/2024  17:39:21  PAGE 22


      000006A5H   EDATA    CHAR      Barrier_Flag1
      000006A6H   EDATA    CHAR      Barrier_Flag2
      000006A7H   EDATA    CHAR      Barrier_Flag3
      000006A8H   EDATA    CHAR      Barrier_Flag4
*DEL*:00000000H   CODE     ---       bluetooth_ch9141_init
*DEL*:00000000H   CODE     ---       bluetooth_ch9141_read_buff
*DEL*:00000000H   CODE     ---       bluetooth_ch9141_send_buff
      00FF63E3H   CODE     ---       bluetooth_ch9141_uart_callback
      00FF52C9H   CODE     ---       board_init
      000003F9H   EDATA    ---       busy
      00FF64CBH   CODE     ---       Buzzer_Init
*DEL*:00000000H   CODE     ---       ccd_collect
      0000013EH   EDATA    ---       ccd_data
*DEL*:00000000H   CODE     ---       ccd_init
*DEL*:00000000H   CODE     ---       ccd_send_data
      0000069CH   EDATA    FLOAT     Circle_Flag
      000006FAH   EDATA    CHAR      clear_Num
      000006FEH   EDATA    CHAR      count
*DEL*:00000000H   CODE     ---       CRC_CHECK
      00FF5B4FH   CODE     ---       ctimer_count_clean
      00FF5C3AH   CODE     ---       ctimer_count_init
      00FF5BA0H   CODE     ---       ctimer_count_read
*DEL*:00000000H   CODE     ---       data_conversion
      00FF658AH   CODE     ---       Delay1ms
      000006A0H   EDATA    CHAR      delay_10ms
      00FF5F79H   CODE     ---       delay_init
      00FF642EH   CODE     ---       delay_ms
*DEL*:00000000H   CODE     ---       delay_us
      0000068FH   EDATA    FLOAT     Diff
      0000068BH   EDATA    FLOAT     Diff_Mid
      00FF0016H   CODE     ---       DisableGlobalIRQ
      00FF1A55H   CODE     ---       dmpcfgupddata
      000004C5H   EDATA    ---       dmpdatas
      00FF3D64H   CODE     ---       dmpInitialize
      00FF1B15H   CODE     ---       dmpmemorydata
      00FF1A26H   CODE     ---       dmpUpdates
*SFR* 000000A8H.7 DATA     BIT       EA
*DEL*:00000000H   CODE     ---       eeprom_trig
*DEL*:00000000H   CODE     ---       Elem_Barrier
      00FF42CBH   CODE     ---       Elem_Circle
      00FF5F02H   CODE     ---       Elem_Up_Down
      00FF000EH   CODE     ---       EnableGlobalIRQ
*DEL*:00000000H   CODE     ---       encoder_angle_simspi
*DEL*:00000000H   CODE     ---       encoder_angle_spi
*DEL*:00000000H   CODE     ---       encoder_delay_us
*DEL*:00000000H   CODE     ---       encoder_init_simspi
*DEL*:00000000H   CODE     ---       encoder_init_spi
*DEL*:00000000H   CODE     ---       encoder_self4_check
*DEL*:00000000H   CODE     ---       encoder_self5_check
*DEL*:00000000H   CODE     ---       encoder_simspi_r_reg_byte
*DEL*:00000000H   CODE     ---       encoder_simspi_w_reg_byte
*DEL*:00000000H   CODE     ---       encoder_spi_r_reg_byte
*DEL*:00000000H   CODE     ---       encoder_spi_w_reg_byte
*SFR* 000000A8H.4 DATA     BIT       ES
*SFR* 000000A8H.1 DATA     BIT       ET0
*SFR* 000000A8H.3 DATA     BIT       ET1
*SFR* 000000A8H.0 DATA     BIT       EX0
*SFR* 000000A8H.2 DATA     BIT       EX1
*DEL*:00000000H   CODE     ---       exit_init
      00000653H   EDATA    FLOAT     Exp_Speed
      00000670H   EDATA    FLOAT     Exp_Speed_L
      00000674H   EDATA    FLOAT     Exp_Speed_R
*DEL*:00000000H   CODE     ---       extern_iap_write_bytes
*SFR* 000000D0H.5 DATA     BIT       F0
*DEL*:00000000H   CODE     ---       fifo_clear
L251 LINKER/LOCATER V4.66.93.0                                                        03/21/2024  17:39:21  PAGE 23


*DEL*:00000000H   CODE     ---       fifo_end_offset
      00FF5D0DH   CODE     ---       fifo_head_offset
*DEL*:00000000H   CODE     ---       fifo_init
*DEL*:00000000H   CODE     ---       fifo_read_buffer
*DEL*:00000000H   CODE     ---       fifo_used
      00FF491DH   CODE     ---       fifo_write_buffer
*DEL*:00000000H   CODE     ---       get_icm20602_accdata_simiic
*DEL*:00000000H   CODE     ---       get_icm20602_accdata_simspi
*DEL*:00000000H   CODE     ---       get_icm20602_gyro_simiic
*DEL*:00000000H   CODE     ---       get_icm20602_gyro_simspi
      00FF4EA4H   CODE     ---       Get_Ratio
      00FF5776H   CODE     ---       Get_Speed
      00FF634DH   CODE     ---       getDeviceID
      00FF0026H   CODE     ---       getFIFOCount
      00FF55B9H   CODE     ---       GetKey_Value
      00FF2DB3H   CODE     ---       gpio_mode
*DEL*:00000000H   CODE     ---       gpio_pull_set
      0000067CH   EDATA    INT       gx
      0000067EH   EDATA    INT       gy
      00000680H   EDATA    INT       gz
      00FF6445H   CODE     ---       i2c_ack
      00FF657FH   CODE     ---       i2c_delay
      00FF54C8H   CODE     ---       i2c_mem_read
      00FF57D9H   CODE     ---       i2c_mem_write
      00FF6496H   CODE     ---       i2c_nack
      00FF6085H   CODE     ---       i2c_read_bit
      00FF56A2H   CODE     ---       i2c_read_bits
      00FF5FB2H   CODE     ---       i2c_read_byte
      00FF005EH   CODE     ---       I2C_SCL_H
      00FF0086H   CODE     ---       I2C_SCL_L
      00FF001EH   CODE     ---       I2C_SDA_H
      00FF0056H   CODE     ---       I2C_SDA_L
      00FF0006H   CODE     ---       I2C_SDA_Read
      00FF64A8H   CODE     ---       i2c_start
      00FF64FCH   CODE     ---       i2c_stop
      00FF6569H   CODE     ---       i2c_timeout_delay
      00FF61D0H   CODE     ---       i2c_wait_ack
      00FF58F3H   CODE     ---       i2c_write_bit
      00FF544BH   CODE     ---       i2c_write_bits
      00FF60B8H   CODE     ---       i2c_write_byte
*SFR* 000000F6H   DATA     BYTE      IAP_ADDRE
*SFR* 000000C3H   DATA     BYTE      IAP_ADDRH
*SFR* 000000C4H   DATA     BYTE      IAP_ADDRL
*SFR* 000000C5H   DATA     BYTE      IAP_CMD
*SFR* 000000C7H   DATA     BYTE      IAP_CONTR
*SFR* 000000C2H   DATA     BYTE      IAP_DATA
*DEL*:00000000H   CODE     ---       iap_erase_page
*DEL*:00000000H   CODE     ---       iap_get_cmd_state
*DEL*:00000000H   CODE     ---       iap_idle
*DEL*:00000000H   CODE     ---       iap_init
*DEL*:00000000H   CODE     ---       iap_read_bytes
*DEL*:00000000H   CODE     ---       iap_set_tps
*SFR* 000000F5H   DATA     BYTE      IAP_TPS
*SFR* 000000C6H   DATA     BYTE      IAP_TRIG
*DEL*:00000000H   CODE     ---       iap_write_bytes
*DEL*:00000000H   CODE     ---       icm20602_init_simiic
*DEL*:00000000H   CODE     ---       icm20602_init_simspi
*DEL*:00000000H   CODE     ---       icm20602_self1_check
*DEL*:00000000H   CODE     ---       icm20602_self4_check
      000006D1H   EDATA    INT       icm_acc_x
      000006D3H   EDATA    INT       icm_acc_y
      000006D5H   EDATA    INT       icm_acc_z
      000006D7H   EDATA    INT       icm_gyro_x
      000006D9H   EDATA    INT       icm_gyro_y
      000006DBH   EDATA    INT       icm_gyro_z
L251 LINKER/LOCATER V4.66.93.0                                                        03/21/2024  17:39:21  PAGE 24


*DEL*:00000000H   CODE     ---       icm_simspi_r_reg_byte
*DEL*:00000000H   CODE     ---       icm_simspi_r_reg_bytes
*DEL*:00000000H   CODE     ---       icm_simspi_w_reg_byte
*DEL*:00000000H   CODE     ---       icm_simspi_wr_byte
*SFR* 000000A8H   DATA     BYTE      IE
*SFR* 000000AFH   DATA     BYTE      IE2
      000006E7H   EDATA    BYTE      IIC_ad_main
      000006E9H   EDATA    BYTE      IIC_ad_sub
      000006EAH   EDATA    ---       IIC_buf
*DEL*:00000000H   CODE     ---       iic_change_pin
*DEL*:00000000H   CODE     ---       iic_delay_us
*DEL*:00000000H   CODE     ---       iic_init
      000006E8H   EDATA    BYTE      IIC_num
*DEL*:00000000H   CODE     ---       iic_read_reg
*DEL*:00000000H   CODE     ---       iic_read_reg_bytes
*DEL*:00000000H   CODE     ---       iic_write_reg
      00FF4AD8H   CODE     ---       Init_all
      00FF60EBH   CODE     ---       initMPU6050
      00FF65CEH   CODE     ---       INT0_Isr
      00FF0011H   CODE     ---       INT1_Isr
      00FF65A6H   CODE     ---       INT2_Isr
      00FF65AEH   CODE     ---       INT3_Isr
      00FF65B6H   CODE     ---       INT4_Isr
*SFR* 0000008FH   DATA     BYTE      INTCLKO
*SFR* 000000B8H   DATA     BYTE      IP
*SFR* 000000B5H   DATA     BYTE      IP2
*SFR* 000000B6H   DATA     BYTE      IP2H
*SFR* 000000B7H   DATA     BYTE      IPH
*DEL*:00000000H   CODE     ---       ips114_clear
*DEL*:00000000H   CODE     ---       ips114_clear_simspi
*DEL*:00000000H   CODE     ---       ips114_drawpoint
*DEL*:00000000H   CODE     ---       ips114_drawpoint_simspi
*DEL*:00000000H   CODE     ---       ips114_init
*DEL*:00000000H   CODE     ---       ips114_init_simspi
*DEL*:00000000H   CODE     ---       ips114_set_region
*DEL*:00000000H   CODE     ---       ips114_set_region_simspi
*DEL*:00000000H   CODE     ---       ips114_showchar
*DEL*:00000000H   CODE     ---       ips114_showchar_simspi
*DEL*:00000000H   CODE     ---       ips114_showfloat
*DEL*:00000000H   CODE     ---       ips114_showfloat_simspi
*DEL*:00000000H   CODE     ---       ips114_showint16
*DEL*:00000000H   CODE     ---       ips114_showint16_simspi
*DEL*:00000000H   CODE     ---       ips114_showint32
*DEL*:00000000H   CODE     ---       ips114_showint32_simspi
*DEL*:00000000H   CODE     ---       ips114_showint8
*DEL*:00000000H   CODE     ---       ips114_showint8_simspi
*DEL*:00000000H   CODE     ---       ips114_showstr
*DEL*:00000000H   CODE     ---       ips114_showstr_simspi
*DEL*:00000000H   CODE     ---       ips114_showuint16
*DEL*:00000000H   CODE     ---       ips114_showuint16_simspi
*DEL*:00000000H   CODE     ---       ips114_showuint8
*DEL*:00000000H   CODE     ---       ips114_showuint8_simspi
*DEL*:00000000H   CODE     ---       ips114_writeData
*DEL*:00000000H   CODE     ---       ips114_writedata_16bit
*DEL*:00000000H   CODE     ---       ips114_writeData_simspi
*DEL*:00000000H   CODE     ---       ips114_writeDatai_16bit_simspi
*DEL*:00000000H   CODE     ---       ips114_writeIndex
*DEL*:00000000H   CODE     ---       ips114_writeIndex_simspi
      00000686H   EDATA    CHAR      Isr_flag_10
*SFR* 00000088H.0 DATA     BIT       IT0
*SFR* 00000088H.2 DATA     BIT       IT1
      00FF62C1H   CODE     ---       Key_Init
      0000066FH   EDATA    CHAR      KeyValue
*DEL*:00000000H   CODE     ---       lcd_clear
*DEL*:00000000H   CODE     ---       lcd_clear_simspi
L251 LINKER/LOCATER V4.66.93.0                                                        03/21/2024  17:39:21  PAGE 25


*DEL*:00000000H   CODE     ---       lcd_drawpoint
*DEL*:00000000H   CODE     ---       lcd_drawpoint_simspi
*DEL*:00000000H   CODE     ---       lcd_init
*DEL*:00000000H   CODE     ---       lcd_init_simspi
*DEL*:00000000H   CODE     ---       lcd_set_region
*DEL*:00000000H   CODE     ---       lcd_set_region_simspi
*DEL*:00000000H   CODE     ---       lcd_showchar
*DEL*:00000000H   CODE     ---       lcd_showchar_simspi
*DEL*:00000000H   CODE     ---       lcd_showfloat
*DEL*:00000000H   CODE     ---       lcd_showfloat_simspi
*DEL*:00000000H   CODE     ---       lcd_showint16
*DEL*:00000000H   CODE     ---       lcd_showint16_simspi
*DEL*:00000000H   CODE     ---       lcd_showint32
*DEL*:00000000H   CODE     ---       lcd_showint32_simspi
*DEL*:00000000H   CODE     ---       lcd_showint8
*DEL*:00000000H   CODE     ---       lcd_showint8_simspi
*DEL*:00000000H   CODE     ---       lcd_showstr
*DEL*:00000000H   CODE     ---       lcd_showstr_simspi
*DEL*:00000000H   CODE     ---       lcd_showuint16
*DEL*:00000000H   CODE     ---       lcd_showuint16_simspi
*DEL*:00000000H   CODE     ---       lcd_showuint8
*DEL*:00000000H   CODE     ---       lcd_showuint8_simspi
*DEL*:00000000H   CODE     ---       lcd_writeData
*DEL*:00000000H   CODE     ---       lcd_writedata_16bit
*DEL*:00000000H   CODE     ---       lcd_writeData_16bit_simspi
*DEL*:00000000H   CODE     ---       lcd_writeData_simspi
*DEL*:00000000H   CODE     ---       lcd_writeIndex
*DEL*:00000000H   CODE     ---       lcd_writeIndex_simspi
      00FF4C79H   CODE     ---       Left_SetSpeed
      000002E0H   EDATA    ---       Left_Wheel
      00000262H   EDATA    ---       Left_Wheel_PID
      00FF617AH   CODE     ---       Limit_Out
      00FF4F4AH   CODE     ---       loadcfgupd
      00FF534AH   CODE     ---       loadfirmware
      00FF31AAH   CODE     ---       main
      00FF629CH   CODE     ---       memcpy?_
      00FF63C9H   CODE     ---       memset?_
      000006F9H   EDATA    CHAR      Mode
      00FF5CC9H   CODE     ---       Motor_Init
*DEL*:00000000H   CODE     ---       Motor_Test
      00FF6308H   CODE     ---       MPU6050_DMP_Init
*DEL*:00000000H   CODE     ---       mpu6050_get_accdata
*DEL*:00000000H   CODE     ---       mpu6050_get_gyro
*DEL*:00000000H   CODE     ---       mpu6050_init
      00FF3ACAH   CODE     ---       MPU6050_Refresh_DMP
*DEL*:00000000H   CODE     ---       mpu6050_self1_check
      000006C5H   EDATA    INT       mpu_acc_x
      000006C7H   EDATA    INT       mpu_acc_y
      000006C9H   EDATA    INT       mpu_acc_z
      00FF646FH   CODE     ---       MPU_Delay_Ms
*DEL*:00000000H   CODE     ---       MPU_Get_Accelerometer
      00FF594FH   CODE     ---       MPU_Get_Gyroscope
*DEL*:00000000H   CODE     ---       MPU_Get_Temperature
      000006CBH   EDATA    INT       mpu_gyro_x
      000006CDH   EDATA    INT       mpu_gyro_y
      000006CFH   EDATA    INT       mpu_gyro_z
*DEL*:00000000H   CODE     ---       MPU_Init
      00FF6594H   CODE     ---       MPU_Read_Bit
      00FF0046H   CODE     ---       MPU_Read_Bits
*DEL*:00000000H   CODE     ---       MPU_Read_Byte
      00FF655EH   CODE     ---       MPU_Read_Len
*DEL*:00000000H   CODE     ---       MPU_Set_Accel_Fsr
*DEL*:00000000H   CODE     ---       MPU_Set_Gyro_Fsr
*DEL*:00000000H   CODE     ---       MPU_Set_LPF
*DEL*:00000000H   CODE     ---       MPU_Set_Rate
L251 LINKER/LOCATER V4.66.93.0                                                        03/21/2024  17:39:21  PAGE 26


      000004EFH   EDATA    CHAR      mpu_state
      00FF6544H   CODE     ---       MPU_Write_Bit
      00FF6537H   CODE     ---       MPU_Write_Bits
      00FF645AH   CODE     ---       MPU_Write_Byte
      00FF6574H   CODE     ---       MPU_Write_Len
      00000682H   EDATA    FLOAT     Num1
*DEL*:00000000H   CODE     ---       Num2Abs
      00FF5127H   CODE     ---       number_conversion_ascii
*DEL*:00000000H   CODE     ---       NVIC_SetPriority
      00FF0C86H   CODE     ---       oled_6x8
      00FF00A6H   CODE     ---       oled_8x16
      00FF5D8FH   CODE     ---       oled_all_static_state
*DEL*:00000000H   CODE     ---       oled_change_value
*DEL*:00000000H   CODE     ---       oled_clrpixel
*DEL*:00000000H   CODE     ---       oled_clrpixel_spi
*DEL*:00000000H   CODE     ---       oled_dis_bmp
*DEL*:00000000H   CODE     ---       oled_dis_bmp_spi
      00FF6052H   CODE     ---       oled_fill
*DEL*:00000000H   CODE     ---       oled_fill_spi
*DEL*:00000000H   CODE     ---       oled_hexascii
*DEL*:00000000H   CODE     ---       oled_hexascii_spi
      00FF4FF0H   CODE     ---       oled_init
*DEL*:00000000H   CODE     ---       oled_init_spi
*DEL*:00000000H   CODE     ---       oled_int16
*DEL*:00000000H   CODE     ---       oled_int16_spi
*DEL*:00000000H   CODE     ---       oled_p6x8str
*DEL*:00000000H   CODE     ---       oled_p6x8str_spi
      00FF4751H   CODE     ---       oled_p8x16str
*DEL*:00000000H   CODE     ---       oled_p8x16str_spi
*DEL*:00000000H   CODE     ---       oled_print_chinese
*DEL*:00000000H   CODE     ---       oled_print_chinese_spi
      00FF4569H   CODE     ---       oled_printf_float
*DEL*:00000000H   CODE     ---       oled_printf_float_spi
*DEL*:00000000H   CODE     ---       oled_printf_int32
*DEL*:00000000H   CODE     ---       oled_printf_int32_spi
*DEL*:00000000H   CODE     ---       oled_putpixel
*DEL*:00000000H   CODE     ---       oled_putpixel_spi
      00FF62E5H   CODE     ---       oled_set_pos
*DEL*:00000000H   CODE     ---       oled_set_pos_spi
      00FF5D4FH   CODE     ---       oled_show
*DEL*:00000000H   CODE     ---       oled_uint16
*DEL*:00000000H   CODE     ---       oled_uint16_spi
      00FF61FAH   CODE     ---       oled_wrcmd
*DEL*:00000000H   CODE     ---       oled_wrcmd_spi
      00FF6223H   CODE     ---       oled_wrdat
*DEL*:00000000H   CODE     ---       oled_wrdat_spi
*SFR* 00000080H   DATA     BYTE      P0
*SFR* 00000080H.7 DATA     BIT       P07
*SFR* 00000094H   DATA     BYTE      P0M0
*SFR* 00000093H   DATA     BYTE      P0M1
*SFR* 00000090H   DATA     BYTE      P1
*SFR* 00000092H   DATA     BYTE      P1M0
*SFR* 00000091H   DATA     BYTE      P1M1
*SFR* 000000A0H   DATA     BYTE      P2
*SFR* 000000A0H.0 DATA     BIT       P20
*SFR* 000000A0H.1 DATA     BIT       P21
*SFR* 000000A0H.2 DATA     BIT       P22
*SFR* 000000A0H.3 DATA     BIT       P23
*SFR* 000000A0H.4 DATA     BIT       P24
*SFR* 000000A0H.5 DATA     BIT       P25
*SFR* 000000A0H.6 DATA     BIT       P26
*SFR* 000000A0H.7 DATA     BIT       P27
*SFR* 00000096H   DATA     BYTE      P2M0
*SFR* 00000095H   DATA     BYTE      P2M1
*SFR* 000000B0H   DATA     BYTE      P3
L251 LINKER/LOCATER V4.66.93.0                                                        03/21/2024  17:39:21  PAGE 27


*SFR* 000000B0H.2 DATA     BIT       P32
*SFR* 000000B0H.3 DATA     BIT       P33
*SFR* 000000B0H.5 DATA     BIT       P35
*SFR* 000000B2H   DATA     BYTE      P3M0
*SFR* 000000B1H   DATA     BYTE      P3M1
*SFR* 000000C0H   DATA     BYTE      P4
*SFR* 000000C0H.0 DATA     BIT       P40
*SFR* 000000C0H.1 DATA     BIT       P41
*SFR* 000000C0H.2 DATA     BIT       P42
*SFR* 000000C0H.3 DATA     BIT       P43
*SFR* 000000C0H.7 DATA     BIT       P47
*SFR* 000000B4H   DATA     BYTE      P4M0
*SFR* 000000B3H   DATA     BYTE      P4M1
*SFR* 000000C8H   DATA     BYTE      P5
*SFR* 000000C8H.0 DATA     BIT       P50
*SFR* 000000C8H.1 DATA     BIT       P51
*SFR* 000000C8H.2 DATA     BIT       P52
*SFR* 000000C8H.3 DATA     BIT       P53
*SFR* 000000CAH   DATA     BYTE      P5M0
*SFR* 000000C9H   DATA     BYTE      P5M1
*SFR* 000000E8H   DATA     BYTE      P6
*SFR* 000000CCH   DATA     BYTE      P6M0
*SFR* 000000CBH   DATA     BYTE      P6M1
*SFR* 000000F8H   DATA     BYTE      P7
*SFR* 000000F8H.0 DATA     BIT       P70
*SFR* 000000F8H.1 DATA     BIT       P71
*SFR* 000000F8H.2 DATA     BIT       P72
*SFR* 000000F8H.3 DATA     BIT       P73
*SFR* 000000E2H   DATA     BYTE      P7M0
*SFR* 000000E1H   DATA     BYTE      P7M1
*SFR* 000000A2H   DATA     BYTE      P_SW1
*SFR* 000000BAH   DATA     BYTE      P_SW2
      00000008H   EDATA    BYTE      page
      00FF4BB2H   CODE     ---       PID_Calculate
*DEL*:00000000H   CODE     ---       PID_Incremental_Calc
*DEL*:00000000H   CODE     ---       PID_Incremental_Init
      00FF5A53H   CODE     ---       PID_Init
      00FF5093H   CODE     ---       pit_timer_ms
      000004F0H   EDATA    FLOAT     Pitch
      0000066BH   EDATA    FLOAT     Plus
      00000667H   EDATA    FLOAT     Plus_Mid
      00FF115BH   CODE     NEAR LAB  printf
      00FF5E0DH   CODE     ---       printf_reverse_order
*SFR* 000000D0H   DATA     BYTE      PSW
      00FF6529H   CODE     ---       putchar
      00FF67BFH   HCONST   ---       PWM_ARR_ADDR
      00FF67C7H   HCONST   ---       PWM_CCER_ADDR
      00FF67D7H   HCONST   ---       PWM_CCMR_ADDR
      00FF679FH   HCONST   ---       PWM_CCR_ADDR
      00FF4D3CH   CODE     ---       pwm_duty
*DEL*:00000000H   CODE     ---       pwm_freq
      00FF3545H   CODE     ---       pwm_init
      00FF3829H   CODE     ---       pwm_set_gpio
      000004B5H   EDATA    ---       Q
      0000064FH   EDATA    FLOAT     Ratio
      00000693H   EDATA    FLOAT     Ratio_Mid
*DEL*:00000000H   CODE     ---       read_ch
      00FF650BH   CODE     ---       readdmp
*DEL*:00000000H   CODE     ---       recv_ack
*DEL*:00000000H   CODE     ---       recv_data
      00FF5244H   CODE     ---       refresh_value
      00FF4DF4H   CODE     ---       Right_SetSpeed
      000002B3H   EDATA    ---       Right_Wheel
      0000023EH   EDATA    ---       Right_Wheel_PID
      0000049DH   EDATA    FLOAT     Roll
L251 LINKER/LOCATER V4.66.93.0                                                        03/21/2024  17:39:21  PAGE 28


      00000663H   EDATA    FLOAT     Round_Flag_R
*SFR* 000000FFH   DATA     BYTE      RSTCFG
*SFR* 0000009BH   DATA     BYTE      S2BUF
*SFR* 0000009AH   DATA     BYTE      S2CON
*SFR* 000000ADH   DATA     BYTE      S3BUF
*SFR* 000000ACH   DATA     BYTE      S3CON
*SFR* 000000FEH   DATA     BYTE      S4BUF
*SFR* 000000FDH   DATA     BYTE      S4CON
*SFR* 00000099H   DATA     BYTE      SBUF
*SFR* 00000098H   DATA     BYTE      SCON
*DEL*:00000000H   CODE     ---       send_ack
*DEL*:00000000H   CODE     ---       send_ch
*DEL*:00000000H   CODE     ---       send_data
*DEL*:00000000H   CODE     ---       send_nak
*DEL*:00000000H   CODE     ---       set_zero_position_simspi
*DEL*:00000000H   CODE     ---       set_zero_position_spi
*DEL*:00000000H   CODE     ---       showimage
*DEL*:00000000H   CODE     ---       simiic_delay
*DEL*:00000000H   CODE     ---       simiic_init
*DEL*:00000000H   CODE     ---       simiic_read_reg
*DEL*:00000000H   CODE     ---       simiic_read_regs
*DEL*:00000000H   CODE     ---       simiic_sendack
*DEL*:00000000H   CODE     ---       simiic_start
*DEL*:00000000H   CODE     ---       simiic_stop
*DEL*:00000000H   CODE     ---       simiic_write_reg
*DEL*:00000000H   CODE     ---       simspi_r_reg_byte
*DEL*:00000000H   CODE     ---       simspi_w_reg_byte
*DEL*:00000000H   CODE     ---       simspi_wr_byte
*SFR* 000000CEH   DATA     BYTE      SPCTL
*SFR* 000000CFH   DATA     BYTE      SPDAT
      000006B7H   EDATA    FLOAT     Speed_L
      000006BBH   EDATA    FLOAT     Speed_R
*DEL*:00000000H   CODE     ---       spi_change_mode
*DEL*:00000000H   CODE     ---       spi_change_pin
*DEL*:00000000H   CODE     ---       spi_init
*DEL*:00000000H   CODE     ---       spi_mosi
*DEL*:00000000H   CODE     ---       spi_r_reg_byte
*DEL*:00000000H   CODE     ---       spi_w_reg_byte
*DEL*:00000000H   CODE     ---       spi_wr_byte
*SFR* 000000CDH   DATA     BYTE      SPSTAT
      00FF1187H   CODE     ---       sqrt?_
*DEL*:00000000H   CODE     ---       start
*DEL*:00000000H   CODE     ---       stop
      00FF6483H   CODE     NEAR LAB  strcpy?_
      00000678H   EDATA    FLOAT     sum
      00000697H   EDATA    FLOAT     Sum_Angle
      000006A1H   EDATA    FLOAT     Sum_Angle_C1
      000006AAH   EDATA    FLOAT     Sum_Dis1
      000006AEH   EDATA    FLOAT     Sum_Dis2
      00000657H   EDATA    FLOAT     sum_L
      0000065BH   EDATA    FLOAT     sum_R
      000006EEH   EDATA    LONG      sys_clk
*SFR* 000000D6H   DATA     BYTE      T2H
*SFR* 000000D7H   DATA     BYTE      T2L
*SFR* 000000D4H   DATA     BYTE      T3H
*SFR* 000000D5H   DATA     BYTE      T3L
*SFR* 000000D2H   DATA     BYTE      T4H
*SFR* 000000D3H   DATA     BYTE      T4L
*SFR* 000000DDH   DATA     BYTE      T4T3M
*SFR* 00000088H   DATA     BYTE      TCON
      0000065FH   EDATA    FLOAT     temp_Speed
      00FF0696H   CODE     ---       tft_ascii
*SFR* 0000008CH   DATA     BYTE      TH0
*SFR* 0000008DH   DATA     BYTE      TH1
*SFR* 0000008AH   DATA     BYTE      TL0
L251 LINKER/LOCATER V4.66.93.0                                                        03/21/2024  17:39:21  PAGE 29


*SFR* 0000008BH   DATA     BYTE      TL1
      00FF0012H   CODE     ---       TM0_Isr
      00FF0019H   CODE     ---       TM1_Isr
      00FF65BEH   CODE     ---       TM2_Isr
      00FF65C6H   CODE     ---       TM3_Isr
      00FF53CBH   CODE     ---       TM4_Isr
*SFR* 00000089H   DATA     BYTE      TMOD
*SFR* 00000088H.4 DATA     BIT       TR0
*SFR* 00000088H.6 DATA     BIT       TR1
      0000013DH   EDATA    BYTE      tsl1401_finish_flag
      00000286H   EDATA    ---       Turn
      0000030DH   EDATA    ---       Turn_PID
      00FF5E89H   CODE     ---       UART1_Isr
      00000331H   EDATA    ---       uart1_rx_buff
      00000395H   EDATA    ---       uart1_tx_buff
      00FF638DH   CODE     ---       UART2_Isr
      00FF63ABH   CODE     ---       UART3_Isr
      00FF570DH   CODE     ---       UART4_Isr
      00FF3F90H   CODE     ---       uart_init
*DEL*:00000000H   CODE     ---       uart_putbuff
      00FF59FFH   CODE     ---       uart_putchar
*DEL*:00000000H   CODE     ---       uart_putstr
      00FF659DH   CODE     ---       ui_init
      00FF65D5H   CODE     ---       ui_show
      0000069BH   EDATA    CHAR      Up_Down_Flag
      00000009H   EDATA    ---       value
      00000079H   EDATA    ---       value_name
      00FF4661H   CODE     ---       value_name_init
      000006DDH   EDATA    ---       virtual_scope_data
      000006F6H   EDATA    WORD      vl53l0x_distance_mm
      000006F8H   EDATA    BYTE      vl53l0x_finsh_flag
      00FF5896H   CODE     ---       vl53l0x_get_distance
      00FF229EH   CODE     ---       vl53l0x_init
*DEL*:00000000H   CODE     ---       wait
      00FF6415H   CODE     ---       wireless_ch573_callback
*DEL*:00000000H   CODE     ---       wireless_ch573_init
*DEL*:00000000H   CODE     ---       wireless_ch573_read_buff
*DEL*:00000000H   CODE     ---       wireless_ch573_send_buff
      000006FCH   EDATA    INT       wireless_type
      00FF63FCH   CODE     ---       wireless_uart_callback
*DEL*:00000000H   CODE     ---       wireless_uart_init
*DEL*:00000000H   CODE     ---       wireless_uart_read_buff
*DEL*:00000000H   CODE     ---       wireless_uart_send_buff
*SFR* 000000E9H   DATA     BYTE      WTST
      000004A1H   EDATA    FLOAT     x1
      00000700H   EDATA    WORD      x10_ms
      00FF51B9H   CODE     ---       xdmpUpdates
      000004A5H   EDATA    FLOAT     y1
      000004B1H   EDATA    FLOAT     Yaw
      000004A9H   EDATA    FLOAT     z1
      00000495H   EDATA    FLOAT     z_add
      00000499H   EDATA    FLOAT     z_last
      000004ADH   EDATA    FLOAT     z_now
*DEL*:00000000H   CODE     ---       zero_all
      000006F2H   EDATA    WORD      zf_delay_ms
      000006F4H   EDATA    WORD      zf_delay_us
      00FF28B9H   CODE     ---       zf_sprintf



SYMBOL TABLE OF MODULE:  .\Out_File\SEEKFREE (board)

      VALUE       REP       CLASS    TYPE      SYMBOL NAME
      ====================================================
      ---         MODULE    ---      ---       board
L251 LINKER/LOCATER V4.66.93.0                                                        03/21/2024  17:39:21  PAGE 30


      00FF000EH   PUBLIC    CODE     ---       EnableGlobalIRQ
      00FF52C9H   PUBLIC    CODE     ---       board_init
      00FF0016H   PUBLIC    CODE     ---       DisableGlobalIRQ
      00FF6529H   PUBLIC    CODE     ---       putchar
      000006EEH   PUBLIC    EDATA    LONG      sys_clk
      00000094H   SFRSYM    DATA     BYTE      P0M0
      000000D0H   SFRSYM    DATA     BYTE      PSW
      000000FDH   SFRSYM    DATA     BYTE      S4CON
      000000ACH   SFRSYM    DATA     BYTE      S3CON
      0000009AH   SFRSYM    DATA     BYTE      S2CON
      000000B7H   SFRSYM    DATA     BYTE      IPH
      000000E9H   SFRSYM    DATA     BYTE      WTST
      000000FFH   SFRSYM    DATA     BYTE      RSTCFG
      0000008EH   SFRSYM    DATA     BYTE      AUXR
      000000AFH   SFRSYM    DATA     BYTE      IE2
      00000088H   SFRSYM    DATA     BYTE      TCON
      00000089H   SFRSYM    DATA     BYTE      TMOD
      00000098H   SFRSYM    DATA     BYTE      SCON
      000000BCH   SFRSYM    DATA     BYTE      ADC_CONTR
      000000DEH   SFRSYM    DATA     BYTE      ADCCFG
      000000B8H   SFRSYM    DATA     BYTE      IP
      000000A8H   SFRSYM    DATA     BYTE      IE
      000000BAH   SFRSYM    DATA     BYTE      P_SW2
      000000A2H   SFRSYM    DATA     BYTE      P_SW1
      000000F8H   SFRSYM    DATA     BYTE      P7
      000000A8H.7 SFRSYM    DATA     BIT       EA
      000000E1H   SFRSYM    DATA     BYTE      P7M1
      000000E8H   SFRSYM    DATA     BYTE      P6
      000000C8H   SFRSYM    DATA     BYTE      P5
      000000CBH   SFRSYM    DATA     BYTE      P6M1
      000000E2H   SFRSYM    DATA     BYTE      P7M0
      000000C0H   SFRSYM    DATA     BYTE      P4
      000000C9H   SFRSYM    DATA     BYTE      P5M1
      000000CCH   SFRSYM    DATA     BYTE      P6M0
      000000B0H   SFRSYM    DATA     BYTE      P3
      000000B3H   SFRSYM    DATA     BYTE      P4M1
      000000CAH   SFRSYM    DATA     BYTE      P5M0
      000000A0H   SFRSYM    DATA     BYTE      P2
      000000B1H   SFRSYM    DATA     BYTE      P3M1
      000000B4H   SFRSYM    DATA     BYTE      P4M0
      00000090H   SFRSYM    DATA     BYTE      P1
      00000095H   SFRSYM    DATA     BYTE      P2M1
      000000B2H   SFRSYM    DATA     BYTE      P3M0
      00000080H   SFRSYM    DATA     BYTE      P0
      00000091H   SFRSYM    DATA     BYTE      P1M1
      00000096H   SFRSYM    DATA     BYTE      P2M0
      00000092H   SFRSYM    DATA     BYTE      P1M0
      00000093H   SFRSYM    DATA     BYTE      P0M1

      00FF52C9H   BLOCK     CODE     ---       LVL=0
      00FF52C9H   LINE      CODE     ---       #177
      00FF52C9H   LINE      CODE     ---       #179
      00FF52CCH   LINE      CODE     ---       #197
      00FF52CFH   LINE      CODE     ---       #199
      00FF52D2H   LINE      CODE     ---       #200
      00FF52D5H   LINE      CODE     ---       #201
      00FF52E1H   LINE      CODE     ---       #203
      00FF52E4H   LINE      CODE     ---       #204
      00FF52E7H   LINE      CODE     ---       #205
      00FF52EAH   LINE      CODE     ---       #206
      00FF52EDH   LINE      CODE     ---       #207
      00FF52F0H   LINE      CODE     ---       #208
      00FF52F3H   LINE      CODE     ---       #209
      00FF52F6H   LINE      CODE     ---       #210
      00FF52F9H   LINE      CODE     ---       #211
L251 LINKER/LOCATER V4.66.93.0                                                        03/21/2024  17:39:21  PAGE 31


      00FF52FCH   LINE      CODE     ---       #212
      00FF52FFH   LINE      CODE     ---       #213
      00FF5302H   LINE      CODE     ---       #214
      00FF5305H   LINE      CODE     ---       #215
      00FF5308H   LINE      CODE     ---       #216
      00FF530BH   LINE      CODE     ---       #217
      00FF530EH   LINE      CODE     ---       #218
      00FF5311H   LINE      CODE     ---       #220
      00FF5314H   LINE      CODE     ---       #221
      00FF5317H   LINE      CODE     ---       #222
      00FF531AH   LINE      CODE     ---       #223
      00FF531DH   LINE      CODE     ---       #224
      00FF5320H   LINE      CODE     ---       #225
      00FF5323H   LINE      CODE     ---       #226
      00FF5326H   LINE      CODE     ---       #227
      00FF5329H   LINE      CODE     ---       #228
      00FF532CH   LINE      CODE     ---       #229
      00FF532FH   LINE      CODE     ---       #231
      ---         BLOCKEND  ---      ---       LVL=0

      00FF6529H   BLOCK     CODE     ---       LVL=0
      R15         REGSYM    ---      CHAR      c
      00FF6529H   LINE      CODE     ---       #237
      00FF652DH   LINE      CODE     ---       #239
      00FF6532H   LINE      CODE     ---       #241
      00FF6534H   LINE      CODE     ---       #242
      ---         BLOCKEND  ---      ---       LVL=0

      00FF0016H   BLOCK     CODE     ---       LVL=0
      00FF0016H   LINE      CODE     ---       #245
      00FF0016H   LINE      CODE     ---       #247
      00FF0018H   LINE      CODE     ---       #248
      ---         BLOCKEND  ---      ---       LVL=0

      00FF000EH   BLOCK     CODE     ---       LVL=0
      00FF000EH   LINE      CODE     ---       #251
      00FF000EH   LINE      CODE     ---       #253
      00FF0010H   LINE      CODE     ---       #254
      ---         BLOCKEND  ---      ---       LVL=0

      ---         MODULE    ---      ---       common
      000006FCH   PUBLIC    EDATA    INT       wireless_type
      000000D0H   SFRSYM    DATA     BYTE      PSW
      000000B7H   SFRSYM    DATA     BYTE      IPH
      00000088H   SFRSYM    DATA     BYTE      TCON
      00000098H   SFRSYM    DATA     BYTE      SCON
      000000BCH   SFRSYM    DATA     BYTE      ADC_CONTR
      000000DEH   SFRSYM    DATA     BYTE      ADCCFG
      000000B8H   SFRSYM    DATA     BYTE      IP
      000000A8H   SFRSYM    DATA     BYTE      IE
      000000F8H   SFRSYM    DATA     BYTE      P7
      000000E8H   SFRSYM    DATA     BYTE      P6
      000000C8H   SFRSYM    DATA     BYTE      P5
      000000C0H   SFRSYM    DATA     BYTE      P4
      000000B0H   SFRSYM    DATA     BYTE      P3
      000000A0H   SFRSYM    DATA     BYTE      P2
      00000090H   SFRSYM    DATA     BYTE      P1
      00000080H   SFRSYM    DATA     BYTE      P0

      ---         MODULE    ---      ---       SEEKFREE_PRINTF
      00FF5127H   PUBLIC    CODE     ---       number_conversion_ascii
      00FF28B9H   PUBLIC    CODE     ---       zf_sprintf
      00FF5E0DH   PUBLIC    CODE     ---       printf_reverse_order
      0000048BH   PUBLIC    EDATA    BYTE      ?number_conversion_ascii?BYTE
      0000045DH   PUBLIC    EDATA    BYTE      ?zf_sprintf?BYTE
L251 LINKER/LOCATER V4.66.93.0                                                        03/21/2024  17:39:21  PAGE 32


      000000D0H   SFRSYM    DATA     BYTE      PSW
      000000B7H   SFRSYM    DATA     BYTE      IPH
      00000088H   SFRSYM    DATA     BYTE      TCON
      00000098H   SFRSYM    DATA     BYTE      SCON
      000000BCH   SFRSYM    DATA     BYTE      ADC_CONTR
      000000DEH   SFRSYM    DATA     BYTE      ADCCFG
      000000B8H   SFRSYM    DATA     BYTE      IP
      000000A8H   SFRSYM    DATA     BYTE      IE
      000000F8H   SFRSYM    DATA     BYTE      P7
      000000E8H   SFRSYM    DATA     BYTE      P6
      000000C8H   SFRSYM    DATA     BYTE      P5
      000000C0H   SFRSYM    DATA     BYTE      P4
      000000B0H   SFRSYM    DATA     BYTE      P3
      000000A0H   SFRSYM    DATA     BYTE      P2
      00000090H   SFRSYM    DATA     BYTE      P1
      00000080H   SFRSYM    DATA     BYTE      P0

      00FF5127H   BLOCK     CODE     ---       LVL=0
      DR24        REGSYM    ---      DWORD     dat
      REG=7       REGSYM    ---      ---       p
      R10         REGSYM    ---      BYTE      neg_type
      00000494H   SYMBOL    EDATA    BYTE      radix
      00FF512FH   BLOCK     CODE     NEAR LAB  LVL=1
      DR20        REGSYM    ---      LONG      neg_dat
      DR24        REGSYM    ---      DWORD     pos_dat
      R14         REGSYM    ---      BYTE      temp_data
      R15         REGSYM    ---      BYTE      valid_num
      ---         BLOCKEND  ---      ---       LVL=1
      00FF5127H   LINE      CODE     ---       #25
      00FF512FH   LINE      CODE     ---       #26
      00FF512FH   LINE      CODE     ---       #29
      00FF512FH   LINE      CODE     ---       #30
      00FF5131H   LINE      CODE     ---       #32
      00FF5135H   LINE      CODE     ---       #34
      00FF5137H   LINE      CODE     ---       #35
      00FF5147H   LINE      CODE     ---       #36
      00FF5147H   LINE      CODE     ---       #38
      00FF515DH   LINE      CODE     ---       #39
      00FF516CH   LINE      CODE     ---       #40
      00FF516EH   LINE      CODE     ---       #42
      00FF5174H   LINE      CODE     ---       #43
      00FF5176H   LINE      CODE     ---       #44
      00FF5178H   LINE      CODE     ---       #45
      00FF517AH   LINE      CODE     ---       #48
      00FF517AH   LINE      CODE     ---       #49
      00FF517AH   LINE      CODE     ---       #51
      00FF5189H   LINE      CODE     ---       #52
      00FF5193H   LINE      CODE     ---       #53
      00FF5196H   LINE      CODE     ---       #55
      00FF5199H   LINE      CODE     ---       #57
      00FF51A8H   LINE      CODE     ---       #58
      00FF51AAH   LINE      CODE     ---       #60
      00FF51B0H   LINE      CODE     ---       #61
      00FF51B2H   LINE      CODE     ---       #62
      00FF51B4H   LINE      CODE     ---       #63
      00FF51B4H   LINE      CODE     ---       #64
      00FF51B6H   LINE      CODE     ---       #65
      ---         BLOCKEND  ---      ---       LVL=0

      00FF5E0DH   BLOCK     CODE     ---       LVL=0
      REG=7       REGSYM    ---      ---       d_buff
      DR24        REGSYM    ---      DWORD     len
      00FF5E11H   BLOCK     CODE     NEAR LAB  LVL=1
      DR4         REGSYM    ---      DWORD     i
      R3          REGSYM    ---      CHAR      temp_data
L251 LINKER/LOCATER V4.66.93.0                                                        03/21/2024  17:39:21  PAGE 33


      ---         BLOCKEND  ---      ---       LVL=1
      00FF5E0DH   LINE      CODE     ---       #67
      00FF5E11H   LINE      CODE     ---       #68
      00FF5E11H   LINE      CODE     ---       #71
      00FF5E15H   LINE      CODE     ---       #73
      00FF5E24H   LINE      CODE     ---       #74
      00FF5E32H   LINE      CODE     ---       #75
      00FF5E39H   LINE      CODE     ---       #76
      00FF5E4AH   LINE      CODE     ---       #77
      ---         BLOCKEND  ---      ---       LVL=0

      00FF28B9H   BLOCK     CODE     ---       LVL=0
      REG=3       REGSYM    ---      ---       buff
      00000461H   SYMBOL    EDATA    ---       format
      00FF28C1H   BLOCK     CODE     NEAR LAB  LVL=1
      00000465H   SYMBOL    EDATA    DWORD     buff_len
      00000469H   SYMBOL    EDATA    ---       arg
      00FF28D6H   BLOCK     CODE     NEAR LAB  LVL=2
      0000046DH   SYMBOL    EDATA    CHAR      ret
      00FF2A00H   BLOCK     CODE     NEAR LAB  LVL=3
      0000046EH   SYMBOL    EDATA    CHAR      ch
      ---         BLOCKEND  ---      ---       LVL=3
      00FF2A19H   BLOCK     CODE     NEAR LAB  LVL=3
      0000046EH   SYMBOL    EDATA    ---       vstr
      0000048FH   SYMBOL    EDATA    LONG      ival
      00000493H   SYMBOL    EDATA    BYTE      vlen
      ---         BLOCKEND  ---      ---       LVL=3
      00FF2A92H   BLOCK     CODE     NEAR LAB  LVL=3
      0000046EH   SYMBOL    EDATA    ---       vstr
      0000048FH   SYMBOL    EDATA    FLOAT     ival
      00000493H   SYMBOL    EDATA    BYTE      vlen
      ---         BLOCKEND  ---      ---       LVL=3
      00FF2BCDH   BLOCK     CODE     NEAR LAB  LVL=3
      0000046EH   SYMBOL    EDATA    ---       vstr
      0000048FH   SYMBOL    EDATA    DWORD     ival
      00000493H   SYMBOL    EDATA    BYTE      vlen
      ---         BLOCKEND  ---      ---       LVL=3
      00FF2C25H   BLOCK     CODE     NEAR LAB  LVL=3
      0000046EH   SYMBOL    EDATA    ---       vstr
      0000048FH   SYMBOL    EDATA    DWORD     ival
      00000493H   SYMBOL    EDATA    BYTE      vlen
      ---         BLOCKEND  ---      ---       LVL=3
      00FF2C7CH   BLOCK     CODE     NEAR LAB  LVL=3
      0000046EH   SYMBOL    EDATA    ---       vstr
      0000048FH   SYMBOL    EDATA    DWORD     ival
      00000493H   SYMBOL    EDATA    BYTE      vlen
      ---         BLOCKEND  ---      ---       LVL=3
      00FF2CDEH   BLOCK     CODE     NEAR LAB  LVL=3
      0000046EH   SYMBOL    EDATA    ---       pc
      ---         BLOCKEND  ---      ---       LVL=3
      00FF2D20H   BLOCK     CODE     NEAR LAB  LVL=3
      0000046EH   SYMBOL    EDATA    ---       vstr
      0000048FH   SYMBOL    EDATA    DWORD     ival
      ---         BLOCKEND  ---      ---       LVL=3
      ---         BLOCKEND  ---      ---       LVL=2
      ---         BLOCKEND  ---      ---       LVL=1
      00FF28B9H   LINE      CODE     ---       #212
      00FF28C1H   LINE      CODE     ---       #213
      00FF28C1H   LINE      CODE     ---       #214
      00FF28C7H   LINE      CODE     ---       #216
      00FF28D3H   LINE      CODE     ---       #218
      00FF28D6H   LINE      CODE     ---       #219
      00FF28D6H   LINE      CODE     ---       #220
      00FF28E1H   LINE      CODE     ---       #221
      00FF28E9H   LINE      CODE     ---       #223
L251 LINKER/LOCATER V4.66.93.0                                                        03/21/2024  17:39:21  PAGE 34


      00FF2A00H   LINE      CODE     ---       #225
      00FF2A00H   LINE      CODE     ---       #229
      00FF2A00H   LINE      CODE     ---       #232
      00FF2A00H   LINE      CODE     ---       #233
      00FF2A00H   LINE      CODE     ---       #234
      00FF2A16H   LINE      CODE     ---       #235
      00FF2A16H   LINE      CODE     ---       #236
      00FF2A16H   LINE      CODE     ---       #237
      00FF2A16H   LINE      CODE     ---       #239
      00FF2A19H   LINE      CODE     ---       #242
      00FF2A19H   LINE      CODE     ---       #243
      00FF2A19H   LINE      CODE     ---       #244
      00FF2A19H   LINE      CODE     ---       #246
      00FF2A32H   LINE      CODE     ---       #247
      00FF2A45H   LINE      CODE     ---       #249
      00FF2A4FH   LINE      CODE     ---       #251
      00FF2A5CH   LINE      CODE     ---       #252
      00FF2A61H   LINE      CODE     ---       #253
      00FF2A61H   LINE      CODE     ---       #254
      00FF2A70H   LINE      CODE     ---       #255
      00FF2A83H   LINE      CODE     ---       #256
      00FF2A8BH   LINE      CODE     ---       #257
      00FF2A8FH   LINE      CODE     ---       #260
      00FF2A92H   LINE      CODE     ---       #262
      00FF2A92H   LINE      CODE     ---       #263
      00FF2A92H   LINE      CODE     ---       #264
      00FF2A92H   LINE      CODE     ---       #266
      00FF2AABH   LINE      CODE     ---       #267
      00FF2AC1H   LINE      CODE     ---       #269
      00FF2ACCH   LINE      CODE     ---       #271
      00FF2AD9H   LINE      CODE     ---       #272
      00FF2ADEH   LINE      CODE     ---       #273
      00FF2ADEH   LINE      CODE     ---       #274
      00FF2AEDH   LINE      CODE     ---       #275
      00FF2B00H   LINE      CODE     ---       #276
      00FF2B08H   LINE      CODE     ---       #277
      00FF2B1AH   LINE      CODE     ---       #279
      00FF2B3EH   LINE      CODE     ---       #280
      00FF2B44H   LINE      CODE     ---       #282
      00FF2B56H   LINE      CODE     ---       #283
      00FF2B58H   LINE      CODE     ---       #286
      00FF2B72H   LINE      CODE     ---       #287
      00FF2B78H   LINE      CODE     ---       #288
      00FF2B78H   LINE      CODE     ---       #290
      00FF2B7DH   LINE      CODE     ---       #292
      00FF2B87H   LINE      CODE     ---       #293
      00FF2B8CH   LINE      CODE     ---       #294
      00FF2B95H   LINE      CODE     ---       #296
      00FF2B9DH   LINE      CODE     ---       #297
      00FF2BA4H   LINE      CODE     ---       #299
      00FF2BB3H   LINE      CODE     ---       #300
      00FF2BC6H   LINE      CODE     ---       #301
      00FF2BCAH   LINE      CODE     ---       #303
      00FF2BCDH   LINE      CODE     ---       #306
      00FF2BCDH   LINE      CODE     ---       #307
      00FF2BCDH   LINE      CODE     ---       #309
      00FF2BE6H   LINE      CODE     ---       #310
      00FF2BF8H   LINE      CODE     ---       #312
      00FF2C03H   LINE      CODE     ---       #313
      00FF2C16H   LINE      CODE     ---       #314
      00FF2C1EH   LINE      CODE     ---       #315
      00FF2C22H   LINE      CODE     ---       #316
      00FF2C25H   LINE      CODE     ---       #318
      00FF2C25H   LINE      CODE     ---       #319
      00FF2C25H   LINE      CODE     ---       #321
L251 LINKER/LOCATER V4.66.93.0                                                        03/21/2024  17:39:21  PAGE 35


      00FF2C3EH   LINE      CODE     ---       #322
      00FF2C50H   LINE      CODE     ---       #324
      00FF2C5BH   LINE      CODE     ---       #325
      00FF2C6EH   LINE      CODE     ---       #326
      00FF2C76H   LINE      CODE     ---       #327
      00FF2C7AH   LINE      CODE     ---       #329
      00FF2C7CH   LINE      CODE     ---       #331
      00FF2C7CH   LINE      CODE     ---       #332
      00FF2C7CH   LINE      CODE     ---       #333
      00FF2C7CH   LINE      CODE     ---       #335
      00FF2C95H   LINE      CODE     ---       #336
      00FF2CA7H   LINE      CODE     ---       #338
      00FF2CB2H   LINE      CODE     ---       #339
      00FF2CC5H   LINE      CODE     ---       #340
      00FF2CCDH   LINE      CODE     ---       #341
      00FF2CDBH   LINE      CODE     ---       #342
      00FF2CDEH   LINE      CODE     ---       #345
      00FF2CDEH   LINE      CODE     ---       #346
      00FF2CDEH   LINE      CODE     ---       #347
      00FF2CF3H   LINE      CODE     ---       #348
      00FF2CF5H   LINE      CODE     ---       #350
      00FF2CFFH   LINE      CODE     ---       #351
      00FF2D01H   LINE      CODE     ---       #352
      00FF2D0BH   LINE      CODE     ---       #353
      00FF2D15H   LINE      CODE     ---       #354
      00FF2D1EH   LINE      CODE     ---       #355
      00FF2D20H   LINE      CODE     ---       #357
      00FF2D20H   LINE      CODE     ---       #358
      00FF2D20H   LINE      CODE     ---       #360
      00FF2D39H   LINE      CODE     ---       #362
      00FF2D47H   LINE      CODE     ---       #364
      00FF2D52H   LINE      CODE     ---       #365
      00FF2D63H   LINE      CODE     ---       #366
      00FF2D67H   LINE      CODE     ---       #367
      00FF2D6FH   LINE      CODE     ---       #369
      00FF2D71H   LINE      CODE     ---       #372
      00FF2D71H   LINE      CODE     ---       #374
      00FF2D76H   LINE      CODE     ---       #375
      00FF2D78H   LINE      CODE     ---       #376
      00FF2D7EH   LINE      CODE     ---       #377
      00FF2D80H   LINE      CODE     ---       #379
      00FF2D80H   LINE      CODE     ---       #380
      00FF2D80H   LINE      CODE     ---       #381
      00FF2D80H   LINE      CODE     ---       #384
      00FF2D8AH   LINE      CODE     ---       #385
      00FF2D8CH   LINE      CODE     ---       #386
      00FF2D96H   LINE      CODE     ---       #387
      00FF2D96H   LINE      CODE     ---       #388
      00FF2DA0H   LINE      CODE     ---       #389
      00FF2DACH   LINE      CODE     ---       #392
      00FF2DB0H   LINE      CODE     ---       #393
      ---         BLOCKEND  ---      ---       LVL=0

      ---         MODULE    ---      ---       zf_adc
      00FF611EH   PUBLIC    CODE     ---       adc_once
      00FF5838H   PUBLIC    CODE     ---       adc_init
      00000094H   SFRSYM    DATA     BYTE      P0M0
      000000D0H   SFRSYM    DATA     BYTE      PSW
      000000B7H   SFRSYM    DATA     BYTE      IPH
      000000BEH   SFRSYM    DATA     BYTE      ADC_RESL
      00000088H   SFRSYM    DATA     BYTE      TCON
      00000098H   SFRSYM    DATA     BYTE      SCON
      000000BCH   SFRSYM    DATA     BYTE      ADC_CONTR
      000000DEH   SFRSYM    DATA     BYTE      ADCCFG
      000000B8H   SFRSYM    DATA     BYTE      IP
L251 LINKER/LOCATER V4.66.93.0                                                        03/21/2024  17:39:21  PAGE 36


      000000BDH   SFRSYM    DATA     BYTE      ADC_RES
      000000A8H   SFRSYM    DATA     BYTE      IE
      000000F8H   SFRSYM    DATA     BYTE      P7
      000000E8H   SFRSYM    DATA     BYTE      P6
      000000C8H   SFRSYM    DATA     BYTE      P5
      000000C0H   SFRSYM    DATA     BYTE      P4
      000000B0H   SFRSYM    DATA     BYTE      P3
      000000A0H   SFRSYM    DATA     BYTE      P2
      00000090H   SFRSYM    DATA     BYTE      P1
      00000080H   SFRSYM    DATA     BYTE      P0
      00000091H   SFRSYM    DATA     BYTE      P1M1
      00000092H   SFRSYM    DATA     BYTE      P1M0
      00000093H   SFRSYM    DATA     BYTE      P0M1

      00FF5838H   BLOCK     CODE     ---       LVL=0
      WR4         REGSYM    ---      INT       adcn
      WR2         REGSYM    ---      INT       speed
      00FF5838H   LINE      CODE     ---       #32
      00FF583CH   LINE      CODE     ---       #34
      00FF583FH   LINE      CODE     ---       #36
      00FF5842H   LINE      CODE     ---       #37
      00FF5848H   LINE      CODE     ---       #39
      00FF5854H   LINE      CODE     ---       #42
      00FF5869H   LINE      CODE     ---       #43
      00FF586DH   LINE      CODE     ---       #44
      00FF586FH   LINE      CODE     ---       #45
      00FF5873H   LINE      CODE     ---       #48
      00FF5888H   LINE      CODE     ---       #49
      00FF588CH   LINE      CODE     ---       #50
      00FF588CH   LINE      CODE     ---       #52
      00FF5892H   LINE      CODE     ---       #54
      00FF5895H   LINE      CODE     ---       #55
      ---         BLOCKEND  ---      ---       LVL=0

      00FF611EH   BLOCK     CODE     ---       LVL=0
      WR6         REGSYM    ---      INT       adcn
      WR4         REGSYM    ---      INT       resolution
      WR6         REGSYM    ---      WORD      adc_value
      00FF611EH   LINE      CODE     ---       #66
      00FF611EH   LINE      CODE     ---       #67
      00FF611EH   LINE      CODE     ---       #70
      00FF6121H   LINE      CODE     ---       #71
      00FF6125H   LINE      CODE     ---       #73
      00FF6128H   LINE      CODE     ---       #74
      00FF612DH   LINE      CODE     ---       #75
      00FF6130H   LINE      CODE     ---       #77
      00FF6132H   LINE      CODE     ---       #78
      00FF6136H   LINE      CODE     ---       #79
      00FF613CH   LINE      CODE     ---       #81
      00FF613FH   LINE      CODE     ---       #82
      00FF6142H   LINE      CODE     ---       #84
      00FF614BH   LINE      CODE     ---       #87
      00FF614BH   LINE      CODE     ---       #88
      ---         BLOCKEND  ---      ---       LVL=0

      ---         MODULE    ---      ---       zf_delay
      00FF5F79H   PUBLIC    CODE     ---       delay_init
      00FF642EH   PUBLIC    CODE     ---       delay_ms
      000006F2H   PUBLIC    EDATA    WORD      zf_delay_ms
      000006F4H   PUBLIC    EDATA    WORD      zf_delay_us
      000000D0H   SFRSYM    DATA     BYTE      PSW
      000000B7H   SFRSYM    DATA     BYTE      IPH
      00000088H   SFRSYM    DATA     BYTE      TCON
      00000098H   SFRSYM    DATA     BYTE      SCON
      000000BCH   SFRSYM    DATA     BYTE      ADC_CONTR
L251 LINKER/LOCATER V4.66.93.0                                                        03/21/2024  17:39:21  PAGE 37


      000000DEH   SFRSYM    DATA     BYTE      ADCCFG
      000000B8H   SFRSYM    DATA     BYTE      IP
      000000A8H   SFRSYM    DATA     BYTE      IE
      000000F8H   SFRSYM    DATA     BYTE      P7
      000000E8H   SFRSYM    DATA     BYTE      P6
      000000C8H   SFRSYM    DATA     BYTE      P5
      000000C0H   SFRSYM    DATA     BYTE      P4
      000000B0H   SFRSYM    DATA     BYTE      P3
      000000A0H   SFRSYM    DATA     BYTE      P2
      00000090H   SFRSYM    DATA     BYTE      P1
      00000080H   SFRSYM    DATA     BYTE      P0

      00FF5F79H   BLOCK     CODE     ---       LVL=0
      00FF5F79H   LINE      CODE     ---       #34
      00FF5F79H   LINE      CODE     ---       #36
      00FF5F8AH   LINE      CODE     ---       #37
      00FF5F9BH   LINE      CODE     ---       #38
      00FF5FB1H   LINE      CODE     ---       #40
      ---         BLOCKEND  ---      ---       LVL=0

      00FF642EH   BLOCK     CODE     ---       LVL=0
      WR4         REGSYM    ---      WORD      ms
      00FF6430H   BLOCK     CODE     NEAR LAB  LVL=1
      WR6         REGSYM    ---      WORD      i
      ---         BLOCKEND  ---      ---       LVL=1
      00FF642EH   LINE      CODE     ---       #48
      00FF6430H   LINE      CODE     ---       #49
      00FF6430H   LINE      CODE     ---       #51
      00FF6430H   LINE      CODE     ---       #52
      00FF6434H   LINE      CODE     ---       #54
      00FF643CH   LINE      CODE     ---       #55
      00FF6444H   LINE      CODE     ---       #56
      ---         BLOCKEND  ---      ---       LVL=0
      DR0         REGSYM    ---      DWORD     us
      WR6         REGSYM    ---      WORD      i

      ---         MODULE    ---      ---       zf_eeprom
      000000D0H   SFRSYM    DATA     BYTE      PSW
      000000D0H.5 SFRSYM    DATA     BIT       F0
      000000C6H   SFRSYM    DATA     BYTE      IAP_TRIG
      000000B7H   SFRSYM    DATA     BYTE      IPH
      000000C2H   SFRSYM    DATA     BYTE      IAP_DATA
      000000C7H   SFRSYM    DATA     BYTE      IAP_CONTR
      00000088H   SFRSYM    DATA     BYTE      TCON
      00000098H   SFRSYM    DATA     BYTE      SCON
      000000F5H   SFRSYM    DATA     BYTE      IAP_TPS
      000000BCH   SFRSYM    DATA     BYTE      ADC_CONTR
      000000C4H   SFRSYM    DATA     BYTE      IAP_ADDRL
      000000C3H   SFRSYM    DATA     BYTE      IAP_ADDRH
      000000F6H   SFRSYM    DATA     BYTE      IAP_ADDRE
      000000DEH   SFRSYM    DATA     BYTE      ADCCFG
      000000B8H   SFRSYM    DATA     BYTE      IP
      000000C5H   SFRSYM    DATA     BYTE      IAP_CMD
      000000A8H   SFRSYM    DATA     BYTE      IE
      000000F8H   SFRSYM    DATA     BYTE      P7
      000000A8H.7 SFRSYM    DATA     BIT       EA
      000000E8H   SFRSYM    DATA     BYTE      P6
      000000C8H   SFRSYM    DATA     BYTE      P5
      000000C0H   SFRSYM    DATA     BYTE      P4
      000000B0H   SFRSYM    DATA     BYTE      P3
      000000A0H   SFRSYM    DATA     BYTE      P2
      00000090H   SFRSYM    DATA     BYTE      P1
      00000080H   SFRSYM    DATA     BYTE      P0
      R11         REGSYM    ---      BYTE      write_time
      REG=3       REGSYM    ---      ---       buf
L251 LINKER/LOCATER V4.66.93.0                                                        03/21/2024  17:39:21  PAGE 38


      REG=3       REGSYM    ---      ---       buf
      WR6         REGSYM    ---      WORD      addr
      REG=3       REGSYM    ---      ---       buf
      WR6         REGSYM    ---      WORD      i

      ---         MODULE    ---      ---       zf_exti
      000000D0H   SFRSYM    DATA     BYTE      PSW
      000000B7H   SFRSYM    DATA     BYTE      IPH
      00000088H.2 SFRSYM    DATA     BIT       IT1
      000000A8H.2 SFRSYM    DATA     BIT       EX1
      00000088H.0 SFRSYM    DATA     BIT       IT0
      000000A8H.0 SFRSYM    DATA     BIT       EX0
      00000088H   SFRSYM    DATA     BYTE      TCON
      00000098H   SFRSYM    DATA     BYTE      SCON
      000000BCH   SFRSYM    DATA     BYTE      ADC_CONTR
      000000DEH   SFRSYM    DATA     BYTE      ADCCFG
      000000B8H   SFRSYM    DATA     BYTE      IP
      0000008FH   SFRSYM    DATA     BYTE      INTCLKO
      000000A8H   SFRSYM    DATA     BYTE      IE
      000000F8H   SFRSYM    DATA     BYTE      P7
      000000E8H   SFRSYM    DATA     BYTE      P6
      000000C8H   SFRSYM    DATA     BYTE      P5
      000000C0H   SFRSYM    DATA     BYTE      P4
      000000B0H   SFRSYM    DATA     BYTE      P3
      000000A0H   SFRSYM    DATA     BYTE      P2
      00000090H   SFRSYM    DATA     BYTE      P1
      00000080H   SFRSYM    DATA     BYTE      P0
      WR4         REGSYM    ---      INT       int_n
      WR2         REGSYM    ---      INT       mode

      ---         MODULE    ---      ---       zf_gpio
      00FF2DB3H   PUBLIC    CODE     ---       gpio_mode
      00000094H   SFRSYM    DATA     BYTE      P0M0
      000000D0H   SFRSYM    DATA     BYTE      PSW
      000000B7H   SFRSYM    DATA     BYTE      IPH
      00000088H   SFRSYM    DATA     BYTE      TCON
      00000098H   SFRSYM    DATA     BYTE      SCON
      000000BCH   SFRSYM    DATA     BYTE      ADC_CONTR
      000000DEH   SFRSYM    DATA     BYTE      ADCCFG
      000000B8H   SFRSYM    DATA     BYTE      IP
      000000A8H   SFRSYM    DATA     BYTE      IE
      000000F8H   SFRSYM    DATA     BYTE      P7
      000000E1H   SFRSYM    DATA     BYTE      P7M1
      000000E8H   SFRSYM    DATA     BYTE      P6
      000000C8H   SFRSYM    DATA     BYTE      P5
      000000CBH   SFRSYM    DATA     BYTE      P6M1
      000000E2H   SFRSYM    DATA     BYTE      P7M0
      000000C0H   SFRSYM    DATA     BYTE      P4
      000000C9H   SFRSYM    DATA     BYTE      P5M1
      000000CCH   SFRSYM    DATA     BYTE      P6M0
      000000B0H   SFRSYM    DATA     BYTE      P3
      000000B3H   SFRSYM    DATA     BYTE      P4M1
      000000CAH   SFRSYM    DATA     BYTE      P5M0
      000000A0H   SFRSYM    DATA     BYTE      P2
      000000B1H   SFRSYM    DATA     BYTE      P3M1
      000000B4H   SFRSYM    DATA     BYTE      P4M0
      00000090H   SFRSYM    DATA     BYTE      P1
      00000095H   SFRSYM    DATA     BYTE      P2M1
      000000B2H   SFRSYM    DATA     BYTE      P3M0
      00000080H   SFRSYM    DATA     BYTE      P0
      00000091H   SFRSYM    DATA     BYTE      P1M1
      00000096H   SFRSYM    DATA     BYTE      P2M0
      00000092H   SFRSYM    DATA     BYTE      P1M0
      00000093H   SFRSYM    DATA     BYTE      P0M1
      WR4         REGSYM    ---      INT       pin
L251 LINKER/LOCATER V4.66.93.0                                                        03/21/2024  17:39:21  PAGE 39


      WR2         REGSYM    ---      INT       pull

      00FF2DB3H   BLOCK     CODE     ---       LVL=0
      WR4         REGSYM    ---      INT       pin
      WR2         REGSYM    ---      INT       mode
      00FF2DB3H   LINE      CODE     ---       #54
      00FF2DB7H   LINE      CODE     ---       #56
      00FF2DBEH   LINE      CODE     ---       #58
      00FF2DC6H   LINE      CODE     ---       #60
      00FF2DDEH   LINE      CODE     ---       #61
      00FF2DE0H   LINE      CODE     ---       #62
      00FF2DE0H   LINE      CODE     ---       #63
      00FF2DE6H   LINE      CODE     ---       #65
      00FF2DFEH   LINE      CODE     ---       #66
      00FF2E00H   LINE      CODE     ---       #67
      00FF2E00H   LINE      CODE     ---       #68
      00FF2E06H   LINE      CODE     ---       #70
      00FF2E1EH   LINE      CODE     ---       #71
      00FF2E20H   LINE      CODE     ---       #72
      00FF2E20H   LINE      CODE     ---       #74
      00FF2E26H   LINE      CODE     ---       #76
      00FF2E3EH   LINE      CODE     ---       #77
      00FF2E40H   LINE      CODE     ---       #78
      00FF2E40H   LINE      CODE     ---       #79
      00FF2E46H   LINE      CODE     ---       #81
      00FF2E5EH   LINE      CODE     ---       #82
      00FF2E60H   LINE      CODE     ---       #83
      00FF2E60H   LINE      CODE     ---       #84
      00FF2E66H   LINE      CODE     ---       #86
      00FF2E7EH   LINE      CODE     ---       #87
      00FF2E80H   LINE      CODE     ---       #88
      00FF2E80H   LINE      CODE     ---       #89
      00FF2E86H   LINE      CODE     ---       #91
      00FF2E9EH   LINE      CODE     ---       #92
      00FF2EA0H   LINE      CODE     ---       #93
      00FF2EA0H   LINE      CODE     ---       #94
      00FF2EA9H   LINE      CODE     ---       #96
      00FF2EC1H   LINE      CODE     ---       #97
      00FF2EC3H   LINE      CODE     ---       #98
      00FF2EC4H   LINE      CODE     ---       #100
      00FF2ECDH   LINE      CODE     ---       #102
      00FF2ED5H   LINE      CODE     ---       #104
      00FF2EEAH   LINE      CODE     ---       #105
      00FF2EEEH   LINE      CODE     ---       #106
      00FF2EEEH   LINE      CODE     ---       #107
      00FF2EF4H   LINE      CODE     ---       #109
      00FF2F09H   LINE      CODE     ---       #110
      00FF2F0DH   LINE      CODE     ---       #111
      00FF2F0DH   LINE      CODE     ---       #112
      00FF2F13H   LINE      CODE     ---       #114
      00FF2F28H   LINE      CODE     ---       #115
      00FF2F2CH   LINE      CODE     ---       #116
      00FF2F2CH   LINE      CODE     ---       #118
      00FF2F32H   LINE      CODE     ---       #120
      00FF2F47H   LINE      CODE     ---       #121
      00FF2F4BH   LINE      CODE     ---       #122
      00FF2F4BH   LINE      CODE     ---       #123
      00FF2F51H   LINE      CODE     ---       #125
      00FF2F66H   LINE      CODE     ---       #126
      00FF2F6AH   LINE      CODE     ---       #127
      00FF2F6AH   LINE      CODE     ---       #128
      00FF2F70H   LINE      CODE     ---       #130
      00FF2F85H   LINE      CODE     ---       #131
      00FF2F89H   LINE      CODE     ---       #132
      00FF2F89H   LINE      CODE     ---       #133
L251 LINKER/LOCATER V4.66.93.0                                                        03/21/2024  17:39:21  PAGE 40


      00FF2F8FH   LINE      CODE     ---       #135
      00FF2FA4H   LINE      CODE     ---       #136
      00FF2FA8H   LINE      CODE     ---       #137
      00FF2FA8H   LINE      CODE     ---       #138
      00FF2FB1H   LINE      CODE     ---       #140
      00FF2FC8H   LINE      CODE     ---       #141
      00FF2FC8H   LINE      CODE     ---       #142
      00FF2FCBH   LINE      CODE     ---       #145
      00FF2FD4H   LINE      CODE     ---       #147
      00FF2FDCH   LINE      CODE     ---       #149
      00FF2FEFH   LINE      CODE     ---       #150
      00FF2FF3H   LINE      CODE     ---       #151
      00FF2FF3H   LINE      CODE     ---       #152
      00FF2FF9H   LINE      CODE     ---       #154
      00FF300CH   LINE      CODE     ---       #155
      00FF3010H   LINE      CODE     ---       #156
      00FF3010H   LINE      CODE     ---       #157
      00FF3016H   LINE      CODE     ---       #159
      00FF3029H   LINE      CODE     ---       #160
      00FF302DH   LINE      CODE     ---       #161
      00FF302DH   LINE      CODE     ---       #163
      00FF3033H   LINE      CODE     ---       #165
      00FF3046H   LINE      CODE     ---       #166
      00FF304AH   LINE      CODE     ---       #167
      00FF304AH   LINE      CODE     ---       #168
      00FF3050H   LINE      CODE     ---       #170
      00FF3063H   LINE      CODE     ---       #171
      00FF3067H   LINE      CODE     ---       #172
      00FF3067H   LINE      CODE     ---       #173
      00FF306DH   LINE      CODE     ---       #175
      00FF3080H   LINE      CODE     ---       #176
      00FF3084H   LINE      CODE     ---       #177
      00FF3084H   LINE      CODE     ---       #178
      00FF308AH   LINE      CODE     ---       #180
      00FF309DH   LINE      CODE     ---       #181
      00FF30A1H   LINE      CODE     ---       #182
      00FF30A1H   LINE      CODE     ---       #183
      00FF30AAH   LINE      CODE     ---       #185
      00FF30BDH   LINE      CODE     ---       #186
      00FF30C1H   LINE      CODE     ---       #187
      00FF30C2H   LINE      CODE     ---       #189
      00FF30CBH   LINE      CODE     ---       #191
      00FF30D3H   LINE      CODE     ---       #193
      00FF30E6H   LINE      CODE     ---       #194
      00FF30E8H   LINE      CODE     ---       #195
      00FF30E8H   LINE      CODE     ---       #196
      00FF30EEH   LINE      CODE     ---       #198
      00FF3101H   LINE      CODE     ---       #199
      00FF3103H   LINE      CODE     ---       #200
      00FF3103H   LINE      CODE     ---       #201
      00FF3109H   LINE      CODE     ---       #203
      00FF311CH   LINE      CODE     ---       #204
      00FF311EH   LINE      CODE     ---       #205
      00FF311EH   LINE      CODE     ---       #207
      00FF3124H   LINE      CODE     ---       #209
      00FF3137H   LINE      CODE     ---       #210
      00FF3139H   LINE      CODE     ---       #211
      00FF3139H   LINE      CODE     ---       #212
      00FF313FH   LINE      CODE     ---       #214
      00FF3152H   LINE      CODE     ---       #215
      00FF3154H   LINE      CODE     ---       #216
      00FF3154H   LINE      CODE     ---       #217
      00FF315AH   LINE      CODE     ---       #219
      00FF316DH   LINE      CODE     ---       #220
      00FF316FH   LINE      CODE     ---       #221
L251 LINKER/LOCATER V4.66.93.0                                                        03/21/2024  17:39:21  PAGE 41


      00FF316FH   LINE      CODE     ---       #222
      00FF3175H   LINE      CODE     ---       #224
      00FF3188H   LINE      CODE     ---       #225
      00FF318AH   LINE      CODE     ---       #226
      00FF318AH   LINE      CODE     ---       #227
      00FF3190H   LINE      CODE     ---       #229
      00FF31A5H   LINE      CODE     ---       #230
      00FF31A9H   LINE      CODE     ---       #231
      00FF31A9H   LINE      CODE     ---       #233
      ---         BLOCKEND  ---      ---       LVL=0

      ---         MODULE    ---      ---       zf_iic
      000000D0H   SFRSYM    DATA     BYTE      PSW
      000000B7H   SFRSYM    DATA     BYTE      IPH
      00000088H   SFRSYM    DATA     BYTE      TCON
      00000098H   SFRSYM    DATA     BYTE      SCON
      000000BCH   SFRSYM    DATA     BYTE      ADC_CONTR
      000000DEH   SFRSYM    DATA     BYTE      ADCCFG
      000000B8H   SFRSYM    DATA     BYTE      IP
      000000A8H   SFRSYM    DATA     BYTE      IE
      000000BAH   SFRSYM    DATA     BYTE      P_SW2
      000000F8H   SFRSYM    DATA     BYTE      P7
      000000E8H   SFRSYM    DATA     BYTE      P6
      000000C8H   SFRSYM    DATA     BYTE      P5
      000000C0H   SFRSYM    DATA     BYTE      P4
      000000B0H   SFRSYM    DATA     BYTE      P3
      000000A0H   SFRSYM    DATA     BYTE      P2
      00000090H   SFRSYM    DATA     BYTE      P1
      00000080H   SFRSYM    DATA     BYTE      P0
      WR6         REGSYM    ---      WORD      x
      R10         REGSYM    ---      BYTE      i
      WR12        REGSYM    ---      WORD      count
      R15         REGSYM    ---      BYTE      ret
      R11         REGSYM    ---      BYTE      ret
      R11         REGSYM    ---      CHAR      dat
      R11         REGSYM    ---      BYTE      ret
      R11         REGSYM    ---      BYTE      ret
      R11         REGSYM    ---      BYTE      ret
      R11         REGSYM    ---      BYTE      ret
      WR6         REGSYM    ---      INT       iic_n
      R13         REGSYM    ---      BYTE      dev_add
      R14         REGSYM    ---      BYTE      reg
      R15         REGSYM    ---      BYTE      dat
      R15         REGSYM    ---      BYTE      dev_add
      R14         REGSYM    ---      BYTE      reg
      REG=3       REGSYM    ---      ---       dat
      WR6         REGSYM    ---      INT       iic_n

      ---         MODULE    ---      ---       zf_nvic
      000000D0H   SFRSYM    DATA     BYTE      PSW
      000000B7H   SFRSYM    DATA     BYTE      IPH
      000000B5H   SFRSYM    DATA     BYTE      IP2
      00000088H   SFRSYM    DATA     BYTE      TCON
      00000098H   SFRSYM    DATA     BYTE      SCON
      000000BCH   SFRSYM    DATA     BYTE      ADC_CONTR
      000000DEH   SFRSYM    DATA     BYTE      ADCCFG
      000000B8H   SFRSYM    DATA     BYTE      IP
      000000B6H   SFRSYM    DATA     BYTE      IP2H
      000000A8H   SFRSYM    DATA     BYTE      IE
      000000F8H   SFRSYM    DATA     BYTE      P7
      000000E8H   SFRSYM    DATA     BYTE      P6
      000000C8H   SFRSYM    DATA     BYTE      P5
      000000C0H   SFRSYM    DATA     BYTE      P4
      000000B0H   SFRSYM    DATA     BYTE      P3
      000000A0H   SFRSYM    DATA     BYTE      P2
L251 LINKER/LOCATER V4.66.93.0                                                        03/21/2024  17:39:21  PAGE 42


      00000090H   SFRSYM    DATA     BYTE      P1
      00000080H   SFRSYM    DATA     BYTE      P0
      WR4         REGSYM    ---      INT       irqn
      R3          REGSYM    ---      BYTE      priority

      ---         MODULE    ---      ---       zf_pwm
      00FF4D3CH   PUBLIC    CODE     ---       pwm_duty
      00FF3829H   PUBLIC    CODE     ---       pwm_set_gpio
      00FF3545H   PUBLIC    CODE     ---       pwm_init
      00FF679FH   PUBLIC    HCONST   ---       PWM_CCR_ADDR
      00FF67BFH   PUBLIC    HCONST   ---       PWM_ARR_ADDR
      00FF67C7H   PUBLIC    HCONST   ---       PWM_CCER_ADDR
      00FF67D7H   PUBLIC    HCONST   ---       PWM_CCMR_ADDR
      00000408H   PUBLIC    EDATA    BYTE      ?pwm_init?BYTE
      000000D0H   SFRSYM    DATA     BYTE      PSW
      000000B7H   SFRSYM    DATA     BYTE      IPH
      00000088H   SFRSYM    DATA     BYTE      TCON
      00000098H   SFRSYM    DATA     BYTE      SCON
      000000BCH   SFRSYM    DATA     BYTE      ADC_CONTR
      000000DEH   SFRSYM    DATA     BYTE      ADCCFG
      000000B8H   SFRSYM    DATA     BYTE      IP
      000000A8H   SFRSYM    DATA     BYTE      IE
      000000BAH   SFRSYM    DATA     BYTE      P_SW2
      000000F8H   SFRSYM    DATA     BYTE      P7
      000000E8H   SFRSYM    DATA     BYTE      P6
      000000C8H   SFRSYM    DATA     BYTE      P5
      000000C0H   SFRSYM    DATA     BYTE      P4
      000000B0H   SFRSYM    DATA     BYTE      P3
      000000A0H   SFRSYM    DATA     BYTE      P2
      00000090H   SFRSYM    DATA     BYTE      P1
      00000080H   SFRSYM    DATA     BYTE      P0

      00FF3829H   BLOCK     CODE     ---       LVL=0
      WR6         REGSYM    ---      INT       pwmch
      00FF3829H   LINE      CODE     ---       #49
      00FF3829H   LINE      CODE     ---       #51
      00FF399CH   LINE      CODE     ---       #53
      00FF399CH   LINE      CODE     ---       #55
      00FF39A0H   LINE      CODE     ---       #56
      00FF39A3H   LINE      CODE     ---       #58
      00FF39A3H   LINE      CODE     ---       #60
      00FF39A7H   LINE      CODE     ---       #61
      00FF39AAH   LINE      CODE     ---       #63
      00FF39AAH   LINE      CODE     ---       #65
      00FF39AEH   LINE      CODE     ---       #66
      00FF39B1H   LINE      CODE     ---       #68
      00FF39B1H   LINE      CODE     ---       #70
      00FF39B5H   LINE      CODE     ---       #71
      00FF39B8H   LINE      CODE     ---       #73
      00FF39B8H   LINE      CODE     ---       #75
      00FF39BCH   LINE      CODE     ---       #76
      00FF39BFH   LINE      CODE     ---       #78
      00FF39BFH   LINE      CODE     ---       #80
      00FF39C3H   LINE      CODE     ---       #81
      00FF39C6H   LINE      CODE     ---       #84
      00FF39C6H   LINE      CODE     ---       #86
      00FF39CAH   LINE      CODE     ---       #87
      00FF39CDH   LINE      CODE     ---       #89
      00FF39CDH   LINE      CODE     ---       #91
      00FF39D1H   LINE      CODE     ---       #92
      00FF39D4H   LINE      CODE     ---       #94
      00FF39D4H   LINE      CODE     ---       #96
      00FF39D8H   LINE      CODE     ---       #97
      00FF39DBH   LINE      CODE     ---       #99
      00FF39DBH   LINE      CODE     ---       #101
L251 LINKER/LOCATER V4.66.93.0                                                        03/21/2024  17:39:21  PAGE 43


      00FF39DFH   LINE      CODE     ---       #102
      00FF39E2H   LINE      CODE     ---       #104
      00FF39E2H   LINE      CODE     ---       #106
      00FF39E6H   LINE      CODE     ---       #107
      00FF39E9H   LINE      CODE     ---       #109
      00FF39E9H   LINE      CODE     ---       #111
      00FF39EDH   LINE      CODE     ---       #112
      00FF39F0H   LINE      CODE     ---       #115
      00FF39F0H   LINE      CODE     ---       #117
      00FF39F4H   LINE      CODE     ---       #118
      00FF39F6H   LINE      CODE     ---       #120
      00FF39F6H   LINE      CODE     ---       #122
      00FF39FAH   LINE      CODE     ---       #123
      00FF39FCH   LINE      CODE     ---       #125
      00FF39FCH   LINE      CODE     ---       #127
      00FF3A00H   LINE      CODE     ---       #128
      00FF3A02H   LINE      CODE     ---       #130
      00FF3A02H   LINE      CODE     ---       #132
      00FF3A06H   LINE      CODE     ---       #133
      00FF3A08H   LINE      CODE     ---       #135
      00FF3A08H   LINE      CODE     ---       #137
      00FF3A0CH   LINE      CODE     ---       #138
      00FF3A0EH   LINE      CODE     ---       #140
      00FF3A0EH   LINE      CODE     ---       #142
      00FF3A12H   LINE      CODE     ---       #143
      00FF3A14H   LINE      CODE     ---       #147
      00FF3A14H   LINE      CODE     ---       #149
      00FF3A18H   LINE      CODE     ---       #150
      00FF3A1AH   LINE      CODE     ---       #152
      00FF3A1AH   LINE      CODE     ---       #154
      00FF3A1EH   LINE      CODE     ---       #155
      00FF3A20H   LINE      CODE     ---       #157
      00FF3A20H   LINE      CODE     ---       #159
      00FF3A24H   LINE      CODE     ---       #160
      00FF3A26H   LINE      CODE     ---       #162
      00FF3A26H   LINE      CODE     ---       #164
      00FF3A2AH   LINE      CODE     ---       #165
      00FF3A2CH   LINE      CODE     ---       #167
      00FF3A2CH   LINE      CODE     ---       #169
      00FF3A30H   LINE      CODE     ---       #170
      00FF3A32H   LINE      CODE     ---       #172
      00FF3A32H   LINE      CODE     ---       #174
      00FF3A36H   LINE      CODE     ---       #175
      00FF3A38H   LINE      CODE     ---       #177
      00FF3A38H   LINE      CODE     ---       #179
      00FF3A3CH   LINE      CODE     ---       #180
      00FF3A3EH   LINE      CODE     ---       #182
      00FF3A3EH   LINE      CODE     ---       #184
      00FF3A42H   LINE      CODE     ---       #185
      00FF3A44H   LINE      CODE     ---       #189
      00FF3A44H   LINE      CODE     ---       #191
      00FF3A48H   LINE      CODE     ---       #192
      00FF3A4AH   LINE      CODE     ---       #194
      00FF3A4AH   LINE      CODE     ---       #196
      00FF3A4EH   LINE      CODE     ---       #197
      00FF3A50H   LINE      CODE     ---       #199
      00FF3A50H   LINE      CODE     ---       #201
      00FF3A52H   LINE      CODE     ---       #202
      00FF3A54H   LINE      CODE     ---       #204
      00FF3A54H   LINE      CODE     ---       #206
      00FF3A58H   LINE      CODE     ---       #207
      00FF3A5AH   LINE      CODE     ---       #210
      00FF3A5AH   LINE      CODE     ---       #212
      00FF3A5EH   LINE      CODE     ---       #213
      00FF3A60H   LINE      CODE     ---       #215
L251 LINKER/LOCATER V4.66.93.0                                                        03/21/2024  17:39:21  PAGE 44


      00FF3A60H   LINE      CODE     ---       #217
      00FF3A64H   LINE      CODE     ---       #218
      00FF3A66H   LINE      CODE     ---       #220
      00FF3A66H   LINE      CODE     ---       #222
      00FF3A6CH   LINE      CODE     ---       #223
      00FF3A6EH   LINE      CODE     ---       #225
      00FF3A6EH   LINE      CODE     ---       #227
      00FF3A76H   LINE      CODE     ---       #228
      00FF3A78H   LINE      CODE     ---       #232
      00FF3A78H   LINE      CODE     ---       #234
      00FF3A80H   LINE      CODE     ---       #235
      00FF3A82H   LINE      CODE     ---       #237
      00FF3A82H   LINE      CODE     ---       #239
      00FF3A8AH   LINE      CODE     ---       #240
      00FF3A8CH   LINE      CODE     ---       #242
      00FF3A8CH   LINE      CODE     ---       #244
      00FF3A94H   LINE      CODE     ---       #245
      00FF3A96H   LINE      CODE     ---       #247
      00FF3A96H   LINE      CODE     ---       #249
      00FF3A9EH   LINE      CODE     ---       #250
      00FF3AA0H   LINE      CODE     ---       #254
      00FF3AA0H   LINE      CODE     ---       #256
      00FF3AA8H   LINE      CODE     ---       #257
      00FF3AAAH   LINE      CODE     ---       #259
      00FF3AAAH   LINE      CODE     ---       #261
      00FF3AB2H   LINE      CODE     ---       #262
      00FF3AB4H   LINE      CODE     ---       #264
      00FF3AB4H   LINE      CODE     ---       #266
      00FF3ABCH   LINE      CODE     ---       #267
      00FF3ABEH   LINE      CODE     ---       #269
      00FF3ABEH   LINE      CODE     ---       #271
      00FF3AC9H   LINE      CODE     ---       #272
      00FF3AC9H   LINE      CODE     ---       #275
      00FF3AC9H   LINE      CODE     ---       #277
      ---         BLOCKEND  ---      ---       LVL=0

      00FF3545H   BLOCK     CODE     ---       LVL=0
      WR14        REGSYM    ---      INT       pwmch
      0000040AH   SYMBOL    EDATA    DWORD     freq
      0000040EH   SYMBOL    EDATA    DWORD     duty
      00FF354DH   BLOCK     CODE     NEAR LAB  LVL=1
      DR4         REGSYM    ---      DWORD     match_temp
      DR28        REGSYM    ---      DWORD     period_temp
      WR26        REGSYM    ---      WORD      freq_div
      ---         BLOCKEND  ---      ---       LVL=1
      00FF3545H   LINE      CODE     ---       #290
      00FF354DH   LINE      CODE     ---       #291
      00FF354DH   LINE      CODE     ---       #295
      00FF354DH   LINE      CODE     ---       #298
      00FF3550H   LINE      CODE     ---       #301
      00FF3553H   LINE      CODE     ---       #305
      00FF3564H   LINE      CODE     ---       #306
      00FF3564H   LINE      CODE     ---       #307
      00FF356DH   LINE      CODE     ---       #309
      00FF358EH   LINE      CODE     ---       #312
      00FF3597H   LINE      CODE     ---       #315
      00FF35C2H   LINE      CODE     ---       #316
      00FF35E3H   LINE      CODE     ---       #319
      00FF362FH   LINE      CODE     ---       #322
      00FF363EH   LINE      CODE     ---       #323
      00FF3649H   LINE      CODE     ---       #325
      00FF3652H   LINE      CODE     ---       #326
      00FF3658H   LINE      CODE     ---       #327
      00FF365BH   LINE      CODE     ---       #330
      00FF3693H   LINE      CODE     ---       #331
L251 LINKER/LOCATER V4.66.93.0                                                        03/21/2024  17:39:21  PAGE 45


      00FF36B6H   LINE      CODE     ---       #334
      00FF3708H   LINE      CODE     ---       #338
      00FF3717H   LINE      CODE     ---       #339
      00FF3722H   LINE      CODE     ---       #341
      00FF372BH   LINE      CODE     ---       #342
      00FF3738H   LINE      CODE     ---       #343
      00FF3738H   LINE      CODE     ---       #346
      00FF3764H   LINE      CODE     ---       #347
      00FF3792H   LINE      CODE     ---       #350
      00FF37B8H   LINE      CODE     ---       #351
      00FF37E4H   LINE      CODE     ---       #354
      00FF37FBH   LINE      CODE     ---       #355
      00FF3826H   LINE      CODE     ---       #360
      ---         BLOCKEND  ---      ---       LVL=0

      00FF4D3CH   BLOCK     CODE     ---       LVL=0
      WR30        REGSYM    ---      INT       pwmch
      DR24        REGSYM    ---      DWORD     duty
      00FF4D40H   BLOCK     CODE     NEAR LAB  LVL=1
      DR0         REGSYM    ---      DWORD     match_temp
      DR20        REGSYM    ---      DWORD     arr
      ---         BLOCKEND  ---      ---       LVL=1
      00FF4D3CH   LINE      CODE     ---       #370
      00FF4D40H   LINE      CODE     ---       #371
      00FF4D40H   LINE      CODE     ---       #373
      00FF4D84H   LINE      CODE     ---       #377
      00FF4DA5H   LINE      CODE     ---       #381
      00FF4DCBH   LINE      CODE     ---       #382
      00FF4DF3H   LINE      CODE     ---       #386
      ---         BLOCKEND  ---      ---       LVL=0
      WR30        REGSYM    ---      INT       pwmch
      DR24        REGSYM    ---      DWORD     freq
      DR0         REGSYM    ---      DWORD     match_temp
      DR24        REGSYM    ---      DWORD     period_temp
      WR28        REGSYM    ---      WORD      freq_div

      ---         MODULE    ---      ---       zf_spi
      000000CFH   SFRSYM    DATA     BYTE      SPDAT
      000000D0H   SFRSYM    DATA     BYTE      PSW
      000000B7H   SFRSYM    DATA     BYTE      IPH
      000000CDH   SFRSYM    DATA     BYTE      SPSTAT
      00000088H   SFRSYM    DATA     BYTE      TCON
      00000098H   SFRSYM    DATA     BYTE      SCON
      000000BCH   SFRSYM    DATA     BYTE      ADC_CONTR
      000000DEH   SFRSYM    DATA     BYTE      ADCCFG
      000000B8H   SFRSYM    DATA     BYTE      IP
      000000A8H   SFRSYM    DATA     BYTE      IE
      000000A2H   SFRSYM    DATA     BYTE      P_SW1
      000000CEH   SFRSYM    DATA     BYTE      SPCTL
      000000F8H   SFRSYM    DATA     BYTE      P7
      000000E8H   SFRSYM    DATA     BYTE      P6
      000000C8H   SFRSYM    DATA     BYTE      P5
      000000C0H   SFRSYM    DATA     BYTE      P4
      000000B0H   SFRSYM    DATA     BYTE      P3
      000000A0H   SFRSYM    DATA     BYTE      P2
      00000090H   SFRSYM    DATA     BYTE      P1
      00000080H   SFRSYM    DATA     BYTE      P0
      WR14        REGSYM    ---      INT       spi_n
      R13         REGSYM    ---      BYTE      mode
      R11         REGSYM    ---      BYTE      dat
      WR14        REGSYM    ---      INT       spi_n
      R7          REGSYM    ---      BYTE      mode

      ---         MODULE    ---      ---       zf_tim
      00FF5BA0H   PUBLIC    CODE     ---       ctimer_count_read
L251 LINKER/LOCATER V4.66.93.0                                                        03/21/2024  17:39:21  PAGE 46


      00FF5093H   PUBLIC    CODE     ---       pit_timer_ms
      00FF5C3AH   PUBLIC    CODE     ---       ctimer_count_init
      00FF5B4FH   PUBLIC    CODE     ---       ctimer_count_clean
      000000D0H   SFRSYM    DATA     BYTE      PSW
      000000B7H   SFRSYM    DATA     BYTE      IPH
      000000DDH   SFRSYM    DATA     BYTE      T4T3M
      00000088H.6 SFRSYM    DATA     BIT       TR1
      00000088H.4 SFRSYM    DATA     BIT       TR0
      000000D3H   SFRSYM    DATA     BYTE      T4L
      000000D5H   SFRSYM    DATA     BYTE      T3L
      000000D7H   SFRSYM    DATA     BYTE      T2L
      0000008BH   SFRSYM    DATA     BYTE      TL1
      0000008AH   SFRSYM    DATA     BYTE      TL0
      000000D2H   SFRSYM    DATA     BYTE      T4H
      000000D4H   SFRSYM    DATA     BYTE      T3H
      000000D6H   SFRSYM    DATA     BYTE      T2H
      0000008DH   SFRSYM    DATA     BYTE      TH1
      0000008CH   SFRSYM    DATA     BYTE      TH0
      000000A8H.3 SFRSYM    DATA     BIT       ET1
      000000A8H.1 SFRSYM    DATA     BIT       ET0
      0000008EH   SFRSYM    DATA     BYTE      AUXR
      000000AFH   SFRSYM    DATA     BYTE      IE2
      00000088H   SFRSYM    DATA     BYTE      TCON
      00000089H   SFRSYM    DATA     BYTE      TMOD
      00000098H   SFRSYM    DATA     BYTE      SCON
      000000BCH   SFRSYM    DATA     BYTE      ADC_CONTR
      000000DEH   SFRSYM    DATA     BYTE      ADCCFG
      000000B8H   SFRSYM    DATA     BYTE      IP
      000000A8H   SFRSYM    DATA     BYTE      IE
      000000F8H   SFRSYM    DATA     BYTE      P7
      000000E8H   SFRSYM    DATA     BYTE      P6
      000000C8H   SFRSYM    DATA     BYTE      P5
      000000C0H   SFRSYM    DATA     BYTE      P4
      000000B0H   SFRSYM    DATA     BYTE      P3
      000000A0H   SFRSYM    DATA     BYTE      P2
      00000090H   SFRSYM    DATA     BYTE      P1
      00000080H   SFRSYM    DATA     BYTE      P0

      00FF5C3AH   BLOCK     CODE     ---       LVL=0
      WR6         REGSYM    ---      INT       tim_n
      00FF5C3AH   LINE      CODE     ---       #39
      00FF5C3AH   LINE      CODE     ---       #42
      00FF5C4EH   LINE      CODE     ---       #44
      00FF5C4EH   LINE      CODE     ---       #46
      00FF5C51H   LINE      CODE     ---       #47
      00FF5C54H   LINE      CODE     ---       #48
      00FF5C57H   LINE      CODE     ---       #49
      00FF5C59H   LINE      CODE     ---       #50
      00FF5C5AH   LINE      CODE     ---       #53
      00FF5C5AH   LINE      CODE     ---       #55
      00FF5C5DH   LINE      CODE     ---       #56
      00FF5C60H   LINE      CODE     ---       #57
      00FF5C63H   LINE      CODE     ---       #58
      00FF5C65H   LINE      CODE     ---       #59
      00FF5C66H   LINE      CODE     ---       #62
      00FF5C66H   LINE      CODE     ---       #64
      00FF5C69H   LINE      CODE     ---       #65
      00FF5C6CH   LINE      CODE     ---       #66
      00FF5C6FH   LINE      CODE     ---       #67
      00FF5C70H   LINE      CODE     ---       #70
      00FF5C70H   LINE      CODE     ---       #72
      00FF5C73H   LINE      CODE     ---       #73
      00FF5C76H   LINE      CODE     ---       #74
      00FF5C79H   LINE      CODE     ---       #75
      00FF5C7AH   LINE      CODE     ---       #78
L251 LINKER/LOCATER V4.66.93.0                                                        03/21/2024  17:39:21  PAGE 47


      00FF5C7AH   LINE      CODE     ---       #80
      00FF5C7DH   LINE      CODE     ---       #81
      00FF5C80H   LINE      CODE     ---       #82
      00FF5C83H   LINE      CODE     ---       #83
      00FF5C83H   LINE      CODE     ---       #86
      00FF5C83H   LINE      CODE     ---       #87
      ---         BLOCKEND  ---      ---       LVL=0

      00FF5BA0H   BLOCK     CODE     ---       LVL=0
      WR4         REGSYM    ---      INT       tim_n
      00FF5BA2H   BLOCK     CODE     NEAR LAB  LVL=1
      WR6         REGSYM    ---      WORD      dat
      ---         BLOCKEND  ---      ---       LVL=1
      00FF5BA0H   LINE      CODE     ---       #95
      00FF5BA2H   LINE      CODE     ---       #96
      00FF5BA2H   LINE      CODE     ---       #97
      00FF5BA4H   LINE      CODE     ---       #99
      00FF5BB8H   LINE      CODE     ---       #101
      00FF5BB8H   LINE      CODE     ---       #103
      00FF5BBEH   LINE      CODE     ---       #104
      00FF5BC0H   LINE      CODE     ---       #105
      00FF5BC2H   LINE      CODE     ---       #107
      00FF5BC2H   LINE      CODE     ---       #109
      00FF5BC8H   LINE      CODE     ---       #110
      00FF5BCAH   LINE      CODE     ---       #111
      00FF5BCCH   LINE      CODE     ---       #113
      00FF5BCCH   LINE      CODE     ---       #115
      00FF5BD2H   LINE      CODE     ---       #116
      00FF5BD4H   LINE      CODE     ---       #117
      00FF5BD6H   LINE      CODE     ---       #119
      00FF5BD6H   LINE      CODE     ---       #121
      00FF5BDCH   LINE      CODE     ---       #122
      00FF5BDEH   LINE      CODE     ---       #123
      00FF5BE0H   LINE      CODE     ---       #125
      00FF5BE0H   LINE      CODE     ---       #127
      00FF5BE6H   LINE      CODE     ---       #128
      00FF5BECH   LINE      CODE     ---       #129
      00FF5BECH   LINE      CODE     ---       #132
      00FF5BECH   LINE      CODE     ---       #133
      00FF5BECH   LINE      CODE     ---       #134
      ---         BLOCKEND  ---      ---       LVL=0

      00FF5B4FH   BLOCK     CODE     ---       LVL=0
      WR6         REGSYM    ---      INT       tim_n
      00FF5B4FH   LINE      CODE     ---       #143
      00FF5B4FH   LINE      CODE     ---       #145
      00FF5B63H   LINE      CODE     ---       #147
      00FF5B63H   LINE      CODE     ---       #149
      00FF5B65H   LINE      CODE     ---       #150
      00FF5B68H   LINE      CODE     ---       #151
      00FF5B6BH   LINE      CODE     ---       #152
      00FF5B6DH   LINE      CODE     ---       #153
      00FF5B6EH   LINE      CODE     ---       #155
      00FF5B6EH   LINE      CODE     ---       #157
      00FF5B70H   LINE      CODE     ---       #158
      00FF5B73H   LINE      CODE     ---       #159
      00FF5B76H   LINE      CODE     ---       #160
      00FF5B78H   LINE      CODE     ---       #161
      00FF5B79H   LINE      CODE     ---       #163
      00FF5B79H   LINE      CODE     ---       #165
      00FF5B7CH   LINE      CODE     ---       #166
      00FF5B7FH   LINE      CODE     ---       #167
      00FF5B82H   LINE      CODE     ---       #168
      00FF5B85H   LINE      CODE     ---       #169
      00FF5B86H   LINE      CODE     ---       #171
L251 LINKER/LOCATER V4.66.93.0                                                        03/21/2024  17:39:21  PAGE 48


      00FF5B86H   LINE      CODE     ---       #173
      00FF5B89H   LINE      CODE     ---       #174
      00FF5B8CH   LINE      CODE     ---       #175
      00FF5B8FH   LINE      CODE     ---       #176
      00FF5B92H   LINE      CODE     ---       #177
      00FF5B93H   LINE      CODE     ---       #179
      00FF5B93H   LINE      CODE     ---       #181
      00FF5B96H   LINE      CODE     ---       #182
      00FF5B99H   LINE      CODE     ---       #183
      00FF5B9CH   LINE      CODE     ---       #184
      00FF5B9FH   LINE      CODE     ---       #185
      00FF5B9FH   LINE      CODE     ---       #187
      00FF5B9FH   LINE      CODE     ---       #188
      ---         BLOCKEND  ---      ---       LVL=0

      00FF5093H   BLOCK     CODE     ---       LVL=0
      WR30        REGSYM    ---      INT       tim_n
      WR28        REGSYM    ---      WORD      time_ms
      00FF5095H   BLOCK     CODE     NEAR LAB  LVL=1
      WR28        REGSYM    ---      WORD      temp
      ---         BLOCKEND  ---      ---       LVL=1
      00FF5093H   LINE      CODE     ---       #198
      00FF5095H   LINE      CODE     ---       #199
      00FF5095H   LINE      CODE     ---       #201
      00FF50B2H   LINE      CODE     ---       #203
      00FF50B6H   LINE      CODE     ---       #205
      00FF50BAH   LINE      CODE     ---       #206
      00FF50C0H   LINE      CODE     ---       #207
      00FF50C4H   LINE      CODE     ---       #208
      00FF50C6H   LINE      CODE     ---       #209
      00FF50C8H   LINE      CODE     ---       #210
      00FF50C9H   LINE      CODE     ---       #211
      00FF50CFH   LINE      CODE     ---       #213
      00FF50D3H   LINE      CODE     ---       #214
      00FF50D9H   LINE      CODE     ---       #215
      00FF50DDH   LINE      CODE     ---       #216
      00FF50DFH   LINE      CODE     ---       #217
      00FF50E1H   LINE      CODE     ---       #218
      00FF50E2H   LINE      CODE     ---       #219
      00FF50E8H   LINE      CODE     ---       #221
      00FF50EEH   LINE      CODE     ---       #222
      00FF50F2H   LINE      CODE     ---       #223
      00FF50F5H   LINE      CODE     ---       #224
      00FF50F8H   LINE      CODE     ---       #225
      00FF50F9H   LINE      CODE     ---       #226
      00FF50FFH   LINE      CODE     ---       #228
      00FF5105H   LINE      CODE     ---       #229
      00FF5109H   LINE      CODE     ---       #230
      00FF510CH   LINE      CODE     ---       #231
      00FF510FH   LINE      CODE     ---       #232
      00FF5110H   LINE      CODE     ---       #233
      00FF5116H   LINE      CODE     ---       #235
      00FF511CH   LINE      CODE     ---       #236
      00FF5120H   LINE      CODE     ---       #237
      00FF5123H   LINE      CODE     ---       #238
      00FF5126H   LINE      CODE     ---       #239
      ---         BLOCKEND  ---      ---       LVL=0

      ---         MODULE    ---      ---       zf_uart
      00FF59FFH   PUBLIC    CODE     ---       uart_putchar
      00FF3F90H   PUBLIC    CODE     ---       uart_init
      00000331H   PUBLIC    EDATA    ---       uart1_rx_buff
      00000395H   PUBLIC    EDATA    ---       uart1_tx_buff
      000003F9H   PUBLIC    EDATA    ---       busy
      00000404H   PUBLIC    EDATA    BYTE      ?uart_init?BYTE
L251 LINKER/LOCATER V4.66.93.0                                                        03/21/2024  17:39:21  PAGE 49


      000000D0H   SFRSYM    DATA     BYTE      PSW
      000000FDH   SFRSYM    DATA     BYTE      S4CON
      000000ACH   SFRSYM    DATA     BYTE      S3CON
      0000009AH   SFRSYM    DATA     BYTE      S2CON
      000000FEH   SFRSYM    DATA     BYTE      S4BUF
      000000ADH   SFRSYM    DATA     BYTE      S3BUF
      0000009BH   SFRSYM    DATA     BYTE      S2BUF
      000000B7H   SFRSYM    DATA     BYTE      IPH
      000000DDH   SFRSYM    DATA     BYTE      T4T3M
      00000088H.6 SFRSYM    DATA     BIT       TR1
      000000D3H   SFRSYM    DATA     BYTE      T4L
      000000D5H   SFRSYM    DATA     BYTE      T3L
      000000D7H   SFRSYM    DATA     BYTE      T2L
      0000008BH   SFRSYM    DATA     BYTE      TL1
      000000D2H   SFRSYM    DATA     BYTE      T4H
      000000D4H   SFRSYM    DATA     BYTE      T3H
      000000D6H   SFRSYM    DATA     BYTE      T2H
      0000008DH   SFRSYM    DATA     BYTE      TH1
      0000008EH   SFRSYM    DATA     BYTE      AUXR
      000000AFH   SFRSYM    DATA     BYTE      IE2
      00000088H   SFRSYM    DATA     BYTE      TCON
      00000089H   SFRSYM    DATA     BYTE      TMOD
      00000098H   SFRSYM    DATA     BYTE      SCON
      00000099H   SFRSYM    DATA     BYTE      SBUF
      000000BCH   SFRSYM    DATA     BYTE      ADC_CONTR
      000000DEH   SFRSYM    DATA     BYTE      ADCCFG
      000000B8H   SFRSYM    DATA     BYTE      IP
      000000A8H.4 SFRSYM    DATA     BIT       ES
      000000A8H   SFRSYM    DATA     BYTE      IE
      000000BAH   SFRSYM    DATA     BYTE      P_SW2
      000000A2H   SFRSYM    DATA     BYTE      P_SW1
      000000F8H   SFRSYM    DATA     BYTE      P7
      000000E8H   SFRSYM    DATA     BYTE      P6
      000000C8H   SFRSYM    DATA     BYTE      P5
      000000C0H   SFRSYM    DATA     BYTE      P4
      000000C9H   SFRSYM    DATA     BYTE      P5M1
      000000B0H   SFRSYM    DATA     BYTE      P3
      000000CAH   SFRSYM    DATA     BYTE      P5M0
      000000A0H   SFRSYM    DATA     BYTE      P2
      00000090H   SFRSYM    DATA     BYTE      P1
      00000080H   SFRSYM    DATA     BYTE      P0

      00FF3F90H   BLOCK     CODE     ---       LVL=0
      WR24        REGSYM    ---      INT       uart_n
      WR28        REGSYM    ---      INT       uart_rx_pin
      WR30        REGSYM    ---      INT       uart_tx_pin
      0000040AH   SYMBOL    EDATA    DWORD     baud
      WR26        REGSYM    ---      INT       tim_n
      00FF3F98H   BLOCK     CODE     NEAR LAB  LVL=1
      WR6         REGSYM    ---      WORD      brt
      ---         BLOCKEND  ---      ---       LVL=1
      00FF3F90H   LINE      CODE     ---       #48
      00FF3F98H   LINE      CODE     ---       #49
      00FF3F98H   LINE      CODE     ---       #52
      00FF3FBBH   LINE      CODE     ---       #55
      00FF3FD9H   LINE      CODE     ---       #57
      00FF3FD9H   LINE      CODE     ---       #59
      00FF3FDFH   LINE      CODE     ---       #61
      00FF3FE2H   LINE      CODE     ---       #62
      00FF3FE6H   LINE      CODE     ---       #63
      00FF3FEAH   LINE      CODE     ---       #64
      00FF3FEEH   LINE      CODE     ---       #65
      00FF3FF1H   LINE      CODE     ---       #66
      00FF3FF3H   LINE      CODE     ---       #67
      00FF3FF8H   LINE      CODE     ---       #68
L251 LINKER/LOCATER V4.66.93.0                                                        03/21/2024  17:39:21  PAGE 50


      00FF3FFAH   LINE      CODE     ---       #69
      00FF4000H   LINE      CODE     ---       #71
      00FF4003H   LINE      CODE     ---       #72
      00FF4007H   LINE      CODE     ---       #73
      00FF400BH   LINE      CODE     ---       #74
      00FF400EH   LINE      CODE     ---       #75
      00FF400EH   LINE      CODE     ---       #76
      00FF4011H   LINE      CODE     ---       #77
      00FF401BH   LINE      CODE     ---       #79
      00FF401FH   LINE      CODE     ---       #80
      00FF4021H   LINE      CODE     ---       #81
      00FF402DH   LINE      CODE     ---       #83
      00FF4030H   LINE      CODE     ---       #84
      00FF4032H   LINE      CODE     ---       #85
      00FF403EH   LINE      CODE     ---       #87
      00FF4041H   LINE      CODE     ---       #88
      00FF4043H   LINE      CODE     ---       #89
      00FF404FH   LINE      CODE     ---       #91
      00FF4052H   LINE      CODE     ---       #92
      00FF4052H   LINE      CODE     ---       #93
      00FF4057H   LINE      CODE     ---       #94
      00FF4059H   LINE      CODE     ---       #95
      00FF405AH   LINE      CODE     ---       #98
      00FF405AH   LINE      CODE     ---       #100
      00FF4060H   LINE      CODE     ---       #102
      00FF4063H   LINE      CODE     ---       #103
      00FF4067H   LINE      CODE     ---       #104
      00FF406BH   LINE      CODE     ---       #105
      00FF406EH   LINE      CODE     ---       #106
      00FF406EH   LINE      CODE     ---       #108
      00FF4071H   LINE      CODE     ---       #109
      00FF407DH   LINE      CODE     ---       #111
      00FF4081H   LINE      CODE     ---       #112
      00FF4083H   LINE      CODE     ---       #113
      00FF408FH   LINE      CODE     ---       #115
      00FF4092H   LINE      CODE     ---       #116
      00FF4092H   LINE      CODE     ---       #118
      00FF4095H   LINE      CODE     ---       #119
      00FF409AH   LINE      CODE     ---       #120
      00FF409BH   LINE      CODE     ---       #123
      00FF409BH   LINE      CODE     ---       #125
      00FF40A1H   LINE      CODE     ---       #127
      00FF40A4H   LINE      CODE     ---       #128
      00FF40A8H   LINE      CODE     ---       #129
      00FF40ACH   LINE      CODE     ---       #130
      00FF40AFH   LINE      CODE     ---       #131
      00FF40B1H   LINE      CODE     ---       #132
      00FF40B7H   LINE      CODE     ---       #134
      00FF40BAH   LINE      CODE     ---       #135
      00FF40BEH   LINE      CODE     ---       #136
      00FF40C2H   LINE      CODE     ---       #137
      00FF40C5H   LINE      CODE     ---       #138
      00FF40C5H   LINE      CODE     ---       #140
      00FF40C8H   LINE      CODE     ---       #141
      00FF40D4H   LINE      CODE     ---       #143
      00FF40D8H   LINE      CODE     ---       #144
      00FF40DAH   LINE      CODE     ---       #145
      00FF40E6H   LINE      CODE     ---       #147
      00FF40E9H   LINE      CODE     ---       #148
      00FF40E9H   LINE      CODE     ---       #150
      00FF40ECH   LINE      CODE     ---       #151
      00FF40F1H   LINE      CODE     ---       #152
      00FF40F2H   LINE      CODE     ---       #155
      00FF40F2H   LINE      CODE     ---       #157
      00FF40F8H   LINE      CODE     ---       #159
L251 LINKER/LOCATER V4.66.93.0                                                        03/21/2024  17:39:21  PAGE 51


      00FF40FBH   LINE      CODE     ---       #160
      00FF40FFH   LINE      CODE     ---       #161
      00FF4103H   LINE      CODE     ---       #162
      00FF4106H   LINE      CODE     ---       #163
      00FF4108H   LINE      CODE     ---       #164
      00FF410EH   LINE      CODE     ---       #166
      00FF4111H   LINE      CODE     ---       #167
      00FF4115H   LINE      CODE     ---       #168
      00FF4119H   LINE      CODE     ---       #169
      00FF411CH   LINE      CODE     ---       #170
      00FF411CH   LINE      CODE     ---       #172
      00FF411FH   LINE      CODE     ---       #173
      00FF412BH   LINE      CODE     ---       #175
      00FF412FH   LINE      CODE     ---       #176
      00FF4131H   LINE      CODE     ---       #177
      00FF413DH   LINE      CODE     ---       #179
      00FF4140H   LINE      CODE     ---       #180
      00FF4143H   LINE      CODE     ---       #181
      00FF4146H   LINE      CODE     ---       #182
      00FF4146H   LINE      CODE     ---       #183
      00FF4149H   LINE      CODE     ---       #184
      00FF414EH   LINE      CODE     ---       #185
      00FF414EH   LINE      CODE     ---       #188
      00FF414EH   LINE      CODE     ---       #190
      ---         BLOCKEND  ---      ---       LVL=0

      00FF59FFH   BLOCK     CODE     ---       LVL=0
      WR6         REGSYM    ---      INT       uart_n
      R10         REGSYM    ---      BYTE      dat
      00FF59FFH   LINE      CODE     ---       #199
      00FF5A01H   LINE      CODE     ---       #201
      00FF5A13H   LINE      CODE     ---       #203
      00FF5A13H   LINE      CODE     ---       #204
      00FF5A19H   LINE      CODE     ---       #205
      00FF5A1FH   LINE      CODE     ---       #206
      00FF5A22H   LINE      CODE     ---       #207
      00FF5A23H   LINE      CODE     ---       #208
      00FF5A23H   LINE      CODE     ---       #209
      00FF5A29H   LINE      CODE     ---       #210
      00FF5A2FH   LINE      CODE     ---       #211
      00FF5A32H   LINE      CODE     ---       #212
      00FF5A33H   LINE      CODE     ---       #213
      00FF5A33H   LINE      CODE     ---       #214
      00FF5A39H   LINE      CODE     ---       #215
      00FF5A3FH   LINE      CODE     ---       #216
      00FF5A42H   LINE      CODE     ---       #217
      00FF5A43H   LINE      CODE     ---       #218
      00FF5A43H   LINE      CODE     ---       #219
      00FF5A49H   LINE      CODE     ---       #220
      00FF5A4FH   LINE      CODE     ---       #221
      00FF5A52H   LINE      CODE     ---       #222
      00FF5A52H   LINE      CODE     ---       #223
      00FF5A52H   LINE      CODE     ---       #224
      ---         BLOCKEND  ---      ---       LVL=0
      REG=3       REGSYM    ---      ---       p
      REG=3       REGSYM    ---      ---       str

      ---         MODULE    ---      ---       zf_fifo
      00FF5D0DH   PUBLIC    CODE     ---       fifo_head_offset
      00FF491DH   PUBLIC    CODE     ---       fifo_write_buffer
      000003FAH   PUBLIC    EDATA    BYTE      ?fifo_write_buffer?BYTE
      000000D0H   SFRSYM    DATA     BYTE      PSW
      000000B7H   SFRSYM    DATA     BYTE      IPH
      00000088H   SFRSYM    DATA     BYTE      TCON
      00000098H   SFRSYM    DATA     BYTE      SCON
L251 LINKER/LOCATER V4.66.93.0                                                        03/21/2024  17:39:21  PAGE 52


      000000BCH   SFRSYM    DATA     BYTE      ADC_CONTR
      000000DEH   SFRSYM    DATA     BYTE      ADCCFG
      000000B8H   SFRSYM    DATA     BYTE      IP
      000000A8H   SFRSYM    DATA     BYTE      IE
      000000F8H   SFRSYM    DATA     BYTE      P7
      000000E8H   SFRSYM    DATA     BYTE      P6
      000000C8H   SFRSYM    DATA     BYTE      P5
      000000C0H   SFRSYM    DATA     BYTE      P4
      000000B0H   SFRSYM    DATA     BYTE      P3
      000000A0H   SFRSYM    DATA     BYTE      P2
      00000090H   SFRSYM    DATA     BYTE      P1
      00000080H   SFRSYM    DATA     BYTE      P0
      REG=2       REGSYM    ---      ---       fifo
      REG=7       REGSYM    ---      ---       buffer_addr

      00FF5D0DH   BLOCK     CODE     ---       LVL=0
      REG=7       REGSYM    ---      ---       fifo
      DR24        REGSYM    ---      DWORD     offset
      00FF5D0DH   LINE      CODE     ---       #61
      00FF5D11H   LINE      CODE     ---       #63
      00FF5D1CH   LINE      CODE     ---       #65
      00FF5D1EH   LINE      CODE     ---       #67
      00FF5D3AH   LINE      CODE     ---       #68
      00FF5D4EH   LINE      CODE     ---       #69
      ---         BLOCKEND  ---      ---       LVL=0
      REG=7       REGSYM    ---      ---       fifo
      DR24        REGSYM    ---      DWORD     offset
      REG=2       REGSYM    ---      ---       fifo
      REG=7       REGSYM    ---      ---       fifo

      00FF491DH   BLOCK     CODE     ---       LVL=0
      REG=3       REGSYM    ---      ---       fifo
      000003FEH   SYMBOL    EDATA    ---       dat
      00000402H   SYMBOL    EDATA    DWORD     length
      00FF4925H   BLOCK     CODE     NEAR LAB  LVL=1
      00000406H   SYMBOL    EDATA    DWORD     temp_length
      ---         BLOCKEND  ---      ---       LVL=1
      00FF491DH   LINE      CODE     ---       #120
      00FF4925H   LINE      CODE     ---       #121
      00FF4925H   LINE      CODE     ---       #124
      00FF4938H   LINE      CODE     ---       #126
      00FF494EH   LINE      CODE     ---       #128
      00FF4952H   LINE      CODE     ---       #130
      00FF496AH   LINE      CODE     ---       #131
      00FF4973H   LINE      CODE     ---       #132
      00FF4983H   LINE      CODE     ---       #133
      00FF49A3H   LINE      CODE     ---       #134
      00FF49AFH   LINE      CODE     ---       #135
      00FF49B1H   LINE      CODE     ---       #138
      00FF49CDH   LINE      CODE     ---       #139
      00FF49D6H   LINE      CODE     ---       #140
      00FF49D6H   LINE      CODE     ---       #142
      00FF49F0H   LINE      CODE     ---       #143
      00FF49F2H   LINE      CODE     ---       #146
      00FF49F8H   LINE      CODE     ---       #147
      00FF49F8H   LINE      CODE     ---       #149
      00FF49FAH   LINE      CODE     ---       #150
      ---         BLOCKEND  ---      ---       LVL=0
      REG=3       REGSYM    ---      ---       fifo

      ---         MODULE    ---      ---       SEEKFREE_18TFT
      000000D0H   SFRSYM    DATA     BYTE      PSW
      000000B7H   SFRSYM    DATA     BYTE      IPH
      000000A0H.5 SFRSYM    DATA     BIT       P25
      00000088H   SFRSYM    DATA     BYTE      TCON
L251 LINKER/LOCATER V4.66.93.0                                                        03/21/2024  17:39:21  PAGE 53


      000000A0H.3 SFRSYM    DATA     BIT       P23
      00000098H   SFRSYM    DATA     BYTE      SCON
      000000A0H.2 SFRSYM    DATA     BIT       P22
      000000A0H.1 SFRSYM    DATA     BIT       P21
      000000A0H.0 SFRSYM    DATA     BIT       P20
      000000BCH   SFRSYM    DATA     BYTE      ADC_CONTR
      000000DEH   SFRSYM    DATA     BYTE      ADCCFG
      000000B8H   SFRSYM    DATA     BYTE      IP
      000000A8H   SFRSYM    DATA     BYTE      IE
      000000F8H   SFRSYM    DATA     BYTE      P7
      000000E8H   SFRSYM    DATA     BYTE      P6
      000000C8H   SFRSYM    DATA     BYTE      P5
      000000C0H   SFRSYM    DATA     BYTE      P4
      000000B0H   SFRSYM    DATA     BYTE      P3
      000000A0H   SFRSYM    DATA     BYTE      P2
      00000090H   SFRSYM    DATA     BYTE      P1
      00000080H   SFRSYM    DATA     BYTE      P0
      R7          REGSYM    ---      BYTE      dat
      R6          REGSYM    ---      BYTE      i
      R7          REGSYM    ---      BYTE      dat
      R6          REGSYM    ---      BYTE      i
      WR4         REGSYM    ---      WORD      dat
      R10         REGSYM    ---      BYTE      i
      WR12        REGSYM    ---      WORD      x_end
      WR14        REGSYM    ---      WORD      y_end
      WR14        REGSYM    ---      INT       color
      R13         REGSYM    ---      BYTE      i
      R12         REGSYM    ---      BYTE      j
      WR2         REGSYM    ---      WORD      x
      WR0         REGSYM    ---      WORD      y
      WR14        REGSYM    ---      WORD      color
      WR12        REGSYM    ---      WORD      x
      WR14        REGSYM    ---      WORD      y
      REG=3       REGSYM    ---      ---       dat
      WR12        REGSYM    ---      WORD      x
      WR14        REGSYM    ---      WORD      y
      WR12        REGSYM    ---      WORD      x
      WR14        REGSYM    ---      WORD      y
      R10         REGSYM    ---      BYTE      dat
      WR12        REGSYM    ---      WORD      x
      WR14        REGSYM    ---      WORD      y
      WR12        REGSYM    ---      WORD      x
      WR14        REGSYM    ---      WORD      y
      WR2         REGSYM    ---      WORD      dat
      WR12        REGSYM    ---      WORD      y
      R15         REGSYM    ---      BYTE      num
      R14         REGSYM    ---      BYTE      length
      DR12        REGSYM    ---      FLOAT     dat
      R7          REGSYM    ---      CHAR      point
      R7          REGSYM    ---      BYTE      dat
      R7          REGSYM    ---      BYTE      dat
      WR4         REGSYM    ---      WORD      dat
      WR12        REGSYM    ---      WORD      x_end
      WR14        REGSYM    ---      WORD      y_end
      WR14        REGSYM    ---      INT       color
      R13         REGSYM    ---      BYTE      i
      R12         REGSYM    ---      BYTE      j
      WR2         REGSYM    ---      WORD      x
      WR0         REGSYM    ---      WORD      y
      WR14        REGSYM    ---      WORD      color
      WR12        REGSYM    ---      WORD      x
      WR14        REGSYM    ---      WORD      y
      REG=3       REGSYM    ---      ---       dat
      WR12        REGSYM    ---      WORD      x
      WR14        REGSYM    ---      WORD      y
L251 LINKER/LOCATER V4.66.93.0                                                        03/21/2024  17:39:21  PAGE 54


      WR12        REGSYM    ---      WORD      x
      WR14        REGSYM    ---      WORD      y
      R10         REGSYM    ---      BYTE      dat
      WR12        REGSYM    ---      WORD      x
      WR14        REGSYM    ---      WORD      y
      WR12        REGSYM    ---      WORD      x
      WR14        REGSYM    ---      WORD      y
      WR2         REGSYM    ---      WORD      dat
      WR12        REGSYM    ---      WORD      y
      R15         REGSYM    ---      BYTE      num
      R14         REGSYM    ---      BYTE      length
      DR12        REGSYM    ---      FLOAT     dat
      R7          REGSYM    ---      CHAR      point
      REG=3       REGSYM    ---      ---       p

      ---         MODULE    ---      ---       SEEKFREE_ABSOLUTE_ENCODER
      000000D0H   SFRSYM    DATA     BYTE      PSW
      000000B7H   SFRSYM    DATA     BYTE      IPH
      000000A0H.7 SFRSYM    DATA     BIT       P27
      000000A0H.6 SFRSYM    DATA     BIT       P26
      000000A0H.5 SFRSYM    DATA     BIT       P25
      000000A0H.4 SFRSYM    DATA     BIT       P24
      00000088H   SFRSYM    DATA     BYTE      TCON
      00000098H   SFRSYM    DATA     BYTE      SCON
      000000A0H.2 SFRSYM    DATA     BIT       P22
      000000BCH   SFRSYM    DATA     BYTE      ADC_CONTR
      000000DEH   SFRSYM    DATA     BYTE      ADCCFG
      000000B8H   SFRSYM    DATA     BYTE      IP
      000000A8H   SFRSYM    DATA     BYTE      IE
      000000F8H   SFRSYM    DATA     BYTE      P7
      000000E8H   SFRSYM    DATA     BYTE      P6
      000000C8H   SFRSYM    DATA     BYTE      P5
      000000C0H   SFRSYM    DATA     BYTE      P4
      000000B0H   SFRSYM    DATA     BYTE      P3
      000000A0H   SFRSYM    DATA     BYTE      P2
      00000090H   SFRSYM    DATA     BYTE      P1
      00000080H   SFRSYM    DATA     BYTE      P0
      WR6         REGSYM    ---      WORD      x
      R6          REGSYM    ---      BYTE      byte
      R7          REGSYM    ---      BYTE      i
      R7          REGSYM    ---      BYTE      cmd
      R15         REGSYM    ---      BYTE      val
      R7          REGSYM    ---      BYTE      cmd
      REG=3       REGSYM    ---      ---       val
      R7          REGSYM    ---      BYTE      cmd
      R15         REGSYM    ---      BYTE      val
      R14         REGSYM    ---      BYTE      dat
      R7          REGSYM    ---      BYTE      cmd
      REG=3       REGSYM    ---      ---       val
      WR14        REGSYM    ---      WORD      zero_position
      WR14        REGSYM    ---      WORD      angle
      R10         REGSYM    ---      BYTE      byte
      R7          REGSYM    ---      BYTE      cmd
      R15         REGSYM    ---      BYTE      val
      R7          REGSYM    ---      BYTE      cmd
      REG=3       REGSYM    ---      ---       val
      R7          REGSYM    ---      BYTE      cmd
      R15         REGSYM    ---      BYTE      val
      R14         REGSYM    ---      BYTE      dat
      R7          REGSYM    ---      BYTE      cmd
      REG=3       REGSYM    ---      ---       val
      WR14        REGSYM    ---      WORD      zero_position
      WR14        REGSYM    ---      WORD      angle

      ---         MODULE    ---      ---       SEEKFREE_FONT
L251 LINKER/LOCATER V4.66.93.0                                                        03/21/2024  17:39:21  PAGE 55


      00FF00A6H   PUBLIC    CODE     ---       oled_8x16
      00FF0696H   PUBLIC    CODE     ---       tft_ascii
      00FF0C86H   PUBLIC    CODE     ---       oled_6x8
      000000D0H   SFRSYM    DATA     BYTE      PSW
      000000B7H   SFRSYM    DATA     BYTE      IPH
      00000088H   SFRSYM    DATA     BYTE      TCON
      00000098H   SFRSYM    DATA     BYTE      SCON
      000000BCH   SFRSYM    DATA     BYTE      ADC_CONTR
      000000DEH   SFRSYM    DATA     BYTE      ADCCFG
      000000B8H   SFRSYM    DATA     BYTE      IP
      000000A8H   SFRSYM    DATA     BYTE      IE
      000000F8H   SFRSYM    DATA     BYTE      P7
      000000E8H   SFRSYM    DATA     BYTE      P6
      000000C8H   SFRSYM    DATA     BYTE      P5
      000000C0H   SFRSYM    DATA     BYTE      P4
      000000B0H   SFRSYM    DATA     BYTE      P3
      000000A0H   SFRSYM    DATA     BYTE      P2
      00000090H   SFRSYM    DATA     BYTE      P1
      00000080H   SFRSYM    DATA     BYTE      P0

      ---         MODULE    ---      ---       SEEKFREE_IIC
      000006E7H   PUBLIC    EDATA    BYTE      IIC_ad_main
      000006E8H   PUBLIC    EDATA    BYTE      IIC_num
      000006E9H   PUBLIC    EDATA    BYTE      IIC_ad_sub
      000006EAH   PUBLIC    EDATA    ---       IIC_buf
      000000D0H   SFRSYM    DATA     BYTE      PSW
      000000B7H   SFRSYM    DATA     BYTE      IPH
      00000088H   SFRSYM    DATA     BYTE      TCON
      000000C0H.1 SFRSYM    DATA     BIT       P41
      00000098H   SFRSYM    DATA     BYTE      SCON
      000000C0H.0 SFRSYM    DATA     BIT       P40
      000000BCH   SFRSYM    DATA     BYTE      ADC_CONTR
      000000DEH   SFRSYM    DATA     BYTE      ADCCFG
      000000B8H   SFRSYM    DATA     BYTE      IP
      000000A8H   SFRSYM    DATA     BYTE      IE
      000000F8H   SFRSYM    DATA     BYTE      P7
      000000E8H   SFRSYM    DATA     BYTE      P6
      000000C8H   SFRSYM    DATA     BYTE      P5
      000000C0H   SFRSYM    DATA     BYTE      P4
      000000B0H   SFRSYM    DATA     BYTE      P3
      000000A0H   SFRSYM    DATA     BYTE      P2
      00000090H   SFRSYM    DATA     BYTE      P1
      00000080H   SFRSYM    DATA     BYTE      P0
      WR6         REGSYM    ---      WORD      j
      R15         REGSYM    ---      BYTE      ack_dat
      R15         REGSYM    ---      BYTE      c
      R14         REGSYM    ---      BYTE      i
      R15         REGSYM    ---      BYTE      ack_x
      R13         REGSYM    ---      BYTE      i
      R14         REGSYM    ---      BYTE      c
      R13         REGSYM    ---      BYTE      dev_add
      R14         REGSYM    ---      BYTE      reg
      R15         REGSYM    ---      BYTE      dat
      R15         REGSYM    ---      BYTE      dev_add
      R14         REGSYM    ---      BYTE      reg
      WR12        REGSYM    ---      INT       type
      R15         REGSYM    ---      BYTE      dat
      REG=3       REGSYM    ---      ---       dat_add

      ---         MODULE    ---      ---       SEEKFREE_MPU6050
      000006C5H   PUBLIC    EDATA    INT       mpu_acc_x
      000006C7H   PUBLIC    EDATA    INT       mpu_acc_y
      000006C9H   PUBLIC    EDATA    INT       mpu_acc_z
      000006CBH   PUBLIC    EDATA    INT       mpu_gyro_x
      000006CDH   PUBLIC    EDATA    INT       mpu_gyro_y
L251 LINKER/LOCATER V4.66.93.0                                                        03/21/2024  17:39:21  PAGE 56


      000006CFH   PUBLIC    EDATA    INT       mpu_gyro_z
      000000D0H   SFRSYM    DATA     BYTE      PSW
      000000B7H   SFRSYM    DATA     BYTE      IPH
      00000088H   SFRSYM    DATA     BYTE      TCON
      00000098H   SFRSYM    DATA     BYTE      SCON
      000000BCH   SFRSYM    DATA     BYTE      ADC_CONTR
      000000DEH   SFRSYM    DATA     BYTE      ADCCFG
      000000B8H   SFRSYM    DATA     BYTE      IP
      000000A8H   SFRSYM    DATA     BYTE      IE
      000000F8H   SFRSYM    DATA     BYTE      P7
      000000E8H   SFRSYM    DATA     BYTE      P6
      000000C8H   SFRSYM    DATA     BYTE      P5
      000000C0H   SFRSYM    DATA     BYTE      P4
      000000B0H   SFRSYM    DATA     BYTE      P3
      000000A0H   SFRSYM    DATA     BYTE      P2
      00000090H   SFRSYM    DATA     BYTE      P1
      00000080H   SFRSYM    DATA     BYTE      P0

      ---         MODULE    ---      ---       SEEKFREE_OLED
      00FF62E5H   PUBLIC    CODE     ---       oled_set_pos
      00FF4569H   PUBLIC    CODE     ---       oled_printf_float
      00FF61FAH   PUBLIC    CODE     ---       oled_wrcmd
      00FF6223H   PUBLIC    CODE     ---       oled_wrdat
      00FF6052H   PUBLIC    CODE     ---       oled_fill
      00FF4FF0H   PUBLIC    CODE     ---       oled_init
      00FF4751H   PUBLIC    CODE     ---       oled_p8x16str
      00000406H   PUBLIC    EDATA    BYTE      ?oled_printf_float?BYTE
      000000D0H   SFRSYM    DATA     BYTE      PSW
      000000B7H   SFRSYM    DATA     BYTE      IPH
      000000A0H.5 SFRSYM    DATA     BIT       P25
      00000088H   SFRSYM    DATA     BYTE      TCON
      000000A0H.3 SFRSYM    DATA     BIT       P23
      00000098H   SFRSYM    DATA     BYTE      SCON
      000000A0H.2 SFRSYM    DATA     BIT       P22
      000000A0H.1 SFRSYM    DATA     BIT       P21
      000000A0H.0 SFRSYM    DATA     BIT       P20
      000000BCH   SFRSYM    DATA     BYTE      ADC_CONTR
      000000DEH   SFRSYM    DATA     BYTE      ADCCFG
      000000B8H   SFRSYM    DATA     BYTE      IP
      000000A8H   SFRSYM    DATA     BYTE      IE
      000000F8H   SFRSYM    DATA     BYTE      P7
      000000E8H   SFRSYM    DATA     BYTE      P6
      000000C8H   SFRSYM    DATA     BYTE      P5
      000000C0H   SFRSYM    DATA     BYTE      P4
      000000B0H   SFRSYM    DATA     BYTE      P3
      000000A0H   SFRSYM    DATA     BYTE      P2
      00000090H   SFRSYM    DATA     BYTE      P1
      00000080H   SFRSYM    DATA     BYTE      P0

      00FF6223H   BLOCK     CODE     ---       LVL=0
      R7          REGSYM    ---      BYTE      dat
      00FF6225H   BLOCK     CODE     NEAR LAB  LVL=1
      R6          REGSYM    ---      BYTE      i
      ---         BLOCKEND  ---      ---       LVL=1
      00FF6223H   LINE      CODE     ---       #47
      00FF6225H   LINE      CODE     ---       #48
      00FF6225H   LINE      CODE     ---       #49
      00FF6228H   LINE      CODE     ---       #51
      00FF622AH   LINE      CODE     ---       #52
      00FF622CH   LINE      CODE     ---       #53
      00FF622EH   LINE      CODE     ---       #54
      00FF6230H   LINE      CODE     ---       #56
      00FF6239H   LINE      CODE     ---       #57
      00FF623BH   LINE      CODE     ---       #58
      00FF623DH   LINE      CODE     ---       #60
L251 LINKER/LOCATER V4.66.93.0                                                        03/21/2024  17:39:21  PAGE 57


      00FF623FH   LINE      CODE     ---       #61
      00FF6241H   LINE      CODE     ---       #62
      00FF6249H   LINE      CODE     ---       #63
      00FF624BH   LINE      CODE     ---       #64
      ---         BLOCKEND  ---      ---       LVL=0

      00FF61FAH   BLOCK     CODE     ---       LVL=0
      R7          REGSYM    ---      BYTE      cmd
      00FF61FCH   BLOCK     CODE     NEAR LAB  LVL=1
      R6          REGSYM    ---      BYTE      i
      ---         BLOCKEND  ---      ---       LVL=1
      00FF61FAH   LINE      CODE     ---       #98
      00FF61FCH   LINE      CODE     ---       #99
      00FF61FCH   LINE      CODE     ---       #100
      00FF61FFH   LINE      CODE     ---       #102
      00FF6201H   LINE      CODE     ---       #103
      00FF6203H   LINE      CODE     ---       #104
      00FF6205H   LINE      CODE     ---       #106
      00FF6207H   LINE      CODE     ---       #108
      00FF6210H   LINE      CODE     ---       #109
      00FF6212H   LINE      CODE     ---       #110
      00FF6214H   LINE      CODE     ---       #112
      00FF6216H   LINE      CODE     ---       #113
      00FF6218H   LINE      CODE     ---       #114
      00FF6220H   LINE      CODE     ---       #115
      00FF6222H   LINE      CODE     ---       #116
      ---         BLOCKEND  ---      ---       LVL=0
      WR8         REGSYM    ---      WORD      hex
      REG=7       REGSYM    ---      ---       Print
      R5          REGSYM    ---      BYTE      hexcheck
      R10         REGSYM    ---      BYTE      TEMP

      00FF4FF0H   BLOCK     CODE     ---       LVL=0
      00FF4FF0H   LINE      CODE     ---       #148
      00FF4FF0H   LINE      CODE     ---       #151
      00FF4FF2H   LINE      CODE     ---       #152
      00FF4FF4H   LINE      CODE     ---       #154
      00FF4FF6H   LINE      CODE     ---       #155
      00FF4FFDH   LINE      CODE     ---       #156
      00FF4FFFH   LINE      CODE     ---       #158
      00FF5004H   LINE      CODE     ---       #159
      00FF5008H   LINE      CODE     ---       #160
      00FF500DH   LINE      CODE     ---       #161
      00FF5012H   LINE      CODE     ---       #162
      00FF5017H   LINE      CODE     ---       #163
      00FF501CH   LINE      CODE     ---       #166
      00FF5021H   LINE      CODE     ---       #167
      00FF5026H   LINE      CODE     ---       #173
      00FF502BH   LINE      CODE     ---       #174
      00FF5030H   LINE      CODE     ---       #175
      00FF5035H   LINE      CODE     ---       #176
      00FF503AH   LINE      CODE     ---       #177
      00FF503EH   LINE      CODE     ---       #178
      00FF5043H   LINE      CODE     ---       #179
      00FF5048H   LINE      CODE     ---       #180
      00FF504DH   LINE      CODE     ---       #181
      00FF5052H   LINE      CODE     ---       #182
      00FF5057H   LINE      CODE     ---       #183
      00FF505CH   LINE      CODE     ---       #184
      00FF5061H   LINE      CODE     ---       #185
      00FF5066H   LINE      CODE     ---       #186
      00FF506BH   LINE      CODE     ---       #187
      00FF5070H   LINE      CODE     ---       #188
      00FF5075H   LINE      CODE     ---       #189
      00FF507AH   LINE      CODE     ---       #190
L251 LINKER/LOCATER V4.66.93.0                                                        03/21/2024  17:39:21  PAGE 58


      00FF507FH   LINE      CODE     ---       #191
      00FF5084H   LINE      CODE     ---       #192
      00FF5089H   LINE      CODE     ---       #193
      00FF508DH   LINE      CODE     ---       #194
      ---         BLOCKEND  ---      ---       LVL=0

      00FF62E5H   BLOCK     CODE     ---       LVL=0
      R15         REGSYM    ---      BYTE      x
      R10         REGSYM    ---      BYTE      y
      00FF62E5H   LINE      CODE     ---       #205
      00FF62E9H   LINE      CODE     ---       #207
      00FF62F0H   LINE      CODE     ---       #208
      00FF62FEH   LINE      CODE     ---       #209
      00FF6305H   LINE      CODE     ---       #210
      ---         BLOCKEND  ---      ---       LVL=0

      00FF6052H   BLOCK     CODE     ---       LVL=0
      R15         REGSYM    ---      BYTE      bmp_data
      00FF6058H   BLOCK     CODE     NEAR LAB  LVL=1
      R14         REGSYM    ---      BYTE      y
      R13         REGSYM    ---      BYTE      x
      ---         BLOCKEND  ---      ---       LVL=1
      00FF6052H   LINE      CODE     ---       #219
      00FF6058H   LINE      CODE     ---       #220
      00FF6058H   LINE      CODE     ---       #223
      00FF605AH   LINE      CODE     ---       #225
      00FF6061H   LINE      CODE     ---       #226
      00FF6066H   LINE      CODE     ---       #227
      00FF606BH   LINE      CODE     ---       #228
      00FF6079H   LINE      CODE     ---       #229
      00FF6080H   LINE      CODE     ---       #230
      ---         BLOCKEND  ---      ---       LVL=0
      R15         REGSYM    ---      BYTE      x
      R14         REGSYM    ---      BYTE      y
      R13         REGSYM    ---      BYTE      data1
      R15         REGSYM    ---      BYTE      x
      R14         REGSYM    ---      BYTE      y
      REG=3       REGSYM    ---      ---       ch

      00FF4751H   BLOCK     CODE     ---       LVL=0
      00000435H   SYMBOL    EDATA    BYTE      x
      00000436H   SYMBOL    EDATA    BYTE      y
      REG=3       REGSYM    ---      ---       ch
      00FF475DH   BLOCK     CODE     NEAR LAB  LVL=1
      00000437H   SYMBOL    EDATA    BYTE      c
      00000438H   SYMBOL    EDATA    BYTE      i
      00000439H   SYMBOL    EDATA    BYTE      j
      ---         BLOCKEND  ---      ---       LVL=1
      00FF4751H   LINE      CODE     ---       #302
      00FF475DH   LINE      CODE     ---       #303
      00FF475DH   LINE      CODE     ---       #304
      00FF4766H   LINE      CODE     ---       #306
      00FF4769H   LINE      CODE     ---       #308
      00FF4780H   LINE      CODE     ---       #309
      00FF4797H   LINE      CODE     ---       #311
      00FF47A2H   LINE      CODE     ---       #312
      00FF47D3H   LINE      CODE     ---       #314
      00FF47E0H   LINE      CODE     ---       #315
      00FF4811H   LINE      CODE     ---       #317
      00FF481BH   LINE      CODE     ---       #318
      00FF4824H   LINE      CODE     ---       #319
      00FF4836H   LINE      CODE     ---       #320
      ---         BLOCKEND  ---      ---       LVL=0
      R14         REGSYM    ---      BYTE      x
      R15         REGSYM    ---      BYTE      y
L251 LINKER/LOCATER V4.66.93.0                                                        03/21/2024  17:39:21  PAGE 59


      WR4         REGSYM    ---      WORD      num
      R15         REGSYM    ---      BYTE      x
      R14         REGSYM    ---      BYTE      y
      WR12        REGSYM    ---      INT       num
      WR12        REGSYM    ---      WORD      y
      R15         REGSYM    ---      BYTE      num
      R14         REGSYM    ---      BYTE      length

      00FF4569H   BLOCK     CODE     ---       LVL=0
      0000040AH   SYMBOL    EDATA    WORD      x
      0000040CH   SYMBOL    EDATA    WORD      y
      DR12        REGSYM    ---      FLOAT     dat
      0000040EH   SYMBOL    EDATA    BYTE      num
      0000040FH   SYMBOL    EDATA    BYTE      pointnum
      00FF4579H   BLOCK     CODE     NEAR LAB  LVL=1
      00000410H   SYMBOL    EDATA    BYTE      length
      00000411H   SYMBOL    EDATA    ---       buff
      00000433H   SYMBOL    EDATA    CHAR      start
      00000434H   SYMBOL    EDATA    CHAR      end
      R7          REGSYM    ---      CHAR      point
      ---         BLOCKEND  ---      ---       LVL=1
      00FF4569H   LINE      CODE     ---       #412
      00FF4579H   LINE      CODE     ---       #413
      00FF4579H   LINE      CODE     ---       #418
      00FF4588H   LINE      CODE     ---       #419
      00FF4597H   LINE      CODE     ---       #421
      00FF45B9H   LINE      CODE     ---       #424
      00FF45D2H   LINE      CODE     ---       #425
      00FF45D7H   LINE      CODE     ---       #426
      00FF45D7H   LINE      CODE     ---       #427
      00FF45E1H   LINE      CODE     ---       #428
      00FF45F1H   LINE      CODE     ---       #429
      00FF4601H   LINE      CODE     ---       #430
      00FF4606H   LINE      CODE     ---       #432
      00FF4610H   LINE      CODE     ---       #433
      00FF4619H   LINE      CODE     ---       #434
      00FF4622H   LINE      CODE     ---       #435
      00FF462BH   LINE      CODE     ---       #437
      00FF4638H   LINE      CODE     ---       #438
      00FF4644H   LINE      CODE     ---       #440
      00FF464FH   LINE      CODE     ---       #442
      00FF465EH   LINE      CODE     ---       #443
      ---         BLOCKEND  ---      ---       LVL=0
      WR4         REGSYM    ---      WORD      high
      REG=3       REGSYM    ---      ---       p
      REG=3       REGSYM    ---      ---       p
      R7          REGSYM    ---      BYTE      dat
      R7          REGSYM    ---      BYTE      cmd
      WR8         REGSYM    ---      WORD      hex
      REG=7       REGSYM    ---      ---       Print
      R5          REGSYM    ---      BYTE      hexcheck
      R10         REGSYM    ---      BYTE      TEMP
      R15         REGSYM    ---      BYTE      x
      R10         REGSYM    ---      BYTE      y
      R15         REGSYM    ---      BYTE      bmp_data
      R14         REGSYM    ---      BYTE      y
      R13         REGSYM    ---      BYTE      x
      R15         REGSYM    ---      BYTE      x
      R14         REGSYM    ---      BYTE      y
      R13         REGSYM    ---      BYTE      data1
      R15         REGSYM    ---      BYTE      x
      R14         REGSYM    ---      BYTE      y
      REG=3       REGSYM    ---      ---       ch
      REG=3       REGSYM    ---      ---       ch
      R14         REGSYM    ---      BYTE      x
L251 LINKER/LOCATER V4.66.93.0                                                        03/21/2024  17:39:21  PAGE 60


      R15         REGSYM    ---      BYTE      y
      WR4         REGSYM    ---      WORD      num
      R15         REGSYM    ---      BYTE      x
      R14         REGSYM    ---      BYTE      y
      WR12        REGSYM    ---      INT       num
      WR12        REGSYM    ---      WORD      y
      R15         REGSYM    ---      BYTE      num
      R14         REGSYM    ---      BYTE      length
      DR12        REGSYM    ---      FLOAT     dat
      R7          REGSYM    ---      CHAR      point
      WR4         REGSYM    ---      WORD      high
      REG=3       REGSYM    ---      ---       p
      REG=3       REGSYM    ---      ---       p

      ---         MODULE    ---      ---       SEEKFREE_AT24C02
      000000D0H   SFRSYM    DATA     BYTE      PSW
      000000B7H   SFRSYM    DATA     BYTE      IPH
      00000088H   SFRSYM    DATA     BYTE      TCON
      00000098H   SFRSYM    DATA     BYTE      SCON
      000000BCH   SFRSYM    DATA     BYTE      ADC_CONTR
      000000DEH   SFRSYM    DATA     BYTE      ADCCFG
      000000B8H   SFRSYM    DATA     BYTE      IP
      000000A8H   SFRSYM    DATA     BYTE      IE
      000000F8H   SFRSYM    DATA     BYTE      P7
      000000E8H   SFRSYM    DATA     BYTE      P6
      000000C8H   SFRSYM    DATA     BYTE      P5
      000000C0H   SFRSYM    DATA     BYTE      P4
      000000B0H   SFRSYM    DATA     BYTE      P3
      000000A0H   SFRSYM    DATA     BYTE      P2
      00000090H   SFRSYM    DATA     BYTE      P1
      00000080H   SFRSYM    DATA     BYTE      P0
      R14         REGSYM    ---      BYTE      byte_reg
      R15         REGSYM    ---      BYTE      dat
      R15         REGSYM    ---      BYTE      byte_reg
      REG=3       REGSYM    ---      ---       dat_add
      REG=3       REGSYM    ---      ---       dat_add

      ---         MODULE    ---      ---       SEEKFREE_BLUETOOTH_CH9141
      00FF63E3H   PUBLIC    CODE     ---       bluetooth_ch9141_uart_callback
      000000D0H   SFRSYM    DATA     BYTE      PSW
      000000FEH   SFRSYM    DATA     BYTE      S4BUF
      000000B7H   SFRSYM    DATA     BYTE      IPH
      00000080H.7 SFRSYM    DATA     BIT       P07
      00000088H   SFRSYM    DATA     BYTE      TCON
      00000098H   SFRSYM    DATA     BYTE      SCON
      000000BCH   SFRSYM    DATA     BYTE      ADC_CONTR
      000000DEH   SFRSYM    DATA     BYTE      ADCCFG
      000000B8H   SFRSYM    DATA     BYTE      IP
      000000A8H   SFRSYM    DATA     BYTE      IE
      000000F8H   SFRSYM    DATA     BYTE      P7
      000000E8H   SFRSYM    DATA     BYTE      P6
      000000C8H   SFRSYM    DATA     BYTE      P5
      000000C0H   SFRSYM    DATA     BYTE      P4
      000000B0H   SFRSYM    DATA     BYTE      P3
      000000A0H   SFRSYM    DATA     BYTE      P2
      00000090H   SFRSYM    DATA     BYTE      P1
      00000080H   SFRSYM    DATA     BYTE      P0
      00000500H   SYMBOL    EDATA    ---       bluetooth_ch9141_buffer
      00000540H   SYMBOL    EDATA    BYTE      bluetooth_ch9141_data
      00000541H   SYMBOL    EDATA    ---       bluetooth_ch9141_fifo

      00FF63E3H   BLOCK     CODE     ---       LVL=0
      00FF63E3H   LINE      CODE     ---       #67
      00FF63E3H   LINE      CODE     ---       #70
      00FF63E9H   LINE      CODE     ---       #71
L251 LINKER/LOCATER V4.66.93.0                                                        03/21/2024  17:39:21  PAGE 61


      ---         BLOCKEND  ---      ---       LVL=0
      DR12        REGSYM    ---      DWORD     len
      REG=7       REGSYM    ---      ---       buff
      DR8         REGSYM    ---      DWORD     len

      ---         MODULE    ---      ---       SEEKFREE_ICM20602
      000006D1H   PUBLIC    EDATA    INT       icm_acc_x
      000006D3H   PUBLIC    EDATA    INT       icm_acc_y
      000006D5H   PUBLIC    EDATA    INT       icm_acc_z
      000006D7H   PUBLIC    EDATA    INT       icm_gyro_x
      000006D9H   PUBLIC    EDATA    INT       icm_gyro_y
      000006DBH   PUBLIC    EDATA    INT       icm_gyro_z
      000000D0H   SFRSYM    DATA     BYTE      PSW
      000000B7H   SFRSYM    DATA     BYTE      IPH
      000000C0H.3 SFRSYM    DATA     BIT       P43
      000000C0H.2 SFRSYM    DATA     BIT       P42
      00000088H   SFRSYM    DATA     BYTE      TCON
      000000C0H.1 SFRSYM    DATA     BIT       P41
      00000098H   SFRSYM    DATA     BYTE      SCON
      000000C0H.0 SFRSYM    DATA     BIT       P40
      000000BCH   SFRSYM    DATA     BYTE      ADC_CONTR
      000000DEH   SFRSYM    DATA     BYTE      ADCCFG
      000000B8H   SFRSYM    DATA     BYTE      IP
      000000A8H   SFRSYM    DATA     BYTE      IE
      000000F8H   SFRSYM    DATA     BYTE      P7
      000000E8H   SFRSYM    DATA     BYTE      P6
      000000C8H   SFRSYM    DATA     BYTE      P5
      000000C0H   SFRSYM    DATA     BYTE      P4
      000000B0H   SFRSYM    DATA     BYTE      P3
      000000A0H   SFRSYM    DATA     BYTE      P2
      00000090H   SFRSYM    DATA     BYTE      P1
      00000080H   SFRSYM    DATA     BYTE      P0
      R15         REGSYM    ---      BYTE      dat
      R6          REGSYM    ---      BYTE      byte
      R7          REGSYM    ---      BYTE      i
      R7          REGSYM    ---      BYTE      cmd
      R15         REGSYM    ---      BYTE      val
      R7          REGSYM    ---      BYTE      cmd
      REG=3       REGSYM    ---      ---       val
      R7          REGSYM    ---      BYTE      cmd
      REG=3       REGSYM    ---      ---       val

      ---         MODULE    ---      ---       SEEKFREE_IPS114_SPI
      000000D0H   SFRSYM    DATA     BYTE      PSW
      000000B7H   SFRSYM    DATA     BYTE      IPH
      000000A0H.7 SFRSYM    DATA     BIT       P27
      000000A0H.5 SFRSYM    DATA     BIT       P25
      00000088H   SFRSYM    DATA     BYTE      TCON
      000000A0H.3 SFRSYM    DATA     BIT       P23
      00000098H   SFRSYM    DATA     BYTE      SCON
      000000A0H.2 SFRSYM    DATA     BIT       P22
      000000A0H.1 SFRSYM    DATA     BIT       P21
      000000A0H.0 SFRSYM    DATA     BIT       P20
      000000BCH   SFRSYM    DATA     BYTE      ADC_CONTR
      000000DEH   SFRSYM    DATA     BYTE      ADCCFG
      000000B8H   SFRSYM    DATA     BYTE      IP
      000000A8H   SFRSYM    DATA     BYTE      IE
      000000F8H   SFRSYM    DATA     BYTE      P7
      000000E8H   SFRSYM    DATA     BYTE      P6
      000000C8H   SFRSYM    DATA     BYTE      P5
      000000C0H   SFRSYM    DATA     BYTE      P4
      000000B0H   SFRSYM    DATA     BYTE      P3
      000000A0H   SFRSYM    DATA     BYTE      P2
      00000090H   SFRSYM    DATA     BYTE      P1
      00000080H   SFRSYM    DATA     BYTE      P0
L251 LINKER/LOCATER V4.66.93.0                                                        03/21/2024  17:39:21  PAGE 62


      R7          REGSYM    ---      BYTE      dat
      R6          REGSYM    ---      BYTE      i
      R7          REGSYM    ---      BYTE      dat
      R6          REGSYM    ---      BYTE      i
      WR4         REGSYM    ---      WORD      dat
      R10         REGSYM    ---      BYTE      i
      WR12        REGSYM    ---      WORD      x2
      WR14        REGSYM    ---      WORD      y2
      WR14        REGSYM    ---      WORD      color
      R13         REGSYM    ---      BYTE      i
      WR2         REGSYM    ---      WORD      x
      WR0         REGSYM    ---      WORD      y
      WR14        REGSYM    ---      WORD      color
      WR12        REGSYM    ---      WORD      x
      WR14        REGSYM    ---      WORD      y
      REG=3       REGSYM    ---      ---       dat
      WR12        REGSYM    ---      WORD      x
      WR14        REGSYM    ---      WORD      y
      WR12        REGSYM    ---      WORD      x
      WR14        REGSYM    ---      WORD      y
      R10         REGSYM    ---      BYTE      dat
      WR12        REGSYM    ---      WORD      x
      WR14        REGSYM    ---      WORD      y
      WR12        REGSYM    ---      WORD      x
      WR14        REGSYM    ---      WORD      y
      WR2         REGSYM    ---      WORD      dat
      WR12        REGSYM    ---      WORD      y
      R15         REGSYM    ---      BYTE      num
      R14         REGSYM    ---      BYTE      length
      DR12        REGSYM    ---      FLOAT     dat
      R7          REGSYM    ---      CHAR      point
      R7          REGSYM    ---      BYTE      dat
      R7          REGSYM    ---      BYTE      dat
      WR4         REGSYM    ---      WORD      dat
      WR12        REGSYM    ---      WORD      x2
      WR14        REGSYM    ---      WORD      y2
      WR14        REGSYM    ---      WORD      color
      R13         REGSYM    ---      BYTE      i
      WR2         REGSYM    ---      WORD      x
      WR0         REGSYM    ---      WORD      y
      WR14        REGSYM    ---      WORD      color
      WR12        REGSYM    ---      WORD      x
      WR14        REGSYM    ---      WORD      y
      REG=3       REGSYM    ---      ---       dat
      WR12        REGSYM    ---      WORD      x
      WR14        REGSYM    ---      WORD      y
      WR12        REGSYM    ---      WORD      x
      WR14        REGSYM    ---      WORD      y
      R10         REGSYM    ---      BYTE      dat
      WR12        REGSYM    ---      WORD      x
      WR14        REGSYM    ---      WORD      y
      WR12        REGSYM    ---      WORD      x
      WR14        REGSYM    ---      WORD      y
      WR2         REGSYM    ---      WORD      dat
      WR12        REGSYM    ---      WORD      y
      R15         REGSYM    ---      BYTE      num
      R14         REGSYM    ---      BYTE      length
      DR12        REGSYM    ---      FLOAT     dat
      R7          REGSYM    ---      CHAR      point

      ---         MODULE    ---      ---       SEEKFREE_TSL1401
      0000013DH   PUBLIC    EDATA    BYTE      tsl1401_finish_flag
      0000013EH   PUBLIC    EDATA    ---       ccd_data
      000000D0H   SFRSYM    DATA     BYTE      PSW
      000000B7H   SFRSYM    DATA     BYTE      IPH
L251 LINKER/LOCATER V4.66.93.0                                                        03/21/2024  17:39:21  PAGE 63


      000000B0H.3 SFRSYM    DATA     BIT       P33
      00000088H   SFRSYM    DATA     BYTE      TCON
      000000B0H.2 SFRSYM    DATA     BIT       P32
      00000098H   SFRSYM    DATA     BYTE      SCON
      000000BCH   SFRSYM    DATA     BYTE      ADC_CONTR
      000000DEH   SFRSYM    DATA     BYTE      ADCCFG
      000000B8H   SFRSYM    DATA     BYTE      IP
      000000A8H   SFRSYM    DATA     BYTE      IE
      000000F8H   SFRSYM    DATA     BYTE      P7
      000000E8H   SFRSYM    DATA     BYTE      P6
      000000C8H   SFRSYM    DATA     BYTE      P5
      000000C0H   SFRSYM    DATA     BYTE      P4
      000000B0H   SFRSYM    DATA     BYTE      P3
      000000A0H   SFRSYM    DATA     BYTE      P2
      00000090H   SFRSYM    DATA     BYTE      P1
      00000080H   SFRSYM    DATA     BYTE      P0
      REG=3       REGSYM    ---      ---       dat
      R15         REGSYM    ---      BYTE      i

      ---         MODULE    ---      ---       SEEKFREE_VIRSCO
      000006DDH   PUBLIC    EDATA    ---       virtual_scope_data
      000000D0H   SFRSYM    DATA     BYTE      PSW
      000000B7H   SFRSYM    DATA     BYTE      IPH
      00000088H   SFRSYM    DATA     BYTE      TCON
      00000098H   SFRSYM    DATA     BYTE      SCON
      000000BCH   SFRSYM    DATA     BYTE      ADC_CONTR
      000000DEH   SFRSYM    DATA     BYTE      ADCCFG
      000000B8H   SFRSYM    DATA     BYTE      IP
      000000A8H   SFRSYM    DATA     BYTE      IE
      000000F8H   SFRSYM    DATA     BYTE      P7
      000000E8H   SFRSYM    DATA     BYTE      P6
      000000C8H   SFRSYM    DATA     BYTE      P5
      000000C0H   SFRSYM    DATA     BYTE      P4
      000000B0H   SFRSYM    DATA     BYTE      P3
      000000A0H   SFRSYM    DATA     BYTE      P2
      00000090H   SFRSYM    DATA     BYTE      P1
      00000080H   SFRSYM    DATA     BYTE      P0
      REG=7       REGSYM    ---      ---       Buf
      R10         REGSYM    ---      BYTE      CRC_CNT
      WR6         REGSYM    ---      WORD      CRC_Temp
      R5          REGSYM    ---      BYTE      i
      R4          REGSYM    ---      BYTE      j
      WR0         REGSYM    ---      INT       data1
      WR30        REGSYM    ---      INT       data2
      WR8         REGSYM    ---      INT       data3
      WR10        REGSYM    ---      INT       data4
      WR6         REGSYM    ---      WORD      CRC16

      ---         MODULE    ---      ---       SEEKFREE_WIRELESS
      00FF63FCH   PUBLIC    CODE     ---       wireless_uart_callback
      000000D0H   SFRSYM    DATA     BYTE      PSW
      000000FEH   SFRSYM    DATA     BYTE      S4BUF
      000000B7H   SFRSYM    DATA     BYTE      IPH
      00000080H.7 SFRSYM    DATA     BIT       P07
      00000088H   SFRSYM    DATA     BYTE      TCON
      00000098H   SFRSYM    DATA     BYTE      SCON
      000000BCH   SFRSYM    DATA     BYTE      ADC_CONTR
      000000DEH   SFRSYM    DATA     BYTE      ADCCFG
      000000B8H   SFRSYM    DATA     BYTE      IP
      000000A8H   SFRSYM    DATA     BYTE      IE
      000000F8H   SFRSYM    DATA     BYTE      P7
      000000E8H   SFRSYM    DATA     BYTE      P6
      000000C8H   SFRSYM    DATA     BYTE      P5
      000000C0H   SFRSYM    DATA     BYTE      P4
      000000B0H   SFRSYM    DATA     BYTE      P3
L251 LINKER/LOCATER V4.66.93.0                                                        03/21/2024  17:39:21  PAGE 64


      000000A0H   SFRSYM    DATA     BYTE      P2
      00000090H   SFRSYM    DATA     BYTE      P1
      00000080H   SFRSYM    DATA     BYTE      P0
      00000555H   SYMBOL    EDATA    BYTE      wireless_uart_data
      00000556H   SYMBOL    EDATA    ---       wireless_uart_fifo
      0000056AH   SYMBOL    EDATA    ---       wireless_uart_buffer

      00FF63FCH   BLOCK     CODE     ---       LVL=0
      00FF63FCH   LINE      CODE     ---       #48
      00FF63FCH   LINE      CODE     ---       #51
      00FF6402H   LINE      CODE     ---       #52
      ---         BLOCKEND  ---      ---       LVL=0
      REG=3       REGSYM    ---      ---       buff
      REG=7       REGSYM    ---      ---       buff
      DR8         REGSYM    ---      DWORD     len

      ---         MODULE    ---      ---       SEEKFREE_WIRELESS_CH573
      00FF6415H   PUBLIC    CODE     ---       wireless_ch573_callback
      000000D0H   SFRSYM    DATA     BYTE      PSW
      000000FEH   SFRSYM    DATA     BYTE      S4BUF
      000000B7H   SFRSYM    DATA     BYTE      IPH
      00000080H.7 SFRSYM    DATA     BIT       P07
      00000088H   SFRSYM    DATA     BYTE      TCON
      00000098H   SFRSYM    DATA     BYTE      SCON
      000000BCH   SFRSYM    DATA     BYTE      ADC_CONTR
      000000DEH   SFRSYM    DATA     BYTE      ADCCFG
      000000B8H   SFRSYM    DATA     BYTE      IP
      000000A8H   SFRSYM    DATA     BYTE      IE
      000000F8H   SFRSYM    DATA     BYTE      P7
      000000E8H   SFRSYM    DATA     BYTE      P6
      000000C8H   SFRSYM    DATA     BYTE      P5
      000000C0H   SFRSYM    DATA     BYTE      P4
      000000B0H   SFRSYM    DATA     BYTE      P3
      000000A0H   SFRSYM    DATA     BYTE      P2
      00000090H   SFRSYM    DATA     BYTE      P1
      00000080H   SFRSYM    DATA     BYTE      P0
      000005AAH   SYMBOL    EDATA    ---       wireless_ch573_buffer
      000005EAH   SYMBOL    EDATA    BYTE      wireless_ch573_data
      000005EBH   SYMBOL    EDATA    ---       wireless_ch573_fifo

      00FF6415H   BLOCK     CODE     ---       LVL=0
      00FF6415H   LINE      CODE     ---       #39
      00FF6415H   LINE      CODE     ---       #42
      00FF641BH   LINE      CODE     ---       #43
      ---         BLOCKEND  ---      ---       LVL=0
      REG=3       REGSYM    ---      ---       buff
      REG=7       REGSYM    ---      ---       buff
      DR8         REGSYM    ---      DWORD     len

      ---         MODULE    ---      ---       isr
      00FF5E89H   PUBLIC    CODE     ---       UART1_Isr
      00FF638DH   PUBLIC    CODE     ---       UART2_Isr
      00FF63ABH   PUBLIC    CODE     ---       UART3_Isr
      00FF570DH   PUBLIC    CODE     ---       UART4_Isr
      00FF65CEH   PUBLIC    CODE     ---       INT0_Isr
      00FF0011H   PUBLIC    CODE     ---       INT1_Isr
      00FF65A6H   PUBLIC    CODE     ---       INT2_Isr
      00FF65AEH   PUBLIC    CODE     ---       INT3_Isr
      00FF65B6H   PUBLIC    CODE     ---       INT4_Isr
      00FF0012H   PUBLIC    CODE     ---       TM0_Isr
      00FF0019H   PUBLIC    CODE     ---       TM1_Isr
      00FF65BEH   PUBLIC    CODE     ---       TM2_Isr
      00FF65C6H   PUBLIC    CODE     ---       TM3_Isr
      00FF53CBH   PUBLIC    CODE     ---       TM4_Isr
      000006FEH   PUBLIC    EDATA    CHAR      count
L251 LINKER/LOCATER V4.66.93.0                                                        03/21/2024  17:39:21  PAGE 65


      000000D0H   SFRSYM    DATA     BYTE      PSW
      000000EFH   SFRSYM    DATA     BYTE      AUXINTIF
      000000FDH   SFRSYM    DATA     BYTE      S4CON
      000000ACH   SFRSYM    DATA     BYTE      S3CON
      0000009AH   SFRSYM    DATA     BYTE      S2CON
      000000B7H   SFRSYM    DATA     BYTE      IPH
      000000C7H   SFRSYM    DATA     BYTE      IAP_CONTR
      000000C8H.2 SFRSYM    DATA     BIT       P52
      00000088H   SFRSYM    DATA     BYTE      TCON
      00000098H   SFRSYM    DATA     BYTE      SCON
      00000099H   SFRSYM    DATA     BYTE      SBUF
      000000BCH   SFRSYM    DATA     BYTE      ADC_CONTR
      000000DEH   SFRSYM    DATA     BYTE      ADCCFG
      000000B8H   SFRSYM    DATA     BYTE      IP
      000000A8H   SFRSYM    DATA     BYTE      IE
      000000F8H   SFRSYM    DATA     BYTE      P7
      000000E8H   SFRSYM    DATA     BYTE      P6
      000000C8H   SFRSYM    DATA     BYTE      P5
      000000C0H   SFRSYM    DATA     BYTE      P4
      000000B0H   SFRSYM    DATA     BYTE      P3
      000000A0H   SFRSYM    DATA     BYTE      P2
      00000090H   SFRSYM    DATA     BYTE      P1
      00000080H   SFRSYM    DATA     BYTE      P0

      00FF5E89H   BLOCK     CODE     ---       LVL=0
      00FF5E8DH   BLOCK     CODE     NEAR LAB  LVL=1
      R11         REGSYM    ---      BYTE      res
      000006FFH   SYMBOL    EDATA    BYTE      dwon_count
      ---         BLOCKEND  ---      ---       LVL=1
      00FF5E89H   LINE      CODE     ---       #27
      00FF5E8DH   LINE      CODE     ---       #28
      00FF5E8DH   LINE      CODE     ---       #31
      00FF5E92H   LINE      CODE     ---       #33
      00FF5E95H   LINE      CODE     ---       #34
      00FF5E9AH   LINE      CODE     ---       #35
      00FF5E9AH   LINE      CODE     ---       #36
      00FF5E9FH   LINE      CODE     ---       #38
      00FF5EA2H   LINE      CODE     ---       #39
      00FF5EA4H   LINE      CODE     ---       #41
      00FF5EA7H   LINE      CODE     ---       #43
      00FF5EB7H   LINE      CODE     ---       #44
      00FF5EBAH   LINE      CODE     ---       #45
      00FF5EBCH   LINE      CODE     ---       #48
      00FF5EC1H   LINE      CODE     ---       #49
      00FF5EC1H   LINE      CODE     ---       #50
      ---         BLOCKEND  ---      ---       LVL=0

      00FF638DH   BLOCK     CODE     ---       LVL=0
      00FF638DH   LINE      CODE     ---       #54
      00FF6391H   LINE      CODE     ---       #56
      00FF6396H   LINE      CODE     ---       #58
      00FF6399H   LINE      CODE     ---       #59
      00FF639EH   LINE      CODE     ---       #60
      00FF639EH   LINE      CODE     ---       #61
      00FF63A3H   LINE      CODE     ---       #63
      00FF63A6H   LINE      CODE     ---       #66
      ---         BLOCKEND  ---      ---       LVL=0

      00FF63ABH   BLOCK     CODE     ---       LVL=0
      00FF63ABH   LINE      CODE     ---       #71
      00FF63AFH   LINE      CODE     ---       #73
      00FF63B4H   LINE      CODE     ---       #75
      00FF63B7H   LINE      CODE     ---       #76
      00FF63BCH   LINE      CODE     ---       #77
      00FF63BCH   LINE      CODE     ---       #78
L251 LINKER/LOCATER V4.66.93.0                                                        03/21/2024  17:39:21  PAGE 66


      00FF63C1H   LINE      CODE     ---       #80
      00FF63C4H   LINE      CODE     ---       #83
      ---         BLOCKEND  ---      ---       LVL=0

      00FF570DH   BLOCK     CODE     ---       LVL=0
      00FF570DH   LINE      CODE     ---       #88
      00FF5725H   LINE      CODE     ---       #90
      00FF572AH   LINE      CODE     ---       #92
      00FF572DH   LINE      CODE     ---       #93
      00FF5732H   LINE      CODE     ---       #94
      00FF5732H   LINE      CODE     ---       #95
      00FF5737H   LINE      CODE     ---       #97
      00FF573AH   LINE      CODE     ---       #100
      00FF5744H   LINE      CODE     ---       #102
      00FF5747H   LINE      CODE     ---       #103
      00FF5749H   LINE      CODE     ---       #104
      00FF574FH   LINE      CODE     ---       #106
      00FF5752H   LINE      CODE     ---       #107
      00FF5754H   LINE      CODE     ---       #108
      00FF575AH   LINE      CODE     ---       #110
      00FF575DH   LINE      CODE     ---       #111
      00FF575DH   LINE      CODE     ---       #113
      ---         BLOCKEND  ---      ---       LVL=0

      00FF65CEH   BLOCK     CODE     ---       LVL=0
      00FF65CEH   LINE      CODE     ---       #116
      00FF65D0H   LINE      CODE     ---       #118
      00FF65D2H   LINE      CODE     ---       #119
      ---         BLOCKEND  ---      ---       LVL=0

      00FF0011H   BLOCK     CODE     ---       LVL=0
      00FF0011H   LINE      CODE     ---       #120
      00FF0011H   LINE      CODE     ---       #123
      ---         BLOCKEND  ---      ---       LVL=0

      00FF65A6H   BLOCK     CODE     ---       LVL=0
      00FF65A6H   LINE      CODE     ---       #124
      00FF65A8H   LINE      CODE     ---       #126
      00FF65ABH   LINE      CODE     ---       #127
      ---         BLOCKEND  ---      ---       LVL=0

      00FF65AEH   BLOCK     CODE     ---       LVL=0
      00FF65AEH   LINE      CODE     ---       #128
      00FF65B0H   LINE      CODE     ---       #130
      00FF65B3H   LINE      CODE     ---       #131
      ---         BLOCKEND  ---      ---       LVL=0

      00FF65B6H   BLOCK     CODE     ---       LVL=0
      00FF65B6H   LINE      CODE     ---       #133
      00FF65B8H   LINE      CODE     ---       #135
      00FF65BBH   LINE      CODE     ---       #136
      ---         BLOCKEND  ---      ---       LVL=0

      00FF0012H   BLOCK     CODE     ---       LVL=0
      00FF0012H   LINE      CODE     ---       #138
      00FF0012H   LINE      CODE     ---       #141
      ---         BLOCKEND  ---      ---       LVL=0

      00FF0019H   BLOCK     CODE     ---       LVL=0
      00FF0019H   LINE      CODE     ---       #142
      00FF0019H   LINE      CODE     ---       #145
      ---         BLOCKEND  ---      ---       LVL=0

      00FF65BEH   BLOCK     CODE     ---       LVL=0
      00FF65BEH   LINE      CODE     ---       #146
L251 LINKER/LOCATER V4.66.93.0                                                        03/21/2024  17:39:21  PAGE 67


      00FF65C0H   LINE      CODE     ---       #148
      00FF65C3H   LINE      CODE     ---       #150
      ---         BLOCKEND  ---      ---       LVL=0

      00FF65C6H   BLOCK     CODE     ---       LVL=0
      00FF65C6H   LINE      CODE     ---       #151
      00FF65C8H   LINE      CODE     ---       #153
      00FF65CBH   LINE      CODE     ---       #155
      ---         BLOCKEND  ---      ---       LVL=0

      00FF53CBH   BLOCK     CODE     ---       LVL=0
      00FF53CBH   LINE      CODE     ---       #158
      00FF53E1H   LINE      CODE     ---       #160
      00FF53E4H   LINE      CODE     ---       #161
      00FF53EDH   LINE      CODE     ---       #162
      00FF53F3H   LINE      CODE     ---       #164
      00FF53FDH   LINE      CODE     ---       #166
      00FF5408H   LINE      CODE     ---       #167
      00FF5412H   LINE      CODE     ---       #168
      00FF5414H   LINE      CODE     ---       #170
      00FF541DH   LINE      CODE     ---       #172
      00FF5426H   LINE      CODE     ---       #174
      00FF542FH   LINE      CODE     ---       #175
      00FF5434H   LINE      CODE     ---       #176
      ---         BLOCKEND  ---      ---       LVL=0

      ---         MODULE    ---      ---       main
      00FF4EA4H   PUBLIC    CODE     ---       Get_Ratio
      00FF31AAH   PUBLIC    CODE     ---       main
      00FF4AD8H   PUBLIC    CODE     ---       Init_all
      0000064FH   PUBLIC    EDATA    FLOAT     Ratio
      00000653H   PUBLIC    EDATA    FLOAT     Exp_Speed
      00000657H   PUBLIC    EDATA    FLOAT     sum_L
      0000065BH   PUBLIC    EDATA    FLOAT     sum_R
      0000065FH   PUBLIC    EDATA    FLOAT     temp_Speed
      00000663H   PUBLIC    EDATA    FLOAT     Round_Flag_R
      00000667H   PUBLIC    EDATA    FLOAT     Plus_Mid
      0000066BH   PUBLIC    EDATA    FLOAT     Plus
      0000066FH   PUBLIC    EDATA    CHAR      KeyValue
      00000670H   PUBLIC    EDATA    FLOAT     Exp_Speed_L
      00000674H   PUBLIC    EDATA    FLOAT     Exp_Speed_R
      00000678H   PUBLIC    EDATA    FLOAT     sum
      0000067CH   PUBLIC    EDATA    INT       gx
      0000067EH   PUBLIC    EDATA    INT       gy
      00000680H   PUBLIC    EDATA    INT       gz
      00000682H   PUBLIC    EDATA    FLOAT     Num1
      00000686H   PUBLIC    EDATA    CHAR      Isr_flag_10
      00000687H   PUBLIC    EDATA    FLOAT     Adjust_Val
      0000068BH   PUBLIC    EDATA    FLOAT     Diff_Mid
      0000068FH   PUBLIC    EDATA    FLOAT     Diff
      00000693H   PUBLIC    EDATA    FLOAT     Ratio_Mid
      000000D0H   SFRSYM    DATA     BYTE      PSW
      000000B7H   SFRSYM    DATA     BYTE      IPH
      000000E9H   SFRSYM    DATA     BYTE      WTST
      00000088H   SFRSYM    DATA     BYTE      TCON
      00000098H   SFRSYM    DATA     BYTE      SCON
      000000BCH   SFRSYM    DATA     BYTE      ADC_CONTR
      000000DEH   SFRSYM    DATA     BYTE      ADCCFG
      000000B8H   SFRSYM    DATA     BYTE      IP
      000000A8H   SFRSYM    DATA     BYTE      IE
      000000F8H   SFRSYM    DATA     BYTE      P7
      000000E8H   SFRSYM    DATA     BYTE      P6
      000000C8H   SFRSYM    DATA     BYTE      P5
      000000C0H   SFRSYM    DATA     BYTE      P4
      000000B0H   SFRSYM    DATA     BYTE      P3
L251 LINKER/LOCATER V4.66.93.0                                                        03/21/2024  17:39:21  PAGE 68


      000000A0H   SFRSYM    DATA     BYTE      P2
      00000090H   SFRSYM    DATA     BYTE      P1
      00000080H   SFRSYM    DATA     BYTE      P0

      00FF31AAH   BLOCK     CODE     ---       LVL=0
      00FF31AAH   LINE      CODE     ---       #45
      00FF31AAH   LINE      CODE     ---       #47
      00FF31ADH   LINE      CODE     ---       #48
      00FF31B0H   LINE      CODE     ---       #49
      00FF31BAH   LINE      CODE     ---       #50
      00FF31BAH   LINE      CODE     ---       #52
      00FF31F5H   LINE      CODE     ---       #55
      00FF31F8H   LINE      CODE     ---       #56
      00FF3200H   LINE      CODE     ---       #57
      00FF321DH   LINE      CODE     ---       #58
      00FF3240H   LINE      CODE     ---       #59
      00FF3256H   LINE      CODE     ---       #60
      00FF326EH   LINE      CODE     ---       #63
      00FF327AH   LINE      CODE     ---       #65
      00FF327DH   LINE      CODE     ---       #66
      00FF3280H   LINE      CODE     ---       #67
      00FF3293H   LINE      CODE     ---       #68
      00FF3296H   LINE      CODE     ---       #96
      00FF32B8H   LINE      CODE     ---       #98
      00FF32C2H   LINE      CODE     ---       #99
      00FF32CEH   LINE      CODE     ---       #100
      00FF32DCH   LINE      CODE     ---       #101
      00FF32ECH   LINE      CODE     ---       #102
      00FF32F2H   LINE      CODE     ---       #103
      00FF32F4H   LINE      CODE     ---       #106
      00FF32FEH   LINE      CODE     ---       #107
      00FF3306H   LINE      CODE     ---       #108
      00FF330EH   LINE      CODE     ---       #109
      00FF3316H   LINE      CODE     ---       #110
      00FF331EH   LINE      CODE     ---       #111
      00FF3326H   LINE      CODE     ---       #112
      00FF332EH   LINE      CODE     ---       #113
      00FF332EH   LINE      CODE     ---       #126
      00FF3331H   LINE      CODE     ---       #147
      00FF3340H   LINE      CODE     ---       #149
      00FF3359H   LINE      CODE     ---       #154
      00FF335FH   LINE      CODE     ---       #155
      00FF3361H   LINE      CODE     ---       #156
      00FF3372H   LINE      CODE     ---       #161
      00FF337CH   LINE      CODE     ---       #162
      00FF337CH   LINE      CODE     ---       #165
      00FF338DH   LINE      CODE     ---       #166
      00FF3397H   LINE      CODE     ---       #168
      00FF33A6H   LINE      CODE     ---       #170
      00FF33AAH   LINE      CODE     ---       #171
      00FF33B9H   LINE      CODE     ---       #172
      00FF33B9H   LINE      CODE     ---       #173
      00FF33D6H   LINE      CODE     ---       #174
      00FF33E8H   LINE      CODE     ---       #178
      00FF3416H   LINE      CODE     ---       #179
      00FF342DH   LINE      CODE     ---       #182
      00FF3443H   LINE      CODE     ---       #185
      00FF345BH   LINE      CODE     ---       #186
      00FF3465H   LINE      CODE     ---       #187
      00FF3470H   LINE      CODE     ---       #189
      00FF348EH   LINE      CODE     ---       #190
      00FF3496H   LINE      CODE     ---       #191
      00FF3498H   LINE      CODE     ---       #194
      00FF34B6H   LINE      CODE     ---       #195
      00FF34CEH   LINE      CODE     ---       #196
L251 LINKER/LOCATER V4.66.93.0                                                        03/21/2024  17:39:21  PAGE 69


      00FF34CEH   LINE      CODE     ---       #198
      00FF34D1H   LINE      CODE     ---       #200
      00FF34E4H   LINE      CODE     ---       #201
      00FF34F7H   LINE      CODE     ---       #204
      00FF3519H   LINE      CODE     ---       #206
      00FF351FH   LINE      CODE     ---       #207
      00FF3523H   LINE      CODE     ---       #208
      00FF3523H   LINE      CODE     ---       #210
      00FF3529H   LINE      CODE     ---       #211
      00FF3530H   LINE      CODE     ---       #212
      00FF3536H   LINE      CODE     ---       #213
      00FF353DH   LINE      CODE     ---       #216
      00FF3542H   LINE      CODE     ---       #217
      ---         BLOCKEND  ---      ---       LVL=0

      00FF4EA4H   BLOCK     CODE     ---       LVL=0
      00FF4EA4H   LINE      CODE     ---       #222
      00FF4EA4H   LINE      CODE     ---       #226
      00FF4EC4H   LINE      CODE     ---       #227
      00FF4EE6H   LINE      CODE     ---       #228
      00FF4EF5H   LINE      CODE     ---       #229
      00FF4F00H   LINE      CODE     ---       #230
      00FF4F24H   LINE      CODE     ---       #231
      00FF4F33H   LINE      CODE     ---       #253
      ---         BLOCKEND  ---      ---       LVL=0

      00FF4AD8H   BLOCK     CODE     ---       LVL=0
      00FF4AD8H   LINE      CODE     ---       #256
      00FF4AD8H   LINE      CODE     ---       #258
      00FF4ADBH   LINE      CODE     ---       #259
      00FF4ADEH   LINE      CODE     ---       #260
      00FF4AEAH   LINE      CODE     ---       #263
      00FF4AEDH   LINE      CODE     ---       #266
      00FF4AF6H   LINE      CODE     ---       #267
      00FF4AFFH   LINE      CODE     ---       #270
      00FF4B02H   LINE      CODE     ---       #274
      00FF4B05H   LINE      CODE     ---       #277
      00FF4B08H   LINE      CODE     ---       #280
      00FF4B0BH   LINE      CODE     ---       #283
      00FF4B16H   LINE      CODE     ---       #286
      00FF4B1BH   LINE      CODE     ---       #287
      00FF4B22H   LINE      CODE     ---       #290
      00FF4B25H   LINE      CODE     ---       #293
      00FF4B28H   LINE      CODE     ---       #296
      00FF4B2BH   LINE      CODE     ---       #299
      00FF4B5CH   LINE      CODE     ---       #300
      00FF4B8DH   LINE      CODE     ---       #301
      ---         BLOCKEND  ---      ---       LVL=0

      ---         MODULE    ---      ---       motor
      00FF4DF4H   PUBLIC    CODE     ---       Right_SetSpeed
      00FF5CC9H   PUBLIC    CODE     ---       Motor_Init
      00FF4C79H   PUBLIC    CODE     ---       Left_SetSpeed
      00FF617AH   PUBLIC    CODE     ---       Limit_Out
      00FF5776H   PUBLIC    CODE     ---       Get_Speed
      000006B7H   PUBLIC    EDATA    FLOAT     Speed_L
      000006BBH   PUBLIC    EDATA    FLOAT     Speed_R
      000006BFH   PUBLIC    EDATA    CHAR      A
      000006C0H   PUBLIC    EDATA    CHAR      A1
      00000406H   PUBLIC    EDATA    BYTE      ?Limit_Out?BYTE
      000000D0H   SFRSYM    DATA     BYTE      PSW
      000000B7H   SFRSYM    DATA     BYTE      IPH
      000000B0H.5 SFRSYM    DATA     BIT       P35
      000000C8H.3 SFRSYM    DATA     BIT       P53
      00000088H   SFRSYM    DATA     BYTE      TCON
L251 LINKER/LOCATER V4.66.93.0                                                        03/21/2024  17:39:21  PAGE 70


      00000098H   SFRSYM    DATA     BYTE      SCON
      000000BCH   SFRSYM    DATA     BYTE      ADC_CONTR
      000000DEH   SFRSYM    DATA     BYTE      ADCCFG
      000000B8H   SFRSYM    DATA     BYTE      IP
      000000A8H   SFRSYM    DATA     BYTE      IE
      000000F8H   SFRSYM    DATA     BYTE      P7
      000000E8H   SFRSYM    DATA     BYTE      P6
      000000C8H   SFRSYM    DATA     BYTE      P5
      000000C0H   SFRSYM    DATA     BYTE      P4
      000000B0H   SFRSYM    DATA     BYTE      P3
      000000A0H   SFRSYM    DATA     BYTE      P2
      00000090H   SFRSYM    DATA     BYTE      P1
      00000080H   SFRSYM    DATA     BYTE      P0

      00FF617AH   BLOCK     CODE     ---       LVL=0
      REG=7       REGSYM    ---      ---       Output
      DR24        REGSYM    ---      FLOAT     Limit_Min
      0000040EH   SYMBOL    EDATA    FLOAT     Limit_Max
      00FF617AH   LINE      CODE     ---       #18
      00FF617EH   LINE      CODE     ---       #20
      00FF6190H   LINE      CODE     ---       #21
      00FF61A4H   LINE      CODE     ---       #22
      ---         BLOCKEND  ---      ---       LVL=0
      DR28        REGSYM    ---      FLOAT     x

      00FF5CC9H   BLOCK     CODE     ---       LVL=0
      00FF5CC9H   LINE      CODE     ---       #31
      00FF5CC9H   LINE      CODE     ---       #33
      00FF5CDAH   LINE      CODE     ---       #34
      00FF5CEBH   LINE      CODE     ---       #35
      00FF5CFCH   LINE      CODE     ---       #36
      ---         BLOCKEND  ---      ---       LVL=0

      00FF4C79H   BLOCK     CODE     ---       LVL=0
      DR12        REGSYM    ---      FLOAT     speed
      00FF4C7DH   BLOCK     CODE     NEAR LAB  LVL=1
      000006C1H   SYMBOL    EDATA    INT       Special_NumL
      ---         BLOCKEND  ---      ---       LVL=1
      00FF4C79H   LINE      CODE     ---       #40
      00FF4C7DH   LINE      CODE     ---       #41
      00FF4C7DH   LINE      CODE     ---       #43
      00FF4C89H   LINE      CODE     ---       #44
      00FF4C91H   LINE      CODE     ---       #46
      00FF4C97H   LINE      CODE     ---       #47
      00FF4C9DH   LINE      CODE     ---       #49
      00FF4CA6H   LINE      CODE     ---       #50
      00FF4CAFH   LINE      CODE     ---       #51
      00FF4CB5H   LINE      CODE     ---       #52
      00FF4CB8H   LINE      CODE     ---       #55
      00FF4CCDH   LINE      CODE     ---       #56
      00FF4CE0H   LINE      CODE     ---       #57
      00FF4CE9H   LINE      CODE     ---       #59
      00FF4CFCH   LINE      CODE     ---       #60
      00FF4CFCH   LINE      CODE     ---       #61
      00FF4CFEH   LINE      CODE     ---       #62
      00FF4D07H   LINE      CODE     ---       #64
      00FF4D10H   LINE      CODE     ---       #65
      00FF4D25H   LINE      CODE     ---       #66
      00FF4D27H   LINE      CODE     ---       #69
      00FF4D30H   LINE      CODE     ---       #70
      00FF4D39H   LINE      CODE     ---       #71
      00FF4D39H   LINE      CODE     ---       #72
      00FF4D39H   LINE      CODE     ---       #74
      ---         BLOCKEND  ---      ---       LVL=0

L251 LINKER/LOCATER V4.66.93.0                                                        03/21/2024  17:39:21  PAGE 71


      00FF4DF4H   BLOCK     CODE     ---       LVL=0
      DR12        REGSYM    ---      FLOAT     speed
      00FF4DF8H   BLOCK     CODE     NEAR LAB  LVL=1
      000006C3H   SYMBOL    EDATA    INT       Special_NumR
      ---         BLOCKEND  ---      ---       LVL=1
      00FF4DF4H   LINE      CODE     ---       #76
      00FF4DF8H   LINE      CODE     ---       #77
      00FF4DF8H   LINE      CODE     ---       #79
      00FF4E0BH   LINE      CODE     ---       #80
      00FF4E1EH   LINE      CODE     ---       #82
      00FF4E2CH   LINE      CODE     ---       #83
      00FF4E34H   LINE      CODE     ---       #85
      00FF4E3AH   LINE      CODE     ---       #86
      00FF4E40H   LINE      CODE     ---       #88
      00FF4E46H   LINE      CODE     ---       #89
      00FF4E46H   LINE      CODE     ---       #90
      00FF4E46H   LINE      CODE     ---       #91
      00FF4E48H   LINE      CODE     ---       #94
      00FF4E51H   LINE      CODE     ---       #96
      00FF4E64H   LINE      CODE     ---       #97
      00FF4E64H   LINE      CODE     ---       #98
      00FF4E66H   LINE      CODE     ---       #99
      00FF4E6FH   LINE      CODE     ---       #101
      00FF4E78H   LINE      CODE     ---       #102
      00FF4E8DH   LINE      CODE     ---       #103
      00FF4E8FH   LINE      CODE     ---       #106
      00FF4E98H   LINE      CODE     ---       #107
      00FF4EA1H   LINE      CODE     ---       #108
      00FF4EA1H   LINE      CODE     ---       #110
      00FF4EA1H   LINE      CODE     ---       #111
      ---         BLOCKEND  ---      ---       LVL=0

      00FF5776H   BLOCK     CODE     ---       LVL=0
      00FF5776H   LINE      CODE     ---       #113
      00FF5776H   LINE      CODE     ---       #115
      00FF578BH   LINE      CODE     ---       #116
      00FF57A3H   LINE      CODE     ---       #117
      00FF57AAH   LINE      CODE     ---       #120
      00FF57BEH   LINE      CODE     ---       #121
      00FF57D4H   LINE      CODE     ---       #122
      ---         BLOCKEND  ---      ---       LVL=0
      DR12        REGSYM    ---      FLOAT     Speed

      ---         MODULE    ---      ---       ADC
      00FF441EH   PUBLIC    CODE     ---       ADC_GetValue
      00FF61A5H   PUBLIC    CODE     ---       ADC_InitAll
      000005FFH   PUBLIC    EDATA    ---       ADC_Array_Original
      0000063BH   PUBLIC    EDATA    ---       ADC_proc
      000000D0H   SFRSYM    DATA     BYTE      PSW
      000000B7H   SFRSYM    DATA     BYTE      IPH
      00000088H   SFRSYM    DATA     BYTE      TCON
      00000098H   SFRSYM    DATA     BYTE      SCON
      000000BCH   SFRSYM    DATA     BYTE      ADC_CONTR
      000000DEH   SFRSYM    DATA     BYTE      ADCCFG
      000000B8H   SFRSYM    DATA     BYTE      IP
      000000A8H   SFRSYM    DATA     BYTE      IE
      000000F8H   SFRSYM    DATA     BYTE      P7
      000000E8H   SFRSYM    DATA     BYTE      P6
      000000C8H   SFRSYM    DATA     BYTE      P5
      000000C0H   SFRSYM    DATA     BYTE      P4
      000000B0H   SFRSYM    DATA     BYTE      P3
      000000A0H   SFRSYM    DATA     BYTE      P2
      00000090H   SFRSYM    DATA     BYTE      P1
      00000080H   SFRSYM    DATA     BYTE      P0

L251 LINKER/LOCATER V4.66.93.0                                                        03/21/2024  17:39:21  PAGE 72


      00FF61A5H   BLOCK     CODE     ---       LVL=0
      00FF61A5H   LINE      CODE     ---       #11
      00FF61A5H   LINE      CODE     ---       #13
      00FF61ACH   LINE      CODE     ---       #14
      00FF61B5H   LINE      CODE     ---       #16
      00FF61BEH   LINE      CODE     ---       #18
      00FF61C7H   LINE      CODE     ---       #19
      ---         BLOCKEND  ---      ---       LVL=0

      00FF441EH   BLOCK     CODE     ---       LVL=0
      00FF4420H   BLOCK     CODE     NEAR LAB  LVL=1
      DR28        REGSYM    ---      FLOAT     temp
      R15         REGSYM    ---      CHAR      i
      R14         REGSYM    ---      CHAR      j
      ---         BLOCKEND  ---      ---       LVL=1
      00FF441EH   LINE      CODE     ---       #23
      00FF4420H   LINE      CODE     ---       #24
      00FF4420H   LINE      CODE     ---       #27
      00FF4422H   LINE      CODE     ---       #29
      00FF443FH   LINE      CODE     ---       #30
      00FF445EH   LINE      CODE     ---       #32
      00FF447DH   LINE      CODE     ---       #34
      00FF449CH   LINE      CODE     ---       #35
      00FF44BBH   LINE      CODE     ---       #36
      00FF44C5H   LINE      CODE     ---       #38
      00FF44C7H   LINE      CODE     ---       #40
      00FF44C9H   LINE      CODE     ---       #41
      00FF44CBH   LINE      CODE     ---       #43
      00FF44EAH   LINE      CODE     ---       #44
      00FF44F1H   LINE      CODE     ---       #45
      00FF450AH   LINE      CODE     ---       #47
      00FF4523H   LINE      CODE     ---       #48
      00FF453AH   LINE      CODE     ---       #50
      00FF455CH   LINE      CODE     ---       #52
      00FF4566H   LINE      CODE     ---       #53
      ---         BLOCKEND  ---      ---       LVL=0

      ---         MODULE    ---      ---       PID
      00FF4BB2H   PUBLIC    CODE     ---       PID_Calculate
      00FF5A53H   PUBLIC    CODE     ---       PID_Init
      0000023EH   PUBLIC    EDATA    ---       Right_Wheel_PID
      00000262H   PUBLIC    EDATA    ---       Left_Wheel_PID
      00000286H   PUBLIC    EDATA    ---       Turn
      000002B3H   PUBLIC    EDATA    ---       Right_Wheel
      000002E0H   PUBLIC    EDATA    ---       Left_Wheel
      0000030DH   PUBLIC    EDATA    ---       Turn_PID
      00000402H   PUBLIC    EDATA    BYTE      ?PID_Init?BYTE
      00000402H   PUBLIC    EDATA    BYTE      ?PID_Calculate?BYTE
      000000D0H   SFRSYM    DATA     BYTE      PSW
      000000B7H   SFRSYM    DATA     BYTE      IPH
      00000088H   SFRSYM    DATA     BYTE      TCON
      00000098H   SFRSYM    DATA     BYTE      SCON
      000000BCH   SFRSYM    DATA     BYTE      ADC_CONTR
      000000DEH   SFRSYM    DATA     BYTE      ADCCFG
      000000B8H   SFRSYM    DATA     BYTE      IP
      000000A8H   SFRSYM    DATA     BYTE      IE
      000000F8H   SFRSYM    DATA     BYTE      P7
      000000E8H   SFRSYM    DATA     BYTE      P6
      000000C8H   SFRSYM    DATA     BYTE      P5
      000000C0H   SFRSYM    DATA     BYTE      P4
      000000B0H   SFRSYM    DATA     BYTE      P3
      000000A0H   SFRSYM    DATA     BYTE      P2
      00000090H   SFRSYM    DATA     BYTE      P1
      00000080H   SFRSYM    DATA     BYTE      P0

L251 LINKER/LOCATER V4.66.93.0                                                        03/21/2024  17:39:21  PAGE 73


      00FF5A53H   BLOCK     CODE     ---       LVL=0
      REG=2       REGSYM    ---      ---       PID_Struct
      DR4         REGSYM    ---      FLOAT     Kp
      0000040AH   SYMBOL    EDATA    FLOAT     Ki
      0000040EH   SYMBOL    EDATA    FLOAT     Kd
      00000412H   SYMBOL    EDATA    FLOAT     Out_Limit
      00000416H   SYMBOL    EDATA    FLOAT     Integral_Limit
      00FF5A53H   LINE      CODE     ---       #17
      00FF5A55H   LINE      CODE     ---       #19
      00FF5A5DH   LINE      CODE     ---       #20
      00FF5A69H   LINE      CODE     ---       #21
      00FF5A75H   LINE      CODE     ---       #23
      00FF5A7EH   LINE      CODE     ---       #24
      00FF5A86H   LINE      CODE     ---       #26
      00FF5A8EH   LINE      CODE     ---       #27
      00FF5A9AH   LINE      CODE     ---       #28
      00FF5AA6H   LINE      CODE     ---       #29
      ---         BLOCKEND  ---      ---       LVL=0

      00FF4BB2H   BLOCK     CODE     ---       LVL=0
      REG=3       REGSYM    ---      ---       PID_Struct
      DR28        REGSYM    ---      FLOAT     Exp_Val
      0000040AH   SYMBOL    EDATA    FLOAT     Act_Val
      00FF4BB2H   LINE      CODE     ---       #32
      00FF4BB6H   LINE      CODE     ---       #34
      00FF4BC4H   LINE      CODE     ---       #35
      00FF4BE2H   LINE      CODE     ---       #36
      00FF4BFAH   LINE      CODE     ---       #37
      00FF4C4FH   LINE      CODE     ---       #41
      00FF4C67H   LINE      CODE     ---       #42
      00FF4C76H   LINE      CODE     ---       #43
      ---         BLOCKEND  ---      ---       LVL=0
      REG=2       REGSYM    ---      ---       pid
      DR4         REGSYM    ---      FLOAT     Kp
      R15         REGSYM    ---      BYTE      use_lowpass_filter
      REG=3       REGSYM    ---      ---       pid
      DR28        REGSYM    ---      FLOAT     setpoint
      DR24        REGSYM    ---      FLOAT     derivative
      DR0         REGSYM    ---      FLOAT     output_increment

      ---         MODULE    ---      ---       MPU6050
      00FF6496H   PUBLIC    CODE     ---       i2c_nack
      00FF658AH   PUBLIC    CODE     ---       Delay1ms
      00FF534AH   PUBLIC    CODE     ---       loadfirmware
      00FF6445H   PUBLIC    CODE     ---       i2c_ack
      00FF64A8H   PUBLIC    CODE     ---       i2c_start
      00FF56A2H   PUBLIC    CODE     ---       i2c_read_bits
      00FF5FB2H   PUBLIC    CODE     ---       i2c_read_byte
      00FF51B9H   PUBLIC    CODE     ---       xdmpUpdates
      00FF594FH   PUBLIC    CODE     ---       MPU_Get_Gyroscope
      00FF6085H   PUBLIC    CODE     ---       i2c_read_bit
      00FF54C8H   PUBLIC    CODE     ---       i2c_mem_read
      00FF4F4AH   PUBLIC    CODE     ---       loadcfgupd
      00FF001EH   PUBLIC    CODE     ---       I2C_SDA_H
      00FF544BH   PUBLIC    CODE     ---       i2c_write_bits
      00FF634DH   PUBLIC    CODE     ---       getDeviceID
      00FF0056H   PUBLIC    CODE     ---       I2C_SDA_L
      00FF60B8H   PUBLIC    CODE     ---       i2c_write_byte
      00FF61D0H   PUBLIC    CODE     ---       i2c_wait_ack
      00FF64FCH   PUBLIC    CODE     ---       i2c_stop
      00FF005EH   PUBLIC    CODE     ---       I2C_SCL_H
      00FF0086H   PUBLIC    CODE     ---       I2C_SCL_L
      00FF58F3H   PUBLIC    CODE     ---       i2c_write_bit
      00FF57D9H   PUBLIC    CODE     ---       i2c_mem_write
      00FF3ACAH   PUBLIC    CODE     ---       MPU6050_Refresh_DMP
L251 LINKER/LOCATER V4.66.93.0                                                        03/21/2024  17:39:21  PAGE 74


      00FF0046H   PUBLIC    CODE     ---       MPU_Read_Bits
      00FF6594H   PUBLIC    CODE     ---       MPU_Read_Bit
      00FF655EH   PUBLIC    CODE     ---       MPU_Read_Len
      00FF0006H   PUBLIC    CODE     ---       I2C_SDA_Read
      00FF6537H   PUBLIC    CODE     ---       MPU_Write_Bits
      00FF645AH   PUBLIC    CODE     ---       MPU_Write_Byte
      00FF3D64H   PUBLIC    CODE     ---       dmpInitialize
      00FF6569H   PUBLIC    CODE     ---       i2c_timeout_delay
      00FF650BH   PUBLIC    CODE     ---       readdmp
      00FF6544H   PUBLIC    CODE     ---       MPU_Write_Bit
      00FF6574H   PUBLIC    CODE     ---       MPU_Write_Len
      00FF646FH   PUBLIC    CODE     ---       MPU_Delay_Ms
      00FF657FH   PUBLIC    CODE     ---       i2c_delay
      00FF0026H   PUBLIC    CODE     ---       getFIFOCount
      00FF60EBH   PUBLIC    CODE     ---       initMPU6050
      00FF6308H   PUBLIC    CODE     ---       MPU6050_DMP_Init
      00000495H   PUBLIC    EDATA    FLOAT     z_add
      00000499H   PUBLIC    EDATA    FLOAT     z_last
      0000049DH   PUBLIC    EDATA    FLOAT     Roll
      000004A1H   PUBLIC    EDATA    FLOAT     x1
      000004A5H   PUBLIC    EDATA    FLOAT     y1
      000004A9H   PUBLIC    EDATA    FLOAT     z1
      000004ADH   PUBLIC    EDATA    FLOAT     z_now
      000004B1H   PUBLIC    EDATA    FLOAT     Yaw
      000004B5H   PUBLIC    EDATA    ---       Q
      000004C5H   PUBLIC    EDATA    ---       dmpdatas
      000004EFH   PUBLIC    EDATA    CHAR      mpu_state
      000004F0H   PUBLIC    EDATA    FLOAT     Pitch
      00FF1A26H   PUBLIC    CODE     ---       dmpUpdates
      00FF1A55H   PUBLIC    CODE     ---       dmpcfgupddata
      00FF1B15H   PUBLIC    CODE     ---       dmpmemorydata
      00000406H   PUBLIC    EDATA    BYTE      ?MPU_Get_Gyroscope?BYTE
      000000D0H   SFRSYM    DATA     BYTE      PSW
      000000B7H   SFRSYM    DATA     BYTE      IPH
      000000C8H.1 SFRSYM    DATA     BIT       P51
      00000088H   SFRSYM    DATA     BYTE      TCON
      000000C8H.0 SFRSYM    DATA     BIT       P50
      00000098H   SFRSYM    DATA     BYTE      SCON
      000000BCH   SFRSYM    DATA     BYTE      ADC_CONTR
      000000DEH   SFRSYM    DATA     BYTE      ADCCFG
      000000B8H   SFRSYM    DATA     BYTE      IP
      000000A8H   SFRSYM    DATA     BYTE      IE
      000000F8H   SFRSYM    DATA     BYTE      P7
      000000E8H   SFRSYM    DATA     BYTE      P6
      000000C8H   SFRSYM    DATA     BYTE      P5
      000000C0H   SFRSYM    DATA     BYTE      P4
      000000B0H   SFRSYM    DATA     BYTE      P3
      000000A0H   SFRSYM    DATA     BYTE      P2
      00000090H   SFRSYM    DATA     BYTE      P1
      00000080H   SFRSYM    DATA     BYTE      P0

      00FF6569H   BLOCK     CODE     ---       LVL=0
      R10         REGSYM    ---      CHAR      i
      00FF6569H   LINE      CODE     ---       #10
      00FF6569H   LINE      CODE     ---       #11
      00FF6569H   LINE      CODE     ---       #13
      00FF656CH   LINE      CODE     ---       #14
      00FF6573H   LINE      CODE     ---       #15
      ---         BLOCKEND  ---      ---       LVL=0

      00FF657FH   BLOCK     CODE     ---       LVL=0
      R10         REGSYM    ---      CHAR      i
      00FF657FH   LINE      CODE     ---       #17
      00FF657FH   LINE      CODE     ---       #18
      00FF657FH   LINE      CODE     ---       #20
L251 LINKER/LOCATER V4.66.93.0                                                        03/21/2024  17:39:21  PAGE 75


      00FF6582H   LINE      CODE     ---       #21
      00FF6589H   LINE      CODE     ---       #22
      ---         BLOCKEND  ---      ---       LVL=0

      00FF005EH   BLOCK     CODE     ---       LVL=0
      00FF005EH   LINE      CODE     ---       #25
      00FF005EH   LINE      CODE     ---       #27
      00FF0060H   LINE      CODE     ---       #28
      ---         BLOCKEND  ---      ---       LVL=0

      00FF0086H   BLOCK     CODE     ---       LVL=0
      00FF0086H   LINE      CODE     ---       #31
      00FF0086H   LINE      CODE     ---       #33
      00FF0088H   LINE      CODE     ---       #34
      ---         BLOCKEND  ---      ---       LVL=0

      00FF001EH   BLOCK     CODE     ---       LVL=0
      00FF001EH   LINE      CODE     ---       #37
      00FF001EH   LINE      CODE     ---       #39
      00FF0020H   LINE      CODE     ---       #40
      ---         BLOCKEND  ---      ---       LVL=0

      00FF0056H   BLOCK     CODE     ---       LVL=0
      00FF0056H   LINE      CODE     ---       #43
      00FF0056H   LINE      CODE     ---       #45
      00FF0058H   LINE      CODE     ---       #46
      ---         BLOCKEND  ---      ---       LVL=0

      00FF0006H   BLOCK     CODE     ---       LVL=0
      00FF0006H   LINE      CODE     ---       #49
      00FF0006H   LINE      CODE     ---       #51
      00FF000AH   LINE      CODE     ---       #52
      ---         BLOCKEND  ---      ---       LVL=0

      00FF64A8H   BLOCK     CODE     ---       LVL=0
      00FF64A8H   LINE      CODE     ---       #60
      00FF64A8H   LINE      CODE     ---       #62
      00FF64ABH   LINE      CODE     ---       #63
      00FF64AEH   LINE      CODE     ---       #64
      00FF64B1H   LINE      CODE     ---       #66
      00FF64B4H   LINE      CODE     ---       #67
      00FF64B7H   LINE      CODE     ---       #68
      ---         BLOCKEND  ---      ---       LVL=0

      00FF64FCH   BLOCK     CODE     ---       LVL=0
      00FF64FCH   LINE      CODE     ---       #77
      00FF64FCH   LINE      CODE     ---       #79
      00FF64FFH   LINE      CODE     ---       #80
      00FF6502H   LINE      CODE     ---       #81
      00FF6505H   LINE      CODE     ---       #83
      00FF6508H   LINE      CODE     ---       #84
      ---         BLOCKEND  ---      ---       LVL=0

      00FF6445H   BLOCK     CODE     ---       LVL=0
      00FF6445H   LINE      CODE     ---       #93
      00FF6445H   LINE      CODE     ---       #95
      00FF6448H   LINE      CODE     ---       #96
      00FF644BH   LINE      CODE     ---       #97
      00FF644EH   LINE      CODE     ---       #99
      00FF6451H   LINE      CODE     ---       #100
      00FF6454H   LINE      CODE     ---       #101
      00FF6457H   LINE      CODE     ---       #102
      ---         BLOCKEND  ---      ---       LVL=0

      00FF6496H   BLOCK     CODE     ---       LVL=0
L251 LINKER/LOCATER V4.66.93.0                                                        03/21/2024  17:39:21  PAGE 76


      00FF6496H   LINE      CODE     ---       #111
      00FF6496H   LINE      CODE     ---       #113
      00FF6499H   LINE      CODE     ---       #114
      00FF649CH   LINE      CODE     ---       #115
      00FF649FH   LINE      CODE     ---       #117
      00FF64A2H   LINE      CODE     ---       #118
      00FF64A5H   LINE      CODE     ---       #119
      ---         BLOCKEND  ---      ---       LVL=0

      00FF61D0H   BLOCK     CODE     ---       LVL=0
      00FF61D2H   BLOCK     CODE     NEAR LAB  LVL=1
      WR14        REGSYM    ---      WORD      time_temp
      ---         BLOCKEND  ---      ---       LVL=1
      00FF61D0H   LINE      CODE     ---       #129
      00FF61D2H   LINE      CODE     ---       #130
      00FF61D2H   LINE      CODE     ---       #131
      00FF61D4H   LINE      CODE     ---       #133
      00FF61D7H   LINE      CODE     ---       #134
      00FF61DAH   LINE      CODE     ---       #135
      00FF61DCH   LINE      CODE     ---       #137
      00FF61DEH   LINE      CODE     ---       #138
      00FF61E1H   LINE      CODE     ---       #139
      00FF61E7H   LINE      CODE     ---       #141
      00FF61EAH   LINE      CODE     ---       #142
      00FF61EEH   LINE      CODE     ---       #143
      00FF61F3H   LINE      CODE     ---       #145
      00FF61F6H   LINE      CODE     ---       #146
      00FF61F7H   LINE      CODE     ---       #147
      ---         BLOCKEND  ---      ---       LVL=0

      00FF60B8H   BLOCK     CODE     ---       LVL=0
      R15         REGSYM    ---      BYTE      dat
      00FF60BCH   BLOCK     CODE     NEAR LAB  LVL=1
      R14         REGSYM    ---      BYTE      i
      ---         BLOCKEND  ---      ---       LVL=1
      00FF60B8H   LINE      CODE     ---       #155
      00FF60BCH   LINE      CODE     ---       #156
      00FF60BCH   LINE      CODE     ---       #157
      00FF60BCH   LINE      CODE     ---       #159
      00FF60BFH   LINE      CODE     ---       #160
      00FF60C2H   LINE      CODE     ---       #162
      00FF60CBH   LINE      CODE     ---       #163
      00FF60D0H   LINE      CODE     ---       #165
      00FF60D3H   LINE      CODE     ---       #166
      00FF60D5H   LINE      CODE     ---       #167
      00FF60D8H   LINE      CODE     ---       #168
      00FF60DBH   LINE      CODE     ---       #169
      00FF60DEH   LINE      CODE     ---       #170
      00FF60E1H   LINE      CODE     ---       #171
      00FF60E4H   LINE      CODE     ---       #172
      00FF60E8H   LINE      CODE     ---       #173
      ---         BLOCKEND  ---      ---       LVL=0

      00FF5FB2H   BLOCK     CODE     ---       LVL=0
      R15         REGSYM    ---      BYTE      ack
      00FF5FB8H   BLOCK     CODE     NEAR LAB  LVL=1
      R13         REGSYM    ---      BYTE      i
      R14         REGSYM    ---      BYTE      receive
      ---         BLOCKEND  ---      ---       LVL=1
      00FF5FB2H   LINE      CODE     ---       #181
      00FF5FB8H   LINE      CODE     ---       #182
      00FF5FB8H   LINE      CODE     ---       #183
      00FF5FBAH   LINE      CODE     ---       #185
      00FF5FBDH   LINE      CODE     ---       #187
      00FF5FC0H   LINE      CODE     ---       #188
L251 LINKER/LOCATER V4.66.93.0                                                        03/21/2024  17:39:21  PAGE 77


      00FF5FC3H   LINE      CODE     ---       #189
      00FF5FC6H   LINE      CODE     ---       #190
      00FF5FC8H   LINE      CODE     ---       #191
      00FF5FCDH   LINE      CODE     ---       #192
      00FF5FCFH   LINE      CODE     ---       #193
      00FF5FD2H   LINE      CODE     ---       #194
      00FF5FD6H   LINE      CODE     ---       #195
      00FF5FDAH   LINE      CODE     ---       #196
      00FF5FDFH   LINE      CODE     ---       #198
      00FF5FE2H   LINE      CODE     ---       #200
      00FF5FE4H   LINE      CODE     ---       #201
      ---         BLOCKEND  ---      ---       LVL=0

      00FF57D9H   BLOCK     CODE     ---       LVL=0
      00000413H   SYMBOL    EDATA    BYTE      DevAddress
      00000414H   SYMBOL    EDATA    BYTE      MemAddress
      REG=3       REGSYM    ---      ---       pData
      00000415H   SYMBOL    EDATA    WORD      Len
      00FF57D9H   LINE      CODE     ---       #209
      00FF57E9H   LINE      CODE     ---       #211
      00FF57ECH   LINE      CODE     ---       #212
      00FF57F5H   LINE      CODE     ---       #213
      00FF57FAH   LINE      CODE     ---       #214
      00FF57FEH   LINE      CODE     ---       #215
      00FF5805H   LINE      CODE     ---       #216
      00FF580AH   LINE      CODE     ---       #217
      00FF580EH   LINE      CODE     ---       #218
      00FF5810H   LINE      CODE     ---       #220
      00FF5818H   LINE      CODE     ---       #221
      00FF581DH   LINE      CODE     ---       #222
      00FF5821H   LINE      CODE     ---       #223
      00FF5831H   LINE      CODE     ---       #224
      00FF5834H   LINE      CODE     ---       #225
      00FF5835H   LINE      CODE     ---       #226
      ---         BLOCKEND  ---      ---       LVL=0

      00FF54C8H   BLOCK     CODE     ---       LVL=0
      00000418H   SYMBOL    EDATA    BYTE      DevAddress
      00000419H   SYMBOL    EDATA    BYTE      MemAddress
      REG=3       REGSYM    ---      ---       pBuffer
      0000041AH   SYMBOL    EDATA    WORD      Len
      00FF54C8H   LINE      CODE     ---       #234
      00FF54D8H   LINE      CODE     ---       #236
      00FF54DBH   LINE      CODE     ---       #237
      00FF54E4H   LINE      CODE     ---       #238
      00FF54E9H   LINE      CODE     ---       #239
      00FF54EDH   LINE      CODE     ---       #240
      00FF54F4H   LINE      CODE     ---       #241
      00FF54F9H   LINE      CODE     ---       #242
      00FF54FDH   LINE      CODE     ---       #243
      00FF5500H   LINE      CODE     ---       #244
      00FF550BH   LINE      CODE     ---       #245
      00FF5510H   LINE      CODE     ---       #246
      00FF5514H   LINE      CODE     ---       #247
      00FF5516H   LINE      CODE     ---       #249
      00FF552BH   LINE      CODE     ---       #250
      00FF553BH   LINE      CODE     ---       #251
      00FF553EH   LINE      CODE     ---       #252
      00FF553FH   LINE      CODE     ---       #253
      ---         BLOCKEND  ---      ---       LVL=0

      00FF58F3H   BLOCK     CODE     ---       LVL=0
      R13         REGSYM    ---      BYTE      DevAddress
      R14         REGSYM    ---      BYTE      addr
      R15         REGSYM    ---      BYTE      bitNum
L251 LINKER/LOCATER V4.66.93.0                                                        03/21/2024  17:39:21  PAGE 78


      R12         REGSYM    ---      BYTE      Data
      00FF58FDH   BLOCK     CODE     NEAR LAB  LVL=1
      00000410H   SYMBOL    EDATA    BYTE      b
      ---         BLOCKEND  ---      ---       LVL=1
      00FF58F3H   LINE      CODE     ---       #262
      00FF58FDH   LINE      CODE     ---       #263
      00FF58FDH   LINE      CODE     ---       #265
      00FF590AH   LINE      CODE     ---       #267
      00FF5939H   LINE      CODE     ---       #268
      00FF594AH   LINE      CODE     ---       #269
      00FF594AH   LINE      CODE     ---       #271
      00FF594CH   LINE      CODE     ---       #272
      ---         BLOCKEND  ---      ---       LVL=0

      00FF544BH   BLOCK     CODE     ---       LVL=0
      00000410H   SYMBOL    EDATA    BYTE      DevAddress
      R12         REGSYM    ---      BYTE      addr
      R13         REGSYM    ---      BYTE      bitStart
      R14         REGSYM    ---      BYTE      length
      R15         REGSYM    ---      BYTE      Data
      00FF5459H   BLOCK     CODE     NEAR LAB  LVL=1
      000004F4H   SYMBOL    EDATA    BYTE      b
      000004F5H   SYMBOL    EDATA    BYTE      mask
      ---         BLOCKEND  ---      ---       LVL=1
      00FF544BH   LINE      CODE     ---       #282
      00FF5459H   LINE      CODE     ---       #283
      00FF5459H   LINE      CODE     ---       #292
      00FF5466H   LINE      CODE     ---       #294
      00FF548CH   LINE      CODE     ---       #295
      00FF5495H   LINE      CODE     ---       #296
      00FF5497H   LINE      CODE     ---       #297
      00FF54A6H   LINE      CODE     ---       #298
      00FF54B0H   LINE      CODE     ---       #300
      00FF54C3H   LINE      CODE     ---       #301
      00FF54C3H   LINE      CODE     ---       #303
      00FF54C5H   LINE      CODE     ---       #304
      ---         BLOCKEND  ---      ---       LVL=0

      00FF6085H   BLOCK     CODE     ---       LVL=0
      R11         REGSYM    ---      BYTE      DevAddress
      R10         REGSYM    ---      BYTE      addr
      00000410H   SYMBOL    EDATA    BYTE      bitNum
      REG=3       REGSYM    ---      ---       Data
      00FF608DH   BLOCK     CODE     NEAR LAB  LVL=1
      00000411H   SYMBOL    EDATA    BYTE      b
      ---         BLOCKEND  ---      ---       LVL=1
      00FF6085H   LINE      CODE     ---       #312
      00FF608DH   LINE      CODE     ---       #313
      00FF608DH   LINE      CODE     ---       #315
      00FF609AH   LINE      CODE     ---       #317
      00FF60B0H   LINE      CODE     ---       #318
      00FF60B3H   LINE      CODE     ---       #319
      00FF60B3H   LINE      CODE     ---       #322
      00FF60B5H   LINE      CODE     ---       #323
      00FF60B5H   LINE      CODE     ---       #324
      ---         BLOCKEND  ---      ---       LVL=0

      00FF56A2H   BLOCK     CODE     ---       LVL=0
      R11         REGSYM    ---      BYTE      DevAddress
      R10         REGSYM    ---      BYTE      addr
      R14         REGSYM    ---      BYTE      bitStart
      R15         REGSYM    ---      BYTE      length
      00000410H   SYMBOL    EDATA    ---       Data
      00FF56ACH   BLOCK     CODE     NEAR LAB  LVL=1
      000004F6H   SYMBOL    EDATA    BYTE      b
L251 LINKER/LOCATER V4.66.93.0                                                        03/21/2024  17:39:21  PAGE 79


      000004F7H   SYMBOL    EDATA    BYTE      mask
      ---         BLOCKEND  ---      ---       LVL=1
      00FF56A2H   LINE      CODE     ---       #333
      00FF56ACH   LINE      CODE     ---       #334
      00FF56ACH   LINE      CODE     ---       #341
      00FF56B9H   LINE      CODE     ---       #344
      00FF56DBH   LINE      CODE     ---       #345
      00FF56E3H   LINE      CODE     ---       #346
      00FF56FAH   LINE      CODE     ---       #347
      00FF5705H   LINE      CODE     ---       #348
      00FF5708H   LINE      CODE     ---       #349
      00FF5708H   LINE      CODE     ---       #351
      00FF570AH   LINE      CODE     ---       #352
      ---         BLOCKEND  ---      ---       LVL=0

      00FF658AH   BLOCK     CODE     ---       LVL=0
      DR4         REGSYM    ---      DWORD     i
      00FF658AH   LINE      CODE     ---       #356
      00FF658AH   LINE      CODE     ---       #357
      00FF658AH   LINE      CODE     ---       #359
      00FF658BH   LINE      CODE     ---       #360
      00FF658FH   LINE      CODE     ---       #361
      00FF6593H   LINE      CODE     ---       #362
      ---         BLOCKEND  ---      ---       LVL=0

      00FF646FH   BLOCK     CODE     ---       LVL=0
      WR14        REGSYM    ---      WORD      Milliseconds
      00FF646FH   LINE      CODE     ---       #365
      00FF6473H   LINE      CODE     ---       #367
      00FF6480H   LINE      CODE     ---       #369
      ---         BLOCKEND  ---      ---       LVL=0

      00FF6574H   BLOCK     CODE     ---       LVL=0
      R7          REGSYM    ---      BYTE      reg
      R6          REGSYM    ---      BYTE      len
      REG=0       REGSYM    ---      ---       buf
      00FF6574H   LINE      CODE     ---       #377
      00FF6578H   LINE      CODE     ---       #379
      ---         BLOCKEND  ---      ---       LVL=0

      00FF655EH   BLOCK     CODE     ---       LVL=0
      R7          REGSYM    ---      BYTE      reg
      R6          REGSYM    ---      BYTE      len
      REG=0       REGSYM    ---      ---       buf
      00FF655EH   LINE      CODE     ---       #388
      00FF6562H   LINE      CODE     ---       #390
      ---         BLOCKEND  ---      ---       LVL=0

      00FF645AH   BLOCK     CODE     ---       LVL=0
      R10         REGSYM    ---      BYTE      reg
      00000412H   SYMBOL    EDATA    BYTE      Data
      00FF645AH   LINE      CODE     ---       #398
      00FF6460H   LINE      CODE     ---       #400
      ---         BLOCKEND  ---      ---       LVL=0
      R10         REGSYM    ---      BYTE      reg

      00FF6544H   BLOCK     CODE     ---       LVL=0
      R7          REGSYM    ---      BYTE      addr
      R6          REGSYM    ---      BYTE      bitNum
      R10         REGSYM    ---      BYTE      Data
      00FF6544H   LINE      CODE     ---       #414
      00FF654AH   LINE      CODE     ---       #416
      ---         BLOCKEND  ---      ---       LVL=0

      00FF6537H   BLOCK     CODE     ---       LVL=0
L251 LINKER/LOCATER V4.66.93.0                                                        03/21/2024  17:39:21  PAGE 80


      R7          REGSYM    ---      BYTE      addr
      R6          REGSYM    ---      BYTE      bitStart
      R5          REGSYM    ---      BYTE      length
      R4          REGSYM    ---      BYTE      Data
      00FF6537H   LINE      CODE     ---       #420
      00FF653FH   LINE      CODE     ---       #422
      ---         BLOCKEND  ---      ---       LVL=0

      00FF6594H   BLOCK     CODE     ---       LVL=0
      R7          REGSYM    ---      BYTE      addr
      R6          REGSYM    ---      BYTE      bitNum
      REG=0       REGSYM    ---      ---       Data
      00FF6594H   LINE      CODE     ---       #426
      00FF6598H   LINE      CODE     ---       #428
      ---         BLOCKEND  ---      ---       LVL=0

      00FF0046H   BLOCK     CODE     ---       LVL=0
      R7          REGSYM    ---      BYTE      addr
      R6          REGSYM    ---      BYTE      bitStart
      R10         REGSYM    ---      BYTE      length
      REG=0       REGSYM    ---      ---       Data
      00FF0046H   LINE      CODE     ---       #432
      00FF004CH   LINE      CODE     ---       #434
      ---         BLOCKEND  ---      ---       LVL=0
      R11         REGSYM    ---      BYTE      res
      R10         REGSYM    ---      BYTE      fsr
      R10         REGSYM    ---      BYTE      fsr
      WR6         REGSYM    ---      WORD      lpf
      R10         REGSYM    ---      BYTE      Data
      WR14        REGSYM    ---      WORD      rate
      000004F8H   SYMBOL    EDATA    BYTE      Data
      WR4         REGSYM    ---      INT       raw
      DR4         REGSYM    ---      FLOAT     temp

      00FF594FH   BLOCK     CODE     ---       LVL=0
      0000040AH   SYMBOL    EDATA    ---       gx
      REG=3       REGSYM    ---      ---       gy
      0000040EH   SYMBOL    EDATA    ---       gz
      00FF5957H   BLOCK     CODE     NEAR LAB  LVL=1
      00000412H   SYMBOL    EDATA    ---       buf
      R11         REGSYM    ---      BYTE      res
      ---         BLOCKEND  ---      ---       LVL=1
      00FF594FH   LINE      CODE     ---       #543
      00FF5957H   LINE      CODE     ---       #544
      00FF5957H   LINE      CODE     ---       #546
      00FF5963H   LINE      CODE     ---       #547
      00FF5965H   LINE      CODE     ---       #549
      00FF597CH   LINE      CODE     ---       #550
      00FF598FH   LINE      CODE     ---       #551
      00FF59A4H   LINE      CODE     ---       #552
      00FF59A4H   LINE      CODE     ---       #553
      00FF59A4H   LINE      CODE     ---       #554
      ---         BLOCKEND  ---      ---       LVL=0
      REG=3       REGSYM    ---      ---       ay
      R11         REGSYM    ---      BYTE      res

      00FF534AH   BLOCK     CODE     ---       LVL=0
      00FF534CH   BLOCK     CODE     NEAR LAB  LVL=1
      WR14        REGSYM    ---      WORD      datanum
      00000410H   SYMBOL    EDATA    BYTE      ye
      00000411H   SYMBOL    EDATA    BYTE      i
      R12         REGSYM    ---      BYTE      bank
      R13         REGSYM    ---      BYTE      addr
      ---         BLOCKEND  ---      ---       LVL=1
      00FF534AH   LINE      CODE     ---       #790
L251 LINKER/LOCATER V4.66.93.0                                                        03/21/2024  17:39:21  PAGE 81


      00FF534CH   LINE      CODE     ---       #791
      00FF534CH   LINE      CODE     ---       #792
      00FF534EH   LINE      CODE     ---       #794
      00FF5350H   LINE      CODE     ---       #795
      00FF5352H   LINE      CODE     ---       #797
      00FF5352H   LINE      CODE     ---       #799
      00FF5357H   LINE      CODE     ---       #800
      00FF535BH   LINE      CODE     ---       #802
      00FF5361H   LINE      CODE     ---       #803
      00FF5364H   LINE      CODE     ---       #805
      00FF536BH   LINE      CODE     ---       #806
      00FF5372H   LINE      CODE     ---       #807
      00FF5384H   LINE      CODE     ---       #808
      00FF5388H   LINE      CODE     ---       #809
      00FF538BH   LINE      CODE     ---       #810
      00FF539EH   LINE      CODE     ---       #811
      00FF53A5H   LINE      CODE     ---       #812
      00FF53ADH   LINE      CODE     ---       #813
      00FF53B4H   LINE      CODE     ---       #814
      00FF53C6H   LINE      CODE     ---       #815
      00FF53C6H   LINE      CODE     ---       #816
      00FF53C8H   LINE      CODE     ---       #817
      ---         BLOCKEND  ---      ---       LVL=0

      00FF4F4AH   BLOCK     CODE     ---       LVL=0
      00FF4F4CH   BLOCK     CODE     NEAR LAB  LVL=1
      R14         REGSYM    ---      BYTE      line
      00000410H   SYMBOL    EDATA    BYTE      bank
      R15         REGSYM    ---      BYTE      datacounts
      R13         REGSYM    ---      BYTE      bytes2write
      00000411H   SYMBOL    EDATA    BYTE      offset
      000004F9H   SYMBOL    EDATA    BYTE      writingcounts
      R12         REGSYM    ---      BYTE      special
      ---         BLOCKEND  ---      ---       LVL=1
      00FF4F4AH   LINE      CODE     ---       #819
      00FF4F4CH   LINE      CODE     ---       #820
      00FF4F4CH   LINE      CODE     ---       #823
      00FF4F4EH   LINE      CODE     ---       #829
      00FF4F51H   LINE      CODE     ---       #831
      00FF4F67H   LINE      CODE     ---       #832
      00FF4F7DH   LINE      CODE     ---       #833
      00FF4F91H   LINE      CODE     ---       #834
      00FF4F9AH   LINE      CODE     ---       #835
      00FF4FA3H   LINE      CODE     ---       #836
      00FF4FB4H   LINE      CODE     ---       #837
      00FF4FB8H   LINE      CODE     ---       #838
      00FF4FBAH   LINE      CODE     ---       #839
      00FF4FBEH   LINE      CODE     ---       #841
      00FF4FD2H   LINE      CODE     ---       #842
      00FF4FD7H   LINE      CODE     ---       #847
      00FF4FDFH   LINE      CODE     ---       #848
      00FF4FE1H   LINE      CODE     ---       #850
      00FF4FE4H   LINE      CODE     ---       #851
      00FF4FEBH   LINE      CODE     ---       #853
      00FF4FEDH   LINE      CODE     ---       #854
      ---         BLOCKEND  ---      ---       LVL=0

      00FF51B9H   BLOCK     CODE     ---       LVL=0
      00000410H   SYMBOL    EDATA    BYTE      datacounts
      00FF51BFH   BLOCK     CODE     NEAR LAB  LVL=1
      000004FAH   SYMBOL    EDATA    BYTE      writingcounts
      R7          REGSYM    ---      BYTE      bank
      R14         REGSYM    ---      BYTE      offset
      R15         REGSYM    ---      BYTE      bytes2write
      ---         BLOCKEND  ---      ---       LVL=1
L251 LINKER/LOCATER V4.66.93.0                                                        03/21/2024  17:39:21  PAGE 82


      00FF51B9H   LINE      CODE     ---       #857
      00FF51BFH   LINE      CODE     ---       #858
      00FF51BFH   LINE      CODE     ---       #862
      00FF51DAH   LINE      CODE     ---       #863
      00FF51F5H   LINE      CODE     ---       #864
      00FF5210H   LINE      CODE     ---       #865
      00FF5215H   LINE      CODE     ---       #866
      00FF521CH   LINE      CODE     ---       #867
      00FF5231H   LINE      CODE     ---       #868
      00FF5235H   LINE      CODE     ---       #869
      00FF523FH   LINE      CODE     ---       #870
      00FF5241H   LINE      CODE     ---       #871
      ---         BLOCKEND  ---      ---       LVL=0

      00FF0026H   BLOCK     CODE     ---       LVL=0
      00000410H   SYMBOL    EDATA    ---       i
      00FF0026H   LINE      CODE     ---       #875
      00FF0026H   LINE      CODE     ---       #876
      00FF0026H   LINE      CODE     ---       #878
      00FF0032H   LINE      CODE     ---       #879
      00FF0042H   LINE      CODE     ---       #880
      ---         BLOCKEND  ---      ---       LVL=0

      00FF650BH   BLOCK     CODE     ---       LVL=0
      REG=7       REGSYM    ---      ---       Data
      00FF650BH   LINE      CODE     ---       #886
      00FF650BH   LINE      CODE     ---       #888
      00FF6519H   LINE      CODE     ---       #889
      ---         BLOCKEND  ---      ---       LVL=0

      00FF3D64H   BLOCK     CODE     ---       LVL=0
      0000040AH   SYMBOL    EDATA    BYTE      hwRevision
      0000040BH   SYMBOL    EDATA    BYTE      otpValid
      0000040CH   SYMBOL    EDATA    BYTE      mpuIntStatus
      0000040DH   SYMBOL    EDATA    BYTE      xgOffsetTC
      0000040EH   SYMBOL    EDATA    BYTE      ygOffsetTC
      0000040FH   SYMBOL    EDATA    BYTE      zgOffsetTC
      000004FBH   SYMBOL    EDATA    WORD      fifoCount
      00FF3D64H   LINE      CODE     ---       #892
      00FF3D64H   LINE      CODE     ---       #893
      00FF3D64H   LINE      CODE     ---       #897
      00FF3D6FH   LINE      CODE     ---       #898
      00FF3D76H   LINE      CODE     ---       #899
      00FF3D80H   LINE      CODE     ---       #900
      00FF3D88H   LINE      CODE     ---       #901
      00FF3D90H   LINE      CODE     ---       #902
      00FF3D9CH   LINE      CODE     ---       #903
      00FF3DA3H   LINE      CODE     ---       #904
      00FF3DADH   LINE      CODE     ---       #905
      00FF3DBBH   LINE      CODE     ---       #906
      00FF3DCAH   LINE      CODE     ---       #907
      00FF3DD9H   LINE      CODE     ---       #911
      00FF3DE4H   LINE      CODE     ---       #912
      00FF3DEBH   LINE      CODE     ---       #913
      00FF3DF0H   LINE      CODE     ---       #914
      00FF3DF2H   LINE      CODE     ---       #915
      00FF3DF7H   LINE      CODE     ---       #916
      00FF3DF9H   LINE      CODE     ---       #917
      00FF3E07H   LINE      CODE     ---       #918
      00FF3E0FH   LINE      CODE     ---       #919
      00FF3E17H   LINE      CODE     ---       #920
      00FF3E25H   LINE      CODE     ---       #921
      00FF3E33H   LINE      CODE     ---       #922
      00FF3E41H   LINE      CODE     ---       #923
      00FF3E49H   LINE      CODE     ---       #924
L251 LINKER/LOCATER V4.66.93.0                                                        03/21/2024  17:39:21  PAGE 83


      00FF3E50H   LINE      CODE     ---       #925
      00FF3E58H   LINE      CODE     ---       #926
      00FF3E64H   LINE      CODE     ---       #927
      00FF3E71H   LINE      CODE     ---       #928
      00FF3E7EH   LINE      CODE     ---       #929
      00FF3E84H   LINE      CODE     ---       #930
      00FF3E86H   LINE      CODE     ---       #931
      00FF3E8DH   LINE      CODE     ---       #932
      00FF3E8FH   LINE      CODE     ---       #933
      00FF3E9AH   LINE      CODE     ---       #934
      00FF3EA1H   LINE      CODE     ---       #936
      00FF3EACH   LINE      CODE     ---       #938
      00FF3EB4H   LINE      CODE     ---       #939
      00FF3EBCH   LINE      CODE     ---       #940
      00FF3EC4H   LINE      CODE     ---       #941
      00FF3ECBH   LINE      CODE     ---       #942
      00FF3ED6H   LINE      CODE     ---       #943
      00FF3EE1H   LINE      CODE     ---       #944
      00FF3EECH   LINE      CODE     ---       #945
      00FF3EF7H   LINE      CODE     ---       #946
      00FF3EFEH   LINE      CODE     ---       #947
      00FF3F00H   LINE      CODE     ---       #948
      00FF3F07H   LINE      CODE     ---       #949
      00FF3F09H   LINE      CODE     ---       #950
      00FF3F10H   LINE      CODE     ---       #951
      00FF3F12H   LINE      CODE     ---       #952
      00FF3F1FH   LINE      CODE     ---       #953
      00FF3F2AH   LINE      CODE     ---       #955
      00FF3F36H   LINE      CODE     ---       #956
      00FF3F3DH   LINE      CODE     ---       #957
      00FF3F3FH   LINE      CODE     ---       #958
      00FF3F4CH   LINE      CODE     ---       #959
      00FF3F57H   LINE      CODE     ---       #961
      00FF3F63H   LINE      CODE     ---       #962
      00FF3F6AH   LINE      CODE     ---       #963
      00FF3F6CH   LINE      CODE     ---       #964
      00FF3F76H   LINE      CODE     ---       #965
      00FF3F81H   LINE      CODE     ---       #966
      00FF3F8DH   LINE      CODE     ---       #968
      00FF3F8FH   LINE      CODE     ---       #969
      ---         BLOCKEND  ---      ---       LVL=0

      00FF60EBH   BLOCK     CODE     ---       LVL=0
      00FF60EBH   LINE      CODE     ---       #972
      00FF60EBH   LINE      CODE     ---       #974
      00FF60F9H   LINE      CODE     ---       #975
      00FF6106H   LINE      CODE     ---       #976
      00FF6113H   LINE      CODE     ---       #977
      ---         BLOCKEND  ---      ---       LVL=0

      00FF634DH   BLOCK     CODE     ---       LVL=0
      0000040AH   SYMBOL    EDATA    BYTE      b
      00FF634DH   LINE      CODE     ---       #981
      00FF634DH   LINE      CODE     ---       #982
      00FF634DH   LINE      CODE     ---       #983
      00FF6352H   LINE      CODE     ---       #984
      00FF6361H   LINE      CODE     ---       #985
      00FF636CH   LINE      CODE     ---       #987
      ---         BLOCKEND  ---      ---       LVL=0

      00FF6308H   BLOCK     CODE     ---       LVL=0
      00FF6308H   LINE      CODE     ---       #989
      00FF6308H   LINE      CODE     ---       #991
      00FF630BH   LINE      CODE     ---       #992
      00FF6310H   LINE      CODE     ---       #993
L251 LINKER/LOCATER V4.66.93.0                                                        03/21/2024  17:39:21  PAGE 84


      00FF6315H   LINE      CODE     ---       #994
      00FF6320H   LINE      CODE     ---       #995
      ---         BLOCKEND  ---      ---       LVL=0

      00FF3ACAH   BLOCK     CODE     ---       LVL=0
      00FF3ACCH   BLOCK     CODE     NEAR LAB  LVL=1
      000004FDH   SYMBOL    EDATA    BYTE      zd
      000004FEH   SYMBOL    EDATA    WORD      i
      ---         BLOCKEND  ---      ---       LVL=1
      00FF3ACAH   LINE      CODE     ---       #999
      00FF3ACCH   LINE      CODE     ---       #1000
      00FF3ACCH   LINE      CODE     ---       #1004
      00FF3AD3H   LINE      CODE     ---       #1005
      00FF3ADFH   LINE      CODE     ---       #1006
      00FF3AF2H   LINE      CODE     ---       #1008
      00FF3AFDH   LINE      CODE     ---       #1009
      00FF3B00H   LINE      CODE     ---       #1010
      00FF3B08H   LINE      CODE     ---       #1012
      00FF3B1BH   LINE      CODE     ---       #1014
      00FF3B24H   LINE      CODE     ---       #1016
      00FF3B42H   LINE      CODE     ---       #1017
      00FF3B5AH   LINE      CODE     ---       #1018
      00FF3B72H   LINE      CODE     ---       #1019
      00FF3B8AH   LINE      CODE     ---       #1020
      00FF3B8AH   LINE      CODE     ---       #1025
      00FF3BD2H   LINE      CODE     ---       #1026
      00FF3C49H   LINE      CODE     ---       #1027
      00FF3CCDH   LINE      CODE     ---       #1029
      00FF3CE8H   LINE      CODE     ---       #1030
      00FF3CFEH   LINE      CODE     ---       #1032
      00FF3D0EH   LINE      CODE     ---       #1033
      00FF3D2DH   LINE      CODE     ---       #1034
      00FF3D4CH   LINE      CODE     ---       #1036
      00FF3D54H   LINE      CODE     ---       #1038
      00FF3D61H   LINE      CODE     ---       #1040
      ---         BLOCKEND  ---      ---       LVL=0

      ---         MODULE    ---      ---       TOF
      00FF5896H   PUBLIC    CODE     ---       vl53l0x_get_distance
      00FF229EH   PUBLIC    CODE     ---       vl53l0x_init
      000006F6H   PUBLIC    EDATA    WORD      vl53l0x_distance_mm
      000006F8H   PUBLIC    EDATA    BYTE      vl53l0x_finsh_flag
      000000D0H   SFRSYM    DATA     BYTE      PSW
      000000B7H   SFRSYM    DATA     BYTE      IPH
      000000C0H.7 SFRSYM    DATA     BIT       P47
      000000B0H.3 SFRSYM    DATA     BIT       P33
      00000088H   SFRSYM    DATA     BYTE      TCON
      000000B0H.2 SFRSYM    DATA     BIT       P32
      00000098H   SFRSYM    DATA     BYTE      SCON
      000000BCH   SFRSYM    DATA     BYTE      ADC_CONTR
      000000DEH   SFRSYM    DATA     BYTE      ADCCFG
      000000B8H   SFRSYM    DATA     BYTE      IP
      000000A8H   SFRSYM    DATA     BYTE      IE
      000000F8H   SFRSYM    DATA     BYTE      P7
      000000E8H   SFRSYM    DATA     BYTE      P6
      000000C8H   SFRSYM    DATA     BYTE      P5
      000000C0H   SFRSYM    DATA     BYTE      P4
      000000B0H   SFRSYM    DATA     BYTE      P3
      000000A0H   SFRSYM    DATA     BYTE      P2
      00000090H   SFRSYM    DATA     BYTE      P1
      00000080H   SFRSYM    DATA     BYTE      P0
      00FF636DH   SYMBOL    CODE     ---       vl53l0x_simiic_sendack
      00FF5EC6H   SYMBOL    CODE     ---       vl53l0x_timeout_microseconds_to_mclks
      00FF5E4BH   SYMBOL    CODE     ---       vl53l0x_timeout_mclks_to_microseconds
      00FF6275H   SYMBOL    CODE     ---       vl53l0x_set_signal_rate_limit
L251 LINKER/LOCATER V4.66.93.0                                                        03/21/2024  17:39:21  PAGE 85


      00FF5F3EH   SYMBOL    CODE     ---       vl53l0x_read_ch
      00FF64DCH   SYMBOL    CODE     ---       vl53l0x_decode_timeout
      00FF614CH   SYMBOL    CODE     ---       vl53l0x_send_ch
      00FF414FH   SYMBOL    CODE     ---       vl53l0x_get_spad_info
      00FF601EH   SYMBOL    CODE     ---       vl53l0x_encode_timeout
      00FF59A7H   SYMBOL    CODE     ---       vl53l0x_get_sequence_step_enables
      00FF0066H   SYMBOL    CODE     ---       vl53l0x_sccb_waitack
      00FF6551H   SYMBOL    CODE     ---       vl53l0x_simiic_delay
      00FF5542H   SYMBOL    CODE     ---       vl53l0x_perform_single_ref_calibration
      00FF49FDH   SYMBOL    CODE     ---       vl53l0x_get_sequence_step_timeouts
      00FF651AH   SYMBOL    CODE     ---       vl53l0x_simiic_start
      00FF5AA7H   SYMBOL    CODE     ---       vl53l0x_simiic_read_regs
      00FF562FH   SYMBOL    CODE     ---       vl53l0x_get_measurement_timing_budget
      00FF5FE9H   SYMBOL    CODE     ---       vl53l0x_simiic_write_dats
      00FF624CH   SYMBOL    CODE     ---       vl53l0x_simiic_read_reg
      00FF5AFBH   SYMBOL    CODE     ---       vl53l0x_simiic_read_regs_1
      00FF4839H   SYMBOL    CODE     ---       vl53l0x_set_measurement_timing_budget
      00FF64BAH   SYMBOL    CODE     ---       vl53l0x_simiic_stop
      00FF632BH   SYMBOL    CODE     ---       vl53l0x_simiic_write_reg
      00FF5BEDH   SYMBOL    CODE     ---       vl53l0x_get_vcsel_pulse_period

      00FF6551H   BLOCK     CODE     ---       LVL=0
      WR6         REGSYM    ---      WORD      j
      00FF6551H   LINE      CODE     ---       #77
      00FF6551H   LINE      CODE     ---       #78
      00FF6551H   LINE      CODE     ---       #79
      00FF6555H   LINE      CODE     ---       #80
      00FF655DH   LINE      CODE     ---       #81
      ---         BLOCKEND  ---      ---       LVL=0

      00FF651AH   BLOCK     CODE     ---       LVL=0
      00FF651AH   LINE      CODE     ---       #84
      00FF651AH   LINE      CODE     ---       #86
      00FF651CH   LINE      CODE     ---       #87
      00FF651EH   LINE      CODE     ---       #88
      00FF6521H   LINE      CODE     ---       #89
      00FF6523H   LINE      CODE     ---       #90
      00FF6526H   LINE      CODE     ---       #91
      00FF6528H   LINE      CODE     ---       #92
      ---         BLOCKEND  ---      ---       LVL=0

      00FF64BAH   BLOCK     CODE     ---       LVL=0
      00FF64BAH   LINE      CODE     ---       #95
      00FF64BAH   LINE      CODE     ---       #97
      00FF64BCH   LINE      CODE     ---       #98
      00FF64BEH   LINE      CODE     ---       #99
      00FF64C1H   LINE      CODE     ---       #100
      00FF64C3H   LINE      CODE     ---       #101
      00FF64C6H   LINE      CODE     ---       #102
      00FF64C8H   LINE      CODE     ---       #103
      ---         BLOCKEND  ---      ---       LVL=0

      00FF636DH   BLOCK     CODE     ---       LVL=0
      R15         REGSYM    ---      BYTE      ack_dat
      00FF636DH   LINE      CODE     ---       #108
      00FF6371H   LINE      CODE     ---       #110
      00FF6373H   LINE      CODE     ---       #111
      00FF6376H   LINE      CODE     ---       #112
      00FF637EH   LINE      CODE     ---       #113
      00FF6380H   LINE      CODE     ---       #115
      00FF6382H   LINE      CODE     ---       #116
      00FF6385H   LINE      CODE     ---       #117
      00FF6387H   LINE      CODE     ---       #118
      00FF638AH   LINE      CODE     ---       #119
      ---         BLOCKEND  ---      ---       LVL=0
L251 LINKER/LOCATER V4.66.93.0                                                        03/21/2024  17:39:21  PAGE 86



      00FF0066H   BLOCK     CODE     ---       LVL=0
      00FF0066H   LINE      CODE     ---       #122
      00FF0066H   LINE      CODE     ---       #124
      00FF0068H   LINE      CODE     ---       #126
      00FF006BH   LINE      CODE     ---       #128
      00FF006DH   LINE      CODE     ---       #129
      00FF0070H   LINE      CODE     ---       #131
      00FF0073H   LINE      CODE     ---       #134
      00FF0075H   LINE      CODE     ---       #135
      00FF0078H   LINE      CODE     ---       #136
      00FF0078H   LINE      CODE     ---       #138
      00FF007AH   LINE      CODE     ---       #139
      00FF007DH   LINE      CODE     ---       #140
      00FF0081H   LINE      CODE     ---       #141
      ---         BLOCKEND  ---      ---       LVL=0

      00FF614CH   BLOCK     CODE     ---       LVL=0
      R15         REGSYM    ---      BYTE      c
      00FF6150H   BLOCK     CODE     NEAR LAB  LVL=1
      R14         REGSYM    ---      BYTE      i
      ---         BLOCKEND  ---      ---       LVL=1
      00FF614CH   LINE      CODE     ---       #147
      00FF6150H   LINE      CODE     ---       #148
      00FF6150H   LINE      CODE     ---       #149
      00FF6153H   LINE      CODE     ---       #150
      00FF6155H   LINE      CODE     ---       #152
      00FF615EH   LINE      CODE     ---       #153
      00FF6160H   LINE      CODE     ---       #154
      00FF6162H   LINE      CODE     ---       #155
      00FF6165H   LINE      CODE     ---       #156
      00FF6167H   LINE      CODE     ---       #157
      00FF616AH   LINE      CODE     ---       #158
      00FF616CH   LINE      CODE     ---       #159
      00FF6174H   LINE      CODE     ---       #160
      00FF6177H   LINE      CODE     ---       #161
      ---         BLOCKEND  ---      ---       LVL=0

      00FF5F3EH   BLOCK     CODE     ---       LVL=0
      R15         REGSYM    ---      BYTE      ack_x
      00FF5F44H   BLOCK     CODE     NEAR LAB  LVL=1
      R13         REGSYM    ---      BYTE      i
      R14         REGSYM    ---      BYTE      c
      ---         BLOCKEND  ---      ---       LVL=1
      00FF5F3EH   LINE      CODE     ---       #167
      00FF5F44H   LINE      CODE     ---       #168
      00FF5F44H   LINE      CODE     ---       #171
      00FF5F46H   LINE      CODE     ---       #172
      00FF5F48H   LINE      CODE     ---       #173
      00FF5F4BH   LINE      CODE     ---       #174
      00FF5F4DH   LINE      CODE     ---       #176
      00FF5F50H   LINE      CODE     ---       #178
      00FF5F53H   LINE      CODE     ---       #179
      00FF5F55H   LINE      CODE     ---       #180
      00FF5F58H   LINE      CODE     ---       #181
      00FF5F5AH   LINE      CODE     ---       #182
      00FF5F5DH   LINE      CODE     ---       #183
      00FF5F5FH   LINE      CODE     ---       #184
      00FF5F62H   LINE      CODE     ---       #186
      00FF5F64H   LINE      CODE     ---       #187
      00FF5F68H   LINE      CODE     ---       #190
      00FF5F6AH   LINE      CODE     ---       #191
      00FF5F6DH   LINE      CODE     ---       #192
      00FF5F72H   LINE      CODE     ---       #194
      00FF5F74H   LINE      CODE     ---       #195
L251 LINKER/LOCATER V4.66.93.0                                                        03/21/2024  17:39:21  PAGE 87


      ---         BLOCKEND  ---      ---       LVL=0

      00FF5FE9H   BLOCK     CODE     ---       LVL=0
      0000043FH   SYMBOL    EDATA    BYTE      dev_add
      00000440H   SYMBOL    EDATA    ---       dat
      DR12        REGSYM    ---      DWORD     len
      00FF5FE9H   LINE      CODE     ---       #207
      00FF5FF5H   LINE      CODE     ---       #209
      00FF5FF8H   LINE      CODE     ---       #210
      00FF5FFEH   LINE      CODE     ---       #211
      00FF6000H   LINE      CODE     ---       #213
      00FF6010H   LINE      CODE     ---       #214
      00FF6018H   LINE      CODE     ---       #217
      00FF601BH   LINE      CODE     ---       #218
      ---         BLOCKEND  ---      ---       LVL=0

      00FF632BH   BLOCK     CODE     ---       LVL=0
      R13         REGSYM    ---      BYTE      dev_add
      R14         REGSYM    ---      BYTE      reg
      R15         REGSYM    ---      BYTE      dat
      00FF632BH   LINE      CODE     ---       #230
      00FF6333H   LINE      CODE     ---       #232
      00FF6336H   LINE      CODE     ---       #233
      00FF633BH   LINE      CODE     ---       #234
      00FF6340H   LINE      CODE     ---       #235
      00FF6345H   LINE      CODE     ---       #236
      00FF6348H   LINE      CODE     ---       #237
      ---         BLOCKEND  ---      ---       LVL=0

      00FF624CH   BLOCK     CODE     ---       LVL=0
      R15         REGSYM    ---      BYTE      dev_add
      R14         REGSYM    ---      BYTE      reg
      00FF6252H   BLOCK     CODE     NEAR LAB  LVL=1
      R15         REGSYM    ---      BYTE      dat
      ---         BLOCKEND  ---      ---       LVL=1
      00FF624CH   LINE      CODE     ---       #248
      00FF6252H   LINE      CODE     ---       #249
      00FF6252H   LINE      CODE     ---       #251
      00FF6255H   LINE      CODE     ---       #252
      00FF625AH   LINE      CODE     ---       #253
      00FF625FH   LINE      CODE     ---       #256
      00FF6262H   LINE      CODE     ---       #257
      00FF626BH   LINE      CODE     ---       #258
      00FF626FH   LINE      CODE     ---       #259
      00FF6272H   LINE      CODE     ---       #261
      00FF6272H   LINE      CODE     ---       #262
      ---         BLOCKEND  ---      ---       LVL=0

      00FF5AA7H   BLOCK     CODE     ---       LVL=0
      00000446H   SYMBOL    EDATA    BYTE      dev_add
      00000447H   SYMBOL    EDATA    BYTE      reg
      REG=3       REGSYM    ---      ---       dat_add
      00000448H   SYMBOL    EDATA    DWORD     num
      00FF5AA7H   LINE      CODE     ---       #275
      00FF5AB3H   LINE      CODE     ---       #277
      00FF5AB6H   LINE      CODE     ---       #278
      00FF5ABFH   LINE      CODE     ---       #279
      00FF5AC6H   LINE      CODE     ---       #282
      00FF5AC9H   LINE      CODE     ---       #283
      00FF5AD4H   LINE      CODE     ---       #284
      00FF5AD6H   LINE      CODE     ---       #286
      00FF5ADEH   LINE      CODE     ---       #287
      00FF5AE0H   LINE      CODE     ---       #288
      00FF5AEEH   LINE      CODE     ---       #289
      00FF5AF5H   LINE      CODE     ---       #290
L251 LINKER/LOCATER V4.66.93.0                                                        03/21/2024  17:39:21  PAGE 88


      00FF5AF8H   LINE      CODE     ---       #291
      ---         BLOCKEND  ---      ---       LVL=0

      00FF5AFBH   BLOCK     CODE     ---       LVL=0
      0000040DH   SYMBOL    EDATA    BYTE      dev_add
      0000040EH   SYMBOL    EDATA    BYTE      reg
      REG=3       REGSYM    ---      ---       dat_add
      0000040FH   SYMBOL    EDATA    DWORD     num
      00FF5AFBH   LINE      CODE     ---       #304
      00FF5B07H   LINE      CODE     ---       #306
      00FF5B0AH   LINE      CODE     ---       #307
      00FF5B13H   LINE      CODE     ---       #308
      00FF5B1AH   LINE      CODE     ---       #311
      00FF5B1DH   LINE      CODE     ---       #312
      00FF5B28H   LINE      CODE     ---       #313
      00FF5B2AH   LINE      CODE     ---       #315
      00FF5B32H   LINE      CODE     ---       #316
      00FF5B34H   LINE      CODE     ---       #317
      00FF5B42H   LINE      CODE     ---       #318
      00FF5B49H   LINE      CODE     ---       #319
      00FF5B4CH   LINE      CODE     ---       #320
      ---         BLOCKEND  ---      ---       LVL=0

      00FF414FH   BLOCK     CODE     ---       LVL=0
      0000041CH   SYMBOL    EDATA    ---       index
      REG=3       REGSYM    ---      ---       type_is_aperture
      00FF4157H   BLOCK     CODE     NEAR LAB  LVL=1
      00000420H   SYMBOL    EDATA    BYTE      tmp
      00000421H   SYMBOL    EDATA    BYTE      return_state
      00000422H   SYMBOL    EDATA    WORD      loop_count
      ---         BLOCKEND  ---      ---       LVL=1
      00FF414FH   LINE      CODE     ---       #352
      00FF4157H   LINE      CODE     ---       #353
      00FF4157H   LINE      CODE     ---       #354
      00FF415CH   LINE      CODE     ---       #355
      00FF4160H   LINE      CODE     ---       #356
      00FF4166H   LINE      CODE     ---       #358
      00FF4166H   LINE      CODE     ---       #360
      00FF4171H   LINE      CODE     ---       #361
      00FF417CH   LINE      CODE     ---       #362
      00FF4185H   LINE      CODE     ---       #364
      00FF4190H   LINE      CODE     ---       #365
      00FF41A4H   LINE      CODE     ---       #366
      00FF41B3H   LINE      CODE     ---       #367
      00FF41BEH   LINE      CODE     ---       #368
      00FF41C9H   LINE      CODE     ---       #370
      00FF41D4H   LINE      CODE     ---       #372
      00FF41DFH   LINE      CODE     ---       #373
      00FF41E9H   LINE      CODE     ---       #375
      00FF41EEH   LINE      CODE     ---       #376
      00FF41F0H   LINE      CODE     ---       #378
      00FF4204H   LINE      CODE     ---       #379
      00FF420EH   LINE      CODE     ---       #380
      00FF4218H   LINE      CODE     ---       #382
      00FF421EH   LINE      CODE     ---       #383
      00FF4220H   LINE      CODE     ---       #384
      00FF4227H   LINE      CODE     ---       #387
      00FF4230H   LINE      CODE     ---       #389
      00FF4230H   LINE      CODE     ---       #390
      00FF4230H   LINE      CODE     ---       #391
      00FF423BH   LINE      CODE     ---       #392
      00FF424FH   LINE      CODE     ---       #394
      00FF425CH   LINE      CODE     ---       #395
      00FF4266H   LINE      CODE     ---       #397
      00FF4270H   LINE      CODE     ---       #398
L251 LINKER/LOCATER V4.66.93.0                                                        03/21/2024  17:39:21  PAGE 89


      00FF427BH   LINE      CODE     ---       #399
      00FF428FH   LINE      CODE     ---       #400
      00FF429BH   LINE      CODE     ---       #401
      00FF42A6H   LINE      CODE     ---       #402
      00FF42B0H   LINE      CODE     ---       #404
      00FF42BAH   LINE      CODE     ---       #405
      00FF42C4H   LINE      CODE     ---       #406
      00FF42C4H   LINE      CODE     ---       #408
      00FF42C8H   LINE      CODE     ---       #409
      ---         BLOCKEND  ---      ---       LVL=0

      00FF5E4BH   BLOCK     CODE     ---       LVL=0
      WR30        REGSYM    ---      WORD      timeout_period_mclks
      R5          REGSYM    ---      BYTE      vcsel_period_pclks
      00FF5E4DH   BLOCK     CODE     NEAR LAB  LVL=1
      DR24        REGSYM    ---      DWORD     macro_period_ns
      ---         BLOCKEND  ---      ---       LVL=1
      00FF5E4BH   LINE      CODE     ---       #419
      00FF5E4DH   LINE      CODE     ---       #420
      00FF5E4DH   LINE      CODE     ---       #421
      00FF5E6EH   LINE      CODE     ---       #423
      ---         BLOCKEND  ---      ---       LVL=0

      00FF5EC6H   BLOCK     CODE     ---       LVL=0
      DR28        REGSYM    ---      DWORD     timeout_period_us
      R3          REGSYM    ---      BYTE      vcsel_period_pclks
      00FF5EC8H   BLOCK     CODE     NEAR LAB  LVL=1
      DR8         REGSYM    ---      DWORD     macro_period_ns
      ---         BLOCKEND  ---      ---       LVL=1
      00FF5EC6H   LINE      CODE     ---       #434
      00FF5EC8H   LINE      CODE     ---       #435
      00FF5EC8H   LINE      CODE     ---       #436
      00FF5EE9H   LINE      CODE     ---       #438
      ---         BLOCKEND  ---      ---       LVL=0

      00FF64DCH   BLOCK     CODE     ---       LVL=0
      WR4         REGSYM    ---      WORD      reg_val
      00FF64DCH   LINE      CODE     ---       #448
      00FF64DEH   LINE      CODE     ---       #451
      00FF64EBH   LINE      CODE     ---       #453
      ---         BLOCKEND  ---      ---       LVL=0

      00FF601EH   BLOCK     CODE     ---       LVL=0
      WR2         REGSYM    ---      WORD      timeout_mclks
      00FF6020H   BLOCK     CODE     NEAR LAB  LVL=1
      DR8         REGSYM    ---      DWORD     ls_byte
      WR4         REGSYM    ---      WORD      ms_byte
      WR6         REGSYM    ---      WORD      return_data
      ---         BLOCKEND  ---      ---       LVL=1
      00FF601EH   LINE      CODE     ---       #462
      00FF6020H   LINE      CODE     ---       #463
      00FF6020H   LINE      CODE     ---       #464
      00FF6020H   LINE      CODE     ---       #465
      00FF6024H   LINE      CODE     ---       #466
      00FF6024H   LINE      CODE     ---       #468
      00FF602AH   LINE      CODE     ---       #471
      00FF6030H   LINE      CODE     ---       #472
      00FF6032H   LINE      CODE     ---       #474
      00FF603BH   LINE      CODE     ---       #475
      00FF603DH   LINE      CODE     ---       #476
      00FF6047H   LINE      CODE     ---       #477
      00FF6051H   LINE      CODE     ---       #478
      00FF6051H   LINE      CODE     ---       #479
      00FF6051H   LINE      CODE     ---       #480
      ---         BLOCKEND  ---      ---       LVL=0
L251 LINKER/LOCATER V4.66.93.0                                                        03/21/2024  17:39:21  PAGE 90



      00FF59A7H   BLOCK     CODE     ---       LVL=0
      REG=3       REGSYM    ---      ---       enables
      00FF59ABH   BLOCK     CODE     NEAR LAB  LVL=1
      0000043FH   SYMBOL    EDATA    BYTE      sequence_config
      ---         BLOCKEND  ---      ---       LVL=1
      00FF59A7H   LINE      CODE     ---       #489
      00FF59ABH   LINE      CODE     ---       #490
      00FF59ABH   LINE      CODE     ---       #491
      00FF59B0H   LINE      CODE     ---       #492
      00FF59C1H   LINE      CODE     ---       #494
      00FF59CBH   LINE      CODE     ---       #495
      00FF59D7H   LINE      CODE     ---       #496
      00FF59E5H   LINE      CODE     ---       #497
      00FF59F1H   LINE      CODE     ---       #498
      00FF59FCH   LINE      CODE     ---       #499
      ---         BLOCKEND  ---      ---       LVL=0

      00FF5BEDH   BLOCK     CODE     ---       LVL=0
      WR6         REGSYM    ---      INT       type
      00000445H   SYMBOL    EDATA    BYTE      data_buffer
      00FF5BEDH   LINE      CODE     ---       #508
      00FF5BEDH   LINE      CODE     ---       #509
      00FF5BEDH   LINE      CODE     ---       #510
      00FF5BF2H   LINE      CODE     ---       #511
      00FF5BF6H   LINE      CODE     ---       #513
      00FF5C03H   LINE      CODE     ---       #514
      00FF5C03H   LINE      CODE     ---       #515
      00FF5C05H   LINE      CODE     ---       #516
      00FF5C0BH   LINE      CODE     ---       #518
      00FF5C1FH   LINE      CODE     ---       #519
      00FF5C2DH   LINE      CODE     ---       #520
      00FF5C2FH   LINE      CODE     ---       #523
      00FF5C35H   LINE      CODE     ---       #524
      00FF5C35H   LINE      CODE     ---       #525
      00FF5C39H   LINE      CODE     ---       #526
      ---         BLOCKEND  ---      ---       LVL=0

      00FF49FDH   BLOCK     CODE     ---       LVL=0
      0000043FH   SYMBOL    EDATA    ---       enables
      REG=3       REGSYM    ---      ---       timeouts
      00FF4A05H   BLOCK     CODE     NEAR LAB  LVL=1
      00000443H   SYMBOL    EDATA    ---       reg_buffer
      WR6         REGSYM    ---      WORD      reg16_buffer
      ---         BLOCKEND  ---      ---       LVL=1
      00FF49FDH   LINE      CODE     ---       #536
      00FF4A05H   LINE      CODE     ---       #537
      00FF4A05H   LINE      CODE     ---       #539
      00FF4A05H   LINE      CODE     ---       #541
      00FF4A0FH   LINE      CODE     ---       #543
      00FF4A23H   LINE      CODE     ---       #544
      00FF4A2FH   LINE      CODE     ---       #545
      00FF4A3DH   LINE      CODE     ---       #547
      00FF4A51H   LINE      CODE     ---       #548
      00FF4A5DH   LINE      CODE     ---       #549
      00FF4A64H   LINE      CODE     ---       #550
      00FF4A72H   LINE      CODE     ---       #552
      00FF4A7FH   LINE      CODE     ---       #554
      00FF4A93H   LINE      CODE     ---       #555
      00FF4A9FH   LINE      CODE     ---       #556
      00FF4AA6H   LINE      CODE     ---       #558
      00FF4AB0H   LINE      CODE     ---       #560
      00FF4AC2H   LINE      CODE     ---       #561
      00FF4AC2H   LINE      CODE     ---       #563
      00FF4AD5H   LINE      CODE     ---       #564
L251 LINKER/LOCATER V4.66.93.0                                                        03/21/2024  17:39:21  PAGE 91


      ---         BLOCKEND  ---      ---       LVL=0

      00FF5542H   BLOCK     CODE     ---       LVL=0
      R10         REGSYM    ---      BYTE      vhv_init_byte
      00FF5546H   BLOCK     CODE     NEAR LAB  LVL=1
      R15         REGSYM    ---      BYTE      return_state
      0000041CH   SYMBOL    EDATA    BYTE      data_buffer
      0000041DH   SYMBOL    EDATA    WORD      loop_count
      ---         BLOCKEND  ---      ---       LVL=1
      00FF5542H   LINE      CODE     ---       #573
      00FF5546H   LINE      CODE     ---       #574
      00FF5546H   LINE      CODE     ---       #575
      00FF5548H   LINE      CODE     ---       #576
      00FF554DH   LINE      CODE     ---       #577
      00FF5553H   LINE      CODE     ---       #578
      00FF5553H   LINE      CODE     ---       #580
      00FF555DH   LINE      CODE     ---       #581
      00FF555DH   LINE      CODE     ---       #582
      00FF555FH   LINE      CODE     ---       #584
      00FF5569H   LINE      CODE     ---       #586
      00FF556CH   LINE      CODE     ---       #587
      00FF556EH   LINE      CODE     ---       #588
      00FF556EH   LINE      CODE     ---       #589
      00FF5580H   LINE      CODE     ---       #591
      00FF5594H   LINE      CODE     ---       #592
      00FF559CH   LINE      CODE     ---       #594
      00FF55A0H   LINE      CODE     ---       #596
      00FF55A0H   LINE      CODE     ---       #597
      00FF55A0H   LINE      CODE     ---       #598
      00FF55ABH   LINE      CODE     ---       #599
      00FF55B4H   LINE      CODE     ---       #600
      00FF55B4H   LINE      CODE     ---       #602
      00FF55B6H   LINE      CODE     ---       #603
      ---         BLOCKEND  ---      ---       LVL=0

      00FF4839H   BLOCK     CODE     ---       LVL=0
      DR12        REGSYM    ---      DWORD     budget_us
      00FF483DH   BLOCK     CODE     NEAR LAB  LVL=1
      0000041CH   SYMBOL    EDATA    BYTE      return_state
      0000041DH   SYMBOL    EDATA    ---       data_buffer
      WR6         REGSYM    ---      WORD      dat
      00000420H   SYMBOL    EDATA    DWORD     used_budget_us
      DR4         REGSYM    ---      DWORD     final_range_timeout_us
      WR6         REGSYM    ---      WORD      final_range_timeout_mclks
      00000424H   SYMBOL    EDATA    ---       enables
      00000429H   SYMBOL    EDATA    ---       timeouts
      ---         BLOCKEND  ---      ---       LVL=1
      00FF4839H   LINE      CODE     ---       #616
      00FF483DH   LINE      CODE     ---       #617
      00FF483DH   LINE      CODE     ---       #618
      00FF4842H   LINE      CODE     ---       #620
      00FF4842H   LINE      CODE     ---       #628
      00FF4842H   LINE      CODE     ---       #630
      00FF4848H   LINE      CODE     ---       #632
      00FF4848H   LINE      CODE     ---       #633
      00FF484BH   LINE      CODE     ---       #634
      00FF484BH   LINE      CODE     ---       #636
      00FF4853H   LINE      CODE     ---       #637
      00FF485AH   LINE      CODE     ---       #638
      00FF4865H   LINE      CODE     ---       #640
      00FF486BH   LINE      CODE     ---       #642
      00FF487BH   LINE      CODE     ---       #643
      00FF487BH   LINE      CODE     ---       #645
      00FF4881H   LINE      CODE     ---       #647
      00FF488DH   LINE      CODE     ---       #648
L251 LINKER/LOCATER V4.66.93.0                                                        03/21/2024  17:39:21  PAGE 92


      00FF488FH   LINE      CODE     ---       #649
      00FF4895H   LINE      CODE     ---       #651
      00FF48A7H   LINE      CODE     ---       #652
      00FF48A7H   LINE      CODE     ---       #654
      00FF48ADH   LINE      CODE     ---       #656
      00FF48BFH   LINE      CODE     ---       #657
      00FF48BFH   LINE      CODE     ---       #659
      00FF48C5H   LINE      CODE     ---       #664
      00FF48D1H   LINE      CODE     ---       #665
      00FF48D9H   LINE      CODE     ---       #668
      00FF48DFH   LINE      CODE     ---       #669
      00FF48E1H   LINE      CODE     ---       #670
      00FF48E1H   LINE      CODE     ---       #675
      00FF48E5H   LINE      CODE     ---       #676
      00FF48ECH   LINE      CODE     ---       #680
      00FF48F2H   LINE      CODE     ---       #682
      00FF48F8H   LINE      CODE     ---       #683
      00FF48F8H   LINE      CODE     ---       #685
      00FF48FBH   LINE      CODE     ---       #686
      00FF4901H   LINE      CODE     ---       #687
      00FF4905H   LINE      CODE     ---       #688
      00FF4909H   LINE      CODE     ---       #689
      00FF4916H   LINE      CODE     ---       #690
      00FF4916H   LINE      CODE     ---       #692
      00FF491AH   LINE      CODE     ---       #693
      ---         BLOCKEND  ---      ---       LVL=0

      00FF562FH   BLOCK     CODE     ---       LVL=0
      00FF5631H   BLOCK     CODE     NEAR LAB  LVL=1
      0000041CH   SYMBOL    EDATA    ---       enables
      00000421H   SYMBOL    EDATA    ---       timeouts
      DR12        REGSYM    ---      DWORD     budget_us
      ---         BLOCKEND  ---      ---       LVL=1
      00FF562FH   LINE      CODE     ---       #702
      00FF5631H   LINE      CODE     ---       #703
      00FF5631H   LINE      CODE     ---       #708
      00FF5635H   LINE      CODE     ---       #710
      00FF563CH   LINE      CODE     ---       #711
      00FF5647H   LINE      CODE     ---       #713
      00FF564DH   LINE      CODE     ---       #715
      00FF5659H   LINE      CODE     ---       #716
      00FF5659H   LINE      CODE     ---       #718
      00FF565FH   LINE      CODE     ---       #720
      00FF566BH   LINE      CODE     ---       #721
      00FF566DH   LINE      CODE     ---       #722
      00FF5673H   LINE      CODE     ---       #724
      00FF567DH   LINE      CODE     ---       #725
      00FF567DH   LINE      CODE     ---       #727
      00FF5683H   LINE      CODE     ---       #729
      00FF568DH   LINE      CODE     ---       #730
      00FF568DH   LINE      CODE     ---       #732
      00FF5693H   LINE      CODE     ---       #734
      00FF569DH   LINE      CODE     ---       #735
      00FF569DH   LINE      CODE     ---       #737
      00FF569FH   LINE      CODE     ---       #738
      ---         BLOCKEND  ---      ---       LVL=0

      00FF6275H   BLOCK     CODE     ---       LVL=0
      DR4         REGSYM    ---      FLOAT     limit_mcps
      0000041CH   SYMBOL    EDATA    ---       data_buffer
      WR6         REGSYM    ---      WORD      limit_mcps_16bit
      00FF6275H   LINE      CODE     ---       #751
      00FF6275H   LINE      CODE     ---       #752
      00FF6275H   LINE      CODE     ---       #754
      00FF6281H   LINE      CODE     ---       #758
L251 LINKER/LOCATER V4.66.93.0                                                        03/21/2024  17:39:21  PAGE 93


      00FF6287H   LINE      CODE     ---       #759
      00FF628BH   LINE      CODE     ---       #760
      00FF628FH   LINE      CODE     ---       #762
      ---         BLOCKEND  ---      ---       LVL=0

      00FF5896H   BLOCK     CODE     ---       LVL=0
      0000040AH   SYMBOL    EDATA    ---       reg_databuffer
      00FF5896H   LINE      CODE     ---       #772
      00FF5896H   LINE      CODE     ---       #773
      00FF5896H   LINE      CODE     ---       #776
      00FF58AAH   LINE      CODE     ---       #777
      00FF58B2H   LINE      CODE     ---       #779
      00FF58B3H   LINE      CODE     ---       #780
      00FF58B5H   LINE      CODE     ---       #784
      00FF58C9H   LINE      CODE     ---       #785
      00FF58D3H   LINE      CODE     ---       #786
      00FF58E1H   LINE      CODE     ---       #788
      00FF58ECH   LINE      CODE     ---       #789
      00FF58F2H   LINE      CODE     ---       #790
      00FF58F2H   LINE      CODE     ---       #791
      ---         BLOCKEND  ---      ---       LVL=0

      00FF229EH   BLOCK     CODE     ---       LVL=0
      00FF22A2H   BLOCK     CODE     NEAR LAB  LVL=1
      0000040AH   SYMBOL    EDATA    DWORD     measurement_timing_budget_us
      0000040EH   SYMBOL    EDATA    BYTE      stop_variable
      R15         REGSYM    ---      BYTE      return_state
      R14         REGSYM    ---      BYTE      reg_data_buffer
      0000040FH   SYMBOL    EDATA    ---       ref_spad_map
      00000415H   SYMBOL    EDATA    ---       data_buffer
      R13         REGSYM    ---      BYTE      i
      ---         BLOCKEND  ---      ---       LVL=1
      00FF229EH   LINE      CODE     ---       #800
      00FF22A2H   LINE      CODE     ---       #801
      00FF22A2H   LINE      CODE     ---       #802
      00FF22A2H   LINE      CODE     ---       #803
      00FF22A7H   LINE      CODE     ---       #804
      00FF22A9H   LINE      CODE     ---       #805
      00FF22A9H   LINE      CODE     ---       #808
      00FF22A9H   LINE      CODE     ---       #810
      00FF22B4H   LINE      CODE     ---       #811
      00FF22C0H   LINE      CODE     ---       #815
      00FF22C0H   LINE      CODE     ---       #817
      00FF22C7H   LINE      CODE     ---       #818
      00FF22C9H   LINE      CODE     ---       #819
      00FF22D0H   LINE      CODE     ---       #820
      00FF22D2H   LINE      CODE     ---       #821
      00FF22D9H   LINE      CODE     ---       #824
      00FF22E3H   LINE      CODE     ---       #825
      00FF22F0H   LINE      CODE     ---       #827
      00FF22FAH   LINE      CODE     ---       #829
      00FF2305H   LINE      CODE     ---       #830
      00FF2310H   LINE      CODE     ---       #831
      00FF2319H   LINE      CODE     ---       #833
      00FF232DH   LINE      CODE     ---       #835
      00FF2337H   LINE      CODE     ---       #836
      00FF2341H   LINE      CODE     ---       #837
      00FF234BH   LINE      CODE     ---       #840
      00FF2355H   LINE      CODE     ---       #841
      00FF2362H   LINE      CODE     ---       #843
      00FF236BH   LINE      CODE     ---       #844
      00FF2376H   LINE      CODE     ---       #848
      00FF2383H   LINE      CODE     ---       #850
      00FF2386H   LINE      CODE     ---       #855
      00FF2391H   LINE      CODE     ---       #856
L251 LINKER/LOCATER V4.66.93.0                                                        03/21/2024  17:39:21  PAGE 94


      00FF2394H   LINE      CODE     ---       #857
      00FF2394H   LINE      CODE     ---       #860
      00FF23A8H   LINE      CODE     ---       #862
      00FF23B3H   LINE      CODE     ---       #863
      00FF23BDH   LINE      CODE     ---       #864
      00FF23C8H   LINE      CODE     ---       #865
      00FF23D2H   LINE      CODE     ---       #866
      00FF23DDH   LINE      CODE     ---       #868
      00FF23EEH   LINE      CODE     ---       #869
      00FF23F0H   LINE      CODE     ---       #871
      00FF2402H   LINE      CODE     ---       #876
      00FF2430H   LINE      CODE     ---       #877
      00FF2432H   LINE      CODE     ---       #878
      00FF2455H   LINE      CODE     ---       #880
      00FF245EH   LINE      CODE     ---       #881
      00FF2465H   LINE      CODE     ---       #884
      00FF246BH   LINE      CODE     ---       #885
      00FF246EH   LINE      CODE     ---       #887
      00FF2478H   LINE      CODE     ---       #888
      00FF247FH   LINE      CODE     ---       #889
      00FF248CH   LINE      CODE     ---       #892
      00FF2497H   LINE      CODE     ---       #893
      00FF24A0H   LINE      CODE     ---       #894
      00FF24AAH   LINE      CODE     ---       #895
      00FF24B4H   LINE      CODE     ---       #896
      00FF24BEH   LINE      CODE     ---       #897
      00FF24C8H   LINE      CODE     ---       #898
      00FF24D3H   LINE      CODE     ---       #899
      00FF24DEH   LINE      CODE     ---       #900
      00FF24E8H   LINE      CODE     ---       #901
      00FF24F3H   LINE      CODE     ---       #902
      00FF24FEH   LINE      CODE     ---       #903
      00FF2508H   LINE      CODE     ---       #904
      00FF2513H   LINE      CODE     ---       #905
      00FF251DH   LINE      CODE     ---       #906
      00FF2528H   LINE      CODE     ---       #907
      00FF2532H   LINE      CODE     ---       #908
      00FF253DH   LINE      CODE     ---       #909
      00FF2548H   LINE      CODE     ---       #910
      00FF2553H   LINE      CODE     ---       #911
      00FF255EH   LINE      CODE     ---       #912
      00FF2568H   LINE      CODE     ---       #913
      00FF2572H   LINE      CODE     ---       #914
      00FF257DH   LINE      CODE     ---       #915
      00FF2587H   LINE      CODE     ---       #916
      00FF2592H   LINE      CODE     ---       #917
      00FF259DH   LINE      CODE     ---       #918
      00FF25A8H   LINE      CODE     ---       #919
      00FF25B2H   LINE      CODE     ---       #920
      00FF25BCH   LINE      CODE     ---       #921
      00FF25C6H   LINE      CODE     ---       #922
      00FF25D0H   LINE      CODE     ---       #923
      00FF25DBH   LINE      CODE     ---       #924
      00FF25E6H   LINE      CODE     ---       #925
      00FF25F1H   LINE      CODE     ---       #926
      00FF25FCH   LINE      CODE     ---       #927
      00FF2607H   LINE      CODE     ---       #928
      00FF2611H   LINE      CODE     ---       #929
      00FF261BH   LINE      CODE     ---       #930
      00FF2626H   LINE      CODE     ---       #931
      00FF2630H   LINE      CODE     ---       #932
      00FF263BH   LINE      CODE     ---       #933
      00FF2646H   LINE      CODE     ---       #934
      00FF2651H   LINE      CODE     ---       #935
      00FF265BH   LINE      CODE     ---       #936
L251 LINKER/LOCATER V4.66.93.0                                                        03/21/2024  17:39:21  PAGE 95


      00FF2666H   LINE      CODE     ---       #937
      00FF2671H   LINE      CODE     ---       #938
      00FF267CH   LINE      CODE     ---       #939
      00FF2687H   LINE      CODE     ---       #940
      00FF2692H   LINE      CODE     ---       #941
      00FF269DH   LINE      CODE     ---       #942
      00FF26A8H   LINE      CODE     ---       #943
      00FF26B2H   LINE      CODE     ---       #944
      00FF26BDH   LINE      CODE     ---       #945
      00FF26C8H   LINE      CODE     ---       #946
      00FF26D3H   LINE      CODE     ---       #947
      00FF26DEH   LINE      CODE     ---       #948
      00FF26E9H   LINE      CODE     ---       #949
      00FF26F4H   LINE      CODE     ---       #950
      00FF26FFH   LINE      CODE     ---       #951
      00FF2709H   LINE      CODE     ---       #952
      00FF2713H   LINE      CODE     ---       #953
      00FF271EH   LINE      CODE     ---       #954
      00FF2729H   LINE      CODE     ---       #955
      00FF2734H   LINE      CODE     ---       #956
      00FF273EH   LINE      CODE     ---       #957
      00FF2749H   LINE      CODE     ---       #958
      00FF2754H   LINE      CODE     ---       #959
      00FF275FH   LINE      CODE     ---       #960
      00FF2769H   LINE      CODE     ---       #961
      00FF2773H   LINE      CODE     ---       #962
      00FF277EH   LINE      CODE     ---       #963
      00FF2789H   LINE      CODE     ---       #964
      00FF2793H   LINE      CODE     ---       #965
      00FF279EH   LINE      CODE     ---       #966
      00FF27A9H   LINE      CODE     ---       #967
      00FF27B4H   LINE      CODE     ---       #968
      00FF27BFH   LINE      CODE     ---       #969
      00FF27C9H   LINE      CODE     ---       #970
      00FF27D3H   LINE      CODE     ---       #971
      00FF27DDH   LINE      CODE     ---       #974
      00FF27E8H   LINE      CODE     ---       #975
      00FF27F2H   LINE      CODE     ---       #976
      00FF27FFH   LINE      CODE     ---       #977
      00FF280AH   LINE      CODE     ---       #979
      00FF2811H   LINE      CODE     ---       #984
      00FF281CH   LINE      CODE     ---       #985
      00FF2823H   LINE      CODE     ---       #988
      00FF282EH   LINE      CODE     ---       #989
      00FF2835H   LINE      CODE     ---       #991
      00FF2835H   LINE      CODE     ---       #992
      00FF2837H   LINE      CODE     ---       #993
      00FF2837H   LINE      CODE     ---       #994
      00FF2842H   LINE      CODE     ---       #995
      00FF2848H   LINE      CODE     ---       #997
      00FF284BH   LINE      CODE     ---       #998
      00FF284DH   LINE      CODE     ---       #999
      00FF284DH   LINE      CODE     ---       #1000
      00FF2858H   LINE      CODE     ---       #1002
      00FF285FH   LINE      CODE     ---       #1004
      00FF286AH   LINE      CODE     ---       #1005
      00FF2875H   LINE      CODE     ---       #1006
      00FF287EH   LINE      CODE     ---       #1007
      00FF288AH   LINE      CODE     ---       #1008
      00FF2894H   LINE      CODE     ---       #1009
      00FF289EH   LINE      CODE     ---       #1010
      00FF28A8H   LINE      CODE     ---       #1012
      00FF28B2H   LINE      CODE     ---       #1013
      00FF28B2H   LINE      CODE     ---       #1015
      00FF28B4H   LINE      CODE     ---       #1016
L251 LINKER/LOCATER V4.66.93.0                                                        03/21/2024  17:39:21  PAGE 96


      ---         BLOCKEND  ---      ---       LVL=0

      ---         MODULE    ---      ---       Element
      00FF5F02H   PUBLIC    CODE     ---       Elem_Up_Down
      00FF42CBH   PUBLIC    CODE     ---       Elem_Circle
      00000697H   PUBLIC    EDATA    FLOAT     Sum_Angle
      0000069BH   PUBLIC    EDATA    CHAR      Up_Down_Flag
      0000069CH   PUBLIC    EDATA    FLOAT     Circle_Flag
      000006A0H   PUBLIC    EDATA    CHAR      delay_10ms
      000006A1H   PUBLIC    EDATA    FLOAT     Sum_Angle_C1
      000006A5H   PUBLIC    EDATA    CHAR      Barrier_Flag1
      000006A6H   PUBLIC    EDATA    CHAR      Barrier_Flag2
      000006A7H   PUBLIC    EDATA    CHAR      Barrier_Flag3
      000006A8H   PUBLIC    EDATA    CHAR      Barrier_Flag4
      000006A9H   PUBLIC    EDATA    CHAR      Barrier_Executed
      000006AAH   PUBLIC    EDATA    FLOAT     Sum_Dis1
      000006AEH   PUBLIC    EDATA    FLOAT     Sum_Dis2
      000006B2H   PUBLIC    EDATA    CHAR      Avoid_ON
      000000D0H   SFRSYM    DATA     BYTE      PSW
      000000B7H   SFRSYM    DATA     BYTE      IPH
      00000088H   SFRSYM    DATA     BYTE      TCON
      00000098H   SFRSYM    DATA     BYTE      SCON
      000000BCH   SFRSYM    DATA     BYTE      ADC_CONTR
      000000DEH   SFRSYM    DATA     BYTE      ADCCFG
      000000B8H   SFRSYM    DATA     BYTE      IP
      000000A8H   SFRSYM    DATA     BYTE      IE
      000000F8H   SFRSYM    DATA     BYTE      P7
      000000E8H   SFRSYM    DATA     BYTE      P6
      000000C8H   SFRSYM    DATA     BYTE      P5
      000000C0H   SFRSYM    DATA     BYTE      P4
      000000B0H   SFRSYM    DATA     BYTE      P3
      000000A0H   SFRSYM    DATA     BYTE      P2
      00000090H   SFRSYM    DATA     BYTE      P1
      00000080H   SFRSYM    DATA     BYTE      P0

      00FF5F02H   BLOCK     CODE     ---       LVL=0
      DR28        REGSYM    ---      FLOAT     Angle
      DR24        REGSYM    ---      FLOAT     Gyro
      00FF5F02H   LINE      CODE     ---       #33
      00FF5F06H   LINE      CODE     ---       #36
      00FF5F1EH   LINE      CODE     ---       #37
      00FF5F26H   LINE      CODE     ---       #38
      00FF5F33H   LINE      CODE     ---       #39
      00FF5F3DH   LINE      CODE     ---       #40
      ---         BLOCKEND  ---      ---       LVL=0
      DR28        REGSYM    ---      FLOAT     Gyro_Z

      00FF42CBH   BLOCK     CODE     ---       LVL=0
      DR24        REGSYM    ---      FLOAT     Speed
      DR28        REGSYM    ---      FLOAT     Gyro_Z
      00FF42D1H   BLOCK     CODE     NEAR LAB  LVL=1
      000006B3H   SYMBOL    EDATA    FLOAT     Delay_10Ms
      ---         BLOCKEND  ---      ---       LVL=1
      00FF42CBH   LINE      CODE     ---       #126
      00FF42D1H   LINE      CODE     ---       #127
      00FF42D1H   LINE      CODE     ---       #132
      00FF42E0H   LINE      CODE     ---       #134
      00FF42E4H   LINE      CODE     ---       #135
      00FF42F7H   LINE      CODE     ---       #136
      00FF4302H   LINE      CODE     ---       #137
      00FF4305H   LINE      CODE     ---       #138
      00FF4305H   LINE      CODE     ---       #139
      00FF4312H   LINE      CODE     ---       #141
      00FF431AH   LINE      CODE     ---       #142
      00FF4330H   LINE      CODE     ---       #143
L251 LINKER/LOCATER V4.66.93.0                                                        03/21/2024  17:39:21  PAGE 97


      00FF4341H   LINE      CODE     ---       #145
      00FF4359H   LINE      CODE     ---       #146
      00FF4377H   LINE      CODE     ---       #147
      00FF4383H   LINE      CODE     ---       #148
      00FF439DH   LINE      CODE     ---       #149
      00FF43A9H   LINE      CODE     ---       #150
      00FF43ABH   LINE      CODE     ---       #152
      00FF43B6H   LINE      CODE     ---       #153
      00FF43D4H   LINE      CODE     ---       #155
      00FF43E3H   LINE      CODE     ---       #157
      00FF43F0H   LINE      CODE     ---       #158
      00FF4401H   LINE      CODE     ---       #160
      00FF4405H   LINE      CODE     ---       #161
      00FF4409H   LINE      CODE     ---       #162
      00FF440DH   LINE      CODE     ---       #163
      00FF4411H   LINE      CODE     ---       #164
      00FF4411H   LINE      CODE     ---       #165
      00FF441BH   LINE      CODE     ---       #166
      00FF441BH   LINE      CODE     ---       #168
      00FF441BH   LINE      CODE     ---       #169
      ---         BLOCKEND  ---      ---       LVL=0

      ---         MODULE    ---      ---       Buzzer
      00FF64CBH   PUBLIC    CODE     ---       Buzzer_Init
      00000700H   PUBLIC    EDATA    WORD      x10_ms
      000000D0H   SFRSYM    DATA     BYTE      PSW
      000000B7H   SFRSYM    DATA     BYTE      IPH
      00000088H   SFRSYM    DATA     BYTE      TCON
      00000098H   SFRSYM    DATA     BYTE      SCON
      000000BCH   SFRSYM    DATA     BYTE      ADC_CONTR
      000000DEH   SFRSYM    DATA     BYTE      ADCCFG
      000000B8H   SFRSYM    DATA     BYTE      IP
      000000A8H   SFRSYM    DATA     BYTE      IE
      000000F8H   SFRSYM    DATA     BYTE      P7
      000000E8H   SFRSYM    DATA     BYTE      P6
      000000C8H   SFRSYM    DATA     BYTE      P5
      000000C0H   SFRSYM    DATA     BYTE      P4
      000000B0H   SFRSYM    DATA     BYTE      P3
      000000A0H   SFRSYM    DATA     BYTE      P2
      00000090H   SFRSYM    DATA     BYTE      P1
      00000080H   SFRSYM    DATA     BYTE      P0

      00FF64CBH   BLOCK     CODE     ---       LVL=0
      00FF64CBH   LINE      CODE     ---       #12
      00FF64CBH   LINE      CODE     ---       #14
      ---         BLOCKEND  ---      ---       LVL=0

      ---         MODULE    ---      ---       Key
      00FF62C1H   PUBLIC    CODE     ---       Key_Init
      00FF55B9H   PUBLIC    CODE     ---       GetKey_Value
      000006F9H   PUBLIC    EDATA    CHAR      Mode
      000006FAH   PUBLIC    EDATA    CHAR      clear_Num
      000000D0H   SFRSYM    DATA     BYTE      PSW
      000000B7H   SFRSYM    DATA     BYTE      IPH
      000000F8H.3 SFRSYM    DATA     BIT       P73
      000000F8H.2 SFRSYM    DATA     BIT       P72
      000000F8H.1 SFRSYM    DATA     BIT       P71
      000000F8H.0 SFRSYM    DATA     BIT       P70
      00000088H   SFRSYM    DATA     BYTE      TCON
      00000098H   SFRSYM    DATA     BYTE      SCON
      000000BCH   SFRSYM    DATA     BYTE      ADC_CONTR
      000000DEH   SFRSYM    DATA     BYTE      ADCCFG
      000000B8H   SFRSYM    DATA     BYTE      IP
      000000A8H   SFRSYM    DATA     BYTE      IE
      000000F8H   SFRSYM    DATA     BYTE      P7
L251 LINKER/LOCATER V4.66.93.0                                                        03/21/2024  17:39:21  PAGE 98


      000000E8H   SFRSYM    DATA     BYTE      P6
      000000C8H   SFRSYM    DATA     BYTE      P5
      000000C0H   SFRSYM    DATA     BYTE      P4
      000000B0H   SFRSYM    DATA     BYTE      P3
      000000A0H   SFRSYM    DATA     BYTE      P2
      00000090H   SFRSYM    DATA     BYTE      P1
      00000080H   SFRSYM    DATA     BYTE      P0

      00FF62C1H   BLOCK     CODE     ---       LVL=0
      00FF62C1H   LINE      CODE     ---       #12
      00FF62C1H   LINE      CODE     ---       #15
      00FF62CAH   LINE      CODE     ---       #16
      00FF62D3H   LINE      CODE     ---       #17
      00FF62DCH   LINE      CODE     ---       #18
      ---         BLOCKEND  ---      ---       LVL=0

      00FF55B9H   BLOCK     CODE     ---       LVL=0
      R7          REGSYM    ---      BYTE      mode
      00FF55BBH   BLOCK     CODE     NEAR LAB  LVL=1
      000006FBH   SYMBOL    EDATA    BYTE      key_up
      ---         BLOCKEND  ---      ---       LVL=1
      00FF55B9H   LINE      CODE     ---       #30
      00FF55BBH   LINE      CODE     ---       #31
      00FF55BBH   LINE      CODE     ---       #33
      00FF55BFH   LINE      CODE     ---       #34
      00FF55C5H   LINE      CODE     ---       #35
      00FF55E3H   LINE      CODE     ---       #38
      00FF55E8H   LINE      CODE     ---       #39
      00FF55F0H   LINE      CODE     ---       #40
      00FF55F9H   LINE      CODE     ---       #41
      00FF5602H   LINE      CODE     ---       #42
      00FF560BH   LINE      CODE     ---       #43
      00FF560BH   LINE      CODE     ---       #44
      00FF5627H   LINE      CODE     ---       #45
      00FF562DH   LINE      CODE     ---       #46
      00FF562EH   LINE      CODE     ---       #47
      ---         BLOCKEND  ---      ---       LVL=0

      ---         MODULE    ---      ---       UI
      00FF65D5H   PUBLIC    CODE     ---       ui_show
      00FF5D8FH   PUBLIC    CODE     ---       oled_all_static_state
      00FF4661H   PUBLIC    CODE     ---       value_name_init
      00FF5D4FH   PUBLIC    CODE     ---       oled_show
      00FF5244H   PUBLIC    CODE     ---       refresh_value
      00FF659DH   PUBLIC    CODE     ---       ui_init
      00000008H   PUBLIC    EDATA    BYTE      page
      00000009H   PUBLIC    EDATA    ---       value
      00000079H   PUBLIC    EDATA    ---       value_name
      000000D0H   SFRSYM    DATA     BYTE      PSW
      000000B7H   SFRSYM    DATA     BYTE      IPH
      00000088H   SFRSYM    DATA     BYTE      TCON
      00000098H   SFRSYM    DATA     BYTE      SCON
      000000BCH   SFRSYM    DATA     BYTE      ADC_CONTR
      000000DEH   SFRSYM    DATA     BYTE      ADCCFG
      000000B8H   SFRSYM    DATA     BYTE      IP
      000000A8H   SFRSYM    DATA     BYTE      IE
      000000F8H   SFRSYM    DATA     BYTE      P7
      000000E8H   SFRSYM    DATA     BYTE      P6
      000000C8H   SFRSYM    DATA     BYTE      P5
      000000C0H   SFRSYM    DATA     BYTE      P4
      000000B0H   SFRSYM    DATA     BYTE      P3
      000000A0H   SFRSYM    DATA     BYTE      P2
      00000090H   SFRSYM    DATA     BYTE      P1
      00000080H   SFRSYM    DATA     BYTE      P0

L251 LINKER/LOCATER V4.66.93.0                                                        03/21/2024  17:39:21  PAGE 99


      00FF4661H   BLOCK     CODE     ---       LVL=0
      00FF4661H   LINE      CODE     ---       #25
      00FF4661H   LINE      CODE     ---       #28
      00FF4670H   LINE      CODE     ---       #29
      00FF467FH   LINE      CODE     ---       #30
      00FF468EH   LINE      CODE     ---       #31
      00FF469DH   LINE      CODE     ---       #35
      00FF46ACH   LINE      CODE     ---       #36
      00FF46BBH   LINE      CODE     ---       #37
      00FF46CAH   LINE      CODE     ---       #38
      00FF46D9H   LINE      CODE     ---       #42
      00FF46E8H   LINE      CODE     ---       #43
      00FF46F7H   LINE      CODE     ---       #44
      00FF4706H   LINE      CODE     ---       #45
      00FF4715H   LINE      CODE     ---       #48
      00FF4724H   LINE      CODE     ---       #49
      00FF4733H   LINE      CODE     ---       #50
      00FF4742H   LINE      CODE     ---       #51
      ---         BLOCKEND  ---      ---       LVL=0

      00FF5244H   BLOCK     CODE     ---       LVL=0
      00FF5244H   LINE      CODE     ---       #55
      00FF5244H   LINE      CODE     ---       #58
      00FF524CH   LINE      CODE     ---       #59
      00FF5254H   LINE      CODE     ---       #60
      00FF525CH   LINE      CODE     ---       #61
      00FF5264H   LINE      CODE     ---       #64
      00FF526CH   LINE      CODE     ---       #65
      00FF5274H   LINE      CODE     ---       #66
      00FF527CH   LINE      CODE     ---       #67
      00FF5284H   LINE      CODE     ---       #70
      00FF528CH   LINE      CODE     ---       #71
      00FF5294H   LINE      CODE     ---       #72
      00FF529CH   LINE      CODE     ---       #73
      00FF52A8H   LINE      CODE     ---       #76
      00FF52B0H   LINE      CODE     ---       #77
      00FF52B8H   LINE      CODE     ---       #78
      00FF52C0H   LINE      CODE     ---       #79
      00FF52C8H   LINE      CODE     ---       #81
      ---         BLOCKEND  ---      ---       LVL=0
      WR30        REGSYM    ---      INT       pages
      WR8         REGSYM    ---      INT       y
      DR24        REGSYM    ---      FLOAT     value_new

      00FF5D8FH   BLOCK     CODE     ---       LVL=0
      00FF5D91H   BLOCK     CODE     NEAR LAB  LVL=1
      R14         REGSYM    ---      BYTE      i
      R15         REGSYM    ---      BYTE      j
      ---         BLOCKEND  ---      ---       LVL=1
      00FF5D8FH   LINE      CODE     ---       #91
      00FF5D91H   LINE      CODE     ---       #92
      00FF5D91H   LINE      CODE     ---       #100
      00FF5D93H   LINE      CODE     ---       #102
      00FF5D99H   LINE      CODE     ---       #103
      00FF5DB5H   LINE      CODE     ---       #104
      00FF5DC4H   LINE      CODE     ---       #105
      00FF5DCBH   LINE      CODE     ---       #106
      ---         BLOCKEND  ---      ---       LVL=0

      00FF5D4FH   BLOCK     CODE     ---       LVL=0
      00FF5D51H   BLOCK     CODE     NEAR LAB  LVL=1
      R14         REGSYM    ---      BYTE      i
      R15         REGSYM    ---      BYTE      j
      ---         BLOCKEND  ---      ---       LVL=1
      00FF5D4FH   LINE      CODE     ---       #109
L251 LINKER/LOCATER V4.66.93.0                                                        03/21/2024  17:39:21  PAGE 100


      00FF5D51H   LINE      CODE     ---       #110
      00FF5D51H   LINE      CODE     ---       #112
      00FF5D54H   LINE      CODE     ---       #113
      00FF5D56H   LINE      CODE     ---       #115
      00FF5D5CH   LINE      CODE     ---       #116
      00FF5D85H   LINE      CODE     ---       #117
      00FF5D8CH   LINE      CODE     ---       #118
      ---         BLOCKEND  ---      ---       LVL=0

      00FF659DH   BLOCK     CODE     ---       LVL=0
      00FF659DH   LINE      CODE     ---       #121
      00FF659DH   LINE      CODE     ---       #123
      00FF65A0H   LINE      CODE     ---       #124
      00FF65A3H   LINE      CODE     ---       #125
      ---         BLOCKEND  ---      ---       LVL=0

      00FF65D5H   BLOCK     CODE     ---       LVL=0
      00FF65D5H   LINE      CODE     ---       #128
      00FF65D5H   LINE      CODE     ---       #130
      00FF65D8H   LINE      CODE     ---       #131
      ---         BLOCKEND  ---      ---       LVL=0

      ---         MODULE    ---      ---       ?C?FPADD
      00FF0EB4H   PUBLIC    CODE     ---       ?C?FPADD
      00FF0EB1H   PUBLIC    CODE     ---       ?C?FPSUB

      ---         MODULE    ---      ---       ?C?FPMUL
      00FF0F6CH   PUBLIC    CODE     ---       ?C?FPMUL

      ---         MODULE    ---      ---       ?C?FPDIV
      00FF100CH   PUBLIC    CODE     ---       ?C?FPDIV

      ---         MODULE    ---      ---       ?C?FPCMP
      00FF108FH   PUBLIC    CODE     ---       ?C?FPCMP
      00FF108DH   PUBLIC    CODE     ---       ?C?FPCMP3

      ---         MODULE    ---      ---       ?C?FPNEG
      00FF10D3H   PUBLIC    CODE     ---       ?C?FPNEG

      ---         MODULE    ---      ---       ?C?FCAST
      00FF10EBH   PUBLIC    CODE     NEAR LAB  ?C?FCASTC
      00FF10E6H   PUBLIC    CODE     NEAR LAB  ?C?FCASTI
      00FF10E1H   PUBLIC    CODE     NEAR LAB  ?C?FCASTL

      ---         MODULE    ---      ---       ?C?CASTF
      00FF111EH   PUBLIC    CODE     NEAR LAB  ?C?CASTF

      ---         MODULE    ---      ---       PRINTF
      00000444H   PUBLIC    EDATA    ---       ?PRINTF?BYTE
      00FF115BH   PUBLIC    CODE     NEAR LAB  PRINTF

      ---         MODULE    ---      ---       SQRT?_
      00FF1187H   PUBLIC    CODE     ---       SQRT?_

      ---         MODULE    ---      ---       ASIN?_
      00FF1217H   PUBLIC    CODE     ---       ASIN?_

      ---         MODULE    ---      ---       atan2
      00FF5C84H   PUBLIC    CODE     ---       atan2?_

      ---         MODULE    ---      ---       ?C?FPGETOPN
      00FF1237H   PUBLIC    CODE     ---       ?C?FPGETOPN2
      00FF1274H   PUBLIC    CODE     ---       ?C?FPNANRESULT
      00FF127CH   PUBLIC    CODE     ---       ?C?FPOVERFLOW
      00FF1250H   PUBLIC    CODE     ---       ?C?FPRESULT
L251 LINKER/LOCATER V4.66.93.0                                                        03/21/2024  17:39:21  PAGE 101


      00FF1266H   PUBLIC    CODE     ---       ?C?FPRESULT2
      00FF1279H   PUBLIC    CODE     ---       ?C?FPUNDERFLOW

      ---         MODULE    ---      ---       ?C?PRNFMT
      00FF12B5H   PUBLIC    CODE     ---       ?C?PRNFMT

      ---         MODULE    ---      ---       ATAN?_
      00FF16E4H   PUBLIC    CODE     ---       ATAN?_

      ---         MODULE    ---      ---       ?C?FPCONVERT
      00FF17C4H   PUBLIC    CODE     ---       ?C?FPCONVERT
      00FF187CH   PUBLIC    CODE     ---       ?C?FPROUND

      ---         MODULE    ---      ---       ?C?FPSERIES
      00FF18BFH   PUBLIC    CODE     ---       ?C?FP2SERIES
      00FF18C8H   PUBLIC    CODE     ---       ?C?FPSERIES

      ---         MODULE    ---      ---       ?C?FTNPWR
      00FF191CH   PUBLIC    CODE     ---       ?C?FTNPWR

      ---         MODULE    ---      ---       ?C_START
      00FF0000H   PUBLIC    CODE     ---       ?C?STARTUP
      00FF0000H   PUBLIC    CODE     ---       ?C_STARTUP

      ---         MODULE    ---      ---       ?C?INITEDATA
      00FF5DE1H   PUBLIC    CODE     ---       ?C?INITEDATA

      ---         MODULE    ---      ---       ?C?SIDIV
      00FF1953H   PUBLIC    CODE     ---       ?C?SIDIV

      ---         MODULE    ---      ---       ?C?LMUL
      00FF1985H   PUBLIC    CODE     ---       ?C?LMUL

      ---         MODULE    ---      ---       ?C?LIMUL
      00FF1996H   PUBLIC    CODE     ---       ?C?LIMUL

      ---         MODULE    ---      ---       ?C?ULDIV
      00FF19A1H   PUBLIC    CODE     NEAR LAB  ?C?ULDIV
      00FF199FH   PUBLIC    CODE     NEAR LAB  ?C?ULIDIV

      ---         MODULE    ---      ---       ?C?SLDIV
      00FF19F2H   PUBLIC    CODE     NEAR LAB  ?C?SLDIV

      ---         MODULE    ---      ---       ABS
      00FF64ECH   PUBLIC    CODE     ---       abs?_

      ---         MODULE    ---      ---       STRCPY?_
      00FF6483H   PUBLIC    CODE     NEAR LAB  STRCPY?_

      ---         MODULE    ---      ---       memcpy
      00FF629CH   PUBLIC    CODE     ---       memcpy?_

      ---         MODULE    ---      ---       memset
      00FF63C9H   PUBLIC    CODE     ---       memset?_

      ---         MODULE    ---      ---       ?C?INITEDATA_END
      00FF672BH   PUBLIC    HCONST   WORD      ?C?INITEDATA_END

Program Size: data=8.0 edata+hdata=2042 xdata=0 const=620 code=26050
L251 RUN COMPLETE.  0 WARNING(S),  0 ERROR(S)
