L251 LINKER/LOCATER V4.66.93.0                                                          03/07/2024  21:02:42  PAGE 1


L251 LINKER/LOCATER V4.66.93.0, INVOKED BY:
D:\KEIL5\KEIL5_MDK\KEIL5_MDK_32\C251\BIN\L251.EXE .\Out_File\board.obj, .\Out_File\common.obj, .\Out_File\SEEKFREE_PRINT
>> F.obj, .\Out_File\zf_adc.obj, .\Out_File\zf_delay.obj, .\Out_File\zf_eeprom.obj, .\Out_File\zf_exti.obj, .\Out_File\z
>> f_gpio.obj, .\Out_File\zf_iic.obj, .\Out_File\zf_nvic.obj, .\Out_File\zf_pwm.obj, .\Out_File\zf_spi.obj, .\Out_File\z
>> f_tim.obj, .\Out_File\zf_uart.obj, .\Out_File\zf_fifo.obj, .\Out_File\SEEKFREE_18TFT.obj, .\Out_File\SEEKFREE_ABSOLUT
>> E_ENCODER.obj, .\Out_File\SEEKFREE_FONT.obj, .\Out_File\SEEKFREE_IIC.obj, .\Out_File\SEEKFREE_MPU6050.obj, .\Out_File
>> \SEEKFREE_OLED.obj, .\Out_File\SEEKFREE_AT24C02.obj, .\Out_File\SEEKFREE_BLUETOOTH_CH9141.obj, .\Out_File\SEEKFREE_IC
>> M20602.obj, .\Out_File\SEEKFREE_IPS114_SPI.obj, .\Out_File\SEEKFREE_TSL1401.obj, .\Out_File\SEEKFREE_VIRSCO.obj, .\Ou
>> t_File\SEEKFREE_WIRELESS.obj, .\Out_File\SEEKFREE_WIRELESS_CH573.obj, .\Out_File\isr.obj, .\Out_File\main.obj, .\Out_
>> File\motor.obj, .\Out_File\ADC.obj, .\Out_File\PID.obj, .\Out_File\MPU6050.obj, .\Out_File\TOF.obj, .\Out_File\Elemen
>> t.obj, .\Out_File\Buzzer.obj, .\Out_File\Key.obj, .\Out_File\UI.obj TO .\Out_File\SEEKFREE PRINT (.\Out_File\SEEKFREE
>> .map) CASE DISABLEWARNING (16, 57) REMOVEUNUSED CLASSES (EDATA (0X0-0XFFF), HDATA (0X0-0XFFF))


CPU MODE:     251 SOURCE MODE
INTR FRAME:   2 BYTES SAVED ON INTERRUPT
MEMORY MODEL: XSMALL WITH FLOATING POINT ARITHMETIC


INPUT MODULES INCLUDED:
  .\Out_File\board.obj (board)
         COMMENT TYPE 0: C251 V5.60.0
  .\Out_File\common.obj (common)
         COMMENT TYPE 0: C251 V5.60.0
  .\Out_File\SEEKFREE_PRINTF.obj (SEEKFREE_PRINTF)
         COMMENT TYPE 0: C251 V5.60.0
  .\Out_File\zf_adc.obj (zf_adc)
         COMMENT TYPE 0: C251 V5.60.0
  .\Out_File\zf_delay.obj (zf_delay)
         COMMENT TYPE 0: C251 V5.60.0
  .\Out_File\zf_eeprom.obj (zf_eeprom)
         COMMENT TYPE 0: C251 V5.60.0
  .\Out_File\zf_exti.obj (zf_exti)
         COMMENT TYPE 0: C251 V5.60.0
  .\Out_File\zf_gpio.obj (zf_gpio)
         COMMENT TYPE 0: C251 V5.60.0
  .\Out_File\zf_iic.obj (zf_iic)
         COMMENT TYPE 0: C251 V5.60.0
  .\Out_File\zf_nvic.obj (zf_nvic)
         COMMENT TYPE 0: C251 V5.60.0
  .\Out_File\zf_pwm.obj (zf_pwm)
         COMMENT TYPE 0: C251 V5.60.0
  .\Out_File\zf_spi.obj (zf_spi)
         COMMENT TYPE 0: C251 V5.60.0
  .\Out_File\zf_tim.obj (zf_tim)
         COMMENT TYPE 0: C251 V5.60.0
  .\Out_File\zf_uart.obj (zf_uart)
         COMMENT TYPE 0: C251 V5.60.0
  .\Out_File\zf_fifo.obj (zf_fifo)
         COMMENT TYPE 0: C251 V5.60.0
  .\Out_File\SEEKFREE_18TFT.obj (SEEKFREE_18TFT)
         COMMENT TYPE 0: C251 V5.60.0
  .\Out_File\SEEKFREE_ABSOLUTE_ENCODER.obj (SEEKFREE_ABSOLUTE_ENCODER)
         COMMENT TYPE 0: C251 V5.60.0
  .\Out_File\SEEKFREE_FONT.obj (SEEKFREE_FONT)
         COMMENT TYPE 0: C251 V5.60.0
  .\Out_File\SEEKFREE_IIC.obj (SEEKFREE_IIC)
         COMMENT TYPE 0: C251 V5.60.0
  .\Out_File\SEEKFREE_MPU6050.obj (SEEKFREE_MPU6050)
         COMMENT TYPE 0: C251 V5.60.0
  .\Out_File\SEEKFREE_OLED.obj (SEEKFREE_OLED)
         COMMENT TYPE 0: C251 V5.60.0
  .\Out_File\SEEKFREE_AT24C02.obj (SEEKFREE_AT24C02)
         COMMENT TYPE 0: C251 V5.60.0
  .\Out_File\SEEKFREE_BLUETOOTH_CH9141.obj (SEEKFREE_BLUETOOTH_CH9141)
         COMMENT TYPE 0: C251 V5.60.0
L251 LINKER/LOCATER V4.66.93.0                                                        03/07/2024  21:02:42  PAGE 2


  .\Out_File\SEEKFREE_ICM20602.obj (SEEKFREE_ICM20602)
         COMMENT TYPE 0: C251 V5.60.0
  .\Out_File\SEEKFREE_IPS114_SPI.obj (SEEKFREE_IPS114_SPI)
         COMMENT TYPE 0: C251 V5.60.0
  .\Out_File\SEEKFREE_TSL1401.obj (SEEKFREE_TSL1401)
         COMMENT TYPE 0: C251 V5.60.0
  .\Out_File\SEEKFREE_VIRSCO.obj (SEEKFREE_VIRSCO)
         COMMENT TYPE 0: C251 V5.60.0
  .\Out_File\SEEKFREE_WIRELESS.obj (SEEKFREE_WIRELESS)
         COMMENT TYPE 0: C251 V5.60.0
  .\Out_File\SEEKFREE_WIRELESS_CH573.obj (SEEKFREE_WIRELESS_CH573)
         COMMENT TYPE 0: C251 V5.60.0
  .\Out_File\isr.obj (isr)
         COMMENT TYPE 0: C251 V5.60.0
  .\Out_File\main.obj (main)
         COMMENT TYPE 0: C251 V5.60.0
  .\Out_File\motor.obj (motor)
         COMMENT TYPE 0: C251 V5.60.0
  .\Out_File\ADC.obj (ADC)
         COMMENT TYPE 0: C251 V5.60.0
  .\Out_File\PID.obj (PID)
         COMMENT TYPE 0: C251 V5.60.0
  .\Out_File\MPU6050.obj (MPU6050)
         COMMENT TYPE 0: C251 V5.60.0
  .\Out_File\TOF.obj (TOF)
         COMMENT TYPE 0: C251 V5.60.0
  .\Out_File\Element.obj (Element)
         COMMENT TYPE 0: C251 V5.60.0
  .\Out_File\Buzzer.obj (Buzzer)
         COMMENT TYPE 0: C251 V5.60.0
  .\Out_File\Key.obj (Key)
         COMMENT TYPE 0: C251 V5.60.0
  .\Out_File\UI.obj (UI)
         COMMENT TYPE 0: C251 V5.60.0
  D:\KEIL5\KEIL5_MDK\KEIL5_MDK_32\C251\LIB\C2SFPXS.LIB (?C?FPADD)
         COMMENT TYPE 0: A251 V4.69.6.0
  D:\KEIL5\KEIL5_MDK\KEIL5_MDK_32\C251\LIB\C2SFPXS.LIB (?C?FPMUL)
         COMMENT TYPE 0: A251 V4.69.6.0
  D:\KEIL5\KEIL5_MDK\KEIL5_MDK_32\C251\LIB\C2SFPXS.LIB (?C?FPDIV)
         COMMENT TYPE 0: A251 V4.69.6.0
  D:\KEIL5\KEIL5_MDK\KEIL5_MDK_32\C251\LIB\C2SFPXS.LIB (?C?FPCMP)
         COMMENT TYPE 0: A251 V4.69.6.0
  D:\KEIL5\KEIL5_MDK\KEIL5_MDK_32\C251\LIB\C2SFPXS.LIB (?C?FPNEG)
         COMMENT TYPE 0: A251 V4.69.6.0
  D:\KEIL5\KEIL5_MDK\KEIL5_MDK_32\C251\LIB\C2SFPXS.LIB (?C?FCAST)
         COMMENT TYPE 0: A251 V4.69.6.0
  D:\KEIL5\KEIL5_MDK\KEIL5_MDK_32\C251\LIB\C2SFPXS.LIB (?C?CASTF)
         COMMENT TYPE 0: A251 V4.69.6.0
  D:\KEIL5\KEIL5_MDK\KEIL5_MDK_32\C251\LIB\C2SFPXS.LIB (PRINTF)
         COMMENT TYPE 0: A251 V4.69.6.0
  D:\KEIL5\KEIL5_MDK\KEIL5_MDK_32\C251\LIB\C2SFPXS.LIB (ASIN?_)
         COMMENT TYPE 0: A251 V4.69.6.0
  D:\KEIL5\KEIL5_MDK\KEIL5_MDK_32\C251\LIB\C2SFPXS.LIB (atan2)
         COMMENT TYPE 0: C251 V5.58.7
  D:\KEIL5\KEIL5_MDK\KEIL5_MDK_32\C251\LIB\C2SFPXS.LIB (?C?FPGETOPN)
         COMMENT TYPE 0: A251 V4.69.6.0
  D:\KEIL5\KEIL5_MDK\KEIL5_MDK_32\C251\LIB\C2SFPXS.LIB (?C?PRNFMT)
         COMMENT TYPE 0: A251 V4.69.6.0
  D:\KEIL5\KEIL5_MDK\KEIL5_MDK_32\C251\LIB\C2SFPXS.LIB (SQRT?_)
         COMMENT TYPE 0: A251 V4.69.6.0
  D:\KEIL5\KEIL5_MDK\KEIL5_MDK_32\C251\LIB\C2SFPXS.LIB (ATAN?_)
         COMMENT TYPE 0: A251 V4.69.6.0
  D:\KEIL5\KEIL5_MDK\KEIL5_MDK_32\C251\LIB\C2SFPXS.LIB (?C?FPCONVERT)
         COMMENT TYPE 0: A251 V4.69.6.0
  D:\KEIL5\KEIL5_MDK\KEIL5_MDK_32\C251\LIB\C2SFPXS.LIB (?C?FPSERIES)
L251 LINKER/LOCATER V4.66.93.0                                                        03/07/2024  21:02:42  PAGE 3


         COMMENT TYPE 0: A251 V4.69.6.0
  D:\KEIL5\KEIL5_MDK\KEIL5_MDK_32\C251\LIB\C2SFPXS.LIB (?C?FTNPWR)
         COMMENT TYPE 0: A251 V4.69.6.0
  D:\KEIL5\KEIL5_MDK\KEIL5_MDK_32\C251\LIB\C2SXS.LIB (?C_START)
         COMMENT TYPE 0: A251 V4.69.6.0
  D:\KEIL5\KEIL5_MDK\KEIL5_MDK_32\C251\LIB\C2SXS.LIB (?C?INITEDATA)
         COMMENT TYPE 0: A251 V4.69.6.0
  D:\KEIL5\KEIL5_MDK\KEIL5_MDK_32\C251\LIB\C2SXS.LIB (?C?SIDIV)
         COMMENT TYPE 0: A251 V4.69.6.0
  D:\KEIL5\KEIL5_MDK\KEIL5_MDK_32\C251\LIB\C2SXS.LIB (?C?LMUL)
         COMMENT TYPE 0: A251 V4.69.6.0
  D:\KEIL5\KEIL5_MDK\KEIL5_MDK_32\C251\LIB\C2SXS.LIB (?C?LIMUL)
         COMMENT TYPE 0: A251 V4.69.6.0
  D:\KEIL5\KEIL5_MDK\KEIL5_MDK_32\C251\LIB\C2SXS.LIB (?C?ULDIV)
         COMMENT TYPE 0: A251 V4.69.6.0
  D:\KEIL5\KEIL5_MDK\KEIL5_MDK_32\C251\LIB\C2SXS.LIB (?C?SLDIV)
         COMMENT TYPE 0: A251 V4.69.6.0
  D:\KEIL5\KEIL5_MDK\KEIL5_MDK_32\C251\LIB\C2SXS.LIB (ABS)
         COMMENT TYPE 0: C251 V5.58.7
  D:\KEIL5\KEIL5_MDK\KEIL5_MDK_32\C251\LIB\C2SXS.LIB (STRCPY?_)
         COMMENT TYPE 0: A251 V4.69.6.0
  D:\KEIL5\KEIL5_MDK\KEIL5_MDK_32\C251\LIB\C2SXS.LIB (memcpy)
         COMMENT TYPE 0: C251 V5.58.7
  D:\KEIL5\KEIL5_MDK\KEIL5_MDK_32\C251\LIB\C2SXS.LIB (memset)
         COMMENT TYPE 0: C251 V5.58.7
  D:\KEIL5\KEIL5_MDK\KEIL5_MDK_32\C251\LIB\C2SXS.LIB (?C?INITEDATA_END)
         COMMENT TYPE 0: A251 V4.69.6.0


ACTIVE MEMORY CLASSES OF MODULE:  .\Out_File\SEEKFREE (board)

BASE        START       END         USED      MEMORY CLASS
==========================================================
000000H     000000H     000FFFH     000763H   EDATA
000000H     000000H     000FFFH               HDATA
FF0000H     FF0000H     FFFFFFH     006597H   CODE
000000H     FF0000H     FFFFFFH     00025BH   HCONST
FF0000H     FF0000H     FFFFFFH     000004H   CONST
000000H     000000H     00007FH     000008H   DATA


MEMORY MAP OF MODULE:  .\Out_File\SEEKFREE (board)


START     STOP      LENGTH    ALIGN  RELOC    MEMORY CLASS   SEGMENT NAME
=========================================================================
000000H   000007H   000008H   ---    AT..     DATA           "REG BANK 0"
000008H   00013CH   000135H   BYTE   UNIT     EDATA          ?ED?UI
00013DH   00023DH   000101H   BYTE   UNIT     EDATA          ?ED?SEEKFREE_TSL1401
00023EH   00030AH   0000CDH   BYTE   UNIT     EDATA          ?ED?ZF_UART
00030BH   0003A1H   000097H   BYTE   UNIT     EDATA          _EDATA_GROUP_
0003A2H   000417H   000076H   BYTE   UNIT     EDATA          ?ED?MOTOR
000418H   000482H   00006BH   BYTE   UNIT     EDATA          ?ED?MPU6050
000483H   0004D7H   000055H   BYTE   UNIT     EDATA          ?ED?SEEKFREE_BLUETOOTH_CH9141
0004D8H   00052CH   000055H   BYTE   UNIT     EDATA          ?ED?SEEKFREE_WIRELESS
00052DH   000581H   000055H   BYTE   UNIT     EDATA          ?ED?SEEKFREE_WIRELESS_CH573
000582H   0005D1H   000050H   BYTE   UNIT     EDATA          ?ED?ADC
0005D2H   000605H   000034H   BYTE   UNIT     EDATA          ?ED?MAIN
000606H   00062DH   000028H   BYTE   UNIT     EDATA          ?ED?ELEMENT
00062EH   000639H   00000CH   BYTE   UNIT     EDATA          ?ED?SEEKFREE_MPU6050
00063AH   000645H   00000CH   BYTE   UNIT     EDATA          ?ED?SEEKFREE_ICM20602
000646H   00064FH   00000AH   BYTE   UNIT     EDATA          ?ED?SEEKFREE_VIRSCO
000650H   000656H   000007H   BYTE   UNIT     EDATA          ?ED?SEEKFREE_IIC
000657H   00065AH   000004H   BYTE   UNIT     EDATA          ?ED?BOARD
00065BH   00065EH   000004H   BYTE   UNIT     EDATA          ?ED?ZF_DELAY
L251 LINKER/LOCATER V4.66.93.0                                                        03/07/2024  21:02:42  PAGE 4


00065FH   000661H   000003H   BYTE   UNIT     EDATA          ?ED?TOF
000662H   000664H   000003H   BYTE   UNIT     EDATA          ?ED?KEY
000665H   000666H   000002H   BYTE   UNIT     EDATA          ?ED?COMMON
000667H   000668H   000002H   BYTE   UNIT     EDATA          ?ED?ISR
000669H   00066AH   000002H   BYTE   UNIT     EDATA          ?ED?BUZZER
00066BH   00076AH   000100H   BYTE   UNIT     EDATA          ?STACK
00076BH   FEFFFFH   FEF895H   ---    ---      **GAP**
FF0000H   FF0002H   000003H   ---    OFFS..   CODE           ?CO?start251?4
FF0003H   FF0005H   000003H   ---    OFFS..   CODE           ?PR?IV?0
FF0006H   FF000AH   000005H   BYTE   INSEG    CODE           ?PR?I2C_SDA_READ?MPU6050
FF000BH   FF000DH   000003H   ---    OFFS..   CODE           ?PR?IV?1
FF000EH   FF0010H   000003H   BYTE   INSEG    CODE           ?PR?ENABLEGLOBALIRQ?BOARD
FF0011H   FF0011H   000001H   BYTE   INSEG    CODE           ?PR?INT1_ISR?ISR
FF0012H   FF0012H   000001H   BYTE   INSEG    CODE           ?PR?TM0_ISR?ISR
FF0013H   FF0015H   000003H   ---    OFFS..   CODE           ?PR?IV?2
FF0016H   FF0018H   000003H   BYTE   INSEG    CODE           ?PR?DISABLEGLOBALIRQ?BOARD
FF0019H   FF0019H   000001H   BYTE   INSEG    CODE           ?PR?TM1_ISR?ISR
FF001AH   FF001AH   000001H   ---    ---      **GAP**
FF001BH   FF001DH   000003H   ---    OFFS..   CODE           ?PR?IV?3
FF001EH   FF0020H   000003H   BYTE   INSEG    CODE           ?PR?I2C_SDA_H?MPU6050
FF0021H   FF0022H   000002H   ---    ---      **GAP**
FF0023H   FF0025H   000003H   ---    OFFS..   CODE           ?PR?IV?4
FF0026H   FF0042H   00001DH   BYTE   INSEG    CODE           ?PR?GETFIFOCOUNT?MPU6050
FF0043H   FF0045H   000003H   ---    OFFS..   CODE           ?PR?IV?8
FF0046H   FF0052H   00000DH   BYTE   INSEG    CODE           ?PR?MPU_READ_BITS?MPU6050
FF0053H   FF0055H   000003H   ---    OFFS..   CODE           ?PR?IV?10
FF0056H   FF0058H   000003H   BYTE   INSEG    CODE           ?PR?I2C_SDA_L?MPU6050
FF0059H   FF005AH   000002H   ---    ---      **GAP**
FF005BH   FF005DH   000003H   ---    OFFS..   CODE           ?PR?IV?11
FF005EH   FF0060H   000003H   BYTE   INSEG    CODE           ?PR?I2C_SCL_H?MPU6050
FF0061H   FF0062H   000002H   ---    ---      **GAP**
FF0063H   FF0065H   000003H   ---    OFFS..   CODE           ?PR?IV?12
FF0066H   FF0081H   00001CH   BYTE   INSEG    CODE           ?PR?VL53L0X_SCCB_WAITACK?TOF
FF0082H   FF0082H   000001H   ---    ---      **GAP**
FF0083H   FF0085H   000003H   ---    OFFS..   CODE           ?PR?IV?16
FF0086H   FF0088H   000003H   BYTE   INSEG    CODE           ?PR?I2C_SCL_L?MPU6050
FF0089H   FF008AH   000002H   ---    ---      **GAP**
FF008BH   FF008DH   000003H   ---    OFFS..   CODE           ?PR?IV?17
FF008EH   FF0091H   000004H   BYTE   UNIT     CONST          ?CO?PRINTF
FF0092H   FF0092H   000001H   ---    ---      **GAP**
FF0093H   FF0095H   000003H   ---    OFFS..   CODE           ?PR?IV?18
FF0096H   FF009AH   000005H   ---    ---      **GAP**
FF009BH   FF009DH   000003H   ---    OFFS..   CODE           ?PR?IV?19
FF009EH   FF00A2H   000005H   ---    ---      **GAP**
FF00A3H   FF00A5H   000003H   ---    OFFS..   CODE           ?PR?IV?20
FF00A6H   FF0EADH   000E08H   BYTE   UNIT     CODE           ?CO?SEEKFREE_FONT
FF0EAEH   FF1A25H   000B78H   BYTE   UNIT     CODE           ?C?LIB_CODE
FF1A26H   FF229DH   000878H   BYTE   UNIT     CODE           ?CO?MPU6050
FF229EH   FF28B8H   00061BH   BYTE   INSEG    CODE           ?PR?VL53L0X_INIT?TOF
FF28B9H   FF2DB2H   0004FAH   BYTE   INSEG    CODE           ?PR?ZF_SPRINTF?SEEKFREE_PRINTF
FF2DB3H   FF31A9H   0003F7H   BYTE   INSEG    CODE           ?PR?GPIO_MODE?ZF_GPIO
FF31AAH   FF34F5H   00034CH   BYTE   INSEG    CODE           ?PR?MAIN?MAIN
FF34F6H   FF37D9H   0002E4H   BYTE   INSEG    CODE           ?PR?PWM_INIT?ZF_PWM
FF37DAH   FF3A7AH   0002A1H   BYTE   INSEG    CODE           ?PR?PWM_SET_GPIO?ZF_PWM
FF3A7BH   FF3D14H   00029AH   BYTE   INSEG    CODE           ?PR?MPU6050_REFRESH_DMP?MPU6050
FF3D15H   FF3F40H   00022CH   BYTE   INSEG    CODE           ?PR?DMPINITIALIZE?MPU6050
FF3F41H   FF40FFH   0001BFH   BYTE   INSEG    CODE           ?PR?UART_INIT?ZF_UART
FF4100H   FF427BH   00017CH   BYTE   INSEG    CODE           ?PR?VL53L0X_GET_SPAD_INFO?TOF
FF427CH   FF43EAH   00016FH   BYTE   INSEG    CODE           ?PR?ADC_GETVALUE?ADC
FF43EBH   FF4513H   000129H   BYTE   INSEG    CODE           ?PR?ELEM_CIRCLE_L?ELEMENT
FF4514H   FF4634H   000121H   BYTE   INSEG    CODE           ?PR?ELEM_CIRCLE_R?ELEMENT
FF4635H   FF472CH   0000F8H   BYTE   INSEG    CODE           ?PR?OLED_PRINTF_FLOAT?SEEKFREE_OLED
FF472DH   FF481CH   0000F0H   BYTE   INSEG    CODE           ?PR?VALUE_NAME_INIT?UI
FF481DH   FF4904H   0000E8H   BYTE   INSEG    CODE           ?PR?OLED_P8X16STR?SEEKFREE_OLED
FF4905H   FF49E8H   0000E4H   BYTE   INSEG    CODE           ?PR?VL53L0X_SET_MEASUREMENT_TIMING_BUDGET?TOF
L251 LINKER/LOCATER V4.66.93.0                                                        03/07/2024  21:02:42  PAGE 5


FF49E9H   FF4AC8H   0000E0H   BYTE   INSEG    CODE           ?PR?FIFO_WRITE_BUFFER?ZF_FIFO
FF4AC9H   FF4BA3H   0000DBH   BYTE   INSEG    CODE           ?PR?VL53L0X_GET_SEQUENCE_STEP_TIMEOUTS?TOF
FF4BA4H   FF4C7DH   0000DAH   BYTE   INSEG    CODE           ?PR?INIT_ALL?MAIN
FF4C7EH   FF4D44H   0000C7H   BYTE   INSEG    CODE           ?PR?PID_CALCULATE?PID
FF4D45H   FF4DFCH   0000B8H   BYTE   INSEG    CODE           ?PR?PWM_DUTY?ZF_PWM
FF4DFDH   FF4EA2H   0000A6H   BYTE   INSEG    CODE           ?PR?LOADCFGUPD?MPU6050
FF4EA3H   FF4F47H   0000A5H   BYTE   INSEG    CODE           ?PR?RIGHT_SETSPEED?MOTOR
FF4F48H   FF4FECH   0000A5H   BYTE   INSEG    CODE           ?PR?LEFT_SETSPEED?MOTOR
FF4FEDH   FF508FH   0000A3H   BYTE   INSEG    CODE           ?PR?OLED_INIT?SEEKFREE_OLED
FF5090H   FF5123H   000094H   BYTE   INSEG    CODE           ?PR?PIT_TIMER_MS?ZF_TIM
FF5124H   FF51B5H   000092H   BYTE   INSEG    CODE           ?PR?NUMBER_CONVERSION_ASCII?SEEKFREE_PRINTF
FF51B6H   FF5247H   000092H   BYTE   INSEG    CODE           ?PR?GET_RATIO?MAIN
FF5248H   FF52CCH   000085H   BYTE   INSEG    CODE           ?PR?REFRESH_VALUE?UI
FF52CDH   FF534DH   000081H   BYTE   INSEG    CODE           ?PR?BOARD_INIT?BOARD
FF534EH   FF53CEH   000081H   BYTE   INSEG    CODE           ?PR?LOADFIRMWARE?MPU6050
FF53CFH   FF544EH   000080H   BYTE   INSEG    CODE           ?PR?TM4_ISR?ISR
FF544FH   FF54CBH   00007DH   BYTE   INSEG    CODE           ?PR?I2C_WRITE_BITS?MPU6050
FF54CCH   FF5545H   00007AH   BYTE   INSEG    CODE           ?PR?I2C_MEM_READ?MPU6050
FF5546H   FF55BCH   000077H   BYTE   INSEG    CODE           ?PR?VL53L0X_PERFORM_SINGLE_REF_CALIBRATION?TOF
FF55BDH   FF5632H   000076H   BYTE   INSEG    CODE           ?PR?GETKEY_VALUE?KEY
FF5633H   FF56A5H   000073H   BYTE   INSEG    CODE           ?PR?VL53L0X_GET_MEASUREMENT_TIMING_BUDGET?TOF
FF56A6H   FF5710H   00006BH   BYTE   INSEG    CODE           ?PR?I2C_READ_BITS?MPU6050
FF5711H   FF5779H   000069H   BYTE   INSEG    CODE           ?PR?UART4_ISR?ISR
FF577AH   FF57E1H   000068H   BYTE   INSEG    CODE           ?PR?XDMPUPDATES?MPU6050
FF57E2H   FF5844H   000063H   BYTE   INSEG    CODE           ?PR?GET_SPEED?MOTOR
FF5845H   FF58A3H   00005FH   BYTE   INSEG    CODE           ?PR?I2C_MEM_WRITE?MPU6050
FF58A4H   FF5901H   00005EH   BYTE   INSEG    CODE           ?PR?ADC_INIT?ZF_ADC
FF5902H   FF595DH   00005CH   BYTE   INSEG    CODE           ?PR?I2C_WRITE_BIT?MPU6050
FF595EH   FF59B5H   000058H   BYTE   INSEG    CODE           ?PR?MPU_GET_GYROSCOPE?MPU6050
FF59B6H   FF5A0DH   000058H   BYTE   INSEG    CODE           ?PR?VL53L0X_GET_SEQUENCE_STEP_ENABLES?TOF
FF5A0EH   FF5A61H   000054H   BYTE   INSEG    CODE           ?PR?UART_PUTCHAR?ZF_UART
FF5A62H   FF5AB5H   000054H   BYTE   INSEG    CODE           ?PR?PID_INIT?PID
FF5AB6H   FF5B09H   000054H   BYTE   INSEG    CODE           ?PR?VL53L0X_SIMIIC_READ_REGS?TOF
FF5B0AH   FF5B5AH   000051H   BYTE   INSEG    CODE           ?PR?CTIMER_COUNT_CLEAN?ZF_TIM
FF5B5BH   FF5BA7H   00004DH   BYTE   INSEG    CODE           ?PR?CTIMER_COUNT_READ?ZF_TIM
FF5BA8H   FF5BF4H   00004DH   BYTE   INSEG    CODE           ?PR?VL53L0X_GET_VCSEL_PULSE_PERIOD?TOF
FF5BF5H   FF5C3EH   00004AH   BYTE   INSEG    CODE           ?PR?CTIMER_COUNT_INIT?ZF_TIM
FF5C3FH   FF5C83H   000045H   BYTE   INSEG    CODE           ?PR?ELEM_UP_DOWN?ELEMENT
FF5C84H   FF5CC8H   000045H   BYTE   INSEG    CODE           ?PR?ATAN2?_?ATAN2
FF5CC9H   FF5D0CH   000044H   BYTE   INSEG    CODE           ?PR?MOTOR_INIT?MOTOR
FF5D0DH   FF5D4EH   000042H   BYTE   INSEG    CODE           ?PR?FIFO_HEAD_OFFSET?ZF_FIFO
FF5D4FH   FF5D8EH   000040H   BYTE   INSEG    CODE           ?PR?OLED_SHOW?UI
FF5D8FH   FF5DCDH   00003FH   BYTE   INSEG    CODE           ?PR?OLED_ALL_STATIC_STATE?UI
FF5DCEH   FF5DE0H   000013H   BYTE   UNIT     CODE           ?C_C51STARTUP
FF5DE1H   FF5E09H   000029H   BYTE   UNIT     CODE           ?C_C51STARTUP?2
FF5E0AH   FF5E0CH   000003H   BYTE   UNIT     CODE           ?C_C51STARTUP?3
FF5E0DH   FF5E4AH   00003EH   BYTE   INSEG    CODE           ?PR?PRINTF_REVERSE_ORDER?SEEKFREE_PRINTF
FF5E4BH   FF5E88H   00003EH   BYTE   INSEG    CODE           ?PR?VL53L0X_TIMEOUT_MCLKS_TO_MICROSECONDS?TOF
FF5E89H   FF5EC5H   00003DH   BYTE   INSEG    CODE           ?PR?UART1_ISR?ISR
FF5EC6H   FF5F01H   00003CH   BYTE   INSEG    CODE           ?PR?VL53L0X_TIMEOUT_MICROSECONDS_TO_MCLKS?TOF
FF5F02H   FF5F3CH   00003BH   BYTE   INSEG    CODE           ?PR?VL53L0X_READ_CH?TOF
FF5F3DH   FF5F75H   000039H   BYTE   INSEG    CODE           ?PR?DELAY_INIT?ZF_DELAY
FF5F76H   FF5FACH   000037H   BYTE   INSEG    CODE           ?PR?I2C_READ_BYTE?MPU6050
FF5FADH   FF5FE1H   000035H   BYTE   INSEG    CODE           ?PR?VL53L0X_SIMIIC_WRITE_DATS?TOF
FF5FE2H   FF6015H   000034H   BYTE   INSEG    CODE           ?PR?VL53L0X_ENCODE_TIMEOUT?TOF
FF6016H   FF6048H   000033H   BYTE   INSEG    CODE           ?PR?OLED_FILL?SEEKFREE_OLED
FF6049H   FF607BH   000033H   BYTE   INSEG    CODE           ?PR?I2C_READ_BIT?MPU6050
FF607CH   FF60AEH   000033H   BYTE   INSEG    CODE           ?PR?I2C_WRITE_BYTE?MPU6050
FF60AFH   FF60E1H   000033H   BYTE   INSEG    CODE           ?PR?INITMPU6050?MPU6050
FF60E2H   FF610FH   00002EH   BYTE   INSEG    CODE           ?PR?ADC_ONCE?ZF_ADC
FF6110H   FF613DH   00002EH   BYTE   INSEG    CODE           ?PR?VL53L0X_SEND_CH?TOF
FF613EH   FF6168H   00002BH   BYTE   INSEG    CODE           ?PR?LIMIT_OUT?MOTOR
FF6169H   FF6193H   00002BH   BYTE   INSEG    CODE           ?PR?ADC_INITALL?ADC
FF6194H   FF61BDH   00002AH   BYTE   INSEG    CODE           ?PR?I2C_WAIT_ACK?MPU6050
FF61BEH   FF61E6H   000029H   BYTE   INSEG    CODE           ?PR?OLED_WRCMD?SEEKFREE_OLED
L251 LINKER/LOCATER V4.66.93.0                                                        03/07/2024  21:02:42  PAGE 6


FF61E7H   FF620FH   000029H   BYTE   INSEG    CODE           ?PR?OLED_WRDAT?SEEKFREE_OLED
FF6210H   FF6238H   000029H   BYTE   INSEG    CODE           ?PR?VL53L0X_SIMIIC_READ_REG?TOF
FF6239H   FF625FH   000027H   BYTE   INSEG    CODE           ?PR?VL53L0X_SET_SIGNAL_RATE_LIMIT?TOF
FF6260H   FF6284H   000025H   BYTE   INSEG    CODE           ?PR?MEMCPY?_?MEMCPY
FF6285H   FF62A8H   000024H   BYTE   INSEG    CODE           ?PR?KEY_INIT?KEY
FF62A9H   FF62CBH   000023H   BYTE   INSEG    CODE           ?PR?OLED_SET_POS?SEEKFREE_OLED
FF62CCH   FF62EEH   000023H   BYTE   INSEG    CODE           ?PR?MPU6050_DMP_INIT?MPU6050
FF62EFH   FF6310H   000022H   BYTE   INSEG    CODE           ?PR?VL53L0X_SIMIIC_WRITE_REG?TOF
FF6311H   FF6330H   000020H   BYTE   INSEG    CODE           ?PR?GETDEVICEID?MPU6050
FF6331H   FF6350H   000020H   BYTE   INSEG    CODE           ?PR?VL53L0X_SIMIIC_SENDACK?TOF
FF6351H   FF636EH   00001EH   BYTE   INSEG    CODE           ?PR?UART2_ISR?ISR
FF636FH   FF638CH   00001EH   BYTE   INSEG    CODE           ?PR?UART3_ISR?ISR
FF638DH   FF63A6H   00001AH   BYTE   INSEG    CODE           ?PR?MEMSET?_?MEMSET
FF63A7H   FF63BFH   000019H   BYTE   INSEG    CODE           ?PR?BLUETOOTH_CH9141_UART_CALLBACK?SEEKFREE_BLUETOOTH_CH91
                                                             -41
FF63C0H   FF63D8H   000019H   BYTE   INSEG    CODE           ?PR?WIRELESS_UART_CALLBACK?SEEKFREE_WIRELESS
FF63D9H   FF63F1H   000019H   BYTE   INSEG    CODE           ?PR?WIRELESS_CH573_CALLBACK?SEEKFREE_WIRELESS_CH573
FF63F2H   FF6408H   000017H   BYTE   INSEG    CODE           ?PR?DELAY_MS?ZF_DELAY
FF6409H   FF641DH   000015H   BYTE   INSEG    CODE           ?PR?I2C_ACK?MPU6050
FF641EH   FF6432H   000015H   BYTE   INSEG    CODE           ?PR?MPU_WRITE_BYTE?MPU6050
FF6433H   FF6446H   000014H   BYTE   INSEG    CODE           ?PR?MPU_DELAY_MS?MPU6050
FF6447H   FF6459H   000013H   BYTE   UNIT     CODE           ?PR?STRCPY?_
FF645AH   FF646BH   000012H   BYTE   INSEG    CODE           ?PR?I2C_NACK?MPU6050
FF646CH   FF647DH   000012H   BYTE   INSEG    CODE           ?PR?I2C_START?MPU6050
FF647EH   FF648EH   000011H   BYTE   INSEG    CODE           ?PR?NUM2ABS?MOTOR
FF648FH   FF649FH   000011H   BYTE   INSEG    CODE           ?PR?VL53L0X_SIMIIC_STOP?TOF
FF64A0H   FF64B0H   000011H   BYTE   INSEG    CODE           ?PR?BUZZER_INIT?BUZZER
FF64B1H   FF64C0H   000010H   BYTE   INSEG    CODE           ?PR?VL53L0X_DECODE_TIMEOUT?TOF
FF64C1H   FF64D0H   000010H   BYTE   INSEG    CODE           ?PR?ABS?_?ABS
FF64D1H   FF64DFH   00000FH   BYTE   INSEG    CODE           ?PR?I2C_STOP?MPU6050
FF64E0H   FF64EEH   00000FH   BYTE   INSEG    CODE           ?PR?READDMP?MPU6050
FF64EFH   FF64FDH   00000FH   BYTE   INSEG    CODE           ?PR?VL53L0X_SIMIIC_START?TOF
FF64FEH   FF650BH   00000EH   BYTE   INSEG    CODE           ?PR?PUTCHAR?BOARD
FF650CH   FF6518H   00000DH   BYTE   INSEG    CODE           ?PR?MPU_WRITE_BITS?MPU6050
FF6519H   FF6525H   00000DH   BYTE   INSEG    CODE           ?PR?MPU_WRITE_BIT?MPU6050
FF6526H   FF6532H   00000DH   BYTE   INSEG    CODE           ?PR?VL53L0X_SIMIIC_DELAY?TOF
FF6533H   FF653DH   00000BH   BYTE   INSEG    CODE           ?PR?MPU_READ_LEN?MPU6050
FF653EH   FF6548H   00000BH   BYTE   INSEG    CODE           ?PR?I2C_TIMEOUT_DELAY?MPU6050
FF6549H   FF6553H   00000BH   BYTE   INSEG    CODE           ?PR?MPU_WRITE_LEN?MPU6050
FF6554H   FF655EH   00000BH   BYTE   INSEG    CODE           ?PR?I2C_DELAY?MPU6050
FF655FH   FF6568H   00000AH   BYTE   INSEG    CODE           ?PR?DELAY1MS?MPU6050
FF6569H   FF6571H   000009H   BYTE   INSEG    CODE           ?PR?MPU_READ_BIT?MPU6050
FF6572H   FF657AH   000009H   BYTE   INSEG    CODE           ?PR?UI_INIT?UI
FF657BH   FF6582H   000008H   BYTE   INSEG    CODE           ?PR?INT2_ISR?ISR
FF6583H   FF658AH   000008H   BYTE   INSEG    CODE           ?PR?INT3_ISR?ISR
FF658BH   FF6592H   000008H   BYTE   INSEG    CODE           ?PR?INT4_ISR?ISR
FF6593H   FF659AH   000008H   BYTE   INSEG    CODE           ?PR?TM2_ISR?ISR
FF659BH   FF65A2H   000008H   BYTE   INSEG    CODE           ?PR?TM3_ISR?ISR
FF65A3H   FF65A9H   000007H   BYTE   INSEG    CODE           ?PR?INT0_ISR?ISR
FF65AAH   FF65AFH   000006H   BYTE   INSEG    CODE           ?PR?UI_SHOW?UI
FF65B0H   FF66F4H   000145H   BYTE   UNIT     HCONST         ?C_INITEDATA
FF66F5H   FF6766H   000072H   BYTE   UNIT     HCONST         ?HC?UI
FF6767H   FF67BEH   000058H   BYTE   UNIT     HCONST         ?HC?ZF_PWM
FF67BFH   FF67DEH   000020H   BYTE   UNIT     HCONST         ?HC?MAIN
FF67DFH   FF67F4H   000016H   BYTE   UNIT     HCONST         ?HC?TOF
FF67F5H   FF67FEH   00000AH   BYTE   UNIT     HCONST         ?HC?SEEKFREE_OLED
FF67FFH   FF6804H   000006H   BYTE   UNIT     HCONST         ?HC?SEEKFREE_18TFT
FF6805H   FF680AH   000006H   BYTE   UNIT     HCONST         ?HC?SEEKFREE_IPS114_SPI

* * * * * * * * *   R E M O V E D     S E G M E N T S   * * * * * * * *
   *DEL*:           000019H   BYTE   INSEG    CODE           ?PR?DELAY_US?ZF_DELAY
   *DEL*:           000016H   BYTE   INSEG    CODE           ?PR?IAP_SET_TPS?ZF_EEPROM
   *DEL*:           000015H   BYTE   INSEG    CODE           ?PR?EEPROM_TRIG?ZF_EEPROM
   *DEL*:           00000EH   BYTE   INSEG    CODE           ?PR?IAP_ERASE_PAGE?ZF_EEPROM
   *DEL*:           000004H   BYTE   INSEG    CODE           ?PR?IAP_IDLE?ZF_EEPROM
L251 LINKER/LOCATER V4.66.93.0                                                        03/07/2024  21:02:42  PAGE 7


   *DEL*:           000047H   BYTE   INSEG    CODE           ?PR?IAP_READ_BYTES?ZF_EEPROM
   *DEL*:           00006DH   BYTE   INSEG    CODE           ?PR?EXTERN_IAP_WRITE_BYTES?ZF_EEPROM
   *DEL*:           000006H   BYTE   INSEG    CODE           ?PR?IAP_INIT?ZF_EEPROM
   *DEL*:           000047H   BYTE   INSEG    CODE           ?PR?IAP_WRITE_BYTES?ZF_EEPROM
   *DEL*:           00000CH   BYTE   INSEG    CODE           ?PR?IAP_GET_CMD_STATE?ZF_EEPROM
   *DEL*:           000004H   BYTE   UNIT     EDATA          ?ED?IAP_READ_BYTES?ZF_EEPROM
   *DEL*:           000004H   BYTE   UNIT     EDATA          ?ED?IAP_WRITE_BYTES?ZF_EEPROM
   *DEL*:           000204H   BYTE   UNIT     EDATA          ?ED?EXTERN_IAP_WRITE_BYTES?ZF_EEPROM
   *DEL*:           00003EH   BYTE   INSEG    CODE           ?PR?EXIT_INIT?ZF_EXTI
   *DEL*:           00006EH   BYTE   INSEG    CODE           ?PR?GPIO_PULL_SET?ZF_GPIO
   *DEL*:           000017H   BYTE   INSEG    CODE           ?PR?SEND_DATA?ZF_IIC
   *DEL*:           00002FH   BYTE   INSEG    CODE           ?PR?IIC_CHANGE_PIN?ZF_IIC
   *DEL*:           00001CH   BYTE   INSEG    CODE           ?PR?RECV_DATA?ZF_IIC
   *DEL*:           000010H   BYTE   INSEG    CODE           ?PR?START?ZF_IIC
   *DEL*:           000045H   BYTE   INSEG    CODE           ?PR?WAIT?ZF_IIC
   *DEL*:           000018H   BYTE   INSEG    CODE           ?PR?SEND_ACK?ZF_IIC
   *DEL*:           000010H   BYTE   INSEG    CODE           ?PR?RECV_ACK?ZF_IIC
   *DEL*:           000010H   BYTE   INSEG    CODE           ?PR?STOP?ZF_IIC
   *DEL*:           000019H   BYTE   INSEG    CODE           ?PR?SEND_NAK?ZF_IIC
   *DEL*:           00005EH   BYTE   INSEG    CODE           ?PR?IIC_INIT?ZF_IIC
   *DEL*:           000075H   BYTE   INSEG    CODE           ?PR?IIC_READ_REG?ZF_IIC
   *DEL*:           00009CH   BYTE   INSEG    CODE           ?PR?IIC_READ_REG_BYTES?ZF_IIC
   *DEL*:           000060H   BYTE   INSEG    CODE           ?PR?IIC_WRITE_REG?ZF_IIC
   *DEL*:           000015H   BYTE   INSEG    CODE           ?PR?IIC_DELAY_US?ZF_IIC
   *DEL*:           000004H   BYTE   UNIT     EDATA          ?ED?IIC_INIT?ZF_IIC
   *DEL*:           000004H   BYTE   UNIT     EDATA          ?ED?IIC_READ_REG?ZF_IIC
   *DEL*:           000003H   BYTE   UNIT     EDATA          ?ED?IIC_READ_REG_BYTES?ZF_IIC
   *DEL*:           00006CH   BYTE   INSEG    CODE           ?PR?NVIC_SETPRIORITY?ZF_NVIC
   *DEL*:           000121H   BYTE   INSEG    CODE           ?PR?PWM_FREQ?ZF_PWM
   *DEL*:           000004H   BYTE   UNIT     EDATA          ?ED?PWM_FREQ?ZF_PWM
   *DEL*:           00001DH   BYTE   INSEG    CODE           ?PR?SPI_CHANGE_MODE?ZF_SPI
   *DEL*:           0000AEH   BYTE   INSEG    CODE           ?PR?SPI_CHANGE_PIN?ZF_SPI
   *DEL*:           0000DFH   BYTE   INSEG    CODE           ?PR?SPI_INIT?ZF_SPI
   *DEL*:           00000EH   BYTE   INSEG    CODE           ?PR?SPI_MOSI?ZF_SPI
   *DEL*:           000004H   BYTE   UNIT     EDATA          ?ED?SPI_INIT?ZF_SPI
   *DEL*:           00002DH   BYTE   INSEG    CODE           ?PR?UART_PUTBUFF?ZF_UART
   *DEL*:           00001EH   BYTE   INSEG    CODE           ?PR?UART_PUTSTR?ZF_UART
   *DEL*:           000004H   BYTE   UNIT     EDATA          ?ED?UART_PUTBUFF?ZF_UART
   *DEL*:           000002H   BYTE   UNIT     EDATA          ?ED?UART_PUTSTR?ZF_UART
   *DEL*:           000113H   BYTE   INSEG    CODE           ?PR?FIFO_READ_BUFFER?ZF_FIFO
   *DEL*:           000025H   BYTE   INSEG    CODE           ?PR?FIFO_CLEAR?ZF_FIFO
   *DEL*:           000046H   BYTE   INSEG    CODE           ?PR?FIFO_END_OFFSET?ZF_FIFO
   *DEL*:           000015H   BYTE   INSEG    CODE           ?PR?FIFO_USED?ZF_FIFO
   *DEL*:           000043H   BYTE   INSEG    CODE           ?PR?FIFO_INIT?ZF_FIFO
   *DEL*:           000004H   BYTE   UNIT     EDATA          ?ED?FIFO_INIT?ZF_FIFO
   *DEL*:           00000FH   BYTE   UNIT     EDATA          ?ED?FIFO_READ_BUFFER?ZF_FIFO
   *DEL*:           00008BH   BYTE   INSEG    CODE           ?PR?LCD_SHOWUINT16?SEEKFREE_18TFT
   *DEL*:           000082H   BYTE   INSEG    CODE           ?PR?LCD_SHOWINT32_SIMSPI?SEEKFREE_18TFT
   *DEL*:           0000DDH   BYTE   INSEG    CODE           ?PR?LCD_SHOWINT16_SIMSPI?SEEKFREE_18TFT
   *DEL*:           000082H   BYTE   INSEG    CODE           ?PR?LCD_SHOWINT32?SEEKFREE_18TFT
   *DEL*:           0000DDH   BYTE   INSEG    CODE           ?PR?LCD_SHOWINT16?SEEKFREE_18TFT
   *DEL*:           00002BH   BYTE   INSEG    CODE           ?PR?LCD_CLEAR_SIMSPI?SEEKFREE_18TFT
   *DEL*:           00002BH   BYTE   INSEG    CODE           ?PR?LCD_CLEAR?SEEKFREE_18TFT
   *DEL*:           00004EH   BYTE   INSEG    CODE           ?PR?LCD_SHOWSTR_SIMSPI?SEEKFREE_18TFT
   *DEL*:           00004EH   BYTE   INSEG    CODE           ?PR?LCD_SHOWSTR?SEEKFREE_18TFT
   *DEL*:           000029H   BYTE   INSEG    CODE           ?PR?LCD_WRITEINDEX_SIMSPI?SEEKFREE_18TFT
   *DEL*:           000029H   BYTE   INSEG    CODE           ?PR?LCD_WRITEDATA_SIMSPI?SEEKFREE_18TFT
   *DEL*:           00000AH   BYTE   INSEG    CODE           ?PR?LCD_WRITEINDEX?SEEKFREE_18TFT
   *DEL*:           00000AH   BYTE   INSEG    CODE           ?PR?LCD_WRITEDATA?SEEKFREE_18TFT
   *DEL*:           00002CH   BYTE   INSEG    CODE           ?PR?LCD_WRITEDATA_16BIT_SIMSPI?SEEKFREE_18TFT
   *DEL*:           00004CH   BYTE   INSEG    CODE           ?PR?LCD_SET_REGION_SIMSPI?SEEKFREE_18TFT
   *DEL*:           0001F1H   BYTE   INSEG    CODE           ?PR?LCD_INIT_SIMSPI?SEEKFREE_18TFT
   *DEL*:           00009AH   BYTE   INSEG    CODE           ?PR?SHOWIMAGE?SEEKFREE_18TFT
   *DEL*:           000050H   BYTE   INSEG    CODE           ?PR?LCD_SET_REGION?SEEKFREE_18TFT
   *DEL*:           0001EEH   BYTE   INSEG    CODE           ?PR?LCD_INIT?SEEKFREE_18TFT
L251 LINKER/LOCATER V4.66.93.0                                                        03/07/2024  21:02:42  PAGE 8


   *DEL*:           00007BH   BYTE   INSEG    CODE           ?PR?LCD_SHOWUINT8_SIMSPI?SEEKFREE_18TFT
   *DEL*:           00007BH   BYTE   INSEG    CODE           ?PR?LCD_SHOWUINT8?SEEKFREE_18TFT
   *DEL*:           0000B9H   BYTE   INSEG    CODE           ?PR?LCD_SHOWINT8_SIMSPI?SEEKFREE_18TFT
   *DEL*:           0000B9H   BYTE   INSEG    CODE           ?PR?LCD_SHOWINT8?SEEKFREE_18TFT
   *DEL*:           00001FH   BYTE   INSEG    CODE           ?PR?LCD_WRITEDATA_16BIT?SEEKFREE_18TFT
   *DEL*:           0000F8H   BYTE   INSEG    CODE           ?PR?LCD_SHOWFLOAT_SIMSPI?SEEKFREE_18TFT
   *DEL*:           000013H   BYTE   INSEG    CODE           ?PR?LCD_DRAWPOINT_SIMSPI?SEEKFREE_18TFT
   *DEL*:           0000F8H   BYTE   INSEG    CODE           ?PR?LCD_SHOWFLOAT?SEEKFREE_18TFT
   *DEL*:           000013H   BYTE   INSEG    CODE           ?PR?LCD_DRAWPOINT?SEEKFREE_18TFT
   *DEL*:           00008EH   BYTE   INSEG    CODE           ?PR?LCD_SHOWCHAR_SIMSPI?SEEKFREE_18TFT
   *DEL*:           00008EH   BYTE   INSEG    CODE           ?PR?LCD_SHOWCHAR?SEEKFREE_18TFT
   *DEL*:           00008BH   BYTE   INSEG    CODE           ?PR?LCD_SHOWUINT16_SIMSPI?SEEKFREE_18TFT
   *DEL*:           000004H   BYTE   UNIT     EDATA          ?ED?LCD_SET_REGION_SIMSPI?SEEKFREE_18TFT
   *DEL*:           000004H   BYTE   UNIT     EDATA          ?ED?LCD_SHOWCHAR_SIMSPI?SEEKFREE_18TFT
   *DEL*:           000006H   BYTE   UNIT     EDATA          ?ED?LCD_SHOWSTR_SIMSPI?SEEKFREE_18TFT
   *DEL*:           000005H   BYTE   UNIT     EDATA          ?ED?LCD_SHOWINT8_SIMSPI?SEEKFREE_18TFT
   *DEL*:           000004H   BYTE   UNIT     EDATA          ?ED?LCD_SHOWUINT8_SIMSPI?SEEKFREE_18TFT
   *DEL*:           000008H   BYTE   UNIT     EDATA          ?ED?LCD_SHOWINT16_SIMSPI?SEEKFREE_18TFT
   *DEL*:           000006H   BYTE   UNIT     EDATA          ?ED?LCD_SHOWUINT16_SIMSPI?SEEKFREE_18TFT
   *DEL*:           000028H   BYTE   UNIT     EDATA          ?ED?LCD_SHOWINT32_SIMSPI?SEEKFREE_18TFT
   *DEL*:           00002BH   BYTE   UNIT     EDATA          ?ED?LCD_SHOWFLOAT_SIMSPI?SEEKFREE_18TFT
   *DEL*:           000002H   BYTE   UNIT     EDATA          ?ED?LCD_WRITEDATA_16BIT?SEEKFREE_18TFT
   *DEL*:           000004H   BYTE   UNIT     EDATA          ?ED?LCD_SET_REGION?SEEKFREE_18TFT
   *DEL*:           000004H   BYTE   UNIT     EDATA          ?ED?LCD_SHOWCHAR?SEEKFREE_18TFT
   *DEL*:           000006H   BYTE   UNIT     EDATA          ?ED?LCD_SHOWSTR?SEEKFREE_18TFT
   *DEL*:           000005H   BYTE   UNIT     EDATA          ?ED?LCD_SHOWINT8?SEEKFREE_18TFT
   *DEL*:           000004H   BYTE   UNIT     EDATA          ?ED?LCD_SHOWUINT8?SEEKFREE_18TFT
   *DEL*:           000008H   BYTE   UNIT     EDATA          ?ED?LCD_SHOWINT16?SEEKFREE_18TFT
   *DEL*:           000006H   BYTE   UNIT     EDATA          ?ED?LCD_SHOWUINT16?SEEKFREE_18TFT
   *DEL*:           000028H   BYTE   UNIT     EDATA          ?ED?LCD_SHOWINT32?SEEKFREE_18TFT
   *DEL*:           00002BH   BYTE   UNIT     EDATA          ?ED?LCD_SHOWFLOAT?SEEKFREE_18TFT
   *DEL*:           000008H   BYTE   UNIT     EDATA          ?ED?SHOWIMAGE?SEEKFREE_18TFT
   *DEL*:           000011H   BYTE   INSEG    CODE           ?PR?ENCODER_SELF4_CHECK?SEEKFREE_ABSOLUTE_ENCODER
   *DEL*:           000011H   BYTE   INSEG    CODE           ?PR?ENCODER_SELF5_CHECK?SEEKFREE_ABSOLUTE_ENCODER
   *DEL*:           00002FH   BYTE   INSEG    CODE           ?PR?ENCODER_SPI_R_REG_BYTE?SEEKFREE_ABSOLUTE_ENCODER
   *DEL*:           000005H   BYTE   INSEG    CODE           ?PR?ENCODER_DELAY_US?SEEKFREE_ABSOLUTE_ENCODER
   *DEL*:           000038H   BYTE   INSEG    CODE           ?PR?ENCODER_SPI_W_REG_BYTE?SEEKFREE_ABSOLUTE_ENCODER
   *DEL*:           00001CH   BYTE   INSEG    CODE           ?PR?SIMSPI_R_REG_BYTE?SEEKFREE_ABSOLUTE_ENCODER
   *DEL*:           00001AH   BYTE   INSEG    CODE           ?PR?SIMSPI_W_REG_BYTE?SEEKFREE_ABSOLUTE_ENCODER
   *DEL*:           000029H   BYTE   INSEG    CODE           ?PR?ENCODER_INIT_SPI?SEEKFREE_ABSOLUTE_ENCODER
   *DEL*:           000004H   BYTE   INSEG    CODE           ?PR?SPI_WR_BYTE?SEEKFREE_ABSOLUTE_ENCODER
   *DEL*:           000024H   BYTE   INSEG    CODE           ?PR?SET_ZERO_POSITION_SIMSPI?SEEKFREE_ABSOLUTE_ENCODER
   *DEL*:           000023H   BYTE   INSEG    CODE           ?PR?ENCODER_ANGLE_SIMSPI?SEEKFREE_ABSOLUTE_ENCODER
   *DEL*:           00001CH   BYTE   INSEG    CODE           ?PR?SPI_R_REG_BYTE?SEEKFREE_ABSOLUTE_ENCODER
   *DEL*:           00001AH   BYTE   INSEG    CODE           ?PR?SPI_W_REG_BYTE?SEEKFREE_ABSOLUTE_ENCODER
   *DEL*:           00002FH   BYTE   INSEG    CODE           ?PR?ENCODER_SIMSPI_R_REG_BYTE?SEEKFREE_ABSOLUTE_ENCODER
   *DEL*:           000038H   BYTE   INSEG    CODE           ?PR?ENCODER_SIMSPI_W_REG_BYTE?SEEKFREE_ABSOLUTE_ENCODER
   *DEL*:           00000FH   BYTE   INSEG    CODE           ?PR?ENCODER_INIT_SIMSPI?SEEKFREE_ABSOLUTE_ENCODER
   *DEL*:           000024H   BYTE   INSEG    CODE           ?PR?SET_ZERO_POSITION_SPI?SEEKFREE_ABSOLUTE_ENCODER
   *DEL*:           00001FH   BYTE   INSEG    CODE           ?PR?SIMSPI_WR_BYTE?SEEKFREE_ABSOLUTE_ENCODER
   *DEL*:           000023H   BYTE   INSEG    CODE           ?PR?ENCODER_ANGLE_SPI?SEEKFREE_ABSOLUTE_ENCODER
   *DEL*:           000001H   BYTE   UNIT     EDATA          ?ED?ENCODER_SELF4_CHECK?SEEKFREE_ABSOLUTE_ENCODER
   *DEL*:           000001H   BYTE   UNIT     EDATA          ?ED?ENCODER_SELF5_CHECK?SEEKFREE_ABSOLUTE_ENCODER
   *DEL*:           00000FH   BYTE   INSEG    CODE           ?PR?SIMIIC_START?SEEKFREE_IIC
   *DEL*:           000066H   BYTE   INSEG    CODE           ?PR?SIMIIC_READ_REGS?SEEKFREE_IIC
   *DEL*:           000001H   BYTE   INSEG    CODE           ?PR?SIMIIC_INIT?SEEKFREE_IIC
   *DEL*:           000034H   BYTE   INSEG    CODE           ?PR?SIMIIC_READ_REG?SEEKFREE_IIC
   *DEL*:           000011H   BYTE   INSEG    CODE           ?PR?SIMIIC_STOP?SEEKFREE_IIC
   *DEL*:           000022H   BYTE   INSEG    CODE           ?PR?SIMIIC_WRITE_REG?SEEKFREE_IIC
   *DEL*:           000020H   BYTE   INSEG    CODE           ?PR?SIMIIC_SENDACK?SEEKFREE_IIC
   *DEL*:           00003BH   BYTE   INSEG    CODE           ?PR?READ_CH?SEEKFREE_IIC
   *DEL*:           00002EH   BYTE   INSEG    CODE           ?PR?SEND_CH?SEEKFREE_IIC
   *DEL*:           00001CH   BYTE   INSEG    CODE           ?PR?SCCB_WAITACK?SEEKFREE_IIC
   *DEL*:           00000BH   BYTE   INSEG    CODE           ?PR?SIMIIC_DELAY?SEEKFREE_IIC
   *DEL*:           000005H   BYTE   UNIT     EDATA          ?ED?SIMIIC_READ_REGS?SEEKFREE_IIC
L251 LINKER/LOCATER V4.66.93.0                                                        03/07/2024  21:02:42  PAGE 9


   *DEL*:           000055H   BYTE   INSEG    CODE           ?PR?MPU6050_INIT?SEEKFREE_MPU6050
   *DEL*:           00002CH   BYTE   INSEG    CODE           ?PR?MPU6050_SELF1_CHECK?SEEKFREE_MPU6050
   *DEL*:           000044H   BYTE   INSEG    CODE           ?PR?MPU6050_GET_GYRO?SEEKFREE_MPU6050
   *DEL*:           000044H   BYTE   INSEG    CODE           ?PR?MPU6050_GET_ACCDATA?SEEKFREE_MPU6050
   *DEL*:           000006H   BYTE   UNIT     EDATA          ?ED?MPU6050_GET_ACCDATA?SEEKFREE_MPU6050
   *DEL*:           000006H   BYTE   UNIT     EDATA          ?ED?MPU6050_GET_GYRO?SEEKFREE_MPU6050
   *DEL*:           000033H   BYTE   INSEG    CODE           ?PR?OLED_PUTPIXEL?SEEKFREE_OLED
   *DEL*:           000032H   BYTE   INSEG    CODE           ?PR?OLED_HEXASCII_SPI?SEEKFREE_OLED
   *DEL*:           000325H   BYTE   INSEG    CODE           ?PR?OLED_DIS_BMP_SPI?SEEKFREE_OLED
   *DEL*:           0000E8H   BYTE   INSEG    CODE           ?PR?OLED_P8X16STR_SPI?SEEKFREE_OLED
   *DEL*:           00002AH   BYTE   INSEG    CODE           ?PR?OLED_CLRPIXEL_SPI?SEEKFREE_OLED
   *DEL*:           000090H   BYTE   INSEG    CODE           ?PR?OLED_PRINT_CHINESE_SPI?SEEKFREE_OLED
   *DEL*:           000082H   BYTE   INSEG    CODE           ?PR?OLED_PRINTF_INT32?SEEKFREE_OLED
   *DEL*:           00001DH   BYTE   INSEG    CODE           ?PR?OLED_UINT16?SEEKFREE_OLED
   *DEL*:           000031H   BYTE   INSEG    CODE           ?PR?OLED_PUTPIXEL_SPI?SEEKFREE_OLED
   *DEL*:           000021H   BYTE   INSEG    CODE           ?PR?OLED_SET_POS_SPI?SEEKFREE_OLED
   *DEL*:           0000A9H   BYTE   INSEG    CODE           ?PR?OLED_P6X8STR?SEEKFREE_OLED
   *DEL*:           00004BH   BYTE   INSEG    CODE           ?PR?OLED_INT16?SEEKFREE_OLED
   *DEL*:           0000F8H   BYTE   INSEG    CODE           ?PR?OLED_PRINTF_FLOAT_SPI?SEEKFREE_OLED
   *DEL*:           00000AH   BYTE   INSEG    CODE           ?PR?OLED_WRCMD_SPI?SEEKFREE_OLED
   *DEL*:           00000AH   BYTE   INSEG    CODE           ?PR?OLED_WRDAT_SPI?SEEKFREE_OLED
   *DEL*:           000032H   BYTE   INSEG    CODE           ?PR?OLED_HEXASCII?SEEKFREE_OLED
   *DEL*:           000033H   BYTE   INSEG    CODE           ?PR?OLED_FILL_SPI?SEEKFREE_OLED
   *DEL*:           000082H   BYTE   INSEG    CODE           ?PR?OLED_PRINTF_INT32_SPI?SEEKFREE_OLED
   *DEL*:           00001DH   BYTE   INSEG    CODE           ?PR?OLED_UINT16_SPI?SEEKFREE_OLED
   *DEL*:           0000A9H   BYTE   INSEG    CODE           ?PR?OLED_P6X8STR_SPI?SEEKFREE_OLED
   *DEL*:           00004BH   BYTE   INSEG    CODE           ?PR?OLED_INT16_SPI?SEEKFREE_OLED
   *DEL*:           00033BH   BYTE   INSEG    CODE           ?PR?OLED_DIS_BMP?SEEKFREE_OLED
   *DEL*:           0000BFH   BYTE   INSEG    CODE           ?PR?OLED_INIT_SPI?SEEKFREE_OLED
   *DEL*:           00002CH   BYTE   INSEG    CODE           ?PR?OLED_CLRPIXEL?SEEKFREE_OLED
   *DEL*:           000090H   BYTE   INSEG    CODE           ?PR?OLED_PRINT_CHINESE?SEEKFREE_OLED
   *DEL*:           000005H   BYTE   UNIT     EDATA          ?ED?OLED_P6X8STR?SEEKFREE_OLED
   *DEL*:           000007H   BYTE   UNIT     EDATA          ?ED?OLED_UINT16?SEEKFREE_OLED
   *DEL*:           000007H   BYTE   UNIT     EDATA          ?ED?OLED_INT16?SEEKFREE_OLED
   *DEL*:           000028H   BYTE   UNIT     EDATA          ?ED?OLED_PRINTF_INT32?SEEKFREE_OLED
   *DEL*:           00000CH   BYTE   UNIT     EDATA          ?ED?OLED_DIS_BMP?SEEKFREE_OLED
   *DEL*:           00000AH   BYTE   UNIT     EDATA          ?ED?OLED_PRINT_CHINESE?SEEKFREE_OLED
   *DEL*:           000005H   BYTE   UNIT     EDATA          ?ED?OLED_P6X8STR_SPI?SEEKFREE_OLED
   *DEL*:           000005H   BYTE   UNIT     EDATA          ?ED?OLED_P8X16STR_SPI?SEEKFREE_OLED
   *DEL*:           000007H   BYTE   UNIT     EDATA          ?ED?OLED_UINT16_SPI?SEEKFREE_OLED
   *DEL*:           000007H   BYTE   UNIT     EDATA          ?ED?OLED_INT16_SPI?SEEKFREE_OLED
   *DEL*:           000028H   BYTE   UNIT     EDATA          ?ED?OLED_PRINTF_INT32_SPI?SEEKFREE_OLED
   *DEL*:           00002BH   BYTE   UNIT     EDATA          ?ED?OLED_PRINTF_FLOAT_SPI?SEEKFREE_OLED
   *DEL*:           00000CH   BYTE   UNIT     EDATA          ?ED?OLED_DIS_BMP_SPI?SEEKFREE_OLED
   *DEL*:           00000AH   BYTE   UNIT     EDATA          ?ED?OLED_PRINT_CHINESE_SPI?SEEKFREE_OLED
   *DEL*:           00005EH   BYTE   INSEG    CODE           ?PR?AT24C02_READ_BYTES?SEEKFREE_AT24C02
   *DEL*:           000017H   BYTE   INSEG    CODE           ?PR?AT24C02_READ_BYTE?SEEKFREE_AT24C02
   *DEL*:           00005BH   BYTE   INSEG    CODE           ?PR?AT24C02_WRITE_BYTES?SEEKFREE_AT24C02
   *DEL*:           000019H   BYTE   INSEG    CODE           ?PR?AT24C02_WRITE_BYTE?SEEKFREE_AT24C02
   *DEL*:           000002H   BYTE   UNIT     EDATA          ?ED?AT24C02_WRITE_BYTES?SEEKFREE_AT24C02
   *DEL*:           000002H   BYTE   UNIT     EDATA          ?ED?AT24C02_READ_BYTES?SEEKFREE_AT24C02
   *DEL*:           000022H   BYTE   INSEG    CODE           ?PR?BLUETOOTH_CH9141_READ_BUFF?SEEKFREE_BLUETOOTH_CH9141
   *DEL*:           0000ABH   BYTE   INSEG    CODE           ?PR?BLUETOOTH_CH9141_SEND_BUFF?SEEKFREE_BLUETOOTH_CH9141
   *DEL*:           00003CH   BYTE   INSEG    CODE           ?PR?BLUETOOTH_CH9141_INIT?SEEKFREE_BLUETOOTH_CH9141
   *DEL*:           000006H   BYTE   UNIT     EDATA          ?ED?BLUETOOTH_CH9141_SEND_BUFF?SEEKFREE_BLUETOOTH_CH9141
   *DEL*:           000004H   BYTE   UNIT     EDATA          ?ED?BLUETOOTH_CH9141_READ_BUFF?SEEKFREE_BLUETOOTH_CH9141
   *DEL*:           00001FH   BYTE   INSEG    CODE           ?PR?ICM_SIMSPI_WR_BYTE?SEEKFREE_ICM20602
   *DEL*:           000075H   BYTE   INSEG    CODE           ?PR?ICM20602_INIT_SIMIIC?SEEKFREE_ICM20602
   *DEL*:           000040H   BYTE   INSEG    CODE           ?PR?ICM_SIMSPI_R_REG_BYTES?SEEKFREE_ICM20602
   *DEL*:           00001CH   BYTE   INSEG    CODE           ?PR?ICM_SIMSPI_R_REG_BYTE?SEEKFREE_ICM20602
   *DEL*:           000013H   BYTE   INSEG    CODE           ?PR?ICM_SIMSPI_W_REG_BYTE?SEEKFREE_ICM20602
   *DEL*:           000059H   BYTE   INSEG    CODE           ?PR?ICM20602_INIT_SIMSPI?SEEKFREE_ICM20602
   *DEL*:           00002BH   BYTE   INSEG    CODE           ?PR?ICM20602_SELF1_CHECK?SEEKFREE_ICM20602
   *DEL*:           000011H   BYTE   INSEG    CODE           ?PR?ICM20602_SELF4_CHECK?SEEKFREE_ICM20602
   *DEL*:           000044H   BYTE   INSEG    CODE           ?PR?GET_ICM20602_GYRO_SIMIIC?SEEKFREE_ICM20602
L251 LINKER/LOCATER V4.66.93.0                                                        03/07/2024  21:02:42  PAGE 10


   *DEL*:           000044H   BYTE   INSEG    CODE           ?PR?GET_ICM20602_ACCDATA_SIMIIC?SEEKFREE_ICM20602
   *DEL*:           00003DH   BYTE   INSEG    CODE           ?PR?GET_ICM20602_GYRO_SIMSPI?SEEKFREE_ICM20602
   *DEL*:           00003DH   BYTE   INSEG    CODE           ?PR?GET_ICM20602_ACCDATA_SIMSPI?SEEKFREE_ICM20602
   *DEL*:           000006H   BYTE   UNIT     EDATA          ?ED?GET_ICM20602_ACCDATA_SIMIIC?SEEKFREE_ICM20602
   *DEL*:           000006H   BYTE   UNIT     EDATA          ?ED?GET_ICM20602_GYRO_SIMIIC?SEEKFREE_ICM20602
   *DEL*:           000003H   BYTE   UNIT     EDATA          ?ED?ICM_SIMSPI_R_REG_BYTES?SEEKFREE_ICM20602
   *DEL*:           000001H   BYTE   UNIT     EDATA          ?ED?ICM20602_SELF4_CHECK?SEEKFREE_ICM20602
   *DEL*:           000001H   BYTE   UNIT     EDATA          ?ED?ICM20602_INIT_SIMSPI?SEEKFREE_ICM20602
   *DEL*:           000006H   BYTE   UNIT     EDATA          ?ED?GET_ICM20602_ACCDATA_SIMSPI?SEEKFREE_ICM20602
   *DEL*:           000006H   BYTE   UNIT     EDATA          ?ED?GET_ICM20602_GYRO_SIMSPI?SEEKFREE_ICM20602
   *DEL*:           00007BH   BYTE   INSEG    CODE           ?PR?IPS114_SHOWUINT8_SIMSPI?SEEKFREE_IPS114_SPI
   *DEL*:           000077H   BYTE   INSEG    CODE           ?PR?IPS114_SHOWUINT8?SEEKFREE_IPS114_SPI
   *DEL*:           0000B9H   BYTE   INSEG    CODE           ?PR?IPS114_SHOWINT8_SIMSPI?SEEKFREE_IPS114_SPI
   *DEL*:           0000B5H   BYTE   INSEG    CODE           ?PR?IPS114_SHOWINT8?SEEKFREE_IPS114_SPI
   *DEL*:           00001FH   BYTE   INSEG    CODE           ?PR?IPS114_WRITEDATA_16BIT?SEEKFREE_IPS114_SPI
   *DEL*:           0000F8H   BYTE   INSEG    CODE           ?PR?IPS114_SHOWFLOAT_SIMSPI?SEEKFREE_IPS114_SPI
   *DEL*:           000013H   BYTE   INSEG    CODE           ?PR?IPS114_DRAWPOINT_SIMSPI?SEEKFREE_IPS114_SPI
   *DEL*:           0000F8H   BYTE   INSEG    CODE           ?PR?IPS114_SHOWFLOAT?SEEKFREE_IPS114_SPI
   *DEL*:           000013H   BYTE   INSEG    CODE           ?PR?IPS114_DRAWPOINT?SEEKFREE_IPS114_SPI
   *DEL*:           00008EH   BYTE   INSEG    CODE           ?PR?IPS114_SHOWCHAR_SIMSPI?SEEKFREE_IPS114_SPI
   *DEL*:           00008EH   BYTE   INSEG    CODE           ?PR?IPS114_SHOWCHAR?SEEKFREE_IPS114_SPI
   *DEL*:           00008BH   BYTE   INSEG    CODE           ?PR?IPS114_SHOWUINT16_SIMSPI?SEEKFREE_IPS114_SPI
   *DEL*:           00008BH   BYTE   INSEG    CODE           ?PR?IPS114_SHOWUINT16?SEEKFREE_IPS114_SPI
   *DEL*:           000082H   BYTE   INSEG    CODE           ?PR?IPS114_SHOWINT32_SIMSPI?SEEKFREE_IPS114_SPI
   *DEL*:           0000DDH   BYTE   INSEG    CODE           ?PR?IPS114_SHOWINT16_SIMSPI?SEEKFREE_IPS114_SPI
   *DEL*:           000082H   BYTE   INSEG    CODE           ?PR?IPS114_SHOWINT32?SEEKFREE_IPS114_SPI
   *DEL*:           0000D9H   BYTE   INSEG    CODE           ?PR?IPS114_SHOWINT16?SEEKFREE_IPS114_SPI
   *DEL*:           00003CH   BYTE   INSEG    CODE           ?PR?IPS114_CLEAR_SIMSPI?SEEKFREE_IPS114_SPI
   *DEL*:           00003CH   BYTE   INSEG    CODE           ?PR?IPS114_CLEAR?SEEKFREE_IPS114_SPI
   *DEL*:           00002CH   BYTE   INSEG    CODE           ?PR?IPS114_WRITEDATAI_16BIT_SIMSPI?SEEKFREE_IPS114_SPI
   *DEL*:           00004EH   BYTE   INSEG    CODE           ?PR?IPS114_SHOWSTR_SIMSPI?SEEKFREE_IPS114_SPI
   *DEL*:           00004EH   BYTE   INSEG    CODE           ?PR?IPS114_SHOWSTR?SEEKFREE_IPS114_SPI
   *DEL*:           000029H   BYTE   INSEG    CODE           ?PR?IPS114_WRITEINDEX_SIMSPI?SEEKFREE_IPS114_SPI
   *DEL*:           000029H   BYTE   INSEG    CODE           ?PR?IPS114_WRITEDATA_SIMSPI?SEEKFREE_IPS114_SPI
   *DEL*:           00000AH   BYTE   INSEG    CODE           ?PR?IPS114_WRITEINDEX?SEEKFREE_IPS114_SPI
   *DEL*:           00000AH   BYTE   INSEG    CODE           ?PR?IPS114_WRITEDATA?SEEKFREE_IPS114_SPI
   *DEL*:           000044H   BYTE   INSEG    CODE           ?PR?IPS114_SET_REGION_SIMSPI?SEEKFREE_IPS114_SPI
   *DEL*:           00014FH   BYTE   INSEG    CODE           ?PR?IPS114_INIT_SIMSPI?SEEKFREE_IPS114_SPI
   *DEL*:           000048H   BYTE   INSEG    CODE           ?PR?IPS114_SET_REGION?SEEKFREE_IPS114_SPI
   *DEL*:           00016DH   BYTE   INSEG    CODE           ?PR?IPS114_INIT?SEEKFREE_IPS114_SPI
   *DEL*:           000004H   BYTE   UNIT     EDATA          ?ED?IPS114_SET_REGION_SIMSPI?SEEKFREE_IPS114_SPI
   *DEL*:           000002H   BYTE   UNIT     EDATA          ?ED?IPS114_CLEAR_SIMSPI?SEEKFREE_IPS114_SPI
   *DEL*:           000004H   BYTE   UNIT     EDATA          ?ED?IPS114_SHOWCHAR_SIMSPI?SEEKFREE_IPS114_SPI
   *DEL*:           000006H   BYTE   UNIT     EDATA          ?ED?IPS114_SHOWSTR_SIMSPI?SEEKFREE_IPS114_SPI
   *DEL*:           000005H   BYTE   UNIT     EDATA          ?ED?IPS114_SHOWINT8_SIMSPI?SEEKFREE_IPS114_SPI
   *DEL*:           000004H   BYTE   UNIT     EDATA          ?ED?IPS114_SHOWUINT8_SIMSPI?SEEKFREE_IPS114_SPI
   *DEL*:           000008H   BYTE   UNIT     EDATA          ?ED?IPS114_SHOWINT16_SIMSPI?SEEKFREE_IPS114_SPI
   *DEL*:           000006H   BYTE   UNIT     EDATA          ?ED?IPS114_SHOWUINT16_SIMSPI?SEEKFREE_IPS114_SPI
   *DEL*:           000028H   BYTE   UNIT     EDATA          ?ED?IPS114_SHOWINT32_SIMSPI?SEEKFREE_IPS114_SPI
   *DEL*:           00002BH   BYTE   UNIT     EDATA          ?ED?IPS114_SHOWFLOAT_SIMSPI?SEEKFREE_IPS114_SPI
   *DEL*:           000002H   BYTE   UNIT     EDATA          ?ED?IPS114_WRITEDATA_16BIT?SEEKFREE_IPS114_SPI
   *DEL*:           000004H   BYTE   UNIT     EDATA          ?ED?IPS114_SET_REGION?SEEKFREE_IPS114_SPI
   *DEL*:           000002H   BYTE   UNIT     EDATA          ?ED?IPS114_CLEAR?SEEKFREE_IPS114_SPI
   *DEL*:           000004H   BYTE   UNIT     EDATA          ?ED?IPS114_SHOWCHAR?SEEKFREE_IPS114_SPI
   *DEL*:           000006H   BYTE   UNIT     EDATA          ?ED?IPS114_SHOWSTR?SEEKFREE_IPS114_SPI
   *DEL*:           000005H   BYTE   UNIT     EDATA          ?ED?IPS114_SHOWINT8?SEEKFREE_IPS114_SPI
   *DEL*:           000004H   BYTE   UNIT     EDATA          ?ED?IPS114_SHOWUINT8?SEEKFREE_IPS114_SPI
   *DEL*:           000008H   BYTE   UNIT     EDATA          ?ED?IPS114_SHOWINT16?SEEKFREE_IPS114_SPI
   *DEL*:           000006H   BYTE   UNIT     EDATA          ?ED?IPS114_SHOWUINT16?SEEKFREE_IPS114_SPI
   *DEL*:           000028H   BYTE   UNIT     EDATA          ?ED?IPS114_SHOWINT32?SEEKFREE_IPS114_SPI
   *DEL*:           00002BH   BYTE   UNIT     EDATA          ?ED?IPS114_SHOWFLOAT?SEEKFREE_IPS114_SPI
   *DEL*:           000070H   BYTE   INSEG    CODE           ?PR?CCD_SEND_DATA?SEEKFREE_TSL1401
   *DEL*:           000016H   BYTE   INSEG    CODE           ?PR?CCD_INIT?SEEKFREE_TSL1401
   *DEL*:           000035H   BYTE   INSEG    CODE           ?PR?CCD_COLLECT?SEEKFREE_TSL1401
   *DEL*:           000003H   BYTE   UNIT     EDATA          ?ED?CCD_SEND_DATA?SEEKFREE_TSL1401
L251 LINKER/LOCATER V4.66.93.0                                                        03/07/2024  21:02:42  PAGE 11


   *DEL*:           00003AH   BYTE   INSEG    CODE           ?PR?CRC_CHECK?SEEKFREE_VIRSCO
   *DEL*:           000069H   BYTE   INSEG    CODE           ?PR?DATA_CONVERSION?SEEKFREE_VIRSCO
   *DEL*:           000004H   BYTE   UNIT     EDATA          ?ED?DATA_CONVERSION?SEEKFREE_VIRSCO
   *DEL*:           000022H   BYTE   INSEG    CODE           ?PR?WIRELESS_UART_READ_BUFF?SEEKFREE_WIRELESS
   *DEL*:           00005DH   BYTE   INSEG    CODE           ?PR?WIRELESS_UART_SEND_BUFF?SEEKFREE_WIRELESS
   *DEL*:           00003CH   BYTE   INSEG    CODE           ?PR?WIRELESS_UART_INIT?SEEKFREE_WIRELESS
   *DEL*:           000002H   BYTE   UNIT     EDATA          ?ED?WIRELESS_UART_SEND_BUFF?SEEKFREE_WIRELESS
   *DEL*:           000004H   BYTE   UNIT     EDATA          ?ED?WIRELESS_UART_READ_BUFF?SEEKFREE_WIRELESS
   *DEL*:           000022H   BYTE   INSEG    CODE           ?PR?WIRELESS_CH573_READ_BUFF?SEEKFREE_WIRELESS_CH573
   *DEL*:           00005DH   BYTE   INSEG    CODE           ?PR?WIRELESS_CH573_SEND_BUFF?SEEKFREE_WIRELESS_CH573
   *DEL*:           00003CH   BYTE   INSEG    CODE           ?PR?WIRELESS_CH573_INIT?SEEKFREE_WIRELESS_CH573
   *DEL*:           000002H   BYTE   UNIT     EDATA          ?ED?WIRELESS_CH573_SEND_BUFF?SEEKFREE_WIRELESS_CH573
   *DEL*:           000004H   BYTE   UNIT     EDATA          ?ED?WIRELESS_CH573_READ_BUFF?SEEKFREE_WIRELESS_CH573
   *DEL*:           000013H   BYTE   INSEG    CODE           ?PR?MPU_SET_GYRO_FSR?MPU6050
   *DEL*:           000058H   BYTE   INSEG    CODE           ?PR?MPU_GET_ACCELEROMETER?MPU6050
   *DEL*:           000041H   BYTE   INSEG    CODE           ?PR?MPU_SET_LPF?MPU6050
   *DEL*:           000016H   BYTE   INSEG    CODE           ?PR?MPU_READ_BYTE?MPU6050
   *DEL*:           000013H   BYTE   INSEG    CODE           ?PR?MPU_SET_ACCEL_FSR?MPU6050
   *DEL*:           000031H   BYTE   INSEG    CODE           ?PR?ZERO_ALL?MPU6050
   *DEL*:           000069H   BYTE   INSEG    CODE           ?PR?MPU_INIT?MPU6050
   *DEL*:           00003BH   BYTE   INSEG    CODE           ?PR?MPU_GET_TEMPERATURE?MPU6050
   *DEL*:           000037H   BYTE   INSEG    CODE           ?PR?MPU_SET_RATE?MPU6050
   *DEL*:           000001H   BYTE   UNIT     EDATA          ?ED?MPU_READ_BYTE?MPU6050
   *DEL*:           000002H   BYTE   UNIT     EDATA          ?ED?MPU_GET_TEMPERATURE?MPU6050
   *DEL*:           00000EH   BYTE   UNIT     EDATA          ?ED?MPU_GET_ACCELEROMETER?MPU6050
   *DEL*:           00005DH   BYTE   INSEG    CODE           ?PR?VL53L0X_GET_DISTANCE?TOF
   *DEL*:           000054H   BYTE   INSEG    CODE           ?PR?VL53L0X_SIMIIC_READ_REGS_1?TOF
   *DEL*:           000006H   BYTE   UNIT     EDATA          ?ED?VL53L0X_SIMIIC_READ_REGS_1?TOF
   *DEL*:           000003H   BYTE   UNIT     EDATA          ?ED?VL53L0X_GET_DISTANCE?TOF
   *DEL*:           0000C7H   BYTE   INSEG    CODE           ?PR?ELEM_BARRIER?ELEMENT
   *DEL*:           00002DH   BYTE   INSEG    CODE           ?PR?OLED_CHANGE_VALUE?UI



OVERLAY MAP OF MODULE:   .\Out_File\SEEKFREE (board)


FUNCTION/MODULE                               EDATA_GROUP
--> CALLED FUNCTION/MODULE                    START  STOP
=========================================================
UART1_Isr/isr                                 ----- -----

*** NEW ROOT ********************************

UART2_Isr/isr                                 ----- -----

*** NEW ROOT ********************************

UART3_Isr/isr                                 ----- -----

*** NEW ROOT ********************************

UART4_Isr/isr                                 ----- -----
  +--> wireless_uart_callback/SEEKFREE_WIRELESS
  +--> bluetooth_ch9141_uart_callback/SEEKFREE_BLUETOOTH_CH9141
  +--> wireless_ch573_callback/SEEKFREE_WIRELESS_CH573

wireless_uart_callback/SEEKFREE_WIRELESS      ----- -----
  +--> fifo_write_buffer/zf_fifo

fifo_write_buffer/zf_fifo                     030BH 0316H
  +--> memcpy?_/memcpy
  +--> fifo_head_offset/zf_fifo

memcpy?_/memcpy                               ----- -----
L251 LINKER/LOCATER V4.66.93.0                                                        03/07/2024  21:02:42  PAGE 12



fifo_head_offset/zf_fifo                      ----- -----

bluetooth_ch9141_uart_callback/SEEKFREE_+     ----- -----
... BLUETOOTH_CH9141
  +--> fifo_write_buffer/zf_fifo

wireless_ch573_callback/SEEKFREE_WIRELES+     ----- -----
... S_CH573
  +--> fifo_write_buffer/zf_fifo

*** NEW ROOT ********************************

INT0_Isr/isr                                  ----- -----

*** NEW ROOT ********************************

INT1_Isr/isr                                  ----- -----

*** NEW ROOT ********************************

INT2_Isr/isr                                  ----- -----

*** NEW ROOT ********************************

INT3_Isr/isr                                  ----- -----

*** NEW ROOT ********************************

INT4_Isr/isr                                  ----- -----

*** NEW ROOT ********************************

TM0_Isr/isr                                   ----- -----

*** NEW ROOT ********************************

TM1_Isr/isr                                   ----- -----

*** NEW ROOT ********************************

TM2_Isr/isr                                   ----- -----

*** NEW ROOT ********************************

TM3_Isr/isr                                   ----- -----

*** NEW ROOT ********************************

TM4_Isr/isr                                   ----- -----
  +--> pwm_duty/zf_pwm

pwm_duty/zf_pwm                               ----- -----

*** NEW ROOT ********************************

?C_C51STARTUP                                 ----- -----

*** NEW ROOT ********************************

?C_C51STARTUP?3                               ----- -----
  +--> main/main

main/main                                     ----- -----
  +--> Init_all/main
L251 LINKER/LOCATER V4.66.93.0                                                        03/07/2024  21:02:42  PAGE 13


  +--> EnableGlobalIRQ/board
  +--> PRINTF/PRINTF
  +--> ui_show/UI
  +--> GetKey_Value/Key
  +--> oled_all_static_state/UI
  +--> ADC_GetValue/ADC
  +--> MPU6050_Refresh_DMP/MPU6050
  +--> MPU_Get_Gyroscope/MPU6050
  +--> Get_Ratio/main
  +--> Elem_Circle_L/Element
  +--> Elem_Circle_R/Element
  +--> PID_Calculate/PID
  +--> Limit_Out/motor
  +--> Elem_Up_Down/Element
  +--> Get_Speed/motor
  +--> Left_SetSpeed/motor
  +--> Right_SetSpeed/motor

Init_all/main                                 ----- -----
  +--> DisableGlobalIRQ/board
  +--> board_init/board
  +--> gpio_mode/zf_gpio
  +--> Key_Init/Key
  +--> vl53l0x_init/TOF
  +--> ui_init/UI
  +--> MPU6050_DMP_Init/MPU6050
  +--> pit_timer_ms/zf_tim
  +--> ctimer_count_init/zf_tim
  +--> Motor_Init/motor
  +--> Buzzer_Init/Buzzer
  +--> ADC_InitAll/ADC
  +--> PID_Init/PID

DisableGlobalIRQ/board                        ----- -----

board_init/board                              ----- -----
  +--> delay_init/zf_delay
  +--> uart_init/zf_uart

delay_init/zf_delay                           ----- -----
  +--> ?C?SLDIV/?C?SLDIV

?C?SLDIV/?C?SLDIV                             ----- -----
  +--> ?C?ULIDIV/?C?ULDIV

?C?ULIDIV/?C?ULDIV                            ----- -----

uart_init/zf_uart                             0317H 031CH
  +--> ?C?ULIDIV/?C?ULDIV

gpio_mode/zf_gpio                             ----- -----

Key_Init/Key                                  ----- -----
  +--> gpio_mode/zf_gpio

vl53l0x_init/TOF                              0317H 0328H
  +--> memset?_/memset
  +--> delay_ms/zf_delay
  +--> vl53l0x_simiic_read_reg/TOF
  +--> vl53l0x_simiic_write_reg/TOF
  +--> vl53l0x_simiic_read_regs/TOF
  +--> vl53l0x_set_signal_rate_limit/TOF
  +--> vl53l0x_get_spad_info/TOF
  +--> PRINTF/PRINTF
  +--> vl53l0x_simiic_write_dats/TOF
L251 LINKER/LOCATER V4.66.93.0                                                        03/07/2024  21:02:42  PAGE 14


  +--> vl53l0x_get_measurement_timing_budget/TOF
  +--> vl53l0x_set_measurement_timing_budget/TOF
  +--> vl53l0x_perform_single_ref_calibration/TOF

memset?_/memset                               ----- -----

delay_ms/zf_delay                             ----- -----

vl53l0x_simiic_read_reg/TOF                   ----- -----
  +--> vl53l0x_simiic_start/TOF
  +--> vl53l0x_send_ch/TOF
  +--> vl53l0x_read_ch/TOF
  +--> vl53l0x_simiic_stop/TOF

vl53l0x_simiic_start/TOF                      ----- -----
  +--> vl53l0x_simiic_delay/TOF

vl53l0x_simiic_delay/TOF                      ----- -----

vl53l0x_send_ch/TOF                           ----- -----
  +--> vl53l0x_simiic_delay/TOF
  +--> vl53l0x_sccb_waitack/TOF

vl53l0x_sccb_waitack/TOF                      ----- -----
  +--> vl53l0x_simiic_delay/TOF

vl53l0x_read_ch/TOF                           ----- -----
  +--> vl53l0x_simiic_delay/TOF
  +--> vl53l0x_simiic_sendack/TOF

vl53l0x_simiic_sendack/TOF                    ----- -----
  +--> vl53l0x_simiic_delay/TOF

vl53l0x_simiic_stop/TOF                       ----- -----
  +--> vl53l0x_simiic_delay/TOF

vl53l0x_simiic_write_reg/TOF                  ----- -----
  +--> vl53l0x_simiic_start/TOF
  +--> vl53l0x_send_ch/TOF
  +--> vl53l0x_simiic_stop/TOF

vl53l0x_simiic_read_regs/TOF                  0353H 0358H
  +--> vl53l0x_simiic_start/TOF
  +--> vl53l0x_send_ch/TOF
  +--> vl53l0x_read_ch/TOF
  +--> vl53l0x_simiic_stop/TOF

vl53l0x_set_signal_rate_limit/TOF             0329H 032BH
  +--> vl53l0x_simiic_write_dats/TOF

vl53l0x_simiic_write_dats/TOF                 034CH 0350H
  +--> vl53l0x_simiic_start/TOF
  +--> vl53l0x_send_ch/TOF
  +--> vl53l0x_simiic_stop/TOF

vl53l0x_get_spad_info/TOF                     0329H 0330H
  +--> vl53l0x_simiic_write_reg/TOF
  +--> vl53l0x_simiic_read_regs/TOF

PRINTF/PRINTF                                 0329H 0350H
  +--> OUT/PRINTF

OUT/PRINTF                                    ----- -----
  +--> PUTCH/PRINTF

L251 LINKER/LOCATER V4.66.93.0                                                        03/07/2024  21:02:42  PAGE 15


PUTCH/PRINTF                                  ----- -----
  +--> putchar/board
  +--> OUT/PRINTF

putchar/board                                 ----- -----
  +--> uart_putchar/zf_uart

uart_putchar/zf_uart                          ----- -----

vl53l0x_get_measurement_timing_budget/TO+     0329H 0343H
... F
  +--> vl53l0x_get_sequence_step_enables/TOF
  +--> vl53l0x_get_sequence_step_timeouts/TOF

vl53l0x_get_sequence_step_enables/TOF         034CH 034CH
  +--> vl53l0x_simiic_read_regs/TOF

vl53l0x_get_sequence_step_timeouts/TOF        034CH 0351H
  +--> vl53l0x_get_vcsel_pulse_period/TOF
  +--> vl53l0x_simiic_read_regs/TOF
  +--> vl53l0x_timeout_mclks_to_microseconds/TOF
  +--> vl53l0x_decode_timeout/TOF

vl53l0x_get_vcsel_pulse_period/TOF            0352H 0352H
  +--> vl53l0x_simiic_read_regs/TOF

vl53l0x_timeout_mclks_to_microseconds/TO+     ----- -----
... F
  +--> ?C?ULIDIV/?C?ULDIV

vl53l0x_decode_timeout/TOF                    ----- -----

vl53l0x_set_measurement_timing_budget/TO+     0329H 034BH
... F
  +--> vl53l0x_get_sequence_step_enables/TOF
  +--> vl53l0x_get_sequence_step_timeouts/TOF
  +--> vl53l0x_timeout_microseconds_to_mclks/TOF
  +--> vl53l0x_encode_timeout/TOF
  +--> vl53l0x_simiic_write_dats/TOF

vl53l0x_timeout_microseconds_to_mclks/TO+     ----- -----
... F
  +--> ?C?ULIDIV/?C?ULDIV

vl53l0x_encode_timeout/TOF                    ----- -----

vl53l0x_perform_single_ref_calibration/T+     0329H 032BH
... OF
  +--> vl53l0x_simiic_write_reg/TOF
  +--> vl53l0x_simiic_read_regs/TOF

ui_init/UI                                    ----- -----
  +--> oled_init/SEEKFREE_OLED
  +--> value_name_init/UI
  +--> oled_all_static_state/UI

oled_init/SEEKFREE_OLED                       ----- -----
  +--> delay_ms/zf_delay
  +--> oled_wrcmd/SEEKFREE_OLED
  +--> oled_fill/SEEKFREE_OLED
  +--> oled_set_pos/SEEKFREE_OLED

oled_wrcmd/SEEKFREE_OLED                      ----- -----

oled_fill/SEEKFREE_OLED                       ----- -----
L251 LINKER/LOCATER V4.66.93.0                                                        03/07/2024  21:02:42  PAGE 16


  +--> oled_wrcmd/SEEKFREE_OLED
  +--> oled_wrdat/SEEKFREE_OLED

oled_wrdat/SEEKFREE_OLED                      ----- -----

oled_set_pos/SEEKFREE_OLED                    ----- -----
  +--> oled_wrcmd/SEEKFREE_OLED

value_name_init/UI                            ----- -----
  +--> STRCPY?_/STRCPY?_

STRCPY?_/STRCPY?_                             ----- -----

oled_all_static_state/UI                      ----- -----
  +--> oled_p8x16str/SEEKFREE_OLED

oled_p8x16str/SEEKFREE_OLED                   0342H 0346H
  +--> oled_set_pos/SEEKFREE_OLED
  +--> oled_wrdat/SEEKFREE_OLED

MPU6050_DMP_Init/MPU6050                      ----- -----
  +--> initMPU6050/MPU6050
  +--> getDeviceID/MPU6050
  +--> dmpInitialize/MPU6050
  +--> MPU_Write_Bit/MPU6050

initMPU6050/MPU6050                           ----- -----
  +--> MPU_Write_Bits/MPU6050
  +--> MPU_Write_Bit/MPU6050

MPU_Write_Bits/MPU6050                        ----- -----
  +--> i2c_write_bits/MPU6050

i2c_write_bits/MPU6050                        031DH 031DH
  +--> i2c_mem_read/MPU6050
  +--> i2c_mem_write/MPU6050

i2c_mem_read/MPU6050                          0325H 0328H
  +--> i2c_start/MPU6050
  +--> i2c_write_byte/MPU6050
  +--> i2c_wait_ack/MPU6050
  +--> i2c_read_byte/MPU6050
  +--> i2c_stop/MPU6050

i2c_start/MPU6050                             ----- -----
  +--> I2C_SDA_H/MPU6050
  +--> I2C_SCL_H/MPU6050
  +--> i2c_delay/MPU6050
  +--> I2C_SDA_L/MPU6050
  +--> I2C_SCL_L/MPU6050

I2C_SDA_H/MPU6050                             ----- -----

I2C_SCL_H/MPU6050                             ----- -----

i2c_delay/MPU6050                             ----- -----

I2C_SDA_L/MPU6050                             ----- -----

I2C_SCL_L/MPU6050                             ----- -----

i2c_write_byte/MPU6050                        ----- -----
  +--> I2C_SCL_L/MPU6050
  +--> I2C_SDA_H/MPU6050
  +--> I2C_SDA_L/MPU6050
L251 LINKER/LOCATER V4.66.93.0                                                        03/07/2024  21:02:42  PAGE 17


  +--> i2c_delay/MPU6050
  +--> I2C_SCL_H/MPU6050

i2c_wait_ack/MPU6050                          ----- -----
  +--> I2C_SCL_H/MPU6050
  +--> i2c_delay/MPU6050
  +--> i2c_timeout_delay/MPU6050
  +--> i2c_stop/MPU6050
  +--> I2C_SDA_Read/MPU6050
  +--> I2C_SCL_L/MPU6050

i2c_timeout_delay/MPU6050                     ----- -----

i2c_stop/MPU6050                              ----- -----
  +--> I2C_SDA_L/MPU6050
  +--> I2C_SCL_H/MPU6050
  +--> i2c_delay/MPU6050
  +--> I2C_SDA_H/MPU6050

I2C_SDA_Read/MPU6050                          ----- -----

i2c_read_byte/MPU6050                         ----- -----
  +--> I2C_SCL_L/MPU6050
  +--> i2c_delay/MPU6050
  +--> I2C_SCL_H/MPU6050
  +--> I2C_SDA_Read/MPU6050
  +--> i2c_nack/MPU6050
  +--> i2c_ack/MPU6050

i2c_nack/MPU6050                              ----- -----
  +--> I2C_SCL_L/MPU6050
  +--> I2C_SDA_H/MPU6050
  +--> i2c_delay/MPU6050
  +--> I2C_SCL_H/MPU6050

i2c_ack/MPU6050                               ----- -----
  +--> I2C_SCL_L/MPU6050
  +--> I2C_SDA_L/MPU6050
  +--> i2c_delay/MPU6050
  +--> I2C_SCL_H/MPU6050
  +--> I2C_SDA_H/MPU6050

i2c_mem_write/MPU6050                         0320H 0323H
  +--> i2c_start/MPU6050
  +--> i2c_write_byte/MPU6050
  +--> i2c_wait_ack/MPU6050
  +--> i2c_stop/MPU6050

MPU_Write_Bit/MPU6050                         ----- -----
  +--> i2c_write_bit/MPU6050

i2c_write_bit/MPU6050                         031DH 031DH
  +--> i2c_mem_read/MPU6050
  +--> i2c_mem_write/MPU6050

getDeviceID/MPU6050                           0317H 0317H
  +--> MPU_Read_Bits/MPU6050

MPU_Read_Bits/MPU6050                         ----- -----
  +--> i2c_read_bits/MPU6050

i2c_read_bits/MPU6050                         031DH 0320H
  +--> i2c_mem_read/MPU6050

dmpInitialize/MPU6050                         0317H 031CH
L251 LINKER/LOCATER V4.66.93.0                                                        03/07/2024  21:02:42  PAGE 18


  +--> MPU_Write_Bit/MPU6050
  +--> MPU_Delay_Ms/MPU6050
  +--> MPU_Write_Byte/MPU6050
  +--> MPU_Read_Len/MPU6050
  +--> MPU_Read_Bit/MPU6050
  +--> MPU_Read_Bits/MPU6050
  +--> loadfirmware/MPU6050
  +--> loadcfgupd/MPU6050
  +--> MPU_Write_Bits/MPU6050
  +--> xdmpUpdates/MPU6050
  +--> getFIFOCount/MPU6050

MPU_Delay_Ms/MPU6050                          ----- -----
  +--> Delay1ms/MPU6050

Delay1ms/MPU6050                              ----- -----

MPU_Write_Byte/MPU6050                        031FH 031FH
  +--> i2c_mem_write/MPU6050

MPU_Read_Len/MPU6050                          ----- -----
  +--> i2c_mem_read/MPU6050

MPU_Read_Bit/MPU6050                          ----- -----
  +--> i2c_read_bit/MPU6050

i2c_read_bit/MPU6050                          031DH 031EH
  +--> i2c_mem_read/MPU6050

loadfirmware/MPU6050                          031DH 031EH
  +--> MPU_Write_Byte/MPU6050
  +--> MPU_Write_Len/MPU6050

MPU_Write_Len/MPU6050                         ----- -----
  +--> i2c_mem_write/MPU6050

loadcfgupd/MPU6050                            031DH 031EH
  +--> MPU_Write_Byte/MPU6050
  +--> MPU_Write_Len/MPU6050

xdmpUpdates/MPU6050                           ----- -----
  +--> MPU_Write_Byte/MPU6050
  +--> MPU_Write_Len/MPU6050

getFIFOCount/MPU6050                          031DH 031EH
  +--> MPU_Read_Len/MPU6050

pit_timer_ms/zf_tim                           ----- -----
  +--> ?C?SLDIV/?C?SLDIV

ctimer_count_init/zf_tim                      ----- -----

Motor_Init/motor                              ----- -----
  +--> pwm_init/zf_pwm

pwm_init/zf_pwm                               0317H 031EH
  +--> pwm_set_gpio/zf_pwm
  +--> ?C?ULIDIV/?C?ULDIV

pwm_set_gpio/zf_pwm                           ----- -----
  +--> gpio_mode/zf_gpio

Buzzer_Init/Buzzer                            ----- -----
  +--> pwm_init/zf_pwm

L251 LINKER/LOCATER V4.66.93.0                                                        03/07/2024  21:02:42  PAGE 19


ADC_InitAll/ADC                               ----- -----
  +--> adc_init/zf_adc

adc_init/zf_adc                               ----- -----

PID_Init/PID                                  0317H 0326H

EnableGlobalIRQ/board                         ----- -----

ui_show/UI                                    ----- -----
  +--> refresh_value/UI
  +--> oled_show/UI

refresh_value/UI                              ----- -----

oled_show/UI                                  ----- -----
  +--> refresh_value/UI
  +--> oled_printf_float/SEEKFREE_OLED

oled_printf_float/SEEKFREE_OLED               0317H 0341H
  +--> zf_sprintf/SEEKFREE_PRINTF
  +--> oled_p8x16str/SEEKFREE_OLED

zf_sprintf/SEEKFREE_PRINTF                    0342H 03A0H
  +--> number_conversion_ascii/SEEKFREE_PRINTF
  +--> printf_reverse_order/SEEKFREE_PRINTF
  +--> memcpy?_/memcpy

number_conversion_ascii/SEEKFREE_PRINTF       03A1H 03A1H
  +--> ?C?SLDIV/?C?SLDIV
  +--> ?C?ULIDIV/?C?ULDIV

printf_reverse_order/SEEKFREE_PRINTF          ----- -----

GetKey_Value/Key                              ----- -----

ADC_GetValue/ADC                              ----- -----
  +--> adc_once/zf_adc

adc_once/zf_adc                               ----- -----

MPU6050_Refresh_DMP/MPU6050                   ----- -----
  +--> getFIFOCount/MPU6050
  +--> MPU_Read_Len/MPU6050
  +--> MPU_Write_Bit/MPU6050
  +--> readdmp/MPU6050
  +--> atan2?_/atan2

readdmp/MPU6050                               ----- -----
  +--> MPU_Read_Len/MPU6050

atan2?_/atan2                                 ----- -----

MPU_Get_Gyroscope/MPU6050                     0317H 0324H
  +--> MPU_Read_Len/MPU6050

Get_Ratio/main                                ----- -----

Elem_Circle_L/Element                         ----- -----

Elem_Circle_R/Element                         ----- -----

PID_Calculate/PID                             0317H 031AH
  +--> Limit_Out/motor

L251 LINKER/LOCATER V4.66.93.0                                                        03/07/2024  21:02:42  PAGE 20


Limit_Out/motor                               031BH 031EH

Elem_Up_Down/Element                          ----- -----
  +--> Num2Abs/motor

Num2Abs/motor                                 ----- -----

Get_Speed/motor                               ----- -----
  +--> ctimer_count_read/zf_tim
  +--> ctimer_count_clean/zf_tim

ctimer_count_read/zf_tim                      ----- -----

ctimer_count_clean/zf_tim                     ----- -----

Left_SetSpeed/motor                           ----- -----
  +--> abs?_/ABS
  +--> pwm_duty/zf_pwm

abs?_/ABS                                     ----- -----

Right_SetSpeed/motor                          ----- -----
  +--> abs?_/ABS
  +--> pwm_duty/zf_pwm

*** NEW ROOT ********************************

?C_C51STARTUP?2                               ----- -----



PUBLIC SYMBOLS OF MODULE:  .\Out_File\SEEKFREE (board)


      VALUE       CLASS    TYPE      PUBLIC SYMBOL NAME
      =================================================
      00FF111EH   CODE     NEAR LAB  ?C?CASTF
      000000FFH   NUMBER   ---       ?C?CODESEG
      00FF10EBH   CODE     NEAR LAB  ?C?FCASTC
      00FF10E6H   CODE     NEAR LAB  ?C?FCASTI
      00FF10E1H   CODE     NEAR LAB  ?C?FCASTL
      00FF18BFH   CODE     ---       ?C?FP2SERIES
      00FF0EB4H   CODE     ---       ?C?FPADD
      00FF108FH   CODE     ---       ?C?FPCMP
      00FF108DH   CODE     ---       ?C?FPCMP3
      00FF17C4H   CODE     ---       ?C?FPCONVERT
      00FF100CH   CODE     ---       ?C?FPDIV
      00FF11A7H   CODE     ---       ?C?FPGETOPN2
      00FF0F6CH   CODE     ---       ?C?FPMUL
      00FF11E4H   CODE     ---       ?C?FPNANRESULT
      00FF10D3H   CODE     ---       ?C?FPNEG
      00FF11ECH   CODE     ---       ?C?FPOVERFLOW
      00FF11C0H   CODE     ---       ?C?FPRESULT
      00FF11D6H   CODE     ---       ?C?FPRESULT2
      00FF187CH   CODE     ---       ?C?FPROUND
      00FF18C8H   CODE     ---       ?C?FPSERIES
      00FF0EB1H   CODE     ---       ?C?FPSUB
      00FF11E9H   CODE     ---       ?C?FPUNDERFLOW
      00FF191CH   CODE     ---       ?C?FTNPWR
      00FF5DE1H   CODE     ---       ?C?INITEDATA
      00FF66F3H   HCONST   WORD      ?C?INITEDATA_END
      00FF1996H   CODE     ---       ?C?LIMUL
      00FF1985H   CODE     ---       ?C?LMUL
      00FF1225H   CODE     ---       ?C?PRNFMT
      00FF1953H   CODE     ---       ?C?SIDIV
L251 LINKER/LOCATER V4.66.93.0                                                        03/07/2024  21:02:42  PAGE 21


      00FF19F2H   CODE     NEAR LAB  ?C?SLDIV
      00FF0000H   CODE     ---       ?C?STARTUP
      00FF19A1H   CODE     NEAR LAB  ?C?ULDIV
      00FF199FH   CODE     NEAR LAB  ?C?ULIDIV
      00000001H   NUMBER   ---       ?C?XDATASEG
      00FF0000H   CODE     ---       ?C_STARTUP
*DEL*:1FFFFFF8H   EDATA    BYTE      ?data_conversion?BYTE
*DEL*:1FFFFFF8H   EDATA    BYTE      ?fifo_init?BYTE
*DEL*:1FFFFFFCH   EDATA    BYTE      ?fifo_read_buffer?BYTE
      00000307H   EDATA    BYTE      ?fifo_write_buffer?BYTE
*DEL*:1FFFFFFAH   EDATA    BYTE      ?iic_init?BYTE
*DEL*:1FFFFFFCH   EDATA    BYTE      ?ips114_showfloat?BYTE
*DEL*:1FFFFFFCH   EDATA    BYTE      ?ips114_showfloat_simspi?BYTE
*DEL*:1FFFFFFCH   EDATA    BYTE      ?lcd_showfloat?BYTE
*DEL*:1FFFFFFCH   EDATA    BYTE      ?lcd_showfloat_simspi?BYTE
      00000313H   EDATA    BYTE      ?Limit_Out?BYTE
*DEL*:1FFFFFFCH   EDATA    BYTE      ?MPU_Get_Accelerometer?BYTE
      00000313H   EDATA    BYTE      ?MPU_Get_Gyroscope?BYTE
      00000398H   EDATA    BYTE      ?number_conversion_ascii?BYTE
      00000313H   EDATA    BYTE      ?oled_printf_float?BYTE
*DEL*:1FFFFFFCH   EDATA    BYTE      ?oled_printf_float_spi?BYTE
      0000030FH   EDATA    BYTE      ?PID_Calculate?BYTE
      0000030FH   EDATA    BYTE      ?PID_Init?BYTE
      00000351H   EDATA    ---       ?printf?BYTE
*DEL*:1FFFFFFAH   EDATA    BYTE      ?pwm_freq?BYTE
      00000315H   EDATA    BYTE      ?pwm_init?BYTE
*DEL*:1FFFFFF7H   EDATA    BYTE      ?spi_init?BYTE
      00000311H   EDATA    BYTE      ?uart_init?BYTE
      0000036AH   EDATA    BYTE      ?zf_sprintf?BYTE
      00FF64C1H   CODE     ---       abs?_
      00000582H   EDATA    ---       ADC_Array_Original
*SFR* 000000BCH   DATA     BYTE      ADC_CONTR
      00FF427CH   CODE     ---       ADC_GetValue
      00FF58A4H   CODE     ---       adc_init
      00FF6169H   CODE     ---       ADC_InitAll
      00FF60E2H   CODE     ---       adc_once
      000005BEH   EDATA    ---       ADC_proc
*SFR* 000000BDH   DATA     BYTE      ADC_RES
*SFR* 000000BEH   DATA     BYTE      ADC_RESL
*SFR* 000000DEH   DATA     BYTE      ADCCFG
      000005F6H   EDATA    FLOAT     Adjust_Val
      00FF1187H   CODE     ---       asin?_
*DEL*:00000000H   CODE     ---       at24c02_read_byte
*DEL*:00000000H   CODE     ---       at24c02_read_bytes
*DEL*:00000000H   CODE     ---       at24c02_write_byte
*DEL*:00000000H   CODE     ---       at24c02_write_bytes
      00FF5C84H   CODE     ---       atan2?_
      00FF16E4H   CODE     ---       ATAN?_
*SFR* 000000EFH   DATA     BYTE      AUXINTIF
*SFR* 0000008EH   DATA     BYTE      AUXR
      00000615H   EDATA    CHAR      Avoid_ON
      00000612H   EDATA    CHAR      Barrier_Executed
      0000060EH   EDATA    CHAR      Barrier_Flag1
      0000060FH   EDATA    CHAR      Barrier_Flag2
      00000610H   EDATA    CHAR      Barrier_Flag3
      00000611H   EDATA    CHAR      Barrier_Flag4
*DEL*:00000000H   CODE     ---       bluetooth_ch9141_init
*DEL*:00000000H   CODE     ---       bluetooth_ch9141_read_buff
*DEL*:00000000H   CODE     ---       bluetooth_ch9141_send_buff
      00FF63A7H   CODE     ---       bluetooth_ch9141_uart_callback
      00FF52CDH   CODE     ---       board_init
      00000306H   EDATA    ---       busy
      00FF64A0H   CODE     ---       Buzzer_Init
*DEL*:00000000H   CODE     ---       ccd_collect
      0000013EH   EDATA    ---       ccd_data
L251 LINKER/LOCATER V4.66.93.0                                                        03/07/2024  21:02:42  PAGE 22


*DEL*:00000000H   CODE     ---       ccd_init
*DEL*:00000000H   CODE     ---       ccd_send_data
      0000060BH   EDATA    CHAR      circle_flag_L
      0000060DH   EDATA    CHAR      circle_flag_R
      0000060CH   EDATA    CHAR      circle_Force_Flag
      00000613H   EDATA    CHAR      circle_In_Flag
      00000614H   EDATA    CHAR      circle_Out_Flag
      00000663H   EDATA    CHAR      clear_Num
      00000667H   EDATA    CHAR      count
*DEL*:00000000H   CODE     ---       CRC_CHECK
      00FF5B0AH   CODE     ---       ctimer_count_clean
      00FF5BF5H   CODE     ---       ctimer_count_init
      00FF5B5BH   CODE     ---       ctimer_count_read
*DEL*:00000000H   CODE     ---       data_conversion
      00FF655FH   CODE     ---       Delay1ms
      00FF5F3DH   CODE     ---       delay_init
      00FF63F2H   CODE     ---       delay_ms
*DEL*:00000000H   CODE     ---       delay_us
      000005FEH   EDATA    FLOAT     Diff
      000005FAH   EDATA    FLOAT     Diff_Mid
      00FF0016H   CODE     ---       DisableGlobalIRQ
      00FF1A55H   CODE     ---       dmpcfgupddata
      00000448H   EDATA    ---       dmpdatas
      00FF3D15H   CODE     ---       dmpInitialize
      00FF1B15H   CODE     ---       dmpmemorydata
      00FF1A26H   CODE     ---       dmpUpdates
*SFR* 000000A8H.7 DATA     BIT       EA
*DEL*:00000000H   CODE     ---       eeprom_trig
*DEL*:00000000H   CODE     ---       Elem_Barrier
      00FF43EBH   CODE     ---       Elem_Circle_L
      00FF4514H   CODE     ---       Elem_Circle_R
      00FF5C3FH   CODE     ---       Elem_Up_Down
      00FF000EH   CODE     ---       EnableGlobalIRQ
*DEL*:00000000H   CODE     ---       encoder_angle_simspi
*DEL*:00000000H   CODE     ---       encoder_angle_spi
*DEL*:00000000H   CODE     ---       encoder_delay_us
*DEL*:00000000H   CODE     ---       encoder_init_simspi
*DEL*:00000000H   CODE     ---       encoder_init_spi
*DEL*:00000000H   CODE     ---       encoder_self4_check
*DEL*:00000000H   CODE     ---       encoder_self5_check
*DEL*:00000000H   CODE     ---       encoder_simspi_r_reg_byte
*DEL*:00000000H   CODE     ---       encoder_simspi_w_reg_byte
*DEL*:00000000H   CODE     ---       encoder_spi_r_reg_byte
*DEL*:00000000H   CODE     ---       encoder_spi_w_reg_byte
*SFR* 000000A8H.4 DATA     BIT       ES
*SFR* 000000A8H.1 DATA     BIT       ET0
*SFR* 000000A8H.3 DATA     BIT       ET1
*SFR* 000000A8H.0 DATA     BIT       EX0
*SFR* 000000A8H.2 DATA     BIT       EX1
*DEL*:00000000H   CODE     ---       exit_init
      000005D6H   EDATA    FLOAT     Exp_Speed
      000005E3H   EDATA    FLOAT     Exp_Speed_L
      000005E7H   EDATA    FLOAT     Exp_Speed_R
*DEL*:00000000H   CODE     ---       extern_iap_write_bytes
*SFR* 000000D0H.5 DATA     BIT       F0
*DEL*:00000000H   CODE     ---       fifo_clear
*DEL*:00000000H   CODE     ---       fifo_end_offset
      00FF5D0DH   CODE     ---       fifo_head_offset
*DEL*:00000000H   CODE     ---       fifo_init
*DEL*:00000000H   CODE     ---       fifo_read_buffer
*DEL*:00000000H   CODE     ---       fifo_used
      00FF49E9H   CODE     ---       fifo_write_buffer
*DEL*:00000000H   CODE     ---       get_icm20602_accdata_simiic
*DEL*:00000000H   CODE     ---       get_icm20602_accdata_simspi
*DEL*:00000000H   CODE     ---       get_icm20602_gyro_simiic
L251 LINKER/LOCATER V4.66.93.0                                                        03/07/2024  21:02:42  PAGE 23


*DEL*:00000000H   CODE     ---       get_icm20602_gyro_simspi
      00FF51B6H   CODE     ---       Get_Ratio
      00FF57E2H   CODE     ---       Get_Speed
      00FF6311H   CODE     ---       getDeviceID
      00FF0026H   CODE     ---       getFIFOCount
      00FF55BDH   CODE     ---       GetKey_Value
      00FF2DB3H   CODE     ---       gpio_mode
*DEL*:00000000H   CODE     ---       gpio_pull_set
      000005EFH   EDATA    INT       gx
      000005F1H   EDATA    INT       gy
      000005F3H   EDATA    INT       gz
      00FF6409H   CODE     ---       i2c_ack
      00FF6554H   CODE     ---       i2c_delay
      00FF54CCH   CODE     ---       i2c_mem_read
      00FF5845H   CODE     ---       i2c_mem_write
      00FF645AH   CODE     ---       i2c_nack
      00FF6049H   CODE     ---       i2c_read_bit
      00FF56A6H   CODE     ---       i2c_read_bits
      00FF5F76H   CODE     ---       i2c_read_byte
      00FF005EH   CODE     ---       I2C_SCL_H
      00FF0086H   CODE     ---       I2C_SCL_L
      00FF001EH   CODE     ---       I2C_SDA_H
      00FF0056H   CODE     ---       I2C_SDA_L
      00FF0006H   CODE     ---       I2C_SDA_Read
      00FF646CH   CODE     ---       i2c_start
      00FF64D1H   CODE     ---       i2c_stop
      00FF653EH   CODE     ---       i2c_timeout_delay
      00FF6194H   CODE     ---       i2c_wait_ack
      00FF5902H   CODE     ---       i2c_write_bit
      00FF544FH   CODE     ---       i2c_write_bits
      00FF607CH   CODE     ---       i2c_write_byte
*SFR* 000000F6H   DATA     BYTE      IAP_ADDRE
*SFR* 000000C3H   DATA     BYTE      IAP_ADDRH
*SFR* 000000C4H   DATA     BYTE      IAP_ADDRL
*SFR* 000000C5H   DATA     BYTE      IAP_CMD
*SFR* 000000C7H   DATA     BYTE      IAP_CONTR
*SFR* 000000C2H   DATA     BYTE      IAP_DATA
*DEL*:00000000H   CODE     ---       iap_erase_page
*DEL*:00000000H   CODE     ---       iap_get_cmd_state
*DEL*:00000000H   CODE     ---       iap_idle
*DEL*:00000000H   CODE     ---       iap_init
*DEL*:00000000H   CODE     ---       iap_read_bytes
*DEL*:00000000H   CODE     ---       iap_set_tps
*SFR* 000000F5H   DATA     BYTE      IAP_TPS
*SFR* 000000C6H   DATA     BYTE      IAP_TRIG
*DEL*:00000000H   CODE     ---       iap_write_bytes
*DEL*:00000000H   CODE     ---       icm20602_init_simiic
*DEL*:00000000H   CODE     ---       icm20602_init_simspi
*DEL*:00000000H   CODE     ---       icm20602_self1_check
*DEL*:00000000H   CODE     ---       icm20602_self4_check
      0000063AH   EDATA    INT       icm_acc_x
      0000063CH   EDATA    INT       icm_acc_y
      0000063EH   EDATA    INT       icm_acc_z
      00000640H   EDATA    INT       icm_gyro_x
      00000642H   EDATA    INT       icm_gyro_y
      00000644H   EDATA    INT       icm_gyro_z
*DEL*:00000000H   CODE     ---       icm_simspi_r_reg_byte
*DEL*:00000000H   CODE     ---       icm_simspi_r_reg_bytes
*DEL*:00000000H   CODE     ---       icm_simspi_w_reg_byte
*DEL*:00000000H   CODE     ---       icm_simspi_wr_byte
*SFR* 000000A8H   DATA     BYTE      IE
*SFR* 000000AFH   DATA     BYTE      IE2
      00000650H   EDATA    BYTE      IIC_ad_main
      00000652H   EDATA    BYTE      IIC_ad_sub
      00000653H   EDATA    ---       IIC_buf
L251 LINKER/LOCATER V4.66.93.0                                                        03/07/2024  21:02:42  PAGE 24


*DEL*:00000000H   CODE     ---       iic_change_pin
*DEL*:00000000H   CODE     ---       iic_delay_us
*DEL*:00000000H   CODE     ---       iic_init
      00000651H   EDATA    BYTE      IIC_num
*DEL*:00000000H   CODE     ---       iic_read_reg
*DEL*:00000000H   CODE     ---       iic_read_reg_bytes
*DEL*:00000000H   CODE     ---       iic_write_reg
      00FF4BA4H   CODE     ---       Init_all
      00FF60AFH   CODE     ---       initMPU6050
      00FF65A3H   CODE     ---       INT0_Isr
      00FF0011H   CODE     ---       INT1_Isr
      00FF657BH   CODE     ---       INT2_Isr
      00FF6583H   CODE     ---       INT3_Isr
      00FF658BH   CODE     ---       INT4_Isr
*SFR* 0000008FH   DATA     BYTE      INTCLKO
*SFR* 000000B8H   DATA     BYTE      IP
*SFR* 000000B5H   DATA     BYTE      IP2
*SFR* 000000B6H   DATA     BYTE      IP2H
*SFR* 000000B7H   DATA     BYTE      IPH
*DEL*:00000000H   CODE     ---       ips114_clear
*DEL*:00000000H   CODE     ---       ips114_clear_simspi
*DEL*:00000000H   CODE     ---       ips114_drawpoint
*DEL*:00000000H   CODE     ---       ips114_drawpoint_simspi
*DEL*:00000000H   CODE     ---       ips114_init
*DEL*:00000000H   CODE     ---       ips114_init_simspi
*DEL*:00000000H   CODE     ---       ips114_set_region
*DEL*:00000000H   CODE     ---       ips114_set_region_simspi
*DEL*:00000000H   CODE     ---       ips114_showchar
*DEL*:00000000H   CODE     ---       ips114_showchar_simspi
*DEL*:00000000H   CODE     ---       ips114_showfloat
*DEL*:00000000H   CODE     ---       ips114_showfloat_simspi
*DEL*:00000000H   CODE     ---       ips114_showint16
*DEL*:00000000H   CODE     ---       ips114_showint16_simspi
*DEL*:00000000H   CODE     ---       ips114_showint32
*DEL*:00000000H   CODE     ---       ips114_showint32_simspi
*DEL*:00000000H   CODE     ---       ips114_showint8
*DEL*:00000000H   CODE     ---       ips114_showint8_simspi
*DEL*:00000000H   CODE     ---       ips114_showstr
*DEL*:00000000H   CODE     ---       ips114_showstr_simspi
*DEL*:00000000H   CODE     ---       ips114_showuint16
*DEL*:00000000H   CODE     ---       ips114_showuint16_simspi
*DEL*:00000000H   CODE     ---       ips114_showuint8
*DEL*:00000000H   CODE     ---       ips114_showuint8_simspi
*DEL*:00000000H   CODE     ---       ips114_writeData
*DEL*:00000000H   CODE     ---       ips114_writedata_16bit
*DEL*:00000000H   CODE     ---       ips114_writeData_simspi
*DEL*:00000000H   CODE     ---       ips114_writeDatai_16bit_simspi
*DEL*:00000000H   CODE     ---       ips114_writeIndex
*DEL*:00000000H   CODE     ---       ips114_writeIndex_simspi
      000005F5H   EDATA    CHAR      Isr_flag_10
*SFR* 00000088H.0 DATA     BIT       IT0
*SFR* 00000088H.2 DATA     BIT       IT1
      00FF6285H   CODE     ---       Key_Init
      000005E2H   EDATA    CHAR      KeyValue
*DEL*:00000000H   CODE     ---       lcd_clear
*DEL*:00000000H   CODE     ---       lcd_clear_simspi
*DEL*:00000000H   CODE     ---       lcd_drawpoint
*DEL*:00000000H   CODE     ---       lcd_drawpoint_simspi
*DEL*:00000000H   CODE     ---       lcd_init
*DEL*:00000000H   CODE     ---       lcd_init_simspi
*DEL*:00000000H   CODE     ---       lcd_set_region
*DEL*:00000000H   CODE     ---       lcd_set_region_simspi
*DEL*:00000000H   CODE     ---       lcd_showchar
*DEL*:00000000H   CODE     ---       lcd_showchar_simspi
*DEL*:00000000H   CODE     ---       lcd_showfloat
L251 LINKER/LOCATER V4.66.93.0                                                        03/07/2024  21:02:42  PAGE 25


*DEL*:00000000H   CODE     ---       lcd_showfloat_simspi
*DEL*:00000000H   CODE     ---       lcd_showint16
*DEL*:00000000H   CODE     ---       lcd_showint16_simspi
*DEL*:00000000H   CODE     ---       lcd_showint32
*DEL*:00000000H   CODE     ---       lcd_showint32_simspi
*DEL*:00000000H   CODE     ---       lcd_showint8
*DEL*:00000000H   CODE     ---       lcd_showint8_simspi
*DEL*:00000000H   CODE     ---       lcd_showstr
*DEL*:00000000H   CODE     ---       lcd_showstr_simspi
*DEL*:00000000H   CODE     ---       lcd_showuint16
*DEL*:00000000H   CODE     ---       lcd_showuint16_simspi
*DEL*:00000000H   CODE     ---       lcd_showuint8
*DEL*:00000000H   CODE     ---       lcd_showuint8_simspi
*DEL*:00000000H   CODE     ---       lcd_writeData
*DEL*:00000000H   CODE     ---       lcd_writedata_16bit
*DEL*:00000000H   CODE     ---       lcd_writeData_16bit_simspi
*DEL*:00000000H   CODE     ---       lcd_writeData_simspi
*DEL*:00000000H   CODE     ---       lcd_writeIndex
*DEL*:00000000H   CODE     ---       lcd_writeIndex_simspi
      00FF4F48H   CODE     ---       Left_SetSpeed
      000003CAH   EDATA    ---       Left_Wheel_PID
      00FF613EH   CODE     ---       Limit_Out
      00FF4DFDH   CODE     ---       loadcfgupd
      00FF534EH   CODE     ---       loadfirmware
      00FF31AAH   CODE     ---       main
      00FF6260H   CODE     ---       memcpy?_
      00FF638DH   CODE     ---       memset?_
      00000662H   EDATA    CHAR      Mode
      00FF5CC9H   CODE     ---       Motor_Init
      00FF62CCH   CODE     ---       MPU6050_DMP_Init
*DEL*:00000000H   CODE     ---       mpu6050_get_accdata
*DEL*:00000000H   CODE     ---       mpu6050_get_gyro
*DEL*:00000000H   CODE     ---       mpu6050_init
      00FF3A7BH   CODE     ---       MPU6050_Refresh_DMP
*DEL*:00000000H   CODE     ---       mpu6050_self1_check
      0000062EH   EDATA    INT       mpu_acc_x
      00000630H   EDATA    INT       mpu_acc_y
      00000632H   EDATA    INT       mpu_acc_z
      00FF6433H   CODE     ---       MPU_Delay_Ms
*DEL*:00000000H   CODE     ---       MPU_Get_Accelerometer
      00FF595EH   CODE     ---       MPU_Get_Gyroscope
*DEL*:00000000H   CODE     ---       MPU_Get_Temperature
      00000634H   EDATA    INT       mpu_gyro_x
      00000636H   EDATA    INT       mpu_gyro_y
      00000638H   EDATA    INT       mpu_gyro_z
*DEL*:00000000H   CODE     ---       MPU_Init
      00FF6569H   CODE     ---       MPU_Read_Bit
      00FF0046H   CODE     ---       MPU_Read_Bits
*DEL*:00000000H   CODE     ---       MPU_Read_Byte
      00FF6533H   CODE     ---       MPU_Read_Len
*DEL*:00000000H   CODE     ---       MPU_Set_Accel_Fsr
*DEL*:00000000H   CODE     ---       MPU_Set_Gyro_Fsr
*DEL*:00000000H   CODE     ---       MPU_Set_LPF
*DEL*:00000000H   CODE     ---       MPU_Set_Rate
      00000472H   EDATA    CHAR      mpu_state
      00FF6519H   CODE     ---       MPU_Write_Bit
      00FF650CH   CODE     ---       MPU_Write_Bits
      00FF641EH   CODE     ---       MPU_Write_Byte
      00FF6549H   CODE     ---       MPU_Write_Len
      00FF647EH   CODE     ---       Num2Abs
      00FF5124H   CODE     ---       number_conversion_ascii
*DEL*:00000000H   CODE     ---       NVIC_SetPriority
      00FF0C86H   CODE     ---       oled_6x8
      00FF00A6H   CODE     ---       oled_8x16
      00FF5D8FH   CODE     ---       oled_all_static_state
L251 LINKER/LOCATER V4.66.93.0                                                        03/07/2024  21:02:42  PAGE 26


*DEL*:00000000H   CODE     ---       oled_change_value
*DEL*:00000000H   CODE     ---       oled_clrpixel
*DEL*:00000000H   CODE     ---       oled_clrpixel_spi
*DEL*:00000000H   CODE     ---       oled_dis_bmp
*DEL*:00000000H   CODE     ---       oled_dis_bmp_spi
      00FF6016H   CODE     ---       oled_fill
*DEL*:00000000H   CODE     ---       oled_fill_spi
*DEL*:00000000H   CODE     ---       oled_hexascii
*DEL*:00000000H   CODE     ---       oled_hexascii_spi
      00FF4FEDH   CODE     ---       oled_init
*DEL*:00000000H   CODE     ---       oled_init_spi
*DEL*:00000000H   CODE     ---       oled_int16
*DEL*:00000000H   CODE     ---       oled_int16_spi
*DEL*:00000000H   CODE     ---       oled_p6x8str
*DEL*:00000000H   CODE     ---       oled_p6x8str_spi
      00FF481DH   CODE     ---       oled_p8x16str
*DEL*:00000000H   CODE     ---       oled_p8x16str_spi
*DEL*:00000000H   CODE     ---       oled_print_chinese
*DEL*:00000000H   CODE     ---       oled_print_chinese_spi
      00FF4635H   CODE     ---       oled_printf_float
*DEL*:00000000H   CODE     ---       oled_printf_float_spi
*DEL*:00000000H   CODE     ---       oled_printf_int32
*DEL*:00000000H   CODE     ---       oled_printf_int32_spi
*DEL*:00000000H   CODE     ---       oled_putpixel
*DEL*:00000000H   CODE     ---       oled_putpixel_spi
      00FF62A9H   CODE     ---       oled_set_pos
*DEL*:00000000H   CODE     ---       oled_set_pos_spi
      00FF5D4FH   CODE     ---       oled_show
*DEL*:00000000H   CODE     ---       oled_uint16
*DEL*:00000000H   CODE     ---       oled_uint16_spi
      00FF61BEH   CODE     ---       oled_wrcmd
*DEL*:00000000H   CODE     ---       oled_wrcmd_spi
      00FF61E7H   CODE     ---       oled_wrdat
*DEL*:00000000H   CODE     ---       oled_wrdat_spi
*SFR* 00000080H   DATA     BYTE      P0
*SFR* 00000080H.7 DATA     BIT       P07
*SFR* 00000094H   DATA     BYTE      P0M0
*SFR* 00000093H   DATA     BYTE      P0M1
*SFR* 00000090H   DATA     BYTE      P1
*SFR* 00000092H   DATA     BYTE      P1M0
*SFR* 00000091H   DATA     BYTE      P1M1
*SFR* 000000A0H   DATA     BYTE      P2
*SFR* 000000A0H.0 DATA     BIT       P20
*SFR* 000000A0H.1 DATA     BIT       P21
*SFR* 000000A0H.2 DATA     BIT       P22
*SFR* 000000A0H.3 DATA     BIT       P23
*SFR* 000000A0H.4 DATA     BIT       P24
*SFR* 000000A0H.5 DATA     BIT       P25
*SFR* 000000A0H.6 DATA     BIT       P26
*SFR* 000000A0H.7 DATA     BIT       P27
*SFR* 00000096H   DATA     BYTE      P2M0
*SFR* 00000095H   DATA     BYTE      P2M1
*SFR* 000000B0H   DATA     BYTE      P3
*SFR* 000000B0H.2 DATA     BIT       P32
*SFR* 000000B0H.3 DATA     BIT       P33
*SFR* 000000B0H.5 DATA     BIT       P35
*SFR* 000000B2H   DATA     BYTE      P3M0
*SFR* 000000B1H   DATA     BYTE      P3M1
*SFR* 000000C0H   DATA     BYTE      P4
*SFR* 000000C0H.0 DATA     BIT       P40
*SFR* 000000C0H.1 DATA     BIT       P41
*SFR* 000000C0H.2 DATA     BIT       P42
*SFR* 000000C0H.3 DATA     BIT       P43
*SFR* 000000C0H.7 DATA     BIT       P47
*SFR* 000000B4H   DATA     BYTE      P4M0
L251 LINKER/LOCATER V4.66.93.0                                                        03/07/2024  21:02:42  PAGE 27


*SFR* 000000B3H   DATA     BYTE      P4M1
*SFR* 000000C8H   DATA     BYTE      P5
*SFR* 000000C8H.0 DATA     BIT       P50
*SFR* 000000C8H.1 DATA     BIT       P51
*SFR* 000000C8H.2 DATA     BIT       P52
*SFR* 000000C8H.3 DATA     BIT       P53
*SFR* 000000CAH   DATA     BYTE      P5M0
*SFR* 000000C9H   DATA     BYTE      P5M1
*SFR* 000000E8H   DATA     BYTE      P6
*SFR* 000000CCH   DATA     BYTE      P6M0
*SFR* 000000CBH   DATA     BYTE      P6M1
*SFR* 000000F8H   DATA     BYTE      P7
*SFR* 000000F8H.0 DATA     BIT       P70
*SFR* 000000F8H.1 DATA     BIT       P71
*SFR* 000000F8H.2 DATA     BIT       P72
*SFR* 000000F8H.3 DATA     BIT       P73
*SFR* 000000E2H   DATA     BYTE      P7M0
*SFR* 000000E1H   DATA     BYTE      P7M1
*SFR* 000000A2H   DATA     BYTE      P_SW1
*SFR* 000000BAH   DATA     BYTE      P_SW2
      00000008H   EDATA    BYTE      page
      00FF4C7EH   CODE     ---       PID_Calculate
      00FF5A62H   CODE     ---       PID_Init
      00FF5090H   CODE     ---       pit_timer_ms
      00000473H   EDATA    FLOAT     Pitch
      000005DEH   EDATA    FLOAT     Plus
      000005DAH   EDATA    FLOAT     Plus_Mid
      00FF115BH   CODE     NEAR LAB  printf
      00FF5E0DH   CODE     ---       printf_reverse_order
*SFR* 000000D0H   DATA     BYTE      PSW
      00FF64FEH   CODE     ---       putchar
      00FF6787H   HCONST   ---       PWM_ARR_ADDR
      00FF678FH   HCONST   ---       PWM_CCER_ADDR
      00FF679FH   HCONST   ---       PWM_CCMR_ADDR
      00FF6767H   HCONST   ---       PWM_CCR_ADDR
      00FF4D45H   CODE     ---       pwm_duty
*DEL*:00000000H   CODE     ---       pwm_freq
      00FF34F6H   CODE     ---       pwm_init
      00FF37DAH   CODE     ---       pwm_set_gpio
      00000438H   EDATA    ---       Q
      000005D2H   EDATA    FLOAT     Ratio
      00000602H   EDATA    FLOAT     Ratio_Mid
*DEL*:00000000H   CODE     ---       read_ch
      00FF64E0H   CODE     ---       readdmp
*DEL*:00000000H   CODE     ---       recv_ack
*DEL*:00000000H   CODE     ---       recv_data
      00FF5248H   CODE     ---       refresh_value
      00FF4EA3H   CODE     ---       Right_SetSpeed
      000003A2H   EDATA    ---       Right_Wheel_PID
      00000420H   EDATA    FLOAT     Roll
*SFR* 000000FFH   DATA     BYTE      RSTCFG
*SFR* 0000009BH   DATA     BYTE      S2BUF
*SFR* 0000009AH   DATA     BYTE      S2CON
*SFR* 000000ADH   DATA     BYTE      S3BUF
*SFR* 000000ACH   DATA     BYTE      S3CON
*SFR* 000000FEH   DATA     BYTE      S4BUF
*SFR* 000000FDH   DATA     BYTE      S4CON
*SFR* 00000099H   DATA     BYTE      SBUF
*SFR* 00000098H   DATA     BYTE      SCON
*DEL*:00000000H   CODE     ---       send_ack
*DEL*:00000000H   CODE     ---       send_ch
*DEL*:00000000H   CODE     ---       send_data
*DEL*:00000000H   CODE     ---       send_nak
*DEL*:00000000H   CODE     ---       set_zero_position_simspi
*DEL*:00000000H   CODE     ---       set_zero_position_spi
L251 LINKER/LOCATER V4.66.93.0                                                        03/07/2024  21:02:42  PAGE 28


*DEL*:00000000H   CODE     ---       showimage
*DEL*:00000000H   CODE     ---       simiic_delay
*DEL*:00000000H   CODE     ---       simiic_init
*DEL*:00000000H   CODE     ---       simiic_read_reg
*DEL*:00000000H   CODE     ---       simiic_read_regs
*DEL*:00000000H   CODE     ---       simiic_sendack
*DEL*:00000000H   CODE     ---       simiic_start
*DEL*:00000000H   CODE     ---       simiic_stop
*DEL*:00000000H   CODE     ---       simiic_write_reg
*DEL*:00000000H   CODE     ---       simspi_r_reg_byte
*DEL*:00000000H   CODE     ---       simspi_w_reg_byte
*DEL*:00000000H   CODE     ---       simspi_wr_byte
*SFR* 000000CEH   DATA     BYTE      SPCTL
*SFR* 000000CFH   DATA     BYTE      SPDAT
      000003C6H   EDATA    FLOAT     Speed_L
      000003EEH   EDATA    FLOAT     Speed_R
*DEL*:00000000H   CODE     ---       spi_change_mode
*DEL*:00000000H   CODE     ---       spi_change_pin
*DEL*:00000000H   CODE     ---       spi_init
*DEL*:00000000H   CODE     ---       spi_mosi
*DEL*:00000000H   CODE     ---       spi_r_reg_byte
*DEL*:00000000H   CODE     ---       spi_w_reg_byte
*DEL*:00000000H   CODE     ---       spi_wr_byte
*SFR* 000000CDH   DATA     BYTE      SPSTAT
      00FF1634H   CODE     ---       SQRT?_
*DEL*:00000000H   CODE     ---       start
*DEL*:00000000H   CODE     ---       stop
      00FF6447H   CODE     NEAR LAB  strcpy?_
      000005EBH   EDATA    FLOAT     sum
      00000606H   EDATA    FLOAT     Sum_Angle
      00000657H   EDATA    LONG      sys_clk
*SFR* 000000D6H   DATA     BYTE      T2H
*SFR* 000000D7H   DATA     BYTE      T2L
*SFR* 000000D4H   DATA     BYTE      T3H
*SFR* 000000D5H   DATA     BYTE      T3L
*SFR* 000000D2H   DATA     BYTE      T4H
*SFR* 000000D3H   DATA     BYTE      T4L
*SFR* 000000DDH   DATA     BYTE      T4T3M
*SFR* 00000088H   DATA     BYTE      TCON
      00FF0696H   CODE     ---       tft_ascii
*SFR* 0000008CH   DATA     BYTE      TH0
*SFR* 0000008DH   DATA     BYTE      TH1
*SFR* 0000008AH   DATA     BYTE      TL0
*SFR* 0000008BH   DATA     BYTE      TL1
      00FF0012H   CODE     ---       TM0_Isr
      00FF0019H   CODE     ---       TM1_Isr
      00FF6593H   CODE     ---       TM2_Isr
      00FF659BH   CODE     ---       TM3_Isr
      00FF53CFH   CODE     ---       TM4_Isr
*SFR* 00000089H   DATA     BYTE      TMOD
*SFR* 00000088H.4 DATA     BIT       TR0
*SFR* 00000088H.6 DATA     BIT       TR1
      0000013DH   EDATA    BYTE      tsl1401_finish_flag
      000003F2H   EDATA    ---       Turn_PID
      00FF5E89H   CODE     ---       UART1_Isr
      0000023EH   EDATA    ---       uart1_rx_buff
      000002A2H   EDATA    ---       uart1_tx_buff
      00FF6351H   CODE     ---       UART2_Isr
      00FF636FH   CODE     ---       UART3_Isr
      00FF5711H   CODE     ---       UART4_Isr
      00FF3F41H   CODE     ---       uart_init
*DEL*:00000000H   CODE     ---       uart_putbuff
      00FF5A0EH   CODE     ---       uart_putchar
*DEL*:00000000H   CODE     ---       uart_putstr
      00FF6572H   CODE     ---       ui_init
L251 LINKER/LOCATER V4.66.93.0                                                        03/07/2024  21:02:42  PAGE 29


      00FF65AAH   CODE     ---       ui_show
      0000060AH   EDATA    CHAR      Up_Down_Flag
      00000009H   EDATA    ---       value
      00000079H   EDATA    ---       value_name
      00FF472DH   CODE     ---       value_name_init
      00000646H   EDATA    ---       virtual_scope_data
      0000065FH   EDATA    WORD      vl53l0x_distance_mm
      00000661H   EDATA    BYTE      vl53l0x_finsh_flag
*DEL*:00000000H   CODE     ---       vl53l0x_get_distance
      00FF229EH   CODE     ---       vl53l0x_init
*DEL*:00000000H   CODE     ---       wait
      00FF63D9H   CODE     ---       wireless_ch573_callback
*DEL*:00000000H   CODE     ---       wireless_ch573_init
*DEL*:00000000H   CODE     ---       wireless_ch573_read_buff
*DEL*:00000000H   CODE     ---       wireless_ch573_send_buff
      00000665H   EDATA    INT       wireless_type
      00FF63C0H   CODE     ---       wireless_uart_callback
*DEL*:00000000H   CODE     ---       wireless_uart_init
*DEL*:00000000H   CODE     ---       wireless_uart_read_buff
*DEL*:00000000H   CODE     ---       wireless_uart_send_buff
*SFR* 000000E9H   DATA     BYTE      WTST
      00000424H   EDATA    FLOAT     x1
      00000669H   EDATA    WORD      x10_ms
      00FF577AH   CODE     ---       xdmpUpdates
      00000428H   EDATA    FLOAT     y1
      00000434H   EDATA    FLOAT     Yaw
      0000042CH   EDATA    FLOAT     z1
      00000418H   EDATA    FLOAT     z_add
      0000041CH   EDATA    FLOAT     z_last
      00000430H   EDATA    FLOAT     z_now
*DEL*:00000000H   CODE     ---       zero_all
      0000065BH   EDATA    WORD      zf_delay_ms
      0000065DH   EDATA    WORD      zf_delay_us
      00FF28B9H   CODE     ---       zf_sprintf



SYMBOL TABLE OF MODULE:  .\Out_File\SEEKFREE (board)

      VALUE       REP       CLASS    TYPE      SYMBOL NAME
      ====================================================
      ---         MODULE    ---      ---       board
      00FF000EH   PUBLIC    CODE     ---       EnableGlobalIRQ
      00FF52CDH   PUBLIC    CODE     ---       board_init
      00FF0016H   PUBLIC    CODE     ---       DisableGlobalIRQ
      00FF64FEH   PUBLIC    CODE     ---       putchar
      00000657H   PUBLIC    EDATA    LONG      sys_clk
      00000094H   SFRSYM    DATA     BYTE      P0M0
      000000D0H   SFRSYM    DATA     BYTE      PSW
      000000FDH   SFRSYM    DATA     BYTE      S4CON
      000000ACH   SFRSYM    DATA     BYTE      S3CON
      0000009AH   SFRSYM    DATA     BYTE      S2CON
      000000B7H   SFRSYM    DATA     BYTE      IPH
      000000E9H   SFRSYM    DATA     BYTE      WTST
      000000FFH   SFRSYM    DATA     BYTE      RSTCFG
      0000008EH   SFRSYM    DATA     BYTE      AUXR
      000000AFH   SFRSYM    DATA     BYTE      IE2
      00000088H   SFRSYM    DATA     BYTE      TCON
      00000089H   SFRSYM    DATA     BYTE      TMOD
      00000098H   SFRSYM    DATA     BYTE      SCON
      000000BCH   SFRSYM    DATA     BYTE      ADC_CONTR
      000000DEH   SFRSYM    DATA     BYTE      ADCCFG
      000000B8H   SFRSYM    DATA     BYTE      IP
      000000A8H   SFRSYM    DATA     BYTE      IE
      000000BAH   SFRSYM    DATA     BYTE      P_SW2
L251 LINKER/LOCATER V4.66.93.0                                                        03/07/2024  21:02:42  PAGE 30


      000000A2H   SFRSYM    DATA     BYTE      P_SW1
      000000F8H   SFRSYM    DATA     BYTE      P7
      000000A8H.7 SFRSYM    DATA     BIT       EA
      000000E1H   SFRSYM    DATA     BYTE      P7M1
      000000E8H   SFRSYM    DATA     BYTE      P6
      000000C8H   SFRSYM    DATA     BYTE      P5
      000000CBH   SFRSYM    DATA     BYTE      P6M1
      000000E2H   SFRSYM    DATA     BYTE      P7M0
      000000C0H   SFRSYM    DATA     BYTE      P4
      000000C9H   SFRSYM    DATA     BYTE      P5M1
      000000CCH   SFRSYM    DATA     BYTE      P6M0
      000000B0H   SFRSYM    DATA     BYTE      P3
      000000B3H   SFRSYM    DATA     BYTE      P4M1
      000000CAH   SFRSYM    DATA     BYTE      P5M0
      000000A0H   SFRSYM    DATA     BYTE      P2
      000000B1H   SFRSYM    DATA     BYTE      P3M1
      000000B4H   SFRSYM    DATA     BYTE      P4M0
      00000090H   SFRSYM    DATA     BYTE      P1
      00000095H   SFRSYM    DATA     BYTE      P2M1
      000000B2H   SFRSYM    DATA     BYTE      P3M0
      00000080H   SFRSYM    DATA     BYTE      P0
      00000091H   SFRSYM    DATA     BYTE      P1M1
      00000096H   SFRSYM    DATA     BYTE      P2M0
      00000092H   SFRSYM    DATA     BYTE      P1M0
      00000093H   SFRSYM    DATA     BYTE      P0M1

      00FF52CDH   BLOCK     CODE     ---       LVL=0
      00FF52CDH   LINE      CODE     ---       #177
      00FF52CDH   LINE      CODE     ---       #179
      00FF52D0H   LINE      CODE     ---       #197
      00FF52D3H   LINE      CODE     ---       #199
      00FF52D6H   LINE      CODE     ---       #200
      00FF52D9H   LINE      CODE     ---       #201
      00FF52E5H   LINE      CODE     ---       #203
      00FF52E8H   LINE      CODE     ---       #204
      00FF52EBH   LINE      CODE     ---       #205
      00FF52EEH   LINE      CODE     ---       #206
      00FF52F1H   LINE      CODE     ---       #207
      00FF52F4H   LINE      CODE     ---       #208
      00FF52F7H   LINE      CODE     ---       #209
      00FF52FAH   LINE      CODE     ---       #210
      00FF52FDH   LINE      CODE     ---       #211
      00FF5300H   LINE      CODE     ---       #212
      00FF5303H   LINE      CODE     ---       #213
      00FF5306H   LINE      CODE     ---       #214
      00FF5309H   LINE      CODE     ---       #215
      00FF530CH   LINE      CODE     ---       #216
      00FF530FH   LINE      CODE     ---       #217
      00FF5312H   LINE      CODE     ---       #218
      00FF5315H   LINE      CODE     ---       #220
      00FF5318H   LINE      CODE     ---       #221
      00FF531BH   LINE      CODE     ---       #222
      00FF531EH   LINE      CODE     ---       #223
      00FF5321H   LINE      CODE     ---       #224
      00FF5324H   LINE      CODE     ---       #225
      00FF5327H   LINE      CODE     ---       #226
      00FF532AH   LINE      CODE     ---       #227
      00FF532DH   LINE      CODE     ---       #228
      00FF5330H   LINE      CODE     ---       #229
      00FF5333H   LINE      CODE     ---       #231
      ---         BLOCKEND  ---      ---       LVL=0

      00FF64FEH   BLOCK     CODE     ---       LVL=0
      R15         REGSYM    ---      CHAR      c
      00FF64FEH   LINE      CODE     ---       #237
L251 LINKER/LOCATER V4.66.93.0                                                        03/07/2024  21:02:42  PAGE 31


      00FF6502H   LINE      CODE     ---       #239
      00FF6507H   LINE      CODE     ---       #241
      00FF6509H   LINE      CODE     ---       #242
      ---         BLOCKEND  ---      ---       LVL=0

      00FF0016H   BLOCK     CODE     ---       LVL=0
      00FF0016H   LINE      CODE     ---       #245
      00FF0016H   LINE      CODE     ---       #247
      00FF0018H   LINE      CODE     ---       #248
      ---         BLOCKEND  ---      ---       LVL=0

      00FF000EH   BLOCK     CODE     ---       LVL=0
      00FF000EH   LINE      CODE     ---       #251
      00FF000EH   LINE      CODE     ---       #253
      00FF0010H   LINE      CODE     ---       #254
      ---         BLOCKEND  ---      ---       LVL=0

      ---         MODULE    ---      ---       common
      00000665H   PUBLIC    EDATA    INT       wireless_type
      000000D0H   SFRSYM    DATA     BYTE      PSW
      000000B7H   SFRSYM    DATA     BYTE      IPH
      00000088H   SFRSYM    DATA     BYTE      TCON
      00000098H   SFRSYM    DATA     BYTE      SCON
      000000BCH   SFRSYM    DATA     BYTE      ADC_CONTR
      000000DEH   SFRSYM    DATA     BYTE      ADCCFG
      000000B8H   SFRSYM    DATA     BYTE      IP
      000000A8H   SFRSYM    DATA     BYTE      IE
      000000F8H   SFRSYM    DATA     BYTE      P7
      000000E8H   SFRSYM    DATA     BYTE      P6
      000000C8H   SFRSYM    DATA     BYTE      P5
      000000C0H   SFRSYM    DATA     BYTE      P4
      000000B0H   SFRSYM    DATA     BYTE      P3
      000000A0H   SFRSYM    DATA     BYTE      P2
      00000090H   SFRSYM    DATA     BYTE      P1
      00000080H   SFRSYM    DATA     BYTE      P0

      ---         MODULE    ---      ---       SEEKFREE_PRINTF
      00FF5124H   PUBLIC    CODE     ---       number_conversion_ascii
      00FF28B9H   PUBLIC    CODE     ---       zf_sprintf
      00FF5E0DH   PUBLIC    CODE     ---       printf_reverse_order
      00000398H   PUBLIC    EDATA    BYTE      ?number_conversion_ascii?BYTE
      0000036AH   PUBLIC    EDATA    BYTE      ?zf_sprintf?BYTE
      000000D0H   SFRSYM    DATA     BYTE      PSW
      000000B7H   SFRSYM    DATA     BYTE      IPH
      00000088H   SFRSYM    DATA     BYTE      TCON
      00000098H   SFRSYM    DATA     BYTE      SCON
      000000BCH   SFRSYM    DATA     BYTE      ADC_CONTR
      000000DEH   SFRSYM    DATA     BYTE      ADCCFG
      000000B8H   SFRSYM    DATA     BYTE      IP
      000000A8H   SFRSYM    DATA     BYTE      IE
      000000F8H   SFRSYM    DATA     BYTE      P7
      000000E8H   SFRSYM    DATA     BYTE      P6
      000000C8H   SFRSYM    DATA     BYTE      P5
      000000C0H   SFRSYM    DATA     BYTE      P4
      000000B0H   SFRSYM    DATA     BYTE      P3
      000000A0H   SFRSYM    DATA     BYTE      P2
      00000090H   SFRSYM    DATA     BYTE      P1
      00000080H   SFRSYM    DATA     BYTE      P0

      00FF5124H   BLOCK     CODE     ---       LVL=0
      DR24        REGSYM    ---      DWORD     dat
      REG=7       REGSYM    ---      ---       p
      R10         REGSYM    ---      BYTE      neg_type
      000003A1H   SYMBOL    EDATA    BYTE      radix
      00FF512CH   BLOCK     CODE     NEAR LAB  LVL=1
L251 LINKER/LOCATER V4.66.93.0                                                        03/07/2024  21:02:42  PAGE 32


      DR20        REGSYM    ---      LONG      neg_dat
      DR24        REGSYM    ---      DWORD     pos_dat
      R14         REGSYM    ---      BYTE      temp_data
      R15         REGSYM    ---      BYTE      valid_num
      ---         BLOCKEND  ---      ---       LVL=1
      00FF5124H   LINE      CODE     ---       #25
      00FF512CH   LINE      CODE     ---       #26
      00FF512CH   LINE      CODE     ---       #29
      00FF512CH   LINE      CODE     ---       #30
      00FF512EH   LINE      CODE     ---       #32
      00FF5132H   LINE      CODE     ---       #34
      00FF5134H   LINE      CODE     ---       #35
      00FF5144H   LINE      CODE     ---       #36
      00FF5144H   LINE      CODE     ---       #38
      00FF515AH   LINE      CODE     ---       #39
      00FF5169H   LINE      CODE     ---       #40
      00FF516BH   LINE      CODE     ---       #42
      00FF5171H   LINE      CODE     ---       #43
      00FF5173H   LINE      CODE     ---       #44
      00FF5175H   LINE      CODE     ---       #45
      00FF5177H   LINE      CODE     ---       #48
      00FF5177H   LINE      CODE     ---       #49
      00FF5177H   LINE      CODE     ---       #51
      00FF5186H   LINE      CODE     ---       #52
      00FF5190H   LINE      CODE     ---       #53
      00FF5193H   LINE      CODE     ---       #55
      00FF5196H   LINE      CODE     ---       #57
      00FF51A5H   LINE      CODE     ---       #58
      00FF51A7H   LINE      CODE     ---       #60
      00FF51ADH   LINE      CODE     ---       #61
      00FF51AFH   LINE      CODE     ---       #62
      00FF51B1H   LINE      CODE     ---       #63
      00FF51B1H   LINE      CODE     ---       #64
      00FF51B3H   LINE      CODE     ---       #65
      ---         BLOCKEND  ---      ---       LVL=0

      00FF5E0DH   BLOCK     CODE     ---       LVL=0
      REG=7       REGSYM    ---      ---       d_buff
      DR24        REGSYM    ---      DWORD     len
      00FF5E11H   BLOCK     CODE     NEAR LAB  LVL=1
      DR4         REGSYM    ---      DWORD     i
      R3          REGSYM    ---      CHAR      temp_data
      ---         BLOCKEND  ---      ---       LVL=1
      00FF5E0DH   LINE      CODE     ---       #67
      00FF5E11H   LINE      CODE     ---       #68
      00FF5E11H   LINE      CODE     ---       #71
      00FF5E15H   LINE      CODE     ---       #73
      00FF5E24H   LINE      CODE     ---       #74
      00FF5E32H   LINE      CODE     ---       #75
      00FF5E39H   LINE      CODE     ---       #76
      00FF5E4AH   LINE      CODE     ---       #77
      ---         BLOCKEND  ---      ---       LVL=0

      00FF28B9H   BLOCK     CODE     ---       LVL=0
      REG=3       REGSYM    ---      ---       buff
      0000036EH   SYMBOL    EDATA    ---       format
      00FF28C1H   BLOCK     CODE     NEAR LAB  LVL=1
      00000372H   SYMBOL    EDATA    DWORD     buff_len
      00000376H   SYMBOL    EDATA    ---       arg
      00FF28D6H   BLOCK     CODE     NEAR LAB  LVL=2
      0000037AH   SYMBOL    EDATA    CHAR      ret
      00FF2A00H   BLOCK     CODE     NEAR LAB  LVL=3
      0000037BH   SYMBOL    EDATA    CHAR      ch
      ---         BLOCKEND  ---      ---       LVL=3
      00FF2A19H   BLOCK     CODE     NEAR LAB  LVL=3
L251 LINKER/LOCATER V4.66.93.0                                                        03/07/2024  21:02:42  PAGE 33


      0000037BH   SYMBOL    EDATA    ---       vstr
      0000039CH   SYMBOL    EDATA    LONG      ival
      000003A0H   SYMBOL    EDATA    BYTE      vlen
      ---         BLOCKEND  ---      ---       LVL=3
      00FF2A92H   BLOCK     CODE     NEAR LAB  LVL=3
      0000037BH   SYMBOL    EDATA    ---       vstr
      0000039CH   SYMBOL    EDATA    FLOAT     ival
      000003A0H   SYMBOL    EDATA    BYTE      vlen
      ---         BLOCKEND  ---      ---       LVL=3
      00FF2BCDH   BLOCK     CODE     NEAR LAB  LVL=3
      0000037BH   SYMBOL    EDATA    ---       vstr
      0000039CH   SYMBOL    EDATA    DWORD     ival
      000003A0H   SYMBOL    EDATA    BYTE      vlen
      ---         BLOCKEND  ---      ---       LVL=3
      00FF2C25H   BLOCK     CODE     NEAR LAB  LVL=3
      0000037BH   SYMBOL    EDATA    ---       vstr
      0000039CH   SYMBOL    EDATA    DWORD     ival
      000003A0H   SYMBOL    EDATA    BYTE      vlen
      ---         BLOCKEND  ---      ---       LVL=3
      00FF2C7CH   BLOCK     CODE     NEAR LAB  LVL=3
      0000037BH   SYMBOL    EDATA    ---       vstr
      0000039CH   SYMBOL    EDATA    DWORD     ival
      000003A0H   SYMBOL    EDATA    BYTE      vlen
      ---         BLOCKEND  ---      ---       LVL=3
      00FF2CDEH   BLOCK     CODE     NEAR LAB  LVL=3
      0000037BH   SYMBOL    EDATA    ---       pc
      ---         BLOCKEND  ---      ---       LVL=3
      00FF2D20H   BLOCK     CODE     NEAR LAB  LVL=3
      0000037BH   SYMBOL    EDATA    ---       vstr
      0000039CH   SYMBOL    EDATA    DWORD     ival
      ---         BLOCKEND  ---      ---       LVL=3
      ---         BLOCKEND  ---      ---       LVL=2
      ---         BLOCKEND  ---      ---       LVL=1
      00FF28B9H   LINE      CODE     ---       #212
      00FF28C1H   LINE      CODE     ---       #213
      00FF28C1H   LINE      CODE     ---       #214
      00FF28C7H   LINE      CODE     ---       #216
      00FF28D3H   LINE      CODE     ---       #218
      00FF28D6H   LINE      CODE     ---       #219
      00FF28D6H   LINE      CODE     ---       #220
      00FF28E1H   LINE      CODE     ---       #221
      00FF28E9H   LINE      CODE     ---       #223
      00FF2A00H   LINE      CODE     ---       #225
      00FF2A00H   LINE      CODE     ---       #229
      00FF2A00H   LINE      CODE     ---       #232
      00FF2A00H   LINE      CODE     ---       #233
      00FF2A00H   LINE      CODE     ---       #234
      00FF2A16H   LINE      CODE     ---       #235
      00FF2A16H   LINE      CODE     ---       #236
      00FF2A16H   LINE      CODE     ---       #237
      00FF2A16H   LINE      CODE     ---       #239
      00FF2A19H   LINE      CODE     ---       #242
      00FF2A19H   LINE      CODE     ---       #243
      00FF2A19H   LINE      CODE     ---       #244
      00FF2A19H   LINE      CODE     ---       #246
      00FF2A32H   LINE      CODE     ---       #247
      00FF2A45H   LINE      CODE     ---       #249
      00FF2A4FH   LINE      CODE     ---       #251
      00FF2A5CH   LINE      CODE     ---       #252
      00FF2A61H   LINE      CODE     ---       #253
      00FF2A61H   LINE      CODE     ---       #254
      00FF2A70H   LINE      CODE     ---       #255
      00FF2A83H   LINE      CODE     ---       #256
      00FF2A8BH   LINE      CODE     ---       #257
      00FF2A8FH   LINE      CODE     ---       #260
L251 LINKER/LOCATER V4.66.93.0                                                        03/07/2024  21:02:42  PAGE 34


      00FF2A92H   LINE      CODE     ---       #262
      00FF2A92H   LINE      CODE     ---       #263
      00FF2A92H   LINE      CODE     ---       #264
      00FF2A92H   LINE      CODE     ---       #266
      00FF2AABH   LINE      CODE     ---       #267
      00FF2AC1H   LINE      CODE     ---       #269
      00FF2ACCH   LINE      CODE     ---       #271
      00FF2AD9H   LINE      CODE     ---       #272
      00FF2ADEH   LINE      CODE     ---       #273
      00FF2ADEH   LINE      CODE     ---       #274
      00FF2AEDH   LINE      CODE     ---       #275
      00FF2B00H   LINE      CODE     ---       #276
      00FF2B08H   LINE      CODE     ---       #277
      00FF2B1AH   LINE      CODE     ---       #279
      00FF2B3EH   LINE      CODE     ---       #280
      00FF2B44H   LINE      CODE     ---       #282
      00FF2B56H   LINE      CODE     ---       #283
      00FF2B58H   LINE      CODE     ---       #286
      00FF2B72H   LINE      CODE     ---       #287
      00FF2B78H   LINE      CODE     ---       #288
      00FF2B78H   LINE      CODE     ---       #290
      00FF2B7DH   LINE      CODE     ---       #292
      00FF2B87H   LINE      CODE     ---       #293
      00FF2B8CH   LINE      CODE     ---       #294
      00FF2B95H   LINE      CODE     ---       #296
      00FF2B9DH   LINE      CODE     ---       #297
      00FF2BA4H   LINE      CODE     ---       #299
      00FF2BB3H   LINE      CODE     ---       #300
      00FF2BC6H   LINE      CODE     ---       #301
      00FF2BCAH   LINE      CODE     ---       #303
      00FF2BCDH   LINE      CODE     ---       #306
      00FF2BCDH   LINE      CODE     ---       #307
      00FF2BCDH   LINE      CODE     ---       #309
      00FF2BE6H   LINE      CODE     ---       #310
      00FF2BF8H   LINE      CODE     ---       #312
      00FF2C03H   LINE      CODE     ---       #313
      00FF2C16H   LINE      CODE     ---       #314
      00FF2C1EH   LINE      CODE     ---       #315
      00FF2C22H   LINE      CODE     ---       #316
      00FF2C25H   LINE      CODE     ---       #318
      00FF2C25H   LINE      CODE     ---       #319
      00FF2C25H   LINE      CODE     ---       #321
      00FF2C3EH   LINE      CODE     ---       #322
      00FF2C50H   LINE      CODE     ---       #324
      00FF2C5BH   LINE      CODE     ---       #325
      00FF2C6EH   LINE      CODE     ---       #326
      00FF2C76H   LINE      CODE     ---       #327
      00FF2C7AH   LINE      CODE     ---       #329
      00FF2C7CH   LINE      CODE     ---       #331
      00FF2C7CH   LINE      CODE     ---       #332
      00FF2C7CH   LINE      CODE     ---       #333
      00FF2C7CH   LINE      CODE     ---       #335
      00FF2C95H   LINE      CODE     ---       #336
      00FF2CA7H   LINE      CODE     ---       #338
      00FF2CB2H   LINE      CODE     ---       #339
      00FF2CC5H   LINE      CODE     ---       #340
      00FF2CCDH   LINE      CODE     ---       #341
      00FF2CDBH   LINE      CODE     ---       #342
      00FF2CDEH   LINE      CODE     ---       #345
      00FF2CDEH   LINE      CODE     ---       #346
      00FF2CDEH   LINE      CODE     ---       #347
      00FF2CF3H   LINE      CODE     ---       #348
      00FF2CF5H   LINE      CODE     ---       #350
      00FF2CFFH   LINE      CODE     ---       #351
      00FF2D01H   LINE      CODE     ---       #352
L251 LINKER/LOCATER V4.66.93.0                                                        03/07/2024  21:02:42  PAGE 35


      00FF2D0BH   LINE      CODE     ---       #353
      00FF2D15H   LINE      CODE     ---       #354
      00FF2D1EH   LINE      CODE     ---       #355
      00FF2D20H   LINE      CODE     ---       #357
      00FF2D20H   LINE      CODE     ---       #358
      00FF2D20H   LINE      CODE     ---       #360
      00FF2D39H   LINE      CODE     ---       #362
      00FF2D47H   LINE      CODE     ---       #364
      00FF2D52H   LINE      CODE     ---       #365
      00FF2D63H   LINE      CODE     ---       #366
      00FF2D67H   LINE      CODE     ---       #367
      00FF2D6FH   LINE      CODE     ---       #369
      00FF2D71H   LINE      CODE     ---       #372
      00FF2D71H   LINE      CODE     ---       #374
      00FF2D76H   LINE      CODE     ---       #375
      00FF2D78H   LINE      CODE     ---       #376
      00FF2D7EH   LINE      CODE     ---       #377
      00FF2D80H   LINE      CODE     ---       #379
      00FF2D80H   LINE      CODE     ---       #380
      00FF2D80H   LINE      CODE     ---       #381
      00FF2D80H   LINE      CODE     ---       #384
      00FF2D8AH   LINE      CODE     ---       #385
      00FF2D8CH   LINE      CODE     ---       #386
      00FF2D96H   LINE      CODE     ---       #387
      00FF2D96H   LINE      CODE     ---       #388
      00FF2DA0H   LINE      CODE     ---       #389
      00FF2DACH   LINE      CODE     ---       #392
      00FF2DB0H   LINE      CODE     ---       #393
      ---         BLOCKEND  ---      ---       LVL=0

      ---         MODULE    ---      ---       zf_adc
      00FF60E2H   PUBLIC    CODE     ---       adc_once
      00FF58A4H   PUBLIC    CODE     ---       adc_init
      00000094H   SFRSYM    DATA     BYTE      P0M0
      000000D0H   SFRSYM    DATA     BYTE      PSW
      000000B7H   SFRSYM    DATA     BYTE      IPH
      000000BEH   SFRSYM    DATA     BYTE      ADC_RESL
      00000088H   SFRSYM    DATA     BYTE      TCON
      00000098H   SFRSYM    DATA     BYTE      SCON
      000000BCH   SFRSYM    DATA     BYTE      ADC_CONTR
      000000DEH   SFRSYM    DATA     BYTE      ADCCFG
      000000B8H   SFRSYM    DATA     BYTE      IP
      000000BDH   SFRSYM    DATA     BYTE      ADC_RES
      000000A8H   SFRSYM    DATA     BYTE      IE
      000000F8H   SFRSYM    DATA     BYTE      P7
      000000E8H   SFRSYM    DATA     BYTE      P6
      000000C8H   SFRSYM    DATA     BYTE      P5
      000000C0H   SFRSYM    DATA     BYTE      P4
      000000B0H   SFRSYM    DATA     BYTE      P3
      000000A0H   SFRSYM    DATA     BYTE      P2
      00000090H   SFRSYM    DATA     BYTE      P1
      00000080H   SFRSYM    DATA     BYTE      P0
      00000091H   SFRSYM    DATA     BYTE      P1M1
      00000092H   SFRSYM    DATA     BYTE      P1M0
      00000093H   SFRSYM    DATA     BYTE      P0M1

      00FF58A4H   BLOCK     CODE     ---       LVL=0
      WR4         REGSYM    ---      INT       adcn
      WR2         REGSYM    ---      INT       speed
      00FF58A4H   LINE      CODE     ---       #32
      00FF58A8H   LINE      CODE     ---       #34
      00FF58ABH   LINE      CODE     ---       #36
      00FF58AEH   LINE      CODE     ---       #37
      00FF58B4H   LINE      CODE     ---       #39
      00FF58C0H   LINE      CODE     ---       #42
L251 LINKER/LOCATER V4.66.93.0                                                        03/07/2024  21:02:42  PAGE 36


      00FF58D5H   LINE      CODE     ---       #43
      00FF58D9H   LINE      CODE     ---       #44
      00FF58DBH   LINE      CODE     ---       #45
      00FF58DFH   LINE      CODE     ---       #48
      00FF58F4H   LINE      CODE     ---       #49
      00FF58F8H   LINE      CODE     ---       #50
      00FF58F8H   LINE      CODE     ---       #52
      00FF58FEH   LINE      CODE     ---       #54
      00FF5901H   LINE      CODE     ---       #55
      ---         BLOCKEND  ---      ---       LVL=0

      00FF60E2H   BLOCK     CODE     ---       LVL=0
      WR6         REGSYM    ---      INT       adcn
      WR4         REGSYM    ---      INT       resolution
      WR6         REGSYM    ---      WORD      adc_value
      00FF60E2H   LINE      CODE     ---       #66
      00FF60E2H   LINE      CODE     ---       #67
      00FF60E2H   LINE      CODE     ---       #70
      00FF60E5H   LINE      CODE     ---       #71
      00FF60E9H   LINE      CODE     ---       #73
      00FF60ECH   LINE      CODE     ---       #74
      00FF60F1H   LINE      CODE     ---       #75
      00FF60F4H   LINE      CODE     ---       #77
      00FF60F6H   LINE      CODE     ---       #78
      00FF60FAH   LINE      CODE     ---       #79
      00FF6100H   LINE      CODE     ---       #81
      00FF6103H   LINE      CODE     ---       #82
      00FF6106H   LINE      CODE     ---       #84
      00FF610FH   LINE      CODE     ---       #87
      00FF610FH   LINE      CODE     ---       #88
      ---         BLOCKEND  ---      ---       LVL=0

      ---         MODULE    ---      ---       zf_delay
      00FF5F3DH   PUBLIC    CODE     ---       delay_init
      00FF63F2H   PUBLIC    CODE     ---       delay_ms
      0000065BH   PUBLIC    EDATA    WORD      zf_delay_ms
      0000065DH   PUBLIC    EDATA    WORD      zf_delay_us
      000000D0H   SFRSYM    DATA     BYTE      PSW
      000000B7H   SFRSYM    DATA     BYTE      IPH
      00000088H   SFRSYM    DATA     BYTE      TCON
      00000098H   SFRSYM    DATA     BYTE      SCON
      000000BCH   SFRSYM    DATA     BYTE      ADC_CONTR
      000000DEH   SFRSYM    DATA     BYTE      ADCCFG
      000000B8H   SFRSYM    DATA     BYTE      IP
      000000A8H   SFRSYM    DATA     BYTE      IE
      000000F8H   SFRSYM    DATA     BYTE      P7
      000000E8H   SFRSYM    DATA     BYTE      P6
      000000C8H   SFRSYM    DATA     BYTE      P5
      000000C0H   SFRSYM    DATA     BYTE      P4
      000000B0H   SFRSYM    DATA     BYTE      P3
      000000A0H   SFRSYM    DATA     BYTE      P2
      00000090H   SFRSYM    DATA     BYTE      P1
      00000080H   SFRSYM    DATA     BYTE      P0

      00FF5F3DH   BLOCK     CODE     ---       LVL=0
      00FF5F3DH   LINE      CODE     ---       #34
      00FF5F3DH   LINE      CODE     ---       #36
      00FF5F4EH   LINE      CODE     ---       #37
      00FF5F5FH   LINE      CODE     ---       #38
      00FF5F75H   LINE      CODE     ---       #40
      ---         BLOCKEND  ---      ---       LVL=0

      00FF63F2H   BLOCK     CODE     ---       LVL=0
      WR4         REGSYM    ---      WORD      ms
      00FF63F4H   BLOCK     CODE     NEAR LAB  LVL=1
L251 LINKER/LOCATER V4.66.93.0                                                        03/07/2024  21:02:42  PAGE 37


      WR6         REGSYM    ---      WORD      i
      ---         BLOCKEND  ---      ---       LVL=1
      00FF63F2H   LINE      CODE     ---       #48
      00FF63F4H   LINE      CODE     ---       #49
      00FF63F4H   LINE      CODE     ---       #51
      00FF63F4H   LINE      CODE     ---       #52
      00FF63F8H   LINE      CODE     ---       #54
      00FF6400H   LINE      CODE     ---       #55
      00FF6408H   LINE      CODE     ---       #56
      ---         BLOCKEND  ---      ---       LVL=0
      DR0         REGSYM    ---      DWORD     us
      WR6         REGSYM    ---      WORD      i

      ---         MODULE    ---      ---       zf_eeprom
      000000D0H   SFRSYM    DATA     BYTE      PSW
      000000D0H.5 SFRSYM    DATA     BIT       F0
      000000C6H   SFRSYM    DATA     BYTE      IAP_TRIG
      000000B7H   SFRSYM    DATA     BYTE      IPH
      000000C2H   SFRSYM    DATA     BYTE      IAP_DATA
      000000C7H   SFRSYM    DATA     BYTE      IAP_CONTR
      00000088H   SFRSYM    DATA     BYTE      TCON
      00000098H   SFRSYM    DATA     BYTE      SCON
      000000F5H   SFRSYM    DATA     BYTE      IAP_TPS
      000000BCH   SFRSYM    DATA     BYTE      ADC_CONTR
      000000C4H   SFRSYM    DATA     BYTE      IAP_ADDRL
      000000C3H   SFRSYM    DATA     BYTE      IAP_ADDRH
      000000F6H   SFRSYM    DATA     BYTE      IAP_ADDRE
      000000DEH   SFRSYM    DATA     BYTE      ADCCFG
      000000B8H   SFRSYM    DATA     BYTE      IP
      000000C5H   SFRSYM    DATA     BYTE      IAP_CMD
      000000A8H   SFRSYM    DATA     BYTE      IE
      000000F8H   SFRSYM    DATA     BYTE      P7
      000000A8H.7 SFRSYM    DATA     BIT       EA
      000000E8H   SFRSYM    DATA     BYTE      P6
      000000C8H   SFRSYM    DATA     BYTE      P5
      000000C0H   SFRSYM    DATA     BYTE      P4
      000000B0H   SFRSYM    DATA     BYTE      P3
      000000A0H   SFRSYM    DATA     BYTE      P2
      00000090H   SFRSYM    DATA     BYTE      P1
      00000080H   SFRSYM    DATA     BYTE      P0
      R11         REGSYM    ---      BYTE      write_time
      REG=3       REGSYM    ---      ---       buf
      REG=3       REGSYM    ---      ---       buf
      WR6         REGSYM    ---      WORD      addr
      REG=3       REGSYM    ---      ---       buf
      WR6         REGSYM    ---      WORD      i

      ---         MODULE    ---      ---       zf_exti
      000000D0H   SFRSYM    DATA     BYTE      PSW
      000000B7H   SFRSYM    DATA     BYTE      IPH
      00000088H.2 SFRSYM    DATA     BIT       IT1
      000000A8H.2 SFRSYM    DATA     BIT       EX1
      00000088H.0 SFRSYM    DATA     BIT       IT0
      000000A8H.0 SFRSYM    DATA     BIT       EX0
      00000088H   SFRSYM    DATA     BYTE      TCON
      00000098H   SFRSYM    DATA     BYTE      SCON
      000000BCH   SFRSYM    DATA     BYTE      ADC_CONTR
      000000DEH   SFRSYM    DATA     BYTE      ADCCFG
      000000B8H   SFRSYM    DATA     BYTE      IP
      0000008FH   SFRSYM    DATA     BYTE      INTCLKO
      000000A8H   SFRSYM    DATA     BYTE      IE
      000000F8H   SFRSYM    DATA     BYTE      P7
      000000E8H   SFRSYM    DATA     BYTE      P6
      000000C8H   SFRSYM    DATA     BYTE      P5
      000000C0H   SFRSYM    DATA     BYTE      P4
L251 LINKER/LOCATER V4.66.93.0                                                        03/07/2024  21:02:42  PAGE 38


      000000B0H   SFRSYM    DATA     BYTE      P3
      000000A0H   SFRSYM    DATA     BYTE      P2
      00000090H   SFRSYM    DATA     BYTE      P1
      00000080H   SFRSYM    DATA     BYTE      P0
      WR4         REGSYM    ---      INT       int_n
      WR2         REGSYM    ---      INT       mode

      ---         MODULE    ---      ---       zf_gpio
      00FF2DB3H   PUBLIC    CODE     ---       gpio_mode
      00000094H   SFRSYM    DATA     BYTE      P0M0
      000000D0H   SFRSYM    DATA     BYTE      PSW
      000000B7H   SFRSYM    DATA     BYTE      IPH
      00000088H   SFRSYM    DATA     BYTE      TCON
      00000098H   SFRSYM    DATA     BYTE      SCON
      000000BCH   SFRSYM    DATA     BYTE      ADC_CONTR
      000000DEH   SFRSYM    DATA     BYTE      ADCCFG
      000000B8H   SFRSYM    DATA     BYTE      IP
      000000A8H   SFRSYM    DATA     BYTE      IE
      000000F8H   SFRSYM    DATA     BYTE      P7
      000000E1H   SFRSYM    DATA     BYTE      P7M1
      000000E8H   SFRSYM    DATA     BYTE      P6
      000000C8H   SFRSYM    DATA     BYTE      P5
      000000CBH   SFRSYM    DATA     BYTE      P6M1
      000000E2H   SFRSYM    DATA     BYTE      P7M0
      000000C0H   SFRSYM    DATA     BYTE      P4
      000000C9H   SFRSYM    DATA     BYTE      P5M1
      000000CCH   SFRSYM    DATA     BYTE      P6M0
      000000B0H   SFRSYM    DATA     BYTE      P3
      000000B3H   SFRSYM    DATA     BYTE      P4M1
      000000CAH   SFRSYM    DATA     BYTE      P5M0
      000000A0H   SFRSYM    DATA     BYTE      P2
      000000B1H   SFRSYM    DATA     BYTE      P3M1
      000000B4H   SFRSYM    DATA     BYTE      P4M0
      00000090H   SFRSYM    DATA     BYTE      P1
      00000095H   SFRSYM    DATA     BYTE      P2M1
      000000B2H   SFRSYM    DATA     BYTE      P3M0
      00000080H   SFRSYM    DATA     BYTE      P0
      00000091H   SFRSYM    DATA     BYTE      P1M1
      00000096H   SFRSYM    DATA     BYTE      P2M0
      00000092H   SFRSYM    DATA     BYTE      P1M0
      00000093H   SFRSYM    DATA     BYTE      P0M1
      WR4         REGSYM    ---      INT       pin
      WR2         REGSYM    ---      INT       pull

      00FF2DB3H   BLOCK     CODE     ---       LVL=0
      WR4         REGSYM    ---      INT       pin
      WR2         REGSYM    ---      INT       mode
      00FF2DB3H   LINE      CODE     ---       #54
      00FF2DB7H   LINE      CODE     ---       #56
      00FF2DBEH   LINE      CODE     ---       #58
      00FF2DC6H   LINE      CODE     ---       #60
      00FF2DDEH   LINE      CODE     ---       #61
      00FF2DE0H   LINE      CODE     ---       #62
      00FF2DE0H   LINE      CODE     ---       #63
      00FF2DE6H   LINE      CODE     ---       #65
      00FF2DFEH   LINE      CODE     ---       #66
      00FF2E00H   LINE      CODE     ---       #67
      00FF2E00H   LINE      CODE     ---       #68
      00FF2E06H   LINE      CODE     ---       #70
      00FF2E1EH   LINE      CODE     ---       #71
      00FF2E20H   LINE      CODE     ---       #72
      00FF2E20H   LINE      CODE     ---       #74
      00FF2E26H   LINE      CODE     ---       #76
      00FF2E3EH   LINE      CODE     ---       #77
      00FF2E40H   LINE      CODE     ---       #78
L251 LINKER/LOCATER V4.66.93.0                                                        03/07/2024  21:02:42  PAGE 39


      00FF2E40H   LINE      CODE     ---       #79
      00FF2E46H   LINE      CODE     ---       #81
      00FF2E5EH   LINE      CODE     ---       #82
      00FF2E60H   LINE      CODE     ---       #83
      00FF2E60H   LINE      CODE     ---       #84
      00FF2E66H   LINE      CODE     ---       #86
      00FF2E7EH   LINE      CODE     ---       #87
      00FF2E80H   LINE      CODE     ---       #88
      00FF2E80H   LINE      CODE     ---       #89
      00FF2E86H   LINE      CODE     ---       #91
      00FF2E9EH   LINE      CODE     ---       #92
      00FF2EA0H   LINE      CODE     ---       #93
      00FF2EA0H   LINE      CODE     ---       #94
      00FF2EA9H   LINE      CODE     ---       #96
      00FF2EC1H   LINE      CODE     ---       #97
      00FF2EC3H   LINE      CODE     ---       #98
      00FF2EC4H   LINE      CODE     ---       #100
      00FF2ECDH   LINE      CODE     ---       #102
      00FF2ED5H   LINE      CODE     ---       #104
      00FF2EEAH   LINE      CODE     ---       #105
      00FF2EEEH   LINE      CODE     ---       #106
      00FF2EEEH   LINE      CODE     ---       #107
      00FF2EF4H   LINE      CODE     ---       #109
      00FF2F09H   LINE      CODE     ---       #110
      00FF2F0DH   LINE      CODE     ---       #111
      00FF2F0DH   LINE      CODE     ---       #112
      00FF2F13H   LINE      CODE     ---       #114
      00FF2F28H   LINE      CODE     ---       #115
      00FF2F2CH   LINE      CODE     ---       #116
      00FF2F2CH   LINE      CODE     ---       #118
      00FF2F32H   LINE      CODE     ---       #120
      00FF2F47H   LINE      CODE     ---       #121
      00FF2F4BH   LINE      CODE     ---       #122
      00FF2F4BH   LINE      CODE     ---       #123
      00FF2F51H   LINE      CODE     ---       #125
      00FF2F66H   LINE      CODE     ---       #126
      00FF2F6AH   LINE      CODE     ---       #127
      00FF2F6AH   LINE      CODE     ---       #128
      00FF2F70H   LINE      CODE     ---       #130
      00FF2F85H   LINE      CODE     ---       #131
      00FF2F89H   LINE      CODE     ---       #132
      00FF2F89H   LINE      CODE     ---       #133
      00FF2F8FH   LINE      CODE     ---       #135
      00FF2FA4H   LINE      CODE     ---       #136
      00FF2FA8H   LINE      CODE     ---       #137
      00FF2FA8H   LINE      CODE     ---       #138
      00FF2FB1H   LINE      CODE     ---       #140
      00FF2FC8H   LINE      CODE     ---       #141
      00FF2FC8H   LINE      CODE     ---       #142
      00FF2FCBH   LINE      CODE     ---       #145
      00FF2FD4H   LINE      CODE     ---       #147
      00FF2FDCH   LINE      CODE     ---       #149
      00FF2FEFH   LINE      CODE     ---       #150
      00FF2FF3H   LINE      CODE     ---       #151
      00FF2FF3H   LINE      CODE     ---       #152
      00FF2FF9H   LINE      CODE     ---       #154
      00FF300CH   LINE      CODE     ---       #155
      00FF3010H   LINE      CODE     ---       #156
      00FF3010H   LINE      CODE     ---       #157
      00FF3016H   LINE      CODE     ---       #159
      00FF3029H   LINE      CODE     ---       #160
      00FF302DH   LINE      CODE     ---       #161
      00FF302DH   LINE      CODE     ---       #163
      00FF3033H   LINE      CODE     ---       #165
      00FF3046H   LINE      CODE     ---       #166
L251 LINKER/LOCATER V4.66.93.0                                                        03/07/2024  21:02:42  PAGE 40


      00FF304AH   LINE      CODE     ---       #167
      00FF304AH   LINE      CODE     ---       #168
      00FF3050H   LINE      CODE     ---       #170
      00FF3063H   LINE      CODE     ---       #171
      00FF3067H   LINE      CODE     ---       #172
      00FF3067H   LINE      CODE     ---       #173
      00FF306DH   LINE      CODE     ---       #175
      00FF3080H   LINE      CODE     ---       #176
      00FF3084H   LINE      CODE     ---       #177
      00FF3084H   LINE      CODE     ---       #178
      00FF308AH   LINE      CODE     ---       #180
      00FF309DH   LINE      CODE     ---       #181
      00FF30A1H   LINE      CODE     ---       #182
      00FF30A1H   LINE      CODE     ---       #183
      00FF30AAH   LINE      CODE     ---       #185
      00FF30BDH   LINE      CODE     ---       #186
      00FF30C1H   LINE      CODE     ---       #187
      00FF30C2H   LINE      CODE     ---       #189
      00FF30CBH   LINE      CODE     ---       #191
      00FF30D3H   LINE      CODE     ---       #193
      00FF30E6H   LINE      CODE     ---       #194
      00FF30E8H   LINE      CODE     ---       #195
      00FF30E8H   LINE      CODE     ---       #196
      00FF30EEH   LINE      CODE     ---       #198
      00FF3101H   LINE      CODE     ---       #199
      00FF3103H   LINE      CODE     ---       #200
      00FF3103H   LINE      CODE     ---       #201
      00FF3109H   LINE      CODE     ---       #203
      00FF311CH   LINE      CODE     ---       #204
      00FF311EH   LINE      CODE     ---       #205
      00FF311EH   LINE      CODE     ---       #207
      00FF3124H   LINE      CODE     ---       #209
      00FF3137H   LINE      CODE     ---       #210
      00FF3139H   LINE      CODE     ---       #211
      00FF3139H   LINE      CODE     ---       #212
      00FF313FH   LINE      CODE     ---       #214
      00FF3152H   LINE      CODE     ---       #215
      00FF3154H   LINE      CODE     ---       #216
      00FF3154H   LINE      CODE     ---       #217
      00FF315AH   LINE      CODE     ---       #219
      00FF316DH   LINE      CODE     ---       #220
      00FF316FH   LINE      CODE     ---       #221
      00FF316FH   LINE      CODE     ---       #222
      00FF3175H   LINE      CODE     ---       #224
      00FF3188H   LINE      CODE     ---       #225
      00FF318AH   LINE      CODE     ---       #226
      00FF318AH   LINE      CODE     ---       #227
      00FF3190H   LINE      CODE     ---       #229
      00FF31A5H   LINE      CODE     ---       #230
      00FF31A9H   LINE      CODE     ---       #231
      00FF31A9H   LINE      CODE     ---       #233
      ---         BLOCKEND  ---      ---       LVL=0

      ---         MODULE    ---      ---       zf_iic
      000000D0H   SFRSYM    DATA     BYTE      PSW
      000000B7H   SFRSYM    DATA     BYTE      IPH
      00000088H   SFRSYM    DATA     BYTE      TCON
      00000098H   SFRSYM    DATA     BYTE      SCON
      000000BCH   SFRSYM    DATA     BYTE      ADC_CONTR
      000000DEH   SFRSYM    DATA     BYTE      ADCCFG
      000000B8H   SFRSYM    DATA     BYTE      IP
      000000A8H   SFRSYM    DATA     BYTE      IE
      000000BAH   SFRSYM    DATA     BYTE      P_SW2
      000000F8H   SFRSYM    DATA     BYTE      P7
      000000E8H   SFRSYM    DATA     BYTE      P6
L251 LINKER/LOCATER V4.66.93.0                                                        03/07/2024  21:02:42  PAGE 41


      000000C8H   SFRSYM    DATA     BYTE      P5
      000000C0H   SFRSYM    DATA     BYTE      P4
      000000B0H   SFRSYM    DATA     BYTE      P3
      000000A0H   SFRSYM    DATA     BYTE      P2
      00000090H   SFRSYM    DATA     BYTE      P1
      00000080H   SFRSYM    DATA     BYTE      P0
      WR6         REGSYM    ---      WORD      x
      R10         REGSYM    ---      BYTE      i
      WR12        REGSYM    ---      WORD      count
      R15         REGSYM    ---      BYTE      ret
      R11         REGSYM    ---      BYTE      ret
      R11         REGSYM    ---      CHAR      dat
      R11         REGSYM    ---      BYTE      ret
      R11         REGSYM    ---      BYTE      ret
      R11         REGSYM    ---      BYTE      ret
      R11         REGSYM    ---      BYTE      ret
      WR6         REGSYM    ---      INT       iic_n
      R13         REGSYM    ---      BYTE      dev_add
      R14         REGSYM    ---      BYTE      reg
      R15         REGSYM    ---      BYTE      dat
      R15         REGSYM    ---      BYTE      dev_add
      R14         REGSYM    ---      BYTE      reg
      REG=3       REGSYM    ---      ---       dat
      WR6         REGSYM    ---      INT       iic_n

      ---         MODULE    ---      ---       zf_nvic
      000000D0H   SFRSYM    DATA     BYTE      PSW
      000000B7H   SFRSYM    DATA     BYTE      IPH
      000000B5H   SFRSYM    DATA     BYTE      IP2
      00000088H   SFRSYM    DATA     BYTE      TCON
      00000098H   SFRSYM    DATA     BYTE      SCON
      000000BCH   SFRSYM    DATA     BYTE      ADC_CONTR
      000000DEH   SFRSYM    DATA     BYTE      ADCCFG
      000000B8H   SFRSYM    DATA     BYTE      IP
      000000B6H   SFRSYM    DATA     BYTE      IP2H
      000000A8H   SFRSYM    DATA     BYTE      IE
      000000F8H   SFRSYM    DATA     BYTE      P7
      000000E8H   SFRSYM    DATA     BYTE      P6
      000000C8H   SFRSYM    DATA     BYTE      P5
      000000C0H   SFRSYM    DATA     BYTE      P4
      000000B0H   SFRSYM    DATA     BYTE      P3
      000000A0H   SFRSYM    DATA     BYTE      P2
      00000090H   SFRSYM    DATA     BYTE      P1
      00000080H   SFRSYM    DATA     BYTE      P0
      WR4         REGSYM    ---      INT       irqn
      R3          REGSYM    ---      BYTE      priority

      ---         MODULE    ---      ---       zf_pwm
      00FF4D45H   PUBLIC    CODE     ---       pwm_duty
      00FF37DAH   PUBLIC    CODE     ---       pwm_set_gpio
      00FF34F6H   PUBLIC    CODE     ---       pwm_init
      00FF6767H   PUBLIC    HCONST   ---       PWM_CCR_ADDR
      00FF6787H   PUBLIC    HCONST   ---       PWM_ARR_ADDR
      00FF678FH   PUBLIC    HCONST   ---       PWM_CCER_ADDR
      00FF679FH   PUBLIC    HCONST   ---       PWM_CCMR_ADDR
      00000315H   PUBLIC    EDATA    BYTE      ?pwm_init?BYTE
      000000D0H   SFRSYM    DATA     BYTE      PSW
      000000B7H   SFRSYM    DATA     BYTE      IPH
      00000088H   SFRSYM    DATA     BYTE      TCON
      00000098H   SFRSYM    DATA     BYTE      SCON
      000000BCH   SFRSYM    DATA     BYTE      ADC_CONTR
      000000DEH   SFRSYM    DATA     BYTE      ADCCFG
      000000B8H   SFRSYM    DATA     BYTE      IP
      000000A8H   SFRSYM    DATA     BYTE      IE
      000000BAH   SFRSYM    DATA     BYTE      P_SW2
L251 LINKER/LOCATER V4.66.93.0                                                        03/07/2024  21:02:42  PAGE 42


      000000F8H   SFRSYM    DATA     BYTE      P7
      000000E8H   SFRSYM    DATA     BYTE      P6
      000000C8H   SFRSYM    DATA     BYTE      P5
      000000C0H   SFRSYM    DATA     BYTE      P4
      000000B0H   SFRSYM    DATA     BYTE      P3
      000000A0H   SFRSYM    DATA     BYTE      P2
      00000090H   SFRSYM    DATA     BYTE      P1
      00000080H   SFRSYM    DATA     BYTE      P0

      00FF37DAH   BLOCK     CODE     ---       LVL=0
      WR6         REGSYM    ---      INT       pwmch
      00FF37DAH   LINE      CODE     ---       #49
      00FF37DAH   LINE      CODE     ---       #51
      00FF394DH   LINE      CODE     ---       #53
      00FF394DH   LINE      CODE     ---       #55
      00FF3951H   LINE      CODE     ---       #56
      00FF3954H   LINE      CODE     ---       #58
      00FF3954H   LINE      CODE     ---       #60
      00FF3958H   LINE      CODE     ---       #61
      00FF395BH   LINE      CODE     ---       #63
      00FF395BH   LINE      CODE     ---       #65
      00FF395FH   LINE      CODE     ---       #66
      00FF3962H   LINE      CODE     ---       #68
      00FF3962H   LINE      CODE     ---       #70
      00FF3966H   LINE      CODE     ---       #71
      00FF3969H   LINE      CODE     ---       #73
      00FF3969H   LINE      CODE     ---       #75
      00FF396DH   LINE      CODE     ---       #76
      00FF3970H   LINE      CODE     ---       #78
      00FF3970H   LINE      CODE     ---       #80
      00FF3974H   LINE      CODE     ---       #81
      00FF3977H   LINE      CODE     ---       #84
      00FF3977H   LINE      CODE     ---       #86
      00FF397BH   LINE      CODE     ---       #87
      00FF397EH   LINE      CODE     ---       #89
      00FF397EH   LINE      CODE     ---       #91
      00FF3982H   LINE      CODE     ---       #92
      00FF3985H   LINE      CODE     ---       #94
      00FF3985H   LINE      CODE     ---       #96
      00FF3989H   LINE      CODE     ---       #97
      00FF398CH   LINE      CODE     ---       #99
      00FF398CH   LINE      CODE     ---       #101
      00FF3990H   LINE      CODE     ---       #102
      00FF3993H   LINE      CODE     ---       #104
      00FF3993H   LINE      CODE     ---       #106
      00FF3997H   LINE      CODE     ---       #107
      00FF399AH   LINE      CODE     ---       #109
      00FF399AH   LINE      CODE     ---       #111
      00FF399EH   LINE      CODE     ---       #112
      00FF39A1H   LINE      CODE     ---       #115
      00FF39A1H   LINE      CODE     ---       #117
      00FF39A5H   LINE      CODE     ---       #118
      00FF39A7H   LINE      CODE     ---       #120
      00FF39A7H   LINE      CODE     ---       #122
      00FF39ABH   LINE      CODE     ---       #123
      00FF39ADH   LINE      CODE     ---       #125
      00FF39ADH   LINE      CODE     ---       #127
      00FF39B1H   LINE      CODE     ---       #128
      00FF39B3H   LINE      CODE     ---       #130
      00FF39B3H   LINE      CODE     ---       #132
      00FF39B7H   LINE      CODE     ---       #133
      00FF39B9H   LINE      CODE     ---       #135
      00FF39B9H   LINE      CODE     ---       #137
      00FF39BDH   LINE      CODE     ---       #138
      00FF39BFH   LINE      CODE     ---       #140
L251 LINKER/LOCATER V4.66.93.0                                                        03/07/2024  21:02:42  PAGE 43


      00FF39BFH   LINE      CODE     ---       #142
      00FF39C3H   LINE      CODE     ---       #143
      00FF39C5H   LINE      CODE     ---       #147
      00FF39C5H   LINE      CODE     ---       #149
      00FF39C9H   LINE      CODE     ---       #150
      00FF39CBH   LINE      CODE     ---       #152
      00FF39CBH   LINE      CODE     ---       #154
      00FF39CFH   LINE      CODE     ---       #155
      00FF39D1H   LINE      CODE     ---       #157
      00FF39D1H   LINE      CODE     ---       #159
      00FF39D5H   LINE      CODE     ---       #160
      00FF39D7H   LINE      CODE     ---       #162
      00FF39D7H   LINE      CODE     ---       #164
      00FF39DBH   LINE      CODE     ---       #165
      00FF39DDH   LINE      CODE     ---       #167
      00FF39DDH   LINE      CODE     ---       #169
      00FF39E1H   LINE      CODE     ---       #170
      00FF39E3H   LINE      CODE     ---       #172
      00FF39E3H   LINE      CODE     ---       #174
      00FF39E7H   LINE      CODE     ---       #175
      00FF39E9H   LINE      CODE     ---       #177
      00FF39E9H   LINE      CODE     ---       #179
      00FF39EDH   LINE      CODE     ---       #180
      00FF39EFH   LINE      CODE     ---       #182
      00FF39EFH   LINE      CODE     ---       #184
      00FF39F3H   LINE      CODE     ---       #185
      00FF39F5H   LINE      CODE     ---       #189
      00FF39F5H   LINE      CODE     ---       #191
      00FF39F9H   LINE      CODE     ---       #192
      00FF39FBH   LINE      CODE     ---       #194
      00FF39FBH   LINE      CODE     ---       #196
      00FF39FFH   LINE      CODE     ---       #197
      00FF3A01H   LINE      CODE     ---       #199
      00FF3A01H   LINE      CODE     ---       #201
      00FF3A03H   LINE      CODE     ---       #202
      00FF3A05H   LINE      CODE     ---       #204
      00FF3A05H   LINE      CODE     ---       #206
      00FF3A09H   LINE      CODE     ---       #207
      00FF3A0BH   LINE      CODE     ---       #210
      00FF3A0BH   LINE      CODE     ---       #212
      00FF3A0FH   LINE      CODE     ---       #213
      00FF3A11H   LINE      CODE     ---       #215
      00FF3A11H   LINE      CODE     ---       #217
      00FF3A15H   LINE      CODE     ---       #218
      00FF3A17H   LINE      CODE     ---       #220
      00FF3A17H   LINE      CODE     ---       #222
      00FF3A1DH   LINE      CODE     ---       #223
      00FF3A1FH   LINE      CODE     ---       #225
      00FF3A1FH   LINE      CODE     ---       #227
      00FF3A27H   LINE      CODE     ---       #228
      00FF3A29H   LINE      CODE     ---       #232
      00FF3A29H   LINE      CODE     ---       #234
      00FF3A31H   LINE      CODE     ---       #235
      00FF3A33H   LINE      CODE     ---       #237
      00FF3A33H   LINE      CODE     ---       #239
      00FF3A3BH   LINE      CODE     ---       #240
      00FF3A3DH   LINE      CODE     ---       #242
      00FF3A3DH   LINE      CODE     ---       #244
      00FF3A45H   LINE      CODE     ---       #245
      00FF3A47H   LINE      CODE     ---       #247
      00FF3A47H   LINE      CODE     ---       #249
      00FF3A4FH   LINE      CODE     ---       #250
      00FF3A51H   LINE      CODE     ---       #254
      00FF3A51H   LINE      CODE     ---       #256
      00FF3A59H   LINE      CODE     ---       #257
L251 LINKER/LOCATER V4.66.93.0                                                        03/07/2024  21:02:42  PAGE 44


      00FF3A5BH   LINE      CODE     ---       #259
      00FF3A5BH   LINE      CODE     ---       #261
      00FF3A63H   LINE      CODE     ---       #262
      00FF3A65H   LINE      CODE     ---       #264
      00FF3A65H   LINE      CODE     ---       #266
      00FF3A6DH   LINE      CODE     ---       #267
      00FF3A6FH   LINE      CODE     ---       #269
      00FF3A6FH   LINE      CODE     ---       #271
      00FF3A7AH   LINE      CODE     ---       #272
      00FF3A7AH   LINE      CODE     ---       #275
      00FF3A7AH   LINE      CODE     ---       #277
      ---         BLOCKEND  ---      ---       LVL=0

      00FF34F6H   BLOCK     CODE     ---       LVL=0
      WR14        REGSYM    ---      INT       pwmch
      00000317H   SYMBOL    EDATA    DWORD     freq
      0000031BH   SYMBOL    EDATA    DWORD     duty
      00FF34FEH   BLOCK     CODE     NEAR LAB  LVL=1
      DR4         REGSYM    ---      DWORD     match_temp
      DR28        REGSYM    ---      DWORD     period_temp
      WR26        REGSYM    ---      WORD      freq_div
      ---         BLOCKEND  ---      ---       LVL=1
      00FF34F6H   LINE      CODE     ---       #290
      00FF34FEH   LINE      CODE     ---       #291
      00FF34FEH   LINE      CODE     ---       #295
      00FF34FEH   LINE      CODE     ---       #298
      00FF3501H   LINE      CODE     ---       #301
      00FF3504H   LINE      CODE     ---       #305
      00FF3515H   LINE      CODE     ---       #306
      00FF3515H   LINE      CODE     ---       #307
      00FF351EH   LINE      CODE     ---       #309
      00FF353FH   LINE      CODE     ---       #312
      00FF3548H   LINE      CODE     ---       #315
      00FF3573H   LINE      CODE     ---       #316
      00FF3594H   LINE      CODE     ---       #319
      00FF35E0H   LINE      CODE     ---       #322
      00FF35EFH   LINE      CODE     ---       #323
      00FF35FAH   LINE      CODE     ---       #325
      00FF3603H   LINE      CODE     ---       #326
      00FF3609H   LINE      CODE     ---       #327
      00FF360CH   LINE      CODE     ---       #330
      00FF3644H   LINE      CODE     ---       #331
      00FF3667H   LINE      CODE     ---       #334
      00FF36B9H   LINE      CODE     ---       #338
      00FF36C8H   LINE      CODE     ---       #339
      00FF36D3H   LINE      CODE     ---       #341
      00FF36DCH   LINE      CODE     ---       #342
      00FF36E9H   LINE      CODE     ---       #343
      00FF36E9H   LINE      CODE     ---       #346
      00FF3715H   LINE      CODE     ---       #347
      00FF3743H   LINE      CODE     ---       #350
      00FF3769H   LINE      CODE     ---       #351
      00FF3795H   LINE      CODE     ---       #354
      00FF37ACH   LINE      CODE     ---       #355
      00FF37D7H   LINE      CODE     ---       #360
      ---         BLOCKEND  ---      ---       LVL=0

      00FF4D45H   BLOCK     CODE     ---       LVL=0
      WR30        REGSYM    ---      INT       pwmch
      DR24        REGSYM    ---      DWORD     duty
      00FF4D49H   BLOCK     CODE     NEAR LAB  LVL=1
      DR0         REGSYM    ---      DWORD     match_temp
      DR20        REGSYM    ---      DWORD     arr
      ---         BLOCKEND  ---      ---       LVL=1
      00FF4D45H   LINE      CODE     ---       #370
L251 LINKER/LOCATER V4.66.93.0                                                        03/07/2024  21:02:42  PAGE 45


      00FF4D49H   LINE      CODE     ---       #371
      00FF4D49H   LINE      CODE     ---       #373
      00FF4D8DH   LINE      CODE     ---       #377
      00FF4DAEH   LINE      CODE     ---       #381
      00FF4DD4H   LINE      CODE     ---       #382
      00FF4DFCH   LINE      CODE     ---       #386
      ---         BLOCKEND  ---      ---       LVL=0
      WR30        REGSYM    ---      INT       pwmch
      DR24        REGSYM    ---      DWORD     freq
      DR0         REGSYM    ---      DWORD     match_temp
      DR24        REGSYM    ---      DWORD     period_temp
      WR28        REGSYM    ---      WORD      freq_div

      ---         MODULE    ---      ---       zf_spi
      000000CFH   SFRSYM    DATA     BYTE      SPDAT
      000000D0H   SFRSYM    DATA     BYTE      PSW
      000000B7H   SFRSYM    DATA     BYTE      IPH
      000000CDH   SFRSYM    DATA     BYTE      SPSTAT
      00000088H   SFRSYM    DATA     BYTE      TCON
      00000098H   SFRSYM    DATA     BYTE      SCON
      000000BCH   SFRSYM    DATA     BYTE      ADC_CONTR
      000000DEH   SFRSYM    DATA     BYTE      ADCCFG
      000000B8H   SFRSYM    DATA     BYTE      IP
      000000A8H   SFRSYM    DATA     BYTE      IE
      000000A2H   SFRSYM    DATA     BYTE      P_SW1
      000000CEH   SFRSYM    DATA     BYTE      SPCTL
      000000F8H   SFRSYM    DATA     BYTE      P7
      000000E8H   SFRSYM    DATA     BYTE      P6
      000000C8H   SFRSYM    DATA     BYTE      P5
      000000C0H   SFRSYM    DATA     BYTE      P4
      000000B0H   SFRSYM    DATA     BYTE      P3
      000000A0H   SFRSYM    DATA     BYTE      P2
      00000090H   SFRSYM    DATA     BYTE      P1
      00000080H   SFRSYM    DATA     BYTE      P0
      WR14        REGSYM    ---      INT       spi_n
      R13         REGSYM    ---      BYTE      mode
      R11         REGSYM    ---      BYTE      dat
      WR14        REGSYM    ---      INT       spi_n
      R7          REGSYM    ---      BYTE      mode

      ---         MODULE    ---      ---       zf_tim
      00FF5B5BH   PUBLIC    CODE     ---       ctimer_count_read
      00FF5090H   PUBLIC    CODE     ---       pit_timer_ms
      00FF5BF5H   PUBLIC    CODE     ---       ctimer_count_init
      00FF5B0AH   PUBLIC    CODE     ---       ctimer_count_clean
      000000D0H   SFRSYM    DATA     BYTE      PSW
      000000B7H   SFRSYM    DATA     BYTE      IPH
      000000DDH   SFRSYM    DATA     BYTE      T4T3M
      00000088H.6 SFRSYM    DATA     BIT       TR1
      00000088H.4 SFRSYM    DATA     BIT       TR0
      000000D3H   SFRSYM    DATA     BYTE      T4L
      000000D5H   SFRSYM    DATA     BYTE      T3L
      000000D7H   SFRSYM    DATA     BYTE      T2L
      0000008BH   SFRSYM    DATA     BYTE      TL1
      0000008AH   SFRSYM    DATA     BYTE      TL0
      000000D2H   SFRSYM    DATA     BYTE      T4H
      000000D4H   SFRSYM    DATA     BYTE      T3H
      000000D6H   SFRSYM    DATA     BYTE      T2H
      0000008DH   SFRSYM    DATA     BYTE      TH1
      0000008CH   SFRSYM    DATA     BYTE      TH0
      000000A8H.3 SFRSYM    DATA     BIT       ET1
      000000A8H.1 SFRSYM    DATA     BIT       ET0
      0000008EH   SFRSYM    DATA     BYTE      AUXR
      000000AFH   SFRSYM    DATA     BYTE      IE2
      00000088H   SFRSYM    DATA     BYTE      TCON
L251 LINKER/LOCATER V4.66.93.0                                                        03/07/2024  21:02:42  PAGE 46


      00000089H   SFRSYM    DATA     BYTE      TMOD
      00000098H   SFRSYM    DATA     BYTE      SCON
      000000BCH   SFRSYM    DATA     BYTE      ADC_CONTR
      000000DEH   SFRSYM    DATA     BYTE      ADCCFG
      000000B8H   SFRSYM    DATA     BYTE      IP
      000000A8H   SFRSYM    DATA     BYTE      IE
      000000F8H   SFRSYM    DATA     BYTE      P7
      000000E8H   SFRSYM    DATA     BYTE      P6
      000000C8H   SFRSYM    DATA     BYTE      P5
      000000C0H   SFRSYM    DATA     BYTE      P4
      000000B0H   SFRSYM    DATA     BYTE      P3
      000000A0H   SFRSYM    DATA     BYTE      P2
      00000090H   SFRSYM    DATA     BYTE      P1
      00000080H   SFRSYM    DATA     BYTE      P0

      00FF5BF5H   BLOCK     CODE     ---       LVL=0
      WR6         REGSYM    ---      INT       tim_n
      00FF5BF5H   LINE      CODE     ---       #39
      00FF5BF5H   LINE      CODE     ---       #42
      00FF5C09H   LINE      CODE     ---       #44
      00FF5C09H   LINE      CODE     ---       #46
      00FF5C0CH   LINE      CODE     ---       #47
      00FF5C0FH   LINE      CODE     ---       #48
      00FF5C12H   LINE      CODE     ---       #49
      00FF5C14H   LINE      CODE     ---       #50
      00FF5C15H   LINE      CODE     ---       #53
      00FF5C15H   LINE      CODE     ---       #55
      00FF5C18H   LINE      CODE     ---       #56
      00FF5C1BH   LINE      CODE     ---       #57
      00FF5C1EH   LINE      CODE     ---       #58
      00FF5C20H   LINE      CODE     ---       #59
      00FF5C21H   LINE      CODE     ---       #62
      00FF5C21H   LINE      CODE     ---       #64
      00FF5C24H   LINE      CODE     ---       #65
      00FF5C27H   LINE      CODE     ---       #66
      00FF5C2AH   LINE      CODE     ---       #67
      00FF5C2BH   LINE      CODE     ---       #70
      00FF5C2BH   LINE      CODE     ---       #72
      00FF5C2EH   LINE      CODE     ---       #73
      00FF5C31H   LINE      CODE     ---       #74
      00FF5C34H   LINE      CODE     ---       #75
      00FF5C35H   LINE      CODE     ---       #78
      00FF5C35H   LINE      CODE     ---       #80
      00FF5C38H   LINE      CODE     ---       #81
      00FF5C3BH   LINE      CODE     ---       #82
      00FF5C3EH   LINE      CODE     ---       #83
      00FF5C3EH   LINE      CODE     ---       #86
      00FF5C3EH   LINE      CODE     ---       #87
      ---         BLOCKEND  ---      ---       LVL=0

      00FF5B5BH   BLOCK     CODE     ---       LVL=0
      WR4         REGSYM    ---      INT       tim_n
      00FF5B5DH   BLOCK     CODE     NEAR LAB  LVL=1
      WR6         REGSYM    ---      WORD      dat
      ---         BLOCKEND  ---      ---       LVL=1
      00FF5B5BH   LINE      CODE     ---       #95
      00FF5B5DH   LINE      CODE     ---       #96
      00FF5B5DH   LINE      CODE     ---       #97
      00FF5B5FH   LINE      CODE     ---       #99
      00FF5B73H   LINE      CODE     ---       #101
      00FF5B73H   LINE      CODE     ---       #103
      00FF5B79H   LINE      CODE     ---       #104
      00FF5B7BH   LINE      CODE     ---       #105
      00FF5B7DH   LINE      CODE     ---       #107
      00FF5B7DH   LINE      CODE     ---       #109
L251 LINKER/LOCATER V4.66.93.0                                                        03/07/2024  21:02:42  PAGE 47


      00FF5B83H   LINE      CODE     ---       #110
      00FF5B85H   LINE      CODE     ---       #111
      00FF5B87H   LINE      CODE     ---       #113
      00FF5B87H   LINE      CODE     ---       #115
      00FF5B8DH   LINE      CODE     ---       #116
      00FF5B8FH   LINE      CODE     ---       #117
      00FF5B91H   LINE      CODE     ---       #119
      00FF5B91H   LINE      CODE     ---       #121
      00FF5B97H   LINE      CODE     ---       #122
      00FF5B99H   LINE      CODE     ---       #123
      00FF5B9BH   LINE      CODE     ---       #125
      00FF5B9BH   LINE      CODE     ---       #127
      00FF5BA1H   LINE      CODE     ---       #128
      00FF5BA7H   LINE      CODE     ---       #129
      00FF5BA7H   LINE      CODE     ---       #132
      00FF5BA7H   LINE      CODE     ---       #133
      00FF5BA7H   LINE      CODE     ---       #134
      ---         BLOCKEND  ---      ---       LVL=0

      00FF5B0AH   BLOCK     CODE     ---       LVL=0
      WR6         REGSYM    ---      INT       tim_n
      00FF5B0AH   LINE      CODE     ---       #143
      00FF5B0AH   LINE      CODE     ---       #145
      00FF5B1EH   LINE      CODE     ---       #147
      00FF5B1EH   LINE      CODE     ---       #149
      00FF5B20H   LINE      CODE     ---       #150
      00FF5B23H   LINE      CODE     ---       #151
      00FF5B26H   LINE      CODE     ---       #152
      00FF5B28H   LINE      CODE     ---       #153
      00FF5B29H   LINE      CODE     ---       #155
      00FF5B29H   LINE      CODE     ---       #157
      00FF5B2BH   LINE      CODE     ---       #158
      00FF5B2EH   LINE      CODE     ---       #159
      00FF5B31H   LINE      CODE     ---       #160
      00FF5B33H   LINE      CODE     ---       #161
      00FF5B34H   LINE      CODE     ---       #163
      00FF5B34H   LINE      CODE     ---       #165
      00FF5B37H   LINE      CODE     ---       #166
      00FF5B3AH   LINE      CODE     ---       #167
      00FF5B3DH   LINE      CODE     ---       #168
      00FF5B40H   LINE      CODE     ---       #169
      00FF5B41H   LINE      CODE     ---       #171
      00FF5B41H   LINE      CODE     ---       #173
      00FF5B44H   LINE      CODE     ---       #174
      00FF5B47H   LINE      CODE     ---       #175
      00FF5B4AH   LINE      CODE     ---       #176
      00FF5B4DH   LINE      CODE     ---       #177
      00FF5B4EH   LINE      CODE     ---       #179
      00FF5B4EH   LINE      CODE     ---       #181
      00FF5B51H   LINE      CODE     ---       #182
      00FF5B54H   LINE      CODE     ---       #183
      00FF5B57H   LINE      CODE     ---       #184
      00FF5B5AH   LINE      CODE     ---       #185
      00FF5B5AH   LINE      CODE     ---       #187
      00FF5B5AH   LINE      CODE     ---       #188
      ---         BLOCKEND  ---      ---       LVL=0

      00FF5090H   BLOCK     CODE     ---       LVL=0
      WR30        REGSYM    ---      INT       tim_n
      WR28        REGSYM    ---      WORD      time_ms
      00FF5092H   BLOCK     CODE     NEAR LAB  LVL=1
      WR28        REGSYM    ---      WORD      temp
      ---         BLOCKEND  ---      ---       LVL=1
      00FF5090H   LINE      CODE     ---       #198
      00FF5092H   LINE      CODE     ---       #199
L251 LINKER/LOCATER V4.66.93.0                                                        03/07/2024  21:02:42  PAGE 48


      00FF5092H   LINE      CODE     ---       #201
      00FF50AFH   LINE      CODE     ---       #203
      00FF50B3H   LINE      CODE     ---       #205
      00FF50B7H   LINE      CODE     ---       #206
      00FF50BDH   LINE      CODE     ---       #207
      00FF50C1H   LINE      CODE     ---       #208
      00FF50C3H   LINE      CODE     ---       #209
      00FF50C5H   LINE      CODE     ---       #210
      00FF50C6H   LINE      CODE     ---       #211
      00FF50CCH   LINE      CODE     ---       #213
      00FF50D0H   LINE      CODE     ---       #214
      00FF50D6H   LINE      CODE     ---       #215
      00FF50DAH   LINE      CODE     ---       #216
      00FF50DCH   LINE      CODE     ---       #217
      00FF50DEH   LINE      CODE     ---       #218
      00FF50DFH   LINE      CODE     ---       #219
      00FF50E5H   LINE      CODE     ---       #221
      00FF50EBH   LINE      CODE     ---       #222
      00FF50EFH   LINE      CODE     ---       #223
      00FF50F2H   LINE      CODE     ---       #224
      00FF50F5H   LINE      CODE     ---       #225
      00FF50F6H   LINE      CODE     ---       #226
      00FF50FCH   LINE      CODE     ---       #228
      00FF5102H   LINE      CODE     ---       #229
      00FF5106H   LINE      CODE     ---       #230
      00FF5109H   LINE      CODE     ---       #231
      00FF510CH   LINE      CODE     ---       #232
      00FF510DH   LINE      CODE     ---       #233
      00FF5113H   LINE      CODE     ---       #235
      00FF5119H   LINE      CODE     ---       #236
      00FF511DH   LINE      CODE     ---       #237
      00FF5120H   LINE      CODE     ---       #238
      00FF5123H   LINE      CODE     ---       #239
      ---         BLOCKEND  ---      ---       LVL=0

      ---         MODULE    ---      ---       zf_uart
      00FF5A0EH   PUBLIC    CODE     ---       uart_putchar
      00FF3F41H   PUBLIC    CODE     ---       uart_init
      0000023EH   PUBLIC    EDATA    ---       uart1_rx_buff
      000002A2H   PUBLIC    EDATA    ---       uart1_tx_buff
      00000306H   PUBLIC    EDATA    ---       busy
      00000311H   PUBLIC    EDATA    BYTE      ?uart_init?BYTE
      000000D0H   SFRSYM    DATA     BYTE      PSW
      000000FDH   SFRSYM    DATA     BYTE      S4CON
      000000ACH   SFRSYM    DATA     BYTE      S3CON
      0000009AH   SFRSYM    DATA     BYTE      S2CON
      000000FEH   SFRSYM    DATA     BYTE      S4BUF
      000000ADH   SFRSYM    DATA     BYTE      S3BUF
      0000009BH   SFRSYM    DATA     BYTE      S2BUF
      000000B7H   SFRSYM    DATA     BYTE      IPH
      000000DDH   SFRSYM    DATA     BYTE      T4T3M
      00000088H.6 SFRSYM    DATA     BIT       TR1
      000000D3H   SFRSYM    DATA     BYTE      T4L
      000000D5H   SFRSYM    DATA     BYTE      T3L
      000000D7H   SFRSYM    DATA     BYTE      T2L
      0000008BH   SFRSYM    DATA     BYTE      TL1
      000000D2H   SFRSYM    DATA     BYTE      T4H
      000000D4H   SFRSYM    DATA     BYTE      T3H
      000000D6H   SFRSYM    DATA     BYTE      T2H
      0000008DH   SFRSYM    DATA     BYTE      TH1
      0000008EH   SFRSYM    DATA     BYTE      AUXR
      000000AFH   SFRSYM    DATA     BYTE      IE2
      00000088H   SFRSYM    DATA     BYTE      TCON
      00000089H   SFRSYM    DATA     BYTE      TMOD
      00000098H   SFRSYM    DATA     BYTE      SCON
L251 LINKER/LOCATER V4.66.93.0                                                        03/07/2024  21:02:42  PAGE 49


      00000099H   SFRSYM    DATA     BYTE      SBUF
      000000BCH   SFRSYM    DATA     BYTE      ADC_CONTR
      000000DEH   SFRSYM    DATA     BYTE      ADCCFG
      000000B8H   SFRSYM    DATA     BYTE      IP
      000000A8H.4 SFRSYM    DATA     BIT       ES
      000000A8H   SFRSYM    DATA     BYTE      IE
      000000BAH   SFRSYM    DATA     BYTE      P_SW2
      000000A2H   SFRSYM    DATA     BYTE      P_SW1
      000000F8H   SFRSYM    DATA     BYTE      P7
      000000E8H   SFRSYM    DATA     BYTE      P6
      000000C8H   SFRSYM    DATA     BYTE      P5
      000000C0H   SFRSYM    DATA     BYTE      P4
      000000C9H   SFRSYM    DATA     BYTE      P5M1
      000000B0H   SFRSYM    DATA     BYTE      P3
      000000CAH   SFRSYM    DATA     BYTE      P5M0
      000000A0H   SFRSYM    DATA     BYTE      P2
      00000090H   SFRSYM    DATA     BYTE      P1
      00000080H   SFRSYM    DATA     BYTE      P0

      00FF3F41H   BLOCK     CODE     ---       LVL=0
      WR24        REGSYM    ---      INT       uart_n
      WR28        REGSYM    ---      INT       uart_rx_pin
      WR30        REGSYM    ---      INT       uart_tx_pin
      00000317H   SYMBOL    EDATA    DWORD     baud
      WR26        REGSYM    ---      INT       tim_n
      00FF3F49H   BLOCK     CODE     NEAR LAB  LVL=1
      WR6         REGSYM    ---      WORD      brt
      ---         BLOCKEND  ---      ---       LVL=1
      00FF3F41H   LINE      CODE     ---       #48
      00FF3F49H   LINE      CODE     ---       #49
      00FF3F49H   LINE      CODE     ---       #52
      00FF3F6CH   LINE      CODE     ---       #55
      00FF3F8AH   LINE      CODE     ---       #57
      00FF3F8AH   LINE      CODE     ---       #59
      00FF3F90H   LINE      CODE     ---       #61
      00FF3F93H   LINE      CODE     ---       #62
      00FF3F97H   LINE      CODE     ---       #63
      00FF3F9BH   LINE      CODE     ---       #64
      00FF3F9FH   LINE      CODE     ---       #65
      00FF3FA2H   LINE      CODE     ---       #66
      00FF3FA4H   LINE      CODE     ---       #67
      00FF3FA9H   LINE      CODE     ---       #68
      00FF3FABH   LINE      CODE     ---       #69
      00FF3FB1H   LINE      CODE     ---       #71
      00FF3FB4H   LINE      CODE     ---       #72
      00FF3FB8H   LINE      CODE     ---       #73
      00FF3FBCH   LINE      CODE     ---       #74
      00FF3FBFH   LINE      CODE     ---       #75
      00FF3FBFH   LINE      CODE     ---       #76
      00FF3FC2H   LINE      CODE     ---       #77
      00FF3FCCH   LINE      CODE     ---       #79
      00FF3FD0H   LINE      CODE     ---       #80
      00FF3FD2H   LINE      CODE     ---       #81
      00FF3FDEH   LINE      CODE     ---       #83
      00FF3FE1H   LINE      CODE     ---       #84
      00FF3FE3H   LINE      CODE     ---       #85
      00FF3FEFH   LINE      CODE     ---       #87
      00FF3FF2H   LINE      CODE     ---       #88
      00FF3FF4H   LINE      CODE     ---       #89
      00FF4000H   LINE      CODE     ---       #91
      00FF4003H   LINE      CODE     ---       #92
      00FF4003H   LINE      CODE     ---       #93
      00FF4008H   LINE      CODE     ---       #94
      00FF400AH   LINE      CODE     ---       #95
      00FF400BH   LINE      CODE     ---       #98
L251 LINKER/LOCATER V4.66.93.0                                                        03/07/2024  21:02:42  PAGE 50


      00FF400BH   LINE      CODE     ---       #100
      00FF4011H   LINE      CODE     ---       #102
      00FF4014H   LINE      CODE     ---       #103
      00FF4018H   LINE      CODE     ---       #104
      00FF401CH   LINE      CODE     ---       #105
      00FF401FH   LINE      CODE     ---       #106
      00FF401FH   LINE      CODE     ---       #108
      00FF4022H   LINE      CODE     ---       #109
      00FF402EH   LINE      CODE     ---       #111
      00FF4032H   LINE      CODE     ---       #112
      00FF4034H   LINE      CODE     ---       #113
      00FF4040H   LINE      CODE     ---       #115
      00FF4043H   LINE      CODE     ---       #116
      00FF4043H   LINE      CODE     ---       #118
      00FF4046H   LINE      CODE     ---       #119
      00FF404BH   LINE      CODE     ---       #120
      00FF404CH   LINE      CODE     ---       #123
      00FF404CH   LINE      CODE     ---       #125
      00FF4052H   LINE      CODE     ---       #127
      00FF4055H   LINE      CODE     ---       #128
      00FF4059H   LINE      CODE     ---       #129
      00FF405DH   LINE      CODE     ---       #130
      00FF4060H   LINE      CODE     ---       #131
      00FF4062H   LINE      CODE     ---       #132
      00FF4068H   LINE      CODE     ---       #134
      00FF406BH   LINE      CODE     ---       #135
      00FF406FH   LINE      CODE     ---       #136
      00FF4073H   LINE      CODE     ---       #137
      00FF4076H   LINE      CODE     ---       #138
      00FF4076H   LINE      CODE     ---       #140
      00FF4079H   LINE      CODE     ---       #141
      00FF4085H   LINE      CODE     ---       #143
      00FF4089H   LINE      CODE     ---       #144
      00FF408BH   LINE      CODE     ---       #145
      00FF4097H   LINE      CODE     ---       #147
      00FF409AH   LINE      CODE     ---       #148
      00FF409AH   LINE      CODE     ---       #150
      00FF409DH   LINE      CODE     ---       #151
      00FF40A2H   LINE      CODE     ---       #152
      00FF40A3H   LINE      CODE     ---       #155
      00FF40A3H   LINE      CODE     ---       #157
      00FF40A9H   LINE      CODE     ---       #159
      00FF40ACH   LINE      CODE     ---       #160
      00FF40B0H   LINE      CODE     ---       #161
      00FF40B4H   LINE      CODE     ---       #162
      00FF40B7H   LINE      CODE     ---       #163
      00FF40B9H   LINE      CODE     ---       #164
      00FF40BFH   LINE      CODE     ---       #166
      00FF40C2H   LINE      CODE     ---       #167
      00FF40C6H   LINE      CODE     ---       #168
      00FF40CAH   LINE      CODE     ---       #169
      00FF40CDH   LINE      CODE     ---       #170
      00FF40CDH   LINE      CODE     ---       #172
      00FF40D0H   LINE      CODE     ---       #173
      00FF40DCH   LINE      CODE     ---       #175
      00FF40E0H   LINE      CODE     ---       #176
      00FF40E2H   LINE      CODE     ---       #177
      00FF40EEH   LINE      CODE     ---       #179
      00FF40F1H   LINE      CODE     ---       #180
      00FF40F4H   LINE      CODE     ---       #181
      00FF40F7H   LINE      CODE     ---       #182
      00FF40F7H   LINE      CODE     ---       #183
      00FF40FAH   LINE      CODE     ---       #184
      00FF40FFH   LINE      CODE     ---       #185
      00FF40FFH   LINE      CODE     ---       #188
L251 LINKER/LOCATER V4.66.93.0                                                        03/07/2024  21:02:42  PAGE 51


      00FF40FFH   LINE      CODE     ---       #190
      ---         BLOCKEND  ---      ---       LVL=0

      00FF5A0EH   BLOCK     CODE     ---       LVL=0
      WR6         REGSYM    ---      INT       uart_n
      R10         REGSYM    ---      BYTE      dat
      00FF5A0EH   LINE      CODE     ---       #199
      00FF5A10H   LINE      CODE     ---       #201
      00FF5A22H   LINE      CODE     ---       #203
      00FF5A22H   LINE      CODE     ---       #204
      00FF5A28H   LINE      CODE     ---       #205
      00FF5A2EH   LINE      CODE     ---       #206
      00FF5A31H   LINE      CODE     ---       #207
      00FF5A32H   LINE      CODE     ---       #208
      00FF5A32H   LINE      CODE     ---       #209
      00FF5A38H   LINE      CODE     ---       #210
      00FF5A3EH   LINE      CODE     ---       #211
      00FF5A41H   LINE      CODE     ---       #212
      00FF5A42H   LINE      CODE     ---       #213
      00FF5A42H   LINE      CODE     ---       #214
      00FF5A48H   LINE      CODE     ---       #215
      00FF5A4EH   LINE      CODE     ---       #216
      00FF5A51H   LINE      CODE     ---       #217
      00FF5A52H   LINE      CODE     ---       #218
      00FF5A52H   LINE      CODE     ---       #219
      00FF5A58H   LINE      CODE     ---       #220
      00FF5A5EH   LINE      CODE     ---       #221
      00FF5A61H   LINE      CODE     ---       #222
      00FF5A61H   LINE      CODE     ---       #223
      00FF5A61H   LINE      CODE     ---       #224
      ---         BLOCKEND  ---      ---       LVL=0
      REG=3       REGSYM    ---      ---       p
      REG=3       REGSYM    ---      ---       str

      ---         MODULE    ---      ---       zf_fifo
      00FF5D0DH   PUBLIC    CODE     ---       fifo_head_offset
      00FF49E9H   PUBLIC    CODE     ---       fifo_write_buffer
      00000307H   PUBLIC    EDATA    BYTE      ?fifo_write_buffer?BYTE
      000000D0H   SFRSYM    DATA     BYTE      PSW
      000000B7H   SFRSYM    DATA     BYTE      IPH
      00000088H   SFRSYM    DATA     BYTE      TCON
      00000098H   SFRSYM    DATA     BYTE      SCON
      000000BCH   SFRSYM    DATA     BYTE      ADC_CONTR
      000000DEH   SFRSYM    DATA     BYTE      ADCCFG
      000000B8H   SFRSYM    DATA     BYTE      IP
      000000A8H   SFRSYM    DATA     BYTE      IE
      000000F8H   SFRSYM    DATA     BYTE      P7
      000000E8H   SFRSYM    DATA     BYTE      P6
      000000C8H   SFRSYM    DATA     BYTE      P5
      000000C0H   SFRSYM    DATA     BYTE      P4
      000000B0H   SFRSYM    DATA     BYTE      P3
      000000A0H   SFRSYM    DATA     BYTE      P2
      00000090H   SFRSYM    DATA     BYTE      P1
      00000080H   SFRSYM    DATA     BYTE      P0
      REG=2       REGSYM    ---      ---       fifo
      REG=7       REGSYM    ---      ---       buffer_addr

      00FF5D0DH   BLOCK     CODE     ---       LVL=0
      REG=7       REGSYM    ---      ---       fifo
      DR24        REGSYM    ---      DWORD     offset
      00FF5D0DH   LINE      CODE     ---       #61
      00FF5D11H   LINE      CODE     ---       #63
      00FF5D1CH   LINE      CODE     ---       #65
      00FF5D1EH   LINE      CODE     ---       #67
      00FF5D3AH   LINE      CODE     ---       #68
L251 LINKER/LOCATER V4.66.93.0                                                        03/07/2024  21:02:42  PAGE 52


      00FF5D4EH   LINE      CODE     ---       #69
      ---         BLOCKEND  ---      ---       LVL=0
      REG=7       REGSYM    ---      ---       fifo
      DR24        REGSYM    ---      DWORD     offset
      REG=2       REGSYM    ---      ---       fifo
      REG=7       REGSYM    ---      ---       fifo

      00FF49E9H   BLOCK     CODE     ---       LVL=0
      REG=3       REGSYM    ---      ---       fifo
      0000030BH   SYMBOL    EDATA    ---       dat
      0000030FH   SYMBOL    EDATA    DWORD     length
      00FF49F1H   BLOCK     CODE     NEAR LAB  LVL=1
      00000313H   SYMBOL    EDATA    DWORD     temp_length
      ---         BLOCKEND  ---      ---       LVL=1
      00FF49E9H   LINE      CODE     ---       #120
      00FF49F1H   LINE      CODE     ---       #121
      00FF49F1H   LINE      CODE     ---       #124
      00FF4A04H   LINE      CODE     ---       #126
      00FF4A1AH   LINE      CODE     ---       #128
      00FF4A1EH   LINE      CODE     ---       #130
      00FF4A36H   LINE      CODE     ---       #131
      00FF4A3FH   LINE      CODE     ---       #132
      00FF4A4FH   LINE      CODE     ---       #133
      00FF4A6FH   LINE      CODE     ---       #134
      00FF4A7BH   LINE      CODE     ---       #135
      00FF4A7DH   LINE      CODE     ---       #138
      00FF4A99H   LINE      CODE     ---       #139
      00FF4AA2H   LINE      CODE     ---       #140
      00FF4AA2H   LINE      CODE     ---       #142
      00FF4ABCH   LINE      CODE     ---       #143
      00FF4ABEH   LINE      CODE     ---       #146
      00FF4AC4H   LINE      CODE     ---       #147
      00FF4AC4H   LINE      CODE     ---       #149
      00FF4AC6H   LINE      CODE     ---       #150
      ---         BLOCKEND  ---      ---       LVL=0
      REG=3       REGSYM    ---      ---       fifo

      ---         MODULE    ---      ---       SEEKFREE_18TFT
      000000D0H   SFRSYM    DATA     BYTE      PSW
      000000B7H   SFRSYM    DATA     BYTE      IPH
      000000A0H.5 SFRSYM    DATA     BIT       P25
      00000088H   SFRSYM    DATA     BYTE      TCON
      000000A0H.3 SFRSYM    DATA     BIT       P23
      00000098H   SFRSYM    DATA     BYTE      SCON
      000000A0H.2 SFRSYM    DATA     BIT       P22
      000000A0H.1 SFRSYM    DATA     BIT       P21
      000000A0H.0 SFRSYM    DATA     BIT       P20
      000000BCH   SFRSYM    DATA     BYTE      ADC_CONTR
      000000DEH   SFRSYM    DATA     BYTE      ADCCFG
      000000B8H   SFRSYM    DATA     BYTE      IP
      000000A8H   SFRSYM    DATA     BYTE      IE
      000000F8H   SFRSYM    DATA     BYTE      P7
      000000E8H   SFRSYM    DATA     BYTE      P6
      000000C8H   SFRSYM    DATA     BYTE      P5
      000000C0H   SFRSYM    DATA     BYTE      P4
      000000B0H   SFRSYM    DATA     BYTE      P3
      000000A0H   SFRSYM    DATA     BYTE      P2
      00000090H   SFRSYM    DATA     BYTE      P1
      00000080H   SFRSYM    DATA     BYTE      P0
      R7          REGSYM    ---      BYTE      dat
      R6          REGSYM    ---      BYTE      i
      R7          REGSYM    ---      BYTE      dat
      R6          REGSYM    ---      BYTE      i
      WR4         REGSYM    ---      WORD      dat
      R10         REGSYM    ---      BYTE      i
L251 LINKER/LOCATER V4.66.93.0                                                        03/07/2024  21:02:42  PAGE 53


      WR12        REGSYM    ---      WORD      x_end
      WR14        REGSYM    ---      WORD      y_end
      WR14        REGSYM    ---      INT       color
      R13         REGSYM    ---      BYTE      i
      R12         REGSYM    ---      BYTE      j
      WR2         REGSYM    ---      WORD      x
      WR0         REGSYM    ---      WORD      y
      WR14        REGSYM    ---      WORD      color
      WR12        REGSYM    ---      WORD      x
      WR14        REGSYM    ---      WORD      y
      REG=3       REGSYM    ---      ---       dat
      WR12        REGSYM    ---      WORD      x
      WR14        REGSYM    ---      WORD      y
      WR12        REGSYM    ---      WORD      x
      WR14        REGSYM    ---      WORD      y
      R10         REGSYM    ---      BYTE      dat
      WR12        REGSYM    ---      WORD      x
      WR14        REGSYM    ---      WORD      y
      WR12        REGSYM    ---      WORD      x
      WR14        REGSYM    ---      WORD      y
      WR2         REGSYM    ---      WORD      dat
      WR12        REGSYM    ---      WORD      y
      R15         REGSYM    ---      BYTE      num
      R14         REGSYM    ---      BYTE      length
      DR12        REGSYM    ---      FLOAT     dat
      R7          REGSYM    ---      CHAR      point
      R7          REGSYM    ---      BYTE      dat
      R7          REGSYM    ---      BYTE      dat
      WR4         REGSYM    ---      WORD      dat
      WR12        REGSYM    ---      WORD      x_end
      WR14        REGSYM    ---      WORD      y_end
      WR14        REGSYM    ---      INT       color
      R13         REGSYM    ---      BYTE      i
      R12         REGSYM    ---      BYTE      j
      WR2         REGSYM    ---      WORD      x
      WR0         REGSYM    ---      WORD      y
      WR14        REGSYM    ---      WORD      color
      WR12        REGSYM    ---      WORD      x
      WR14        REGSYM    ---      WORD      y
      REG=3       REGSYM    ---      ---       dat
      WR12        REGSYM    ---      WORD      x
      WR14        REGSYM    ---      WORD      y
      WR12        REGSYM    ---      WORD      x
      WR14        REGSYM    ---      WORD      y
      R10         REGSYM    ---      BYTE      dat
      WR12        REGSYM    ---      WORD      x
      WR14        REGSYM    ---      WORD      y
      WR12        REGSYM    ---      WORD      x
      WR14        REGSYM    ---      WORD      y
      WR2         REGSYM    ---      WORD      dat
      WR12        REGSYM    ---      WORD      y
      R15         REGSYM    ---      BYTE      num
      R14         REGSYM    ---      BYTE      length
      DR12        REGSYM    ---      FLOAT     dat
      R7          REGSYM    ---      CHAR      point
      REG=3       REGSYM    ---      ---       p

      ---         MODULE    ---      ---       SEEKFREE_ABSOLUTE_ENCODER
      000000D0H   SFRSYM    DATA     BYTE      PSW
      000000B7H   SFRSYM    DATA     BYTE      IPH
      000000A0H.7 SFRSYM    DATA     BIT       P27
      000000A0H.6 SFRSYM    DATA     BIT       P26
      000000A0H.5 SFRSYM    DATA     BIT       P25
      000000A0H.4 SFRSYM    DATA     BIT       P24
      00000088H   SFRSYM    DATA     BYTE      TCON
L251 LINKER/LOCATER V4.66.93.0                                                        03/07/2024  21:02:42  PAGE 54


      00000098H   SFRSYM    DATA     BYTE      SCON
      000000A0H.2 SFRSYM    DATA     BIT       P22
      000000BCH   SFRSYM    DATA     BYTE      ADC_CONTR
      000000DEH   SFRSYM    DATA     BYTE      ADCCFG
      000000B8H   SFRSYM    DATA     BYTE      IP
      000000A8H   SFRSYM    DATA     BYTE      IE
      000000F8H   SFRSYM    DATA     BYTE      P7
      000000E8H   SFRSYM    DATA     BYTE      P6
      000000C8H   SFRSYM    DATA     BYTE      P5
      000000C0H   SFRSYM    DATA     BYTE      P4
      000000B0H   SFRSYM    DATA     BYTE      P3
      000000A0H   SFRSYM    DATA     BYTE      P2
      00000090H   SFRSYM    DATA     BYTE      P1
      00000080H   SFRSYM    DATA     BYTE      P0
      WR6         REGSYM    ---      WORD      x
      R6          REGSYM    ---      BYTE      byte
      R7          REGSYM    ---      BYTE      i
      R7          REGSYM    ---      BYTE      cmd
      R15         REGSYM    ---      BYTE      val
      R7          REGSYM    ---      BYTE      cmd
      REG=3       REGSYM    ---      ---       val
      R7          REGSYM    ---      BYTE      cmd
      R15         REGSYM    ---      BYTE      val
      R14         REGSYM    ---      BYTE      dat
      R7          REGSYM    ---      BYTE      cmd
      REG=3       REGSYM    ---      ---       val
      WR14        REGSYM    ---      WORD      zero_position
      WR14        REGSYM    ---      WORD      angle
      R10         REGSYM    ---      BYTE      byte
      R7          REGSYM    ---      BYTE      cmd
      R15         REGSYM    ---      BYTE      val
      R7          REGSYM    ---      BYTE      cmd
      REG=3       REGSYM    ---      ---       val
      R7          REGSYM    ---      BYTE      cmd
      R15         REGSYM    ---      BYTE      val
      R14         REGSYM    ---      BYTE      dat
      R7          REGSYM    ---      BYTE      cmd
      REG=3       REGSYM    ---      ---       val
      WR14        REGSYM    ---      WORD      zero_position
      WR14        REGSYM    ---      WORD      angle

      ---         MODULE    ---      ---       SEEKFREE_FONT
      00FF00A6H   PUBLIC    CODE     ---       oled_8x16
      00FF0696H   PUBLIC    CODE     ---       tft_ascii
      00FF0C86H   PUBLIC    CODE     ---       oled_6x8
      000000D0H   SFRSYM    DATA     BYTE      PSW
      000000B7H   SFRSYM    DATA     BYTE      IPH
      00000088H   SFRSYM    DATA     BYTE      TCON
      00000098H   SFRSYM    DATA     BYTE      SCON
      000000BCH   SFRSYM    DATA     BYTE      ADC_CONTR
      000000DEH   SFRSYM    DATA     BYTE      ADCCFG
      000000B8H   SFRSYM    DATA     BYTE      IP
      000000A8H   SFRSYM    DATA     BYTE      IE
      000000F8H   SFRSYM    DATA     BYTE      P7
      000000E8H   SFRSYM    DATA     BYTE      P6
      000000C8H   SFRSYM    DATA     BYTE      P5
      000000C0H   SFRSYM    DATA     BYTE      P4
      000000B0H   SFRSYM    DATA     BYTE      P3
      000000A0H   SFRSYM    DATA     BYTE      P2
      00000090H   SFRSYM    DATA     BYTE      P1
      00000080H   SFRSYM    DATA     BYTE      P0

      ---         MODULE    ---      ---       SEEKFREE_IIC
      00000650H   PUBLIC    EDATA    BYTE      IIC_ad_main
      00000651H   PUBLIC    EDATA    BYTE      IIC_num
L251 LINKER/LOCATER V4.66.93.0                                                        03/07/2024  21:02:42  PAGE 55


      00000652H   PUBLIC    EDATA    BYTE      IIC_ad_sub
      00000653H   PUBLIC    EDATA    ---       IIC_buf
      000000D0H   SFRSYM    DATA     BYTE      PSW
      000000B7H   SFRSYM    DATA     BYTE      IPH
      00000088H   SFRSYM    DATA     BYTE      TCON
      000000C0H.1 SFRSYM    DATA     BIT       P41
      00000098H   SFRSYM    DATA     BYTE      SCON
      000000C0H.0 SFRSYM    DATA     BIT       P40
      000000BCH   SFRSYM    DATA     BYTE      ADC_CONTR
      000000DEH   SFRSYM    DATA     BYTE      ADCCFG
      000000B8H   SFRSYM    DATA     BYTE      IP
      000000A8H   SFRSYM    DATA     BYTE      IE
      000000F8H   SFRSYM    DATA     BYTE      P7
      000000E8H   SFRSYM    DATA     BYTE      P6
      000000C8H   SFRSYM    DATA     BYTE      P5
      000000C0H   SFRSYM    DATA     BYTE      P4
      000000B0H   SFRSYM    DATA     BYTE      P3
      000000A0H   SFRSYM    DATA     BYTE      P2
      00000090H   SFRSYM    DATA     BYTE      P1
      00000080H   SFRSYM    DATA     BYTE      P0
      WR6         REGSYM    ---      WORD      j
      R15         REGSYM    ---      BYTE      ack_dat
      R15         REGSYM    ---      BYTE      c
      R14         REGSYM    ---      BYTE      i
      R15         REGSYM    ---      BYTE      ack_x
      R13         REGSYM    ---      BYTE      i
      R14         REGSYM    ---      BYTE      c
      R13         REGSYM    ---      BYTE      dev_add
      R14         REGSYM    ---      BYTE      reg
      R15         REGSYM    ---      BYTE      dat
      R15         REGSYM    ---      BYTE      dev_add
      R14         REGSYM    ---      BYTE      reg
      WR12        REGSYM    ---      INT       type
      R15         REGSYM    ---      BYTE      dat
      REG=3       REGSYM    ---      ---       dat_add

      ---         MODULE    ---      ---       SEEKFREE_MPU6050
      0000062EH   PUBLIC    EDATA    INT       mpu_acc_x
      00000630H   PUBLIC    EDATA    INT       mpu_acc_y
      00000632H   PUBLIC    EDATA    INT       mpu_acc_z
      00000634H   PUBLIC    EDATA    INT       mpu_gyro_x
      00000636H   PUBLIC    EDATA    INT       mpu_gyro_y
      00000638H   PUBLIC    EDATA    INT       mpu_gyro_z
      000000D0H   SFRSYM    DATA     BYTE      PSW
      000000B7H   SFRSYM    DATA     BYTE      IPH
      00000088H   SFRSYM    DATA     BYTE      TCON
      00000098H   SFRSYM    DATA     BYTE      SCON
      000000BCH   SFRSYM    DATA     BYTE      ADC_CONTR
      000000DEH   SFRSYM    DATA     BYTE      ADCCFG
      000000B8H   SFRSYM    DATA     BYTE      IP
      000000A8H   SFRSYM    DATA     BYTE      IE
      000000F8H   SFRSYM    DATA     BYTE      P7
      000000E8H   SFRSYM    DATA     BYTE      P6
      000000C8H   SFRSYM    DATA     BYTE      P5
      000000C0H   SFRSYM    DATA     BYTE      P4
      000000B0H   SFRSYM    DATA     BYTE      P3
      000000A0H   SFRSYM    DATA     BYTE      P2
      00000090H   SFRSYM    DATA     BYTE      P1
      00000080H   SFRSYM    DATA     BYTE      P0

      ---         MODULE    ---      ---       SEEKFREE_OLED
      00FF62A9H   PUBLIC    CODE     ---       oled_set_pos
      00FF4635H   PUBLIC    CODE     ---       oled_printf_float
      00FF61BEH   PUBLIC    CODE     ---       oled_wrcmd
      00FF61E7H   PUBLIC    CODE     ---       oled_wrdat
L251 LINKER/LOCATER V4.66.93.0                                                        03/07/2024  21:02:42  PAGE 56


      00FF6016H   PUBLIC    CODE     ---       oled_fill
      00FF4FEDH   PUBLIC    CODE     ---       oled_init
      00FF481DH   PUBLIC    CODE     ---       oled_p8x16str
      00000313H   PUBLIC    EDATA    BYTE      ?oled_printf_float?BYTE
      000000D0H   SFRSYM    DATA     BYTE      PSW
      000000B7H   SFRSYM    DATA     BYTE      IPH
      000000A0H.5 SFRSYM    DATA     BIT       P25
      00000088H   SFRSYM    DATA     BYTE      TCON
      000000A0H.3 SFRSYM    DATA     BIT       P23
      00000098H   SFRSYM    DATA     BYTE      SCON
      000000A0H.2 SFRSYM    DATA     BIT       P22
      000000A0H.1 SFRSYM    DATA     BIT       P21
      000000A0H.0 SFRSYM    DATA     BIT       P20
      000000BCH   SFRSYM    DATA     BYTE      ADC_CONTR
      000000DEH   SFRSYM    DATA     BYTE      ADCCFG
      000000B8H   SFRSYM    DATA     BYTE      IP
      000000A8H   SFRSYM    DATA     BYTE      IE
      000000F8H   SFRSYM    DATA     BYTE      P7
      000000E8H   SFRSYM    DATA     BYTE      P6
      000000C8H   SFRSYM    DATA     BYTE      P5
      000000C0H   SFRSYM    DATA     BYTE      P4
      000000B0H   SFRSYM    DATA     BYTE      P3
      000000A0H   SFRSYM    DATA     BYTE      P2
      00000090H   SFRSYM    DATA     BYTE      P1
      00000080H   SFRSYM    DATA     BYTE      P0

      00FF61E7H   BLOCK     CODE     ---       LVL=0
      R7          REGSYM    ---      BYTE      dat
      00FF61E9H   BLOCK     CODE     NEAR LAB  LVL=1
      R6          REGSYM    ---      BYTE      i
      ---         BLOCKEND  ---      ---       LVL=1
      00FF61E7H   LINE      CODE     ---       #47
      00FF61E9H   LINE      CODE     ---       #48
      00FF61E9H   LINE      CODE     ---       #49
      00FF61ECH   LINE      CODE     ---       #51
      00FF61EEH   LINE      CODE     ---       #52
      00FF61F0H   LINE      CODE     ---       #53
      00FF61F2H   LINE      CODE     ---       #54
      00FF61F4H   LINE      CODE     ---       #56
      00FF61FDH   LINE      CODE     ---       #57
      00FF61FFH   LINE      CODE     ---       #58
      00FF6201H   LINE      CODE     ---       #60
      00FF6203H   LINE      CODE     ---       #61
      00FF6205H   LINE      CODE     ---       #62
      00FF620DH   LINE      CODE     ---       #63
      00FF620FH   LINE      CODE     ---       #64
      ---         BLOCKEND  ---      ---       LVL=0

      00FF61BEH   BLOCK     CODE     ---       LVL=0
      R7          REGSYM    ---      BYTE      cmd
      00FF61C0H   BLOCK     CODE     NEAR LAB  LVL=1
      R6          REGSYM    ---      BYTE      i
      ---         BLOCKEND  ---      ---       LVL=1
      00FF61BEH   LINE      CODE     ---       #98
      00FF61C0H   LINE      CODE     ---       #99
      00FF61C0H   LINE      CODE     ---       #100
      00FF61C3H   LINE      CODE     ---       #102
      00FF61C5H   LINE      CODE     ---       #103
      00FF61C7H   LINE      CODE     ---       #104
      00FF61C9H   LINE      CODE     ---       #106
      00FF61CBH   LINE      CODE     ---       #108
      00FF61D4H   LINE      CODE     ---       #109
      00FF61D6H   LINE      CODE     ---       #110
      00FF61D8H   LINE      CODE     ---       #112
      00FF61DAH   LINE      CODE     ---       #113
L251 LINKER/LOCATER V4.66.93.0                                                        03/07/2024  21:02:42  PAGE 57


      00FF61DCH   LINE      CODE     ---       #114
      00FF61E4H   LINE      CODE     ---       #115
      00FF61E6H   LINE      CODE     ---       #116
      ---         BLOCKEND  ---      ---       LVL=0
      WR8         REGSYM    ---      WORD      hex
      REG=7       REGSYM    ---      ---       Print
      R5          REGSYM    ---      BYTE      hexcheck
      R10         REGSYM    ---      BYTE      TEMP

      00FF4FEDH   BLOCK     CODE     ---       LVL=0
      00FF4FEDH   LINE      CODE     ---       #148
      00FF4FEDH   LINE      CODE     ---       #151
      00FF4FEFH   LINE      CODE     ---       #152
      00FF4FF1H   LINE      CODE     ---       #154
      00FF4FF3H   LINE      CODE     ---       #155
      00FF4FFAH   LINE      CODE     ---       #156
      00FF4FFCH   LINE      CODE     ---       #158
      00FF5001H   LINE      CODE     ---       #159
      00FF5005H   LINE      CODE     ---       #160
      00FF500AH   LINE      CODE     ---       #161
      00FF500FH   LINE      CODE     ---       #162
      00FF5014H   LINE      CODE     ---       #163
      00FF5019H   LINE      CODE     ---       #166
      00FF501EH   LINE      CODE     ---       #167
      00FF5023H   LINE      CODE     ---       #173
      00FF5028H   LINE      CODE     ---       #174
      00FF502DH   LINE      CODE     ---       #175
      00FF5032H   LINE      CODE     ---       #176
      00FF5037H   LINE      CODE     ---       #177
      00FF503BH   LINE      CODE     ---       #178
      00FF5040H   LINE      CODE     ---       #179
      00FF5045H   LINE      CODE     ---       #180
      00FF504AH   LINE      CODE     ---       #181
      00FF504FH   LINE      CODE     ---       #182
      00FF5054H   LINE      CODE     ---       #183
      00FF5059H   LINE      CODE     ---       #184
      00FF505EH   LINE      CODE     ---       #185
      00FF5063H   LINE      CODE     ---       #186
      00FF5068H   LINE      CODE     ---       #187
      00FF506DH   LINE      CODE     ---       #188
      00FF5072H   LINE      CODE     ---       #189
      00FF5077H   LINE      CODE     ---       #190
      00FF507CH   LINE      CODE     ---       #191
      00FF5081H   LINE      CODE     ---       #192
      00FF5086H   LINE      CODE     ---       #193
      00FF508AH   LINE      CODE     ---       #194
      ---         BLOCKEND  ---      ---       LVL=0

      00FF62A9H   BLOCK     CODE     ---       LVL=0
      R15         REGSYM    ---      BYTE      x
      R10         REGSYM    ---      BYTE      y
      00FF62A9H   LINE      CODE     ---       #205
      00FF62ADH   LINE      CODE     ---       #207
      00FF62B4H   LINE      CODE     ---       #208
      00FF62C2H   LINE      CODE     ---       #209
      00FF62C9H   LINE      CODE     ---       #210
      ---         BLOCKEND  ---      ---       LVL=0

      00FF6016H   BLOCK     CODE     ---       LVL=0
      R15         REGSYM    ---      BYTE      bmp_data
      00FF601CH   BLOCK     CODE     NEAR LAB  LVL=1
      R14         REGSYM    ---      BYTE      y
      R13         REGSYM    ---      BYTE      x
      ---         BLOCKEND  ---      ---       LVL=1
      00FF6016H   LINE      CODE     ---       #219
L251 LINKER/LOCATER V4.66.93.0                                                        03/07/2024  21:02:42  PAGE 58


      00FF601CH   LINE      CODE     ---       #220
      00FF601CH   LINE      CODE     ---       #223
      00FF601EH   LINE      CODE     ---       #225
      00FF6025H   LINE      CODE     ---       #226
      00FF602AH   LINE      CODE     ---       #227
      00FF602FH   LINE      CODE     ---       #228
      00FF603DH   LINE      CODE     ---       #229
      00FF6044H   LINE      CODE     ---       #230
      ---         BLOCKEND  ---      ---       LVL=0
      R15         REGSYM    ---      BYTE      x
      R14         REGSYM    ---      BYTE      y
      R13         REGSYM    ---      BYTE      data1
      R15         REGSYM    ---      BYTE      x
      R14         REGSYM    ---      BYTE      y
      REG=3       REGSYM    ---      ---       ch

      00FF481DH   BLOCK     CODE     ---       LVL=0
      00000342H   SYMBOL    EDATA    BYTE      x
      00000343H   SYMBOL    EDATA    BYTE      y
      REG=3       REGSYM    ---      ---       ch
      00FF4829H   BLOCK     CODE     NEAR LAB  LVL=1
      00000344H   SYMBOL    EDATA    BYTE      c
      00000345H   SYMBOL    EDATA    BYTE      i
      00000346H   SYMBOL    EDATA    BYTE      j
      ---         BLOCKEND  ---      ---       LVL=1
      00FF481DH   LINE      CODE     ---       #302
      00FF4829H   LINE      CODE     ---       #303
      00FF4829H   LINE      CODE     ---       #304
      00FF4832H   LINE      CODE     ---       #306
      00FF4835H   LINE      CODE     ---       #308
      00FF484CH   LINE      CODE     ---       #309
      00FF4863H   LINE      CODE     ---       #311
      00FF486EH   LINE      CODE     ---       #312
      00FF489FH   LINE      CODE     ---       #314
      00FF48ACH   LINE      CODE     ---       #315
      00FF48DDH   LINE      CODE     ---       #317
      00FF48E7H   LINE      CODE     ---       #318
      00FF48F0H   LINE      CODE     ---       #319
      00FF4902H   LINE      CODE     ---       #320
      ---         BLOCKEND  ---      ---       LVL=0
      R14         REGSYM    ---      BYTE      x
      R15         REGSYM    ---      BYTE      y
      WR4         REGSYM    ---      WORD      num
      R15         REGSYM    ---      BYTE      x
      R14         REGSYM    ---      BYTE      y
      WR12        REGSYM    ---      INT       num
      WR12        REGSYM    ---      WORD      y
      R15         REGSYM    ---      BYTE      num
      R14         REGSYM    ---      BYTE      length

      00FF4635H   BLOCK     CODE     ---       LVL=0
      00000317H   SYMBOL    EDATA    WORD      x
      00000319H   SYMBOL    EDATA    WORD      y
      DR12        REGSYM    ---      FLOAT     dat
      0000031BH   SYMBOL    EDATA    BYTE      num
      0000031CH   SYMBOL    EDATA    BYTE      pointnum
      00FF4645H   BLOCK     CODE     NEAR LAB  LVL=1
      0000031DH   SYMBOL    EDATA    BYTE      length
      0000031EH   SYMBOL    EDATA    ---       buff
      00000340H   SYMBOL    EDATA    CHAR      start
      00000341H   SYMBOL    EDATA    CHAR      end
      R7          REGSYM    ---      CHAR      point
      ---         BLOCKEND  ---      ---       LVL=1
      00FF4635H   LINE      CODE     ---       #412
      00FF4645H   LINE      CODE     ---       #413
L251 LINKER/LOCATER V4.66.93.0                                                        03/07/2024  21:02:42  PAGE 59


      00FF4645H   LINE      CODE     ---       #418
      00FF4654H   LINE      CODE     ---       #419
      00FF4663H   LINE      CODE     ---       #421
      00FF4685H   LINE      CODE     ---       #424
      00FF469EH   LINE      CODE     ---       #425
      00FF46A3H   LINE      CODE     ---       #426
      00FF46A3H   LINE      CODE     ---       #427
      00FF46ADH   LINE      CODE     ---       #428
      00FF46BDH   LINE      CODE     ---       #429
      00FF46CDH   LINE      CODE     ---       #430
      00FF46D2H   LINE      CODE     ---       #432
      00FF46DCH   LINE      CODE     ---       #433
      00FF46E5H   LINE      CODE     ---       #434
      00FF46EEH   LINE      CODE     ---       #435
      00FF46F7H   LINE      CODE     ---       #437
      00FF4704H   LINE      CODE     ---       #438
      00FF4710H   LINE      CODE     ---       #440
      00FF471BH   LINE      CODE     ---       #442
      00FF472AH   LINE      CODE     ---       #443
      ---         BLOCKEND  ---      ---       LVL=0
      WR4         REGSYM    ---      WORD      high
      REG=3       REGSYM    ---      ---       p
      REG=3       REGSYM    ---      ---       p
      R7          REGSYM    ---      BYTE      dat
      R7          REGSYM    ---      BYTE      cmd
      WR8         REGSYM    ---      WORD      hex
      REG=7       REGSYM    ---      ---       Print
      R5          REGSYM    ---      BYTE      hexcheck
      R10         REGSYM    ---      BYTE      TEMP
      R15         REGSYM    ---      BYTE      x
      R10         REGSYM    ---      BYTE      y
      R15         REGSYM    ---      BYTE      bmp_data
      R14         REGSYM    ---      BYTE      y
      R13         REGSYM    ---      BYTE      x
      R15         REGSYM    ---      BYTE      x
      R14         REGSYM    ---      BYTE      y
      R13         REGSYM    ---      BYTE      data1
      R15         REGSYM    ---      BYTE      x
      R14         REGSYM    ---      BYTE      y
      REG=3       REGSYM    ---      ---       ch
      REG=3       REGSYM    ---      ---       ch
      R14         REGSYM    ---      BYTE      x
      R15         REGSYM    ---      BYTE      y
      WR4         REGSYM    ---      WORD      num
      R15         REGSYM    ---      BYTE      x
      R14         REGSYM    ---      BYTE      y
      WR12        REGSYM    ---      INT       num
      WR12        REGSYM    ---      WORD      y
      R15         REGSYM    ---      BYTE      num
      R14         REGSYM    ---      BYTE      length
      DR12        REGSYM    ---      FLOAT     dat
      R7          REGSYM    ---      CHAR      point
      WR4         REGSYM    ---      WORD      high
      REG=3       REGSYM    ---      ---       p
      REG=3       REGSYM    ---      ---       p

      ---         MODULE    ---      ---       SEEKFREE_AT24C02
      000000D0H   SFRSYM    DATA     BYTE      PSW
      000000B7H   SFRSYM    DATA     BYTE      IPH
      00000088H   SFRSYM    DATA     BYTE      TCON
      00000098H   SFRSYM    DATA     BYTE      SCON
      000000BCH   SFRSYM    DATA     BYTE      ADC_CONTR
      000000DEH   SFRSYM    DATA     BYTE      ADCCFG
      000000B8H   SFRSYM    DATA     BYTE      IP
      000000A8H   SFRSYM    DATA     BYTE      IE
L251 LINKER/LOCATER V4.66.93.0                                                        03/07/2024  21:02:42  PAGE 60


      000000F8H   SFRSYM    DATA     BYTE      P7
      000000E8H   SFRSYM    DATA     BYTE      P6
      000000C8H   SFRSYM    DATA     BYTE      P5
      000000C0H   SFRSYM    DATA     BYTE      P4
      000000B0H   SFRSYM    DATA     BYTE      P3
      000000A0H   SFRSYM    DATA     BYTE      P2
      00000090H   SFRSYM    DATA     BYTE      P1
      00000080H   SFRSYM    DATA     BYTE      P0
      R14         REGSYM    ---      BYTE      byte_reg
      R15         REGSYM    ---      BYTE      dat
      R15         REGSYM    ---      BYTE      byte_reg
      REG=3       REGSYM    ---      ---       dat_add
      REG=3       REGSYM    ---      ---       dat_add

      ---         MODULE    ---      ---       SEEKFREE_BLUETOOTH_CH9141
      00FF63A7H   PUBLIC    CODE     ---       bluetooth_ch9141_uart_callback
      000000D0H   SFRSYM    DATA     BYTE      PSW
      000000FEH   SFRSYM    DATA     BYTE      S4BUF
      000000B7H   SFRSYM    DATA     BYTE      IPH
      00000080H.7 SFRSYM    DATA     BIT       P07
      00000088H   SFRSYM    DATA     BYTE      TCON
      00000098H   SFRSYM    DATA     BYTE      SCON
      000000BCH   SFRSYM    DATA     BYTE      ADC_CONTR
      000000DEH   SFRSYM    DATA     BYTE      ADCCFG
      000000B8H   SFRSYM    DATA     BYTE      IP
      000000A8H   SFRSYM    DATA     BYTE      IE
      000000F8H   SFRSYM    DATA     BYTE      P7
      000000E8H   SFRSYM    DATA     BYTE      P6
      000000C8H   SFRSYM    DATA     BYTE      P5
      000000C0H   SFRSYM    DATA     BYTE      P4
      000000B0H   SFRSYM    DATA     BYTE      P3
      000000A0H   SFRSYM    DATA     BYTE      P2
      00000090H   SFRSYM    DATA     BYTE      P1
      00000080H   SFRSYM    DATA     BYTE      P0
      00000483H   SYMBOL    EDATA    ---       bluetooth_ch9141_buffer
      000004C3H   SYMBOL    EDATA    BYTE      bluetooth_ch9141_data
      000004C4H   SYMBOL    EDATA    ---       bluetooth_ch9141_fifo

      00FF63A7H   BLOCK     CODE     ---       LVL=0
      00FF63A7H   LINE      CODE     ---       #67
      00FF63A7H   LINE      CODE     ---       #70
      00FF63ADH   LINE      CODE     ---       #71
      ---         BLOCKEND  ---      ---       LVL=0
      DR12        REGSYM    ---      DWORD     len
      REG=7       REGSYM    ---      ---       buff
      DR8         REGSYM    ---      DWORD     len

      ---         MODULE    ---      ---       SEEKFREE_ICM20602
      0000063AH   PUBLIC    EDATA    INT       icm_acc_x
      0000063CH   PUBLIC    EDATA    INT       icm_acc_y
      0000063EH   PUBLIC    EDATA    INT       icm_acc_z
      00000640H   PUBLIC    EDATA    INT       icm_gyro_x
      00000642H   PUBLIC    EDATA    INT       icm_gyro_y
      00000644H   PUBLIC    EDATA    INT       icm_gyro_z
      000000D0H   SFRSYM    DATA     BYTE      PSW
      000000B7H   SFRSYM    DATA     BYTE      IPH
      000000C0H.3 SFRSYM    DATA     BIT       P43
      000000C0H.2 SFRSYM    DATA     BIT       P42
      00000088H   SFRSYM    DATA     BYTE      TCON
      000000C0H.1 SFRSYM    DATA     BIT       P41
      00000098H   SFRSYM    DATA     BYTE      SCON
      000000C0H.0 SFRSYM    DATA     BIT       P40
      000000BCH   SFRSYM    DATA     BYTE      ADC_CONTR
      000000DEH   SFRSYM    DATA     BYTE      ADCCFG
      000000B8H   SFRSYM    DATA     BYTE      IP
L251 LINKER/LOCATER V4.66.93.0                                                        03/07/2024  21:02:42  PAGE 61


      000000A8H   SFRSYM    DATA     BYTE      IE
      000000F8H   SFRSYM    DATA     BYTE      P7
      000000E8H   SFRSYM    DATA     BYTE      P6
      000000C8H   SFRSYM    DATA     BYTE      P5
      000000C0H   SFRSYM    DATA     BYTE      P4
      000000B0H   SFRSYM    DATA     BYTE      P3
      000000A0H   SFRSYM    DATA     BYTE      P2
      00000090H   SFRSYM    DATA     BYTE      P1
      00000080H   SFRSYM    DATA     BYTE      P0
      R15         REGSYM    ---      BYTE      dat
      R6          REGSYM    ---      BYTE      byte
      R7          REGSYM    ---      BYTE      i
      R7          REGSYM    ---      BYTE      cmd
      R15         REGSYM    ---      BYTE      val
      R7          REGSYM    ---      BYTE      cmd
      REG=3       REGSYM    ---      ---       val
      R7          REGSYM    ---      BYTE      cmd
      REG=3       REGSYM    ---      ---       val

      ---         MODULE    ---      ---       SEEKFREE_IPS114_SPI
      000000D0H   SFRSYM    DATA     BYTE      PSW
      000000B7H   SFRSYM    DATA     BYTE      IPH
      000000A0H.7 SFRSYM    DATA     BIT       P27
      000000A0H.5 SFRSYM    DATA     BIT       P25
      00000088H   SFRSYM    DATA     BYTE      TCON
      000000A0H.3 SFRSYM    DATA     BIT       P23
      00000098H   SFRSYM    DATA     BYTE      SCON
      000000A0H.2 SFRSYM    DATA     BIT       P22
      000000A0H.1 SFRSYM    DATA     BIT       P21
      000000A0H.0 SFRSYM    DATA     BIT       P20
      000000BCH   SFRSYM    DATA     BYTE      ADC_CONTR
      000000DEH   SFRSYM    DATA     BYTE      ADCCFG
      000000B8H   SFRSYM    DATA     BYTE      IP
      000000A8H   SFRSYM    DATA     BYTE      IE
      000000F8H   SFRSYM    DATA     BYTE      P7
      000000E8H   SFRSYM    DATA     BYTE      P6
      000000C8H   SFRSYM    DATA     BYTE      P5
      000000C0H   SFRSYM    DATA     BYTE      P4
      000000B0H   SFRSYM    DATA     BYTE      P3
      000000A0H   SFRSYM    DATA     BYTE      P2
      00000090H   SFRSYM    DATA     BYTE      P1
      00000080H   SFRSYM    DATA     BYTE      P0
      R7          REGSYM    ---      BYTE      dat
      R6          REGSYM    ---      BYTE      i
      R7          REGSYM    ---      BYTE      dat
      R6          REGSYM    ---      BYTE      i
      WR4         REGSYM    ---      WORD      dat
      R10         REGSYM    ---      BYTE      i
      WR12        REGSYM    ---      WORD      x2
      WR14        REGSYM    ---      WORD      y2
      WR14        REGSYM    ---      WORD      color
      R13         REGSYM    ---      BYTE      i
      WR2         REGSYM    ---      WORD      x
      WR0         REGSYM    ---      WORD      y
      WR14        REGSYM    ---      WORD      color
      WR12        REGSYM    ---      WORD      x
      WR14        REGSYM    ---      WORD      y
      REG=3       REGSYM    ---      ---       dat
      WR12        REGSYM    ---      WORD      x
      WR14        REGSYM    ---      WORD      y
      WR12        REGSYM    ---      WORD      x
      WR14        REGSYM    ---      WORD      y
      R10         REGSYM    ---      BYTE      dat
      WR12        REGSYM    ---      WORD      x
      WR14        REGSYM    ---      WORD      y
L251 LINKER/LOCATER V4.66.93.0                                                        03/07/2024  21:02:42  PAGE 62


      WR12        REGSYM    ---      WORD      x
      WR14        REGSYM    ---      WORD      y
      WR2         REGSYM    ---      WORD      dat
      WR12        REGSYM    ---      WORD      y
      R15         REGSYM    ---      BYTE      num
      R14         REGSYM    ---      BYTE      length
      DR12        REGSYM    ---      FLOAT     dat
      R7          REGSYM    ---      CHAR      point
      R7          REGSYM    ---      BYTE      dat
      R7          REGSYM    ---      BYTE      dat
      WR4         REGSYM    ---      WORD      dat
      WR12        REGSYM    ---      WORD      x2
      WR14        REGSYM    ---      WORD      y2
      WR14        REGSYM    ---      WORD      color
      R13         REGSYM    ---      BYTE      i
      WR2         REGSYM    ---      WORD      x
      WR0         REGSYM    ---      WORD      y
      WR14        REGSYM    ---      WORD      color
      WR12        REGSYM    ---      WORD      x
      WR14        REGSYM    ---      WORD      y
      REG=3       REGSYM    ---      ---       dat
      WR12        REGSYM    ---      WORD      x
      WR14        REGSYM    ---      WORD      y
      WR12        REGSYM    ---      WORD      x
      WR14        REGSYM    ---      WORD      y
      R10         REGSYM    ---      BYTE      dat
      WR12        REGSYM    ---      WORD      x
      WR14        REGSYM    ---      WORD      y
      WR12        REGSYM    ---      WORD      x
      WR14        REGSYM    ---      WORD      y
      WR2         REGSYM    ---      WORD      dat
      WR12        REGSYM    ---      WORD      y
      R15         REGSYM    ---      BYTE      num
      R14         REGSYM    ---      BYTE      length
      DR12        REGSYM    ---      FLOAT     dat
      R7          REGSYM    ---      CHAR      point

      ---         MODULE    ---      ---       SEEKFREE_TSL1401
      0000013DH   PUBLIC    EDATA    BYTE      tsl1401_finish_flag
      0000013EH   PUBLIC    EDATA    ---       ccd_data
      000000D0H   SFRSYM    DATA     BYTE      PSW
      000000B7H   SFRSYM    DATA     BYTE      IPH
      000000B0H.3 SFRSYM    DATA     BIT       P33
      00000088H   SFRSYM    DATA     BYTE      TCON
      000000B0H.2 SFRSYM    DATA     BIT       P32
      00000098H   SFRSYM    DATA     BYTE      SCON
      000000BCH   SFRSYM    DATA     BYTE      ADC_CONTR
      000000DEH   SFRSYM    DATA     BYTE      ADCCFG
      000000B8H   SFRSYM    DATA     BYTE      IP
      000000A8H   SFRSYM    DATA     BYTE      IE
      000000F8H   SFRSYM    DATA     BYTE      P7
      000000E8H   SFRSYM    DATA     BYTE      P6
      000000C8H   SFRSYM    DATA     BYTE      P5
      000000C0H   SFRSYM    DATA     BYTE      P4
      000000B0H   SFRSYM    DATA     BYTE      P3
      000000A0H   SFRSYM    DATA     BYTE      P2
      00000090H   SFRSYM    DATA     BYTE      P1
      00000080H   SFRSYM    DATA     BYTE      P0
      REG=3       REGSYM    ---      ---       dat
      R15         REGSYM    ---      BYTE      i

      ---         MODULE    ---      ---       SEEKFREE_VIRSCO
      00000646H   PUBLIC    EDATA    ---       virtual_scope_data
      000000D0H   SFRSYM    DATA     BYTE      PSW
      000000B7H   SFRSYM    DATA     BYTE      IPH
L251 LINKER/LOCATER V4.66.93.0                                                        03/07/2024  21:02:42  PAGE 63


      00000088H   SFRSYM    DATA     BYTE      TCON
      00000098H   SFRSYM    DATA     BYTE      SCON
      000000BCH   SFRSYM    DATA     BYTE      ADC_CONTR
      000000DEH   SFRSYM    DATA     BYTE      ADCCFG
      000000B8H   SFRSYM    DATA     BYTE      IP
      000000A8H   SFRSYM    DATA     BYTE      IE
      000000F8H   SFRSYM    DATA     BYTE      P7
      000000E8H   SFRSYM    DATA     BYTE      P6
      000000C8H   SFRSYM    DATA     BYTE      P5
      000000C0H   SFRSYM    DATA     BYTE      P4
      000000B0H   SFRSYM    DATA     BYTE      P3
      000000A0H   SFRSYM    DATA     BYTE      P2
      00000090H   SFRSYM    DATA     BYTE      P1
      00000080H   SFRSYM    DATA     BYTE      P0
      REG=7       REGSYM    ---      ---       Buf
      R10         REGSYM    ---      BYTE      CRC_CNT
      WR6         REGSYM    ---      WORD      CRC_Temp
      R5          REGSYM    ---      BYTE      i
      R4          REGSYM    ---      BYTE      j
      WR0         REGSYM    ---      INT       data1
      WR30        REGSYM    ---      INT       data2
      WR8         REGSYM    ---      INT       data3
      WR10        REGSYM    ---      INT       data4
      WR6         REGSYM    ---      WORD      CRC16

      ---         MODULE    ---      ---       SEEKFREE_WIRELESS
      00FF63C0H   PUBLIC    CODE     ---       wireless_uart_callback
      000000D0H   SFRSYM    DATA     BYTE      PSW
      000000FEH   SFRSYM    DATA     BYTE      S4BUF
      000000B7H   SFRSYM    DATA     BYTE      IPH
      00000080H.7 SFRSYM    DATA     BIT       P07
      00000088H   SFRSYM    DATA     BYTE      TCON
      00000098H   SFRSYM    DATA     BYTE      SCON
      000000BCH   SFRSYM    DATA     BYTE      ADC_CONTR
      000000DEH   SFRSYM    DATA     BYTE      ADCCFG
      000000B8H   SFRSYM    DATA     BYTE      IP
      000000A8H   SFRSYM    DATA     BYTE      IE
      000000F8H   SFRSYM    DATA     BYTE      P7
      000000E8H   SFRSYM    DATA     BYTE      P6
      000000C8H   SFRSYM    DATA     BYTE      P5
      000000C0H   SFRSYM    DATA     BYTE      P4
      000000B0H   SFRSYM    DATA     BYTE      P3
      000000A0H   SFRSYM    DATA     BYTE      P2
      00000090H   SFRSYM    DATA     BYTE      P1
      00000080H   SFRSYM    DATA     BYTE      P0
      000004D8H   SYMBOL    EDATA    BYTE      wireless_uart_data
      000004D9H   SYMBOL    EDATA    ---       wireless_uart_fifo
      000004EDH   SYMBOL    EDATA    ---       wireless_uart_buffer

      00FF63C0H   BLOCK     CODE     ---       LVL=0
      00FF63C0H   LINE      CODE     ---       #48
      00FF63C0H   LINE      CODE     ---       #51
      00FF63C6H   LINE      CODE     ---       #52
      ---         BLOCKEND  ---      ---       LVL=0
      REG=3       REGSYM    ---      ---       buff
      REG=7       REGSYM    ---      ---       buff
      DR8         REGSYM    ---      DWORD     len

      ---         MODULE    ---      ---       SEEKFREE_WIRELESS_CH573
      00FF63D9H   PUBLIC    CODE     ---       wireless_ch573_callback
      000000D0H   SFRSYM    DATA     BYTE      PSW
      000000FEH   SFRSYM    DATA     BYTE      S4BUF
      000000B7H   SFRSYM    DATA     BYTE      IPH
      00000080H.7 SFRSYM    DATA     BIT       P07
      00000088H   SFRSYM    DATA     BYTE      TCON
L251 LINKER/LOCATER V4.66.93.0                                                        03/07/2024  21:02:42  PAGE 64


      00000098H   SFRSYM    DATA     BYTE      SCON
      000000BCH   SFRSYM    DATA     BYTE      ADC_CONTR
      000000DEH   SFRSYM    DATA     BYTE      ADCCFG
      000000B8H   SFRSYM    DATA     BYTE      IP
      000000A8H   SFRSYM    DATA     BYTE      IE
      000000F8H   SFRSYM    DATA     BYTE      P7
      000000E8H   SFRSYM    DATA     BYTE      P6
      000000C8H   SFRSYM    DATA     BYTE      P5
      000000C0H   SFRSYM    DATA     BYTE      P4
      000000B0H   SFRSYM    DATA     BYTE      P3
      000000A0H   SFRSYM    DATA     BYTE      P2
      00000090H   SFRSYM    DATA     BYTE      P1
      00000080H   SFRSYM    DATA     BYTE      P0
      0000052DH   SYMBOL    EDATA    ---       wireless_ch573_buffer
      0000056DH   SYMBOL    EDATA    BYTE      wireless_ch573_data
      0000056EH   SYMBOL    EDATA    ---       wireless_ch573_fifo

      00FF63D9H   BLOCK     CODE     ---       LVL=0
      00FF63D9H   LINE      CODE     ---       #39
      00FF63D9H   LINE      CODE     ---       #42
      00FF63DFH   LINE      CODE     ---       #43
      ---         BLOCKEND  ---      ---       LVL=0
      REG=3       REGSYM    ---      ---       buff
      REG=7       REGSYM    ---      ---       buff
      DR8         REGSYM    ---      DWORD     len

      ---         MODULE    ---      ---       isr
      00FF5E89H   PUBLIC    CODE     ---       UART1_Isr
      00FF6351H   PUBLIC    CODE     ---       UART2_Isr
      00FF636FH   PUBLIC    CODE     ---       UART3_Isr
      00FF5711H   PUBLIC    CODE     ---       UART4_Isr
      00FF65A3H   PUBLIC    CODE     ---       INT0_Isr
      00FF0011H   PUBLIC    CODE     ---       INT1_Isr
      00FF657BH   PUBLIC    CODE     ---       INT2_Isr
      00FF6583H   PUBLIC    CODE     ---       INT3_Isr
      00FF658BH   PUBLIC    CODE     ---       INT4_Isr
      00FF0012H   PUBLIC    CODE     ---       TM0_Isr
      00FF0019H   PUBLIC    CODE     ---       TM1_Isr
      00FF6593H   PUBLIC    CODE     ---       TM2_Isr
      00FF659BH   PUBLIC    CODE     ---       TM3_Isr
      00FF53CFH   PUBLIC    CODE     ---       TM4_Isr
      00000667H   PUBLIC    EDATA    CHAR      count
      000000D0H   SFRSYM    DATA     BYTE      PSW
      000000EFH   SFRSYM    DATA     BYTE      AUXINTIF
      000000FDH   SFRSYM    DATA     BYTE      S4CON
      000000ACH   SFRSYM    DATA     BYTE      S3CON
      0000009AH   SFRSYM    DATA     BYTE      S2CON
      000000B7H   SFRSYM    DATA     BYTE      IPH
      000000C7H   SFRSYM    DATA     BYTE      IAP_CONTR
      000000C8H.2 SFRSYM    DATA     BIT       P52
      00000088H   SFRSYM    DATA     BYTE      TCON
      00000098H   SFRSYM    DATA     BYTE      SCON
      00000099H   SFRSYM    DATA     BYTE      SBUF
      000000BCH   SFRSYM    DATA     BYTE      ADC_CONTR
      000000DEH   SFRSYM    DATA     BYTE      ADCCFG
      000000B8H   SFRSYM    DATA     BYTE      IP
      000000A8H   SFRSYM    DATA     BYTE      IE
      000000F8H   SFRSYM    DATA     BYTE      P7
      000000E8H   SFRSYM    DATA     BYTE      P6
      000000C8H   SFRSYM    DATA     BYTE      P5
      000000C0H   SFRSYM    DATA     BYTE      P4
      000000B0H   SFRSYM    DATA     BYTE      P3
      000000A0H   SFRSYM    DATA     BYTE      P2
      00000090H   SFRSYM    DATA     BYTE      P1
      00000080H   SFRSYM    DATA     BYTE      P0
L251 LINKER/LOCATER V4.66.93.0                                                        03/07/2024  21:02:42  PAGE 65



      00FF5E89H   BLOCK     CODE     ---       LVL=0
      00FF5E8DH   BLOCK     CODE     NEAR LAB  LVL=1
      R11         REGSYM    ---      BYTE      res
      00000668H   SYMBOL    EDATA    BYTE      dwon_count
      ---         BLOCKEND  ---      ---       LVL=1
      00FF5E89H   LINE      CODE     ---       #27
      00FF5E8DH   LINE      CODE     ---       #28
      00FF5E8DH   LINE      CODE     ---       #31
      00FF5E92H   LINE      CODE     ---       #33
      00FF5E95H   LINE      CODE     ---       #34
      00FF5E9AH   LINE      CODE     ---       #35
      00FF5E9AH   LINE      CODE     ---       #36
      00FF5E9FH   LINE      CODE     ---       #38
      00FF5EA2H   LINE      CODE     ---       #39
      00FF5EA4H   LINE      CODE     ---       #41
      00FF5EA7H   LINE      CODE     ---       #43
      00FF5EB7H   LINE      CODE     ---       #44
      00FF5EBAH   LINE      CODE     ---       #45
      00FF5EBCH   LINE      CODE     ---       #48
      00FF5EC1H   LINE      CODE     ---       #49
      00FF5EC1H   LINE      CODE     ---       #50
      ---         BLOCKEND  ---      ---       LVL=0

      00FF6351H   BLOCK     CODE     ---       LVL=0
      00FF6351H   LINE      CODE     ---       #54
      00FF6355H   LINE      CODE     ---       #56
      00FF635AH   LINE      CODE     ---       #58
      00FF635DH   LINE      CODE     ---       #59
      00FF6362H   LINE      CODE     ---       #60
      00FF6362H   LINE      CODE     ---       #61
      00FF6367H   LINE      CODE     ---       #63
      00FF636AH   LINE      CODE     ---       #66
      ---         BLOCKEND  ---      ---       LVL=0

      00FF636FH   BLOCK     CODE     ---       LVL=0
      00FF636FH   LINE      CODE     ---       #71
      00FF6373H   LINE      CODE     ---       #73
      00FF6378H   LINE      CODE     ---       #75
      00FF637BH   LINE      CODE     ---       #76
      00FF6380H   LINE      CODE     ---       #77
      00FF6380H   LINE      CODE     ---       #78
      00FF6385H   LINE      CODE     ---       #80
      00FF6388H   LINE      CODE     ---       #83
      ---         BLOCKEND  ---      ---       LVL=0

      00FF5711H   BLOCK     CODE     ---       LVL=0
      00FF5711H   LINE      CODE     ---       #88
      00FF5729H   LINE      CODE     ---       #90
      00FF572EH   LINE      CODE     ---       #92
      00FF5731H   LINE      CODE     ---       #93
      00FF5736H   LINE      CODE     ---       #94
      00FF5736H   LINE      CODE     ---       #95
      00FF573BH   LINE      CODE     ---       #97
      00FF573EH   LINE      CODE     ---       #100
      00FF5748H   LINE      CODE     ---       #102
      00FF574BH   LINE      CODE     ---       #103
      00FF574DH   LINE      CODE     ---       #104
      00FF5753H   LINE      CODE     ---       #106
      00FF5756H   LINE      CODE     ---       #107
      00FF5758H   LINE      CODE     ---       #108
      00FF575EH   LINE      CODE     ---       #110
      00FF5761H   LINE      CODE     ---       #111
      00FF5761H   LINE      CODE     ---       #113
      ---         BLOCKEND  ---      ---       LVL=0
L251 LINKER/LOCATER V4.66.93.0                                                        03/07/2024  21:02:42  PAGE 66



      00FF65A3H   BLOCK     CODE     ---       LVL=0
      00FF65A3H   LINE      CODE     ---       #116
      00FF65A5H   LINE      CODE     ---       #118
      00FF65A7H   LINE      CODE     ---       #119
      ---         BLOCKEND  ---      ---       LVL=0

      00FF0011H   BLOCK     CODE     ---       LVL=0
      00FF0011H   LINE      CODE     ---       #120
      00FF0011H   LINE      CODE     ---       #123
      ---         BLOCKEND  ---      ---       LVL=0

      00FF657BH   BLOCK     CODE     ---       LVL=0
      00FF657BH   LINE      CODE     ---       #124
      00FF657DH   LINE      CODE     ---       #126
      00FF6580H   LINE      CODE     ---       #127
      ---         BLOCKEND  ---      ---       LVL=0

      00FF6583H   BLOCK     CODE     ---       LVL=0
      00FF6583H   LINE      CODE     ---       #128
      00FF6585H   LINE      CODE     ---       #130
      00FF6588H   LINE      CODE     ---       #131
      ---         BLOCKEND  ---      ---       LVL=0

      00FF658BH   BLOCK     CODE     ---       LVL=0
      00FF658BH   LINE      CODE     ---       #133
      00FF658DH   LINE      CODE     ---       #135
      00FF6590H   LINE      CODE     ---       #136
      ---         BLOCKEND  ---      ---       LVL=0

      00FF0012H   BLOCK     CODE     ---       LVL=0
      00FF0012H   LINE      CODE     ---       #138
      00FF0012H   LINE      CODE     ---       #141
      ---         BLOCKEND  ---      ---       LVL=0

      00FF0019H   BLOCK     CODE     ---       LVL=0
      00FF0019H   LINE      CODE     ---       #142
      00FF0019H   LINE      CODE     ---       #145
      ---         BLOCKEND  ---      ---       LVL=0

      00FF6593H   BLOCK     CODE     ---       LVL=0
      00FF6593H   LINE      CODE     ---       #146
      00FF6595H   LINE      CODE     ---       #148
      00FF6598H   LINE      CODE     ---       #150
      ---         BLOCKEND  ---      ---       LVL=0

      00FF659BH   BLOCK     CODE     ---       LVL=0
      00FF659BH   LINE      CODE     ---       #151
      00FF659DH   LINE      CODE     ---       #153
      00FF65A0H   LINE      CODE     ---       #155
      ---         BLOCKEND  ---      ---       LVL=0

      00FF53CFH   BLOCK     CODE     ---       LVL=0
      00FF53CFH   LINE      CODE     ---       #158
      00FF53E5H   LINE      CODE     ---       #160
      00FF53E8H   LINE      CODE     ---       #161
      00FF53F1H   LINE      CODE     ---       #162
      00FF53F7H   LINE      CODE     ---       #164
      00FF5401H   LINE      CODE     ---       #166
      00FF540CH   LINE      CODE     ---       #167
      00FF5416H   LINE      CODE     ---       #168
      00FF5418H   LINE      CODE     ---       #170
      00FF5421H   LINE      CODE     ---       #172
      00FF542AH   LINE      CODE     ---       #174
      00FF5433H   LINE      CODE     ---       #175
L251 LINKER/LOCATER V4.66.93.0                                                        03/07/2024  21:02:42  PAGE 67


      00FF5438H   LINE      CODE     ---       #176
      ---         BLOCKEND  ---      ---       LVL=0

      ---         MODULE    ---      ---       main
      00FF51B6H   PUBLIC    CODE     ---       Get_Ratio
      00FF31AAH   PUBLIC    CODE     ---       main
      00FF4BA4H   PUBLIC    CODE     ---       Init_all
      000005D2H   PUBLIC    EDATA    FLOAT     Ratio
      000005D6H   PUBLIC    EDATA    FLOAT     Exp_Speed
      000005DAH   PUBLIC    EDATA    FLOAT     Plus_Mid
      000005DEH   PUBLIC    EDATA    FLOAT     Plus
      000005E2H   PUBLIC    EDATA    CHAR      KeyValue
      000005E3H   PUBLIC    EDATA    FLOAT     Exp_Speed_L
      000005E7H   PUBLIC    EDATA    FLOAT     Exp_Speed_R
      000005EBH   PUBLIC    EDATA    FLOAT     sum
      000005EFH   PUBLIC    EDATA    INT       gx
      000005F1H   PUBLIC    EDATA    INT       gy
      000005F3H   PUBLIC    EDATA    INT       gz
      000005F5H   PUBLIC    EDATA    CHAR      Isr_flag_10
      000005F6H   PUBLIC    EDATA    FLOAT     Adjust_Val
      000005FAH   PUBLIC    EDATA    FLOAT     Diff_Mid
      000005FEH   PUBLIC    EDATA    FLOAT     Diff
      00000602H   PUBLIC    EDATA    FLOAT     Ratio_Mid
      000000D0H   SFRSYM    DATA     BYTE      PSW
      000000B7H   SFRSYM    DATA     BYTE      IPH
      000000E9H   SFRSYM    DATA     BYTE      WTST
      00000088H   SFRSYM    DATA     BYTE      TCON
      00000098H   SFRSYM    DATA     BYTE      SCON
      000000BCH   SFRSYM    DATA     BYTE      ADC_CONTR
      000000DEH   SFRSYM    DATA     BYTE      ADCCFG
      000000B8H   SFRSYM    DATA     BYTE      IP
      000000A8H   SFRSYM    DATA     BYTE      IE
      000000F8H   SFRSYM    DATA     BYTE      P7
      000000E8H   SFRSYM    DATA     BYTE      P6
      000000C8H   SFRSYM    DATA     BYTE      P5
      000000C0H   SFRSYM    DATA     BYTE      P4
      000000B0H   SFRSYM    DATA     BYTE      P3
      000000A0H   SFRSYM    DATA     BYTE      P2
      00000090H   SFRSYM    DATA     BYTE      P1
      00000080H   SFRSYM    DATA     BYTE      P0

      00FF31AAH   BLOCK     CODE     ---       LVL=0
      00FF31AAH   LINE      CODE     ---       #37
      00FF31AAH   LINE      CODE     ---       #39
      00FF31ADH   LINE      CODE     ---       #40
      00FF31B0H   LINE      CODE     ---       #41
      00FF31BAH   LINE      CODE     ---       #42
      00FF31BAH   LINE      CODE     ---       #44
      00FF3200H   LINE      CODE     ---       #48
      00FF3203H   LINE      CODE     ---       #49
      00FF320BH   LINE      CODE     ---       #50
      00FF3228H   LINE      CODE     ---       #51
      00FF324BH   LINE      CODE     ---       #52
      00FF3261H   LINE      CODE     ---       #53
      00FF3279H   LINE      CODE     ---       #57
      00FF3285H   LINE      CODE     ---       #59
      00FF3288H   LINE      CODE     ---       #60
      00FF328BH   LINE      CODE     ---       #61
      00FF329EH   LINE      CODE     ---       #62
      00FF32A1H   LINE      CODE     ---       #65
      00FF32C3H   LINE      CODE     ---       #67
      00FF32CDH   LINE      CODE     ---       #68
      00FF32D5H   LINE      CODE     ---       #69
      00FF32DDH   LINE      CODE     ---       #70
      00FF32E1H   LINE      CODE     ---       #71
L251 LINKER/LOCATER V4.66.93.0                                                        03/07/2024  21:02:42  PAGE 68


      00FF32EDH   LINE      CODE     ---       #72
      00FF32F1H   LINE      CODE     ---       #73
      00FF32F7H   LINE      CODE     ---       #74
      00FF32F9H   LINE      CODE     ---       #77
      00FF3301H   LINE      CODE     ---       #78
      00FF330BH   LINE      CODE     ---       #79
      00FF3313H   LINE      CODE     ---       #80
      00FF331BH   LINE      CODE     ---       #81
      00FF3327H   LINE      CODE     ---       #82
      00FF3331H   LINE      CODE     ---       #83
      00FF3339H   LINE      CODE     ---       #84
      00FF3339H   LINE      CODE     ---       #102
      00FF3366H   LINE      CODE     ---       #104
      00FF336EH   LINE      CODE     ---       #105
      00FF337BH   LINE      CODE     ---       #106
      00FF3383H   LINE      CODE     ---       #107
      00FF338CH   LINE      CODE     ---       #108
      00FF3392H   LINE      CODE     ---       #110
      00FF3392H   LINE      CODE     ---       #111
      00FF33B8H   LINE      CODE     ---       #112
      00FF33DEH   LINE      CODE     ---       #114
      00FF340CH   LINE      CODE     ---       #115
      00FF3425H   LINE      CODE     ---       #118
      00FF343BH   LINE      CODE     ---       #121
      00FF345DH   LINE      CODE     ---       #122
      00FF3467H   LINE      CODE     ---       #123
      00FF3485H   LINE      CODE     ---       #124
      00FF3490H   LINE      CODE     ---       #126
      00FF3493H   LINE      CODE     ---       #128
      00FF34A6H   LINE      CODE     ---       #129
      00FF34B9H   LINE      CODE     ---       #132
      00FF34CEH   LINE      CODE     ---       #134
      00FF34D4H   LINE      CODE     ---       #135
      00FF34D8H   LINE      CODE     ---       #136
      00FF34D8H   LINE      CODE     ---       #141
      00FF34E3H   LINE      CODE     ---       #142
      00FF34EEH   LINE      CODE     ---       #143
      00FF34F3H   LINE      CODE     ---       #144
      ---         BLOCKEND  ---      ---       LVL=0

      00FF4BA4H   BLOCK     CODE     ---       LVL=0
      00FF4BA4H   LINE      CODE     ---       #148
      00FF4BA4H   LINE      CODE     ---       #150
      00FF4BA7H   LINE      CODE     ---       #151
      00FF4BAAH   LINE      CODE     ---       #152
      00FF4BB6H   LINE      CODE     ---       #155
      00FF4BB9H   LINE      CODE     ---       #158
      00FF4BC2H   LINE      CODE     ---       #159
      00FF4BCBH   LINE      CODE     ---       #162
      00FF4BCEH   LINE      CODE     ---       #166
      00FF4BD1H   LINE      CODE     ---       #169
      00FF4BD4H   LINE      CODE     ---       #172
      00FF4BD7H   LINE      CODE     ---       #175
      00FF4BE2H   LINE      CODE     ---       #178
      00FF4BE7H   LINE      CODE     ---       #179
      00FF4BEEH   LINE      CODE     ---       #185
      00FF4BF1H   LINE      CODE     ---       #188
      00FF4BF4H   LINE      CODE     ---       #191
      00FF4BF7H   LINE      CODE     ---       #194
      00FF4C28H   LINE      CODE     ---       #195
      00FF4C59H   LINE      CODE     ---       #196
      ---         BLOCKEND  ---      ---       LVL=0

      00FF51B6H   BLOCK     CODE     ---       LVL=0
      00FF51B6H   LINE      CODE     ---       #200
L251 LINKER/LOCATER V4.66.93.0                                                        03/07/2024  21:02:42  PAGE 69


      00FF51B8H   LINE      CODE     ---       #206
      00FF51CDH   LINE      CODE     ---       #207
      00FF51DAH   LINE      CODE     ---       #209
      00FF51EFH   LINE      CODE     ---       #210
      00FF51FCH   LINE      CODE     ---       #214
      00FF5207H   LINE      CODE     ---       #215
      00FF5212H   LINE      CODE     ---       #216
      00FF523DH   LINE      CODE     ---       #217
      00FF5245H   LINE      CODE     ---       #220
      ---         BLOCKEND  ---      ---       LVL=0

      ---         MODULE    ---      ---       motor
      00FF4EA3H   PUBLIC    CODE     ---       Right_SetSpeed
      00FF5CC9H   PUBLIC    CODE     ---       Motor_Init
      00FF4F48H   PUBLIC    CODE     ---       Left_SetSpeed
      00FF613EH   PUBLIC    CODE     ---       Limit_Out
      00FF57E2H   PUBLIC    CODE     ---       Get_Speed
      00FF647EH   PUBLIC    CODE     ---       Num2Abs
      000003A2H   PUBLIC    EDATA    ---       Right_Wheel_PID
      000003C6H   PUBLIC    EDATA    FLOAT     Speed_L
      000003CAH   PUBLIC    EDATA    ---       Left_Wheel_PID
      000003EEH   PUBLIC    EDATA    FLOAT     Speed_R
      000003F2H   PUBLIC    EDATA    ---       Turn_PID
      00000313H   PUBLIC    EDATA    BYTE      ?Limit_Out?BYTE
      000000D0H   SFRSYM    DATA     BYTE      PSW
      000000B7H   SFRSYM    DATA     BYTE      IPH
      000000B0H.5 SFRSYM    DATA     BIT       P35
      000000C8H.3 SFRSYM    DATA     BIT       P53
      00000088H   SFRSYM    DATA     BYTE      TCON
      00000098H   SFRSYM    DATA     BYTE      SCON
      000000BCH   SFRSYM    DATA     BYTE      ADC_CONTR
      000000DEH   SFRSYM    DATA     BYTE      ADCCFG
      000000B8H   SFRSYM    DATA     BYTE      IP
      000000A8H   SFRSYM    DATA     BYTE      IE
      000000F8H   SFRSYM    DATA     BYTE      P7
      000000E8H   SFRSYM    DATA     BYTE      P6
      000000C8H   SFRSYM    DATA     BYTE      P5
      000000C0H   SFRSYM    DATA     BYTE      P4
      000000B0H   SFRSYM    DATA     BYTE      P3
      000000A0H   SFRSYM    DATA     BYTE      P2
      00000090H   SFRSYM    DATA     BYTE      P1
      00000080H   SFRSYM    DATA     BYTE      P0

      00FF613EH   BLOCK     CODE     ---       LVL=0
      REG=7       REGSYM    ---      ---       Output
      DR24        REGSYM    ---      FLOAT     Limit_Min
      0000031BH   SYMBOL    EDATA    FLOAT     Limit_Max
      00FF613EH   LINE      CODE     ---       #19
      00FF6142H   LINE      CODE     ---       #21
      00FF6154H   LINE      CODE     ---       #22
      00FF6168H   LINE      CODE     ---       #23
      ---         BLOCKEND  ---      ---       LVL=0

      00FF647EH   BLOCK     CODE     ---       LVL=0
      DR28        REGSYM    ---      FLOAT     x
      00FF647EH   LINE      CODE     ---       #25
      00FF6480H   LINE      CODE     ---       #27
      00FF6487H   LINE      CODE     ---       #28
      00FF648CH   LINE      CODE     ---       #29
      00FF648EH   LINE      CODE     ---       #30
      ---         BLOCKEND  ---      ---       LVL=0

      00FF5CC9H   BLOCK     CODE     ---       LVL=0
      00FF5CC9H   LINE      CODE     ---       #32
      00FF5CC9H   LINE      CODE     ---       #34
L251 LINKER/LOCATER V4.66.93.0                                                        03/07/2024  21:02:42  PAGE 70


      00FF5CDAH   LINE      CODE     ---       #35
      00FF5CEBH   LINE      CODE     ---       #36
      00FF5CFCH   LINE      CODE     ---       #37
      ---         BLOCKEND  ---      ---       LVL=0

      00FF4F48H   BLOCK     CODE     ---       LVL=0
      DR12        REGSYM    ---      FLOAT     speed
      00FF4F4CH   BLOCK     CODE     NEAR LAB  LVL=1
      00000416H   SYMBOL    EDATA    CHAR      Special_NumL
      ---         BLOCKEND  ---      ---       LVL=1
      00FF4F48H   LINE      CODE     ---       #41
      00FF4F4CH   LINE      CODE     ---       #42
      00FF4F4CH   LINE      CODE     ---       #45
      00FF4F58H   LINE      CODE     ---       #46
      00FF4F5FH   LINE      CODE     ---       #48
      00FF4F64H   LINE      CODE     ---       #49
      00FF4F67H   LINE      CODE     ---       #51
      00FF4F67H   LINE      CODE     ---       #52
      00FF4F67H   LINE      CODE     ---       #54
      00FF4F69H   LINE      CODE     ---       #55
      00FF4F69H   LINE      CODE     ---       #58
      00FF4F7EH   LINE      CODE     ---       #59
      00FF4F91H   LINE      CODE     ---       #60
      00FF4F9AH   LINE      CODE     ---       #62
      00FF4FADH   LINE      CODE     ---       #63
      00FF4FADH   LINE      CODE     ---       #64
      00FF4FAFH   LINE      CODE     ---       #65
      00FF4FB8H   LINE      CODE     ---       #67
      00FF4FC1H   LINE      CODE     ---       #68
      00FF4FD6H   LINE      CODE     ---       #69
      00FF4FD8H   LINE      CODE     ---       #72
      00FF4FE1H   LINE      CODE     ---       #73
      00FF4FEAH   LINE      CODE     ---       #74
      00FF4FEAH   LINE      CODE     ---       #75
      00FF4FEAH   LINE      CODE     ---       #77
      ---         BLOCKEND  ---      ---       LVL=0

      00FF4EA3H   BLOCK     CODE     ---       LVL=0
      DR12        REGSYM    ---      FLOAT     speed
      00FF4EA7H   BLOCK     CODE     NEAR LAB  LVL=1
      00000417H   SYMBOL    EDATA    CHAR      Special_NumR
      ---         BLOCKEND  ---      ---       LVL=1
      00FF4EA3H   LINE      CODE     ---       #79
      00FF4EA7H   LINE      CODE     ---       #80
      00FF4EA7H   LINE      CODE     ---       #83
      00FF4EBAH   LINE      CODE     ---       #84
      00FF4ECDH   LINE      CODE     ---       #86
      00FF4EDBH   LINE      CODE     ---       #87
      00FF4EE2H   LINE      CODE     ---       #89
      00FF4EE7H   LINE      CODE     ---       #90
      00FF4EEAH   LINE      CODE     ---       #92
      00FF4EEAH   LINE      CODE     ---       #93
      00FF4EEAH   LINE      CODE     ---       #95
      00FF4EECH   LINE      CODE     ---       #96
      00FF4EECH   LINE      CODE     ---       #99
      00FF4EF5H   LINE      CODE     ---       #101
      00FF4F08H   LINE      CODE     ---       #102
      00FF4F08H   LINE      CODE     ---       #103
      00FF4F0AH   LINE      CODE     ---       #104
      00FF4F13H   LINE      CODE     ---       #106
      00FF4F1CH   LINE      CODE     ---       #107
      00FF4F31H   LINE      CODE     ---       #108
      00FF4F33H   LINE      CODE     ---       #111
      00FF4F3CH   LINE      CODE     ---       #112
      00FF4F45H   LINE      CODE     ---       #113
L251 LINKER/LOCATER V4.66.93.0                                                        03/07/2024  21:02:42  PAGE 71


      00FF4F45H   LINE      CODE     ---       #115
      00FF4F45H   LINE      CODE     ---       #116
      ---         BLOCKEND  ---      ---       LVL=0

      00FF57E2H   BLOCK     CODE     ---       LVL=0
      00FF57E2H   LINE      CODE     ---       #118
      00FF57E2H   LINE      CODE     ---       #120
      00FF57F7H   LINE      CODE     ---       #121
      00FF580FH   LINE      CODE     ---       #122
      00FF5816H   LINE      CODE     ---       #125
      00FF582AH   LINE      CODE     ---       #126
      00FF5840H   LINE      CODE     ---       #127
      ---         BLOCKEND  ---      ---       LVL=0

      ---         MODULE    ---      ---       ADC
      00FF427CH   PUBLIC    CODE     ---       ADC_GetValue
      00FF6169H   PUBLIC    CODE     ---       ADC_InitAll
      00000582H   PUBLIC    EDATA    ---       ADC_Array_Original
      000005BEH   PUBLIC    EDATA    ---       ADC_proc
      000000D0H   SFRSYM    DATA     BYTE      PSW
      000000B7H   SFRSYM    DATA     BYTE      IPH
      00000088H   SFRSYM    DATA     BYTE      TCON
      00000098H   SFRSYM    DATA     BYTE      SCON
      000000BCH   SFRSYM    DATA     BYTE      ADC_CONTR
      000000DEH   SFRSYM    DATA     BYTE      ADCCFG
      000000B8H   SFRSYM    DATA     BYTE      IP
      000000A8H   SFRSYM    DATA     BYTE      IE
      000000F8H   SFRSYM    DATA     BYTE      P7
      000000E8H   SFRSYM    DATA     BYTE      P6
      000000C8H   SFRSYM    DATA     BYTE      P5
      000000C0H   SFRSYM    DATA     BYTE      P4
      000000B0H   SFRSYM    DATA     BYTE      P3
      000000A0H   SFRSYM    DATA     BYTE      P2
      00000090H   SFRSYM    DATA     BYTE      P1
      00000080H   SFRSYM    DATA     BYTE      P0

      00FF6169H   BLOCK     CODE     ---       LVL=0
      00FF6169H   LINE      CODE     ---       #11
      00FF6169H   LINE      CODE     ---       #13
      00FF6170H   LINE      CODE     ---       #14
      00FF6179H   LINE      CODE     ---       #16
      00FF6182H   LINE      CODE     ---       #18
      00FF618BH   LINE      CODE     ---       #19
      ---         BLOCKEND  ---      ---       LVL=0

      00FF427CH   BLOCK     CODE     ---       LVL=0
      00FF427EH   BLOCK     CODE     NEAR LAB  LVL=1
      DR28        REGSYM    ---      FLOAT     temp
      R15         REGSYM    ---      CHAR      i
      R14         REGSYM    ---      CHAR      j
      R15         REGSYM    ---      CHAR      k
      ---         BLOCKEND  ---      ---       LVL=1
      00FF427CH   LINE      CODE     ---       #22
      00FF427EH   LINE      CODE     ---       #23
      00FF427EH   LINE      CODE     ---       #26
      00FF4280H   LINE      CODE     ---       #28
      00FF429DH   LINE      CODE     ---       #29
      00FF42BCH   LINE      CODE     ---       #31
      00FF42DBH   LINE      CODE     ---       #33
      00FF42FAH   LINE      CODE     ---       #34
      00FF4319H   LINE      CODE     ---       #35
      00FF4323H   LINE      CODE     ---       #36
      00FF4325H   LINE      CODE     ---       #38
      00FF4327H   LINE      CODE     ---       #39
      00FF4329H   LINE      CODE     ---       #41
L251 LINKER/LOCATER V4.66.93.0                                                        03/07/2024  21:02:42  PAGE 72


      00FF4348H   LINE      CODE     ---       #42
      00FF434FH   LINE      CODE     ---       #43
      00FF4368H   LINE      CODE     ---       #44
      00FF4381H   LINE      CODE     ---       #45
      00FF4398H   LINE      CODE     ---       #47
      00FF43BAH   LINE      CODE     ---       #48
      00FF43CBH   LINE      CODE     ---       #49
      00FF43CFH   LINE      CODE     ---       #50
      00FF43DAH   LINE      CODE     ---       #51
      00FF43DEH   LINE      CODE     ---       #52
      00FF43E8H   LINE      CODE     ---       #53
      ---         BLOCKEND  ---      ---       LVL=0

      ---         MODULE    ---      ---       PID
      00FF4C7EH   PUBLIC    CODE     ---       PID_Calculate
      00FF5A62H   PUBLIC    CODE     ---       PID_Init
      0000030FH   PUBLIC    EDATA    BYTE      ?PID_Init?BYTE
      0000030FH   PUBLIC    EDATA    BYTE      ?PID_Calculate?BYTE
      000000D0H   SFRSYM    DATA     BYTE      PSW
      000000B7H   SFRSYM    DATA     BYTE      IPH
      00000088H   SFRSYM    DATA     BYTE      TCON
      00000098H   SFRSYM    DATA     BYTE      SCON
      000000BCH   SFRSYM    DATA     BYTE      ADC_CONTR
      000000DEH   SFRSYM    DATA     BYTE      ADCCFG
      000000B8H   SFRSYM    DATA     BYTE      IP
      000000A8H   SFRSYM    DATA     BYTE      IE
      000000F8H   SFRSYM    DATA     BYTE      P7
      000000E8H   SFRSYM    DATA     BYTE      P6
      000000C8H   SFRSYM    DATA     BYTE      P5
      000000C0H   SFRSYM    DATA     BYTE      P4
      000000B0H   SFRSYM    DATA     BYTE      P3
      000000A0H   SFRSYM    DATA     BYTE      P2
      00000090H   SFRSYM    DATA     BYTE      P1
      00000080H   SFRSYM    DATA     BYTE      P0

      00FF5A62H   BLOCK     CODE     ---       LVL=0
      REG=2       REGSYM    ---      ---       PID_Struct
      DR4         REGSYM    ---      FLOAT     Kp
      00000317H   SYMBOL    EDATA    FLOAT     Ki
      0000031BH   SYMBOL    EDATA    FLOAT     Kd
      0000031FH   SYMBOL    EDATA    FLOAT     Out_Limit
      00000323H   SYMBOL    EDATA    FLOAT     Integral_Limit
      00FF5A62H   LINE      CODE     ---       #10
      00FF5A64H   LINE      CODE     ---       #12
      00FF5A6CH   LINE      CODE     ---       #13
      00FF5A78H   LINE      CODE     ---       #14
      00FF5A84H   LINE      CODE     ---       #16
      00FF5A8DH   LINE      CODE     ---       #17
      00FF5A95H   LINE      CODE     ---       #19
      00FF5A9DH   LINE      CODE     ---       #20
      00FF5AA9H   LINE      CODE     ---       #21
      00FF5AB5H   LINE      CODE     ---       #22
      ---         BLOCKEND  ---      ---       LVL=0

      00FF4C7EH   BLOCK     CODE     ---       LVL=0
      REG=3       REGSYM    ---      ---       PID_Struct
      DR28        REGSYM    ---      FLOAT     Exp_Val
      00000317H   SYMBOL    EDATA    FLOAT     Act_Val
      00FF4C7EH   LINE      CODE     ---       #24
      00FF4C82H   LINE      CODE     ---       #26
      00FF4C90H   LINE      CODE     ---       #27
      00FF4CAEH   LINE      CODE     ---       #28
      00FF4CC6H   LINE      CODE     ---       #29
      00FF4D1BH   LINE      CODE     ---       #33
      00FF4D33H   LINE      CODE     ---       #34
L251 LINKER/LOCATER V4.66.93.0                                                        03/07/2024  21:02:42  PAGE 73


      00FF4D42H   LINE      CODE     ---       #35
      ---         BLOCKEND  ---      ---       LVL=0

      ---         MODULE    ---      ---       MPU6050
      00FF645AH   PUBLIC    CODE     ---       i2c_nack
      00FF655FH   PUBLIC    CODE     ---       Delay1ms
      00FF534EH   PUBLIC    CODE     ---       loadfirmware
      00FF6409H   PUBLIC    CODE     ---       i2c_ack
      00FF646CH   PUBLIC    CODE     ---       i2c_start
      00FF56A6H   PUBLIC    CODE     ---       i2c_read_bits
      00FF5F76H   PUBLIC    CODE     ---       i2c_read_byte
      00FF577AH   PUBLIC    CODE     ---       xdmpUpdates
      00FF595EH   PUBLIC    CODE     ---       MPU_Get_Gyroscope
      00FF6049H   PUBLIC    CODE     ---       i2c_read_bit
      00FF54CCH   PUBLIC    CODE     ---       i2c_mem_read
      00FF4DFDH   PUBLIC    CODE     ---       loadcfgupd
      00FF001EH   PUBLIC    CODE     ---       I2C_SDA_H
      00FF544FH   PUBLIC    CODE     ---       i2c_write_bits
      00FF6311H   PUBLIC    CODE     ---       getDeviceID
      00FF0056H   PUBLIC    CODE     ---       I2C_SDA_L
      00FF607CH   PUBLIC    CODE     ---       i2c_write_byte
      00FF6194H   PUBLIC    CODE     ---       i2c_wait_ack
      00FF64D1H   PUBLIC    CODE     ---       i2c_stop
      00FF005EH   PUBLIC    CODE     ---       I2C_SCL_H
      00FF0086H   PUBLIC    CODE     ---       I2C_SCL_L
      00FF5902H   PUBLIC    CODE     ---       i2c_write_bit
      00FF5845H   PUBLIC    CODE     ---       i2c_mem_write
      00FF3A7BH   PUBLIC    CODE     ---       MPU6050_Refresh_DMP
      00FF0046H   PUBLIC    CODE     ---       MPU_Read_Bits
      00FF6569H   PUBLIC    CODE     ---       MPU_Read_Bit
      00FF6533H   PUBLIC    CODE     ---       MPU_Read_Len
      00FF0006H   PUBLIC    CODE     ---       I2C_SDA_Read
      00FF650CH   PUBLIC    CODE     ---       MPU_Write_Bits
      00FF641EH   PUBLIC    CODE     ---       MPU_Write_Byte
      00FF3D15H   PUBLIC    CODE     ---       dmpInitialize
      00FF653EH   PUBLIC    CODE     ---       i2c_timeout_delay
      00FF64E0H   PUBLIC    CODE     ---       readdmp
      00FF6519H   PUBLIC    CODE     ---       MPU_Write_Bit
      00FF6549H   PUBLIC    CODE     ---       MPU_Write_Len
      00FF6433H   PUBLIC    CODE     ---       MPU_Delay_Ms
      00FF6554H   PUBLIC    CODE     ---       i2c_delay
      00FF0026H   PUBLIC    CODE     ---       getFIFOCount
      00FF60AFH   PUBLIC    CODE     ---       initMPU6050
      00FF62CCH   PUBLIC    CODE     ---       MPU6050_DMP_Init
      00000418H   PUBLIC    EDATA    FLOAT     z_add
      0000041CH   PUBLIC    EDATA    FLOAT     z_last
      00000420H   PUBLIC    EDATA    FLOAT     Roll
      00000424H   PUBLIC    EDATA    FLOAT     x1
      00000428H   PUBLIC    EDATA    FLOAT     y1
      0000042CH   PUBLIC    EDATA    FLOAT     z1
      00000430H   PUBLIC    EDATA    FLOAT     z_now
      00000434H   PUBLIC    EDATA    FLOAT     Yaw
      00000438H   PUBLIC    EDATA    ---       Q
      00000448H   PUBLIC    EDATA    ---       dmpdatas
      00000472H   PUBLIC    EDATA    CHAR      mpu_state
      00000473H   PUBLIC    EDATA    FLOAT     Pitch
      00FF1A26H   PUBLIC    CODE     ---       dmpUpdates
      00FF1A55H   PUBLIC    CODE     ---       dmpcfgupddata
      00FF1B15H   PUBLIC    CODE     ---       dmpmemorydata
      00000313H   PUBLIC    EDATA    BYTE      ?MPU_Get_Gyroscope?BYTE
      000000D0H   SFRSYM    DATA     BYTE      PSW
      000000B7H   SFRSYM    DATA     BYTE      IPH
      000000C8H.1 SFRSYM    DATA     BIT       P51
      00000088H   SFRSYM    DATA     BYTE      TCON
      000000C8H.0 SFRSYM    DATA     BIT       P50
L251 LINKER/LOCATER V4.66.93.0                                                        03/07/2024  21:02:42  PAGE 74


      00000098H   SFRSYM    DATA     BYTE      SCON
      000000BCH   SFRSYM    DATA     BYTE      ADC_CONTR
      000000DEH   SFRSYM    DATA     BYTE      ADCCFG
      000000B8H   SFRSYM    DATA     BYTE      IP
      000000A8H   SFRSYM    DATA     BYTE      IE
      000000F8H   SFRSYM    DATA     BYTE      P7
      000000E8H   SFRSYM    DATA     BYTE      P6
      000000C8H   SFRSYM    DATA     BYTE      P5
      000000C0H   SFRSYM    DATA     BYTE      P4
      000000B0H   SFRSYM    DATA     BYTE      P3
      000000A0H   SFRSYM    DATA     BYTE      P2
      00000090H   SFRSYM    DATA     BYTE      P1
      00000080H   SFRSYM    DATA     BYTE      P0

      00FF653EH   BLOCK     CODE     ---       LVL=0
      R10         REGSYM    ---      CHAR      i
      00FF653EH   LINE      CODE     ---       #10
      00FF653EH   LINE      CODE     ---       #11
      00FF653EH   LINE      CODE     ---       #13
      00FF6541H   LINE      CODE     ---       #14
      00FF6548H   LINE      CODE     ---       #15
      ---         BLOCKEND  ---      ---       LVL=0

      00FF6554H   BLOCK     CODE     ---       LVL=0
      R10         REGSYM    ---      CHAR      i
      00FF6554H   LINE      CODE     ---       #17
      00FF6554H   LINE      CODE     ---       #18
      00FF6554H   LINE      CODE     ---       #20
      00FF6557H   LINE      CODE     ---       #21
      00FF655EH   LINE      CODE     ---       #22
      ---         BLOCKEND  ---      ---       LVL=0

      00FF005EH   BLOCK     CODE     ---       LVL=0
      00FF005EH   LINE      CODE     ---       #25
      00FF005EH   LINE      CODE     ---       #27
      00FF0060H   LINE      CODE     ---       #28
      ---         BLOCKEND  ---      ---       LVL=0

      00FF0086H   BLOCK     CODE     ---       LVL=0
      00FF0086H   LINE      CODE     ---       #31
      00FF0086H   LINE      CODE     ---       #33
      00FF0088H   LINE      CODE     ---       #34
      ---         BLOCKEND  ---      ---       LVL=0

      00FF001EH   BLOCK     CODE     ---       LVL=0
      00FF001EH   LINE      CODE     ---       #37
      00FF001EH   LINE      CODE     ---       #39
      00FF0020H   LINE      CODE     ---       #40
      ---         BLOCKEND  ---      ---       LVL=0

      00FF0056H   BLOCK     CODE     ---       LVL=0
      00FF0056H   LINE      CODE     ---       #43
      00FF0056H   LINE      CODE     ---       #45
      00FF0058H   LINE      CODE     ---       #46
      ---         BLOCKEND  ---      ---       LVL=0

      00FF0006H   BLOCK     CODE     ---       LVL=0
      00FF0006H   LINE      CODE     ---       #49
      00FF0006H   LINE      CODE     ---       #51
      00FF000AH   LINE      CODE     ---       #52
      ---         BLOCKEND  ---      ---       LVL=0

      00FF646CH   BLOCK     CODE     ---       LVL=0
      00FF646CH   LINE      CODE     ---       #60
      00FF646CH   LINE      CODE     ---       #62
L251 LINKER/LOCATER V4.66.93.0                                                        03/07/2024  21:02:42  PAGE 75


      00FF646FH   LINE      CODE     ---       #63
      00FF6472H   LINE      CODE     ---       #64
      00FF6475H   LINE      CODE     ---       #66
      00FF6478H   LINE      CODE     ---       #67
      00FF647BH   LINE      CODE     ---       #68
      ---         BLOCKEND  ---      ---       LVL=0

      00FF64D1H   BLOCK     CODE     ---       LVL=0
      00FF64D1H   LINE      CODE     ---       #77
      00FF64D1H   LINE      CODE     ---       #79
      00FF64D4H   LINE      CODE     ---       #80
      00FF64D7H   LINE      CODE     ---       #81
      00FF64DAH   LINE      CODE     ---       #83
      00FF64DDH   LINE      CODE     ---       #84
      ---         BLOCKEND  ---      ---       LVL=0

      00FF6409H   BLOCK     CODE     ---       LVL=0
      00FF6409H   LINE      CODE     ---       #93
      00FF6409H   LINE      CODE     ---       #95
      00FF640CH   LINE      CODE     ---       #96
      00FF640FH   LINE      CODE     ---       #97
      00FF6412H   LINE      CODE     ---       #99
      00FF6415H   LINE      CODE     ---       #100
      00FF6418H   LINE      CODE     ---       #101
      00FF641BH   LINE      CODE     ---       #102
      ---         BLOCKEND  ---      ---       LVL=0

      00FF645AH   BLOCK     CODE     ---       LVL=0
      00FF645AH   LINE      CODE     ---       #111
      00FF645AH   LINE      CODE     ---       #113
      00FF645DH   LINE      CODE     ---       #114
      00FF6460H   LINE      CODE     ---       #115
      00FF6463H   LINE      CODE     ---       #117
      00FF6466H   LINE      CODE     ---       #118
      00FF6469H   LINE      CODE     ---       #119
      ---         BLOCKEND  ---      ---       LVL=0

      00FF6194H   BLOCK     CODE     ---       LVL=0
      00FF6196H   BLOCK     CODE     NEAR LAB  LVL=1
      WR14        REGSYM    ---      WORD      time_temp
      ---         BLOCKEND  ---      ---       LVL=1
      00FF6194H   LINE      CODE     ---       #129
      00FF6196H   LINE      CODE     ---       #130
      00FF6196H   LINE      CODE     ---       #131
      00FF6198H   LINE      CODE     ---       #133
      00FF619BH   LINE      CODE     ---       #134
      00FF619EH   LINE      CODE     ---       #135
      00FF61A0H   LINE      CODE     ---       #137
      00FF61A2H   LINE      CODE     ---       #138
      00FF61A5H   LINE      CODE     ---       #139
      00FF61ABH   LINE      CODE     ---       #141
      00FF61AEH   LINE      CODE     ---       #142
      00FF61B2H   LINE      CODE     ---       #143
      00FF61B7H   LINE      CODE     ---       #145
      00FF61BAH   LINE      CODE     ---       #146
      00FF61BBH   LINE      CODE     ---       #147
      ---         BLOCKEND  ---      ---       LVL=0

      00FF607CH   BLOCK     CODE     ---       LVL=0
      R15         REGSYM    ---      BYTE      dat
      00FF6080H   BLOCK     CODE     NEAR LAB  LVL=1
      R14         REGSYM    ---      BYTE      i
      ---         BLOCKEND  ---      ---       LVL=1
      00FF607CH   LINE      CODE     ---       #155
      00FF6080H   LINE      CODE     ---       #156
L251 LINKER/LOCATER V4.66.93.0                                                        03/07/2024  21:02:42  PAGE 76


      00FF6080H   LINE      CODE     ---       #157
      00FF6080H   LINE      CODE     ---       #159
      00FF6083H   LINE      CODE     ---       #160
      00FF6086H   LINE      CODE     ---       #162
      00FF608FH   LINE      CODE     ---       #163
      00FF6094H   LINE      CODE     ---       #165
      00FF6097H   LINE      CODE     ---       #166
      00FF6099H   LINE      CODE     ---       #167
      00FF609CH   LINE      CODE     ---       #168
      00FF609FH   LINE      CODE     ---       #169
      00FF60A2H   LINE      CODE     ---       #170
      00FF60A5H   LINE      CODE     ---       #171
      00FF60A8H   LINE      CODE     ---       #172
      00FF60ACH   LINE      CODE     ---       #173
      ---         BLOCKEND  ---      ---       LVL=0

      00FF5F76H   BLOCK     CODE     ---       LVL=0
      R15         REGSYM    ---      BYTE      ack
      00FF5F7CH   BLOCK     CODE     NEAR LAB  LVL=1
      R13         REGSYM    ---      BYTE      i
      R14         REGSYM    ---      BYTE      receive
      ---         BLOCKEND  ---      ---       LVL=1
      00FF5F76H   LINE      CODE     ---       #181
      00FF5F7CH   LINE      CODE     ---       #182
      00FF5F7CH   LINE      CODE     ---       #183
      00FF5F7EH   LINE      CODE     ---       #185
      00FF5F81H   LINE      CODE     ---       #187
      00FF5F84H   LINE      CODE     ---       #188
      00FF5F87H   LINE      CODE     ---       #189
      00FF5F8AH   LINE      CODE     ---       #190
      00FF5F8CH   LINE      CODE     ---       #191
      00FF5F91H   LINE      CODE     ---       #192
      00FF5F93H   LINE      CODE     ---       #193
      00FF5F96H   LINE      CODE     ---       #194
      00FF5F9AH   LINE      CODE     ---       #195
      00FF5F9EH   LINE      CODE     ---       #196
      00FF5FA3H   LINE      CODE     ---       #198
      00FF5FA6H   LINE      CODE     ---       #200
      00FF5FA8H   LINE      CODE     ---       #201
      ---         BLOCKEND  ---      ---       LVL=0

      00FF5845H   BLOCK     CODE     ---       LVL=0
      00000320H   SYMBOL    EDATA    BYTE      DevAddress
      00000321H   SYMBOL    EDATA    BYTE      MemAddress
      REG=3       REGSYM    ---      ---       pData
      00000322H   SYMBOL    EDATA    WORD      Len
      00FF5845H   LINE      CODE     ---       #209
      00FF5855H   LINE      CODE     ---       #211
      00FF5858H   LINE      CODE     ---       #212
      00FF5861H   LINE      CODE     ---       #213
      00FF5866H   LINE      CODE     ---       #214
      00FF586AH   LINE      CODE     ---       #215
      00FF5871H   LINE      CODE     ---       #216
      00FF5876H   LINE      CODE     ---       #217
      00FF587AH   LINE      CODE     ---       #218
      00FF587CH   LINE      CODE     ---       #220
      00FF5884H   LINE      CODE     ---       #221
      00FF5889H   LINE      CODE     ---       #222
      00FF588DH   LINE      CODE     ---       #223
      00FF589DH   LINE      CODE     ---       #224
      00FF58A0H   LINE      CODE     ---       #225
      00FF58A1H   LINE      CODE     ---       #226
      ---         BLOCKEND  ---      ---       LVL=0

      00FF54CCH   BLOCK     CODE     ---       LVL=0
L251 LINKER/LOCATER V4.66.93.0                                                        03/07/2024  21:02:42  PAGE 77


      00000325H   SYMBOL    EDATA    BYTE      DevAddress
      00000326H   SYMBOL    EDATA    BYTE      MemAddress
      REG=3       REGSYM    ---      ---       pBuffer
      00000327H   SYMBOL    EDATA    WORD      Len
      00FF54CCH   LINE      CODE     ---       #234
      00FF54DCH   LINE      CODE     ---       #236
      00FF54DFH   LINE      CODE     ---       #237
      00FF54E8H   LINE      CODE     ---       #238
      00FF54EDH   LINE      CODE     ---       #239
      00FF54F1H   LINE      CODE     ---       #240
      00FF54F8H   LINE      CODE     ---       #241
      00FF54FDH   LINE      CODE     ---       #242
      00FF5501H   LINE      CODE     ---       #243
      00FF5504H   LINE      CODE     ---       #244
      00FF550FH   LINE      CODE     ---       #245
      00FF5514H   LINE      CODE     ---       #246
      00FF5518H   LINE      CODE     ---       #247
      00FF551AH   LINE      CODE     ---       #249
      00FF552FH   LINE      CODE     ---       #250
      00FF553FH   LINE      CODE     ---       #251
      00FF5542H   LINE      CODE     ---       #252
      00FF5543H   LINE      CODE     ---       #253
      ---         BLOCKEND  ---      ---       LVL=0

      00FF5902H   BLOCK     CODE     ---       LVL=0
      R13         REGSYM    ---      BYTE      DevAddress
      R14         REGSYM    ---      BYTE      addr
      R15         REGSYM    ---      BYTE      bitNum
      R12         REGSYM    ---      BYTE      Data
      00FF590CH   BLOCK     CODE     NEAR LAB  LVL=1
      0000031DH   SYMBOL    EDATA    BYTE      b
      ---         BLOCKEND  ---      ---       LVL=1
      00FF5902H   LINE      CODE     ---       #262
      00FF590CH   LINE      CODE     ---       #263
      00FF590CH   LINE      CODE     ---       #265
      00FF5919H   LINE      CODE     ---       #267
      00FF5948H   LINE      CODE     ---       #268
      00FF5959H   LINE      CODE     ---       #269
      00FF5959H   LINE      CODE     ---       #271
      00FF595BH   LINE      CODE     ---       #272
      ---         BLOCKEND  ---      ---       LVL=0

      00FF544FH   BLOCK     CODE     ---       LVL=0
      0000031DH   SYMBOL    EDATA    BYTE      DevAddress
      R12         REGSYM    ---      BYTE      addr
      R13         REGSYM    ---      BYTE      bitStart
      R14         REGSYM    ---      BYTE      length
      R15         REGSYM    ---      BYTE      Data
      00FF545DH   BLOCK     CODE     NEAR LAB  LVL=1
      00000477H   SYMBOL    EDATA    BYTE      b
      00000478H   SYMBOL    EDATA    BYTE      mask
      ---         BLOCKEND  ---      ---       LVL=1
      00FF544FH   LINE      CODE     ---       #282
      00FF545DH   LINE      CODE     ---       #283
      00FF545DH   LINE      CODE     ---       #292
      00FF546AH   LINE      CODE     ---       #294
      00FF5490H   LINE      CODE     ---       #295
      00FF5499H   LINE      CODE     ---       #296
      00FF549BH   LINE      CODE     ---       #297
      00FF54AAH   LINE      CODE     ---       #298
      00FF54B4H   LINE      CODE     ---       #300
      00FF54C7H   LINE      CODE     ---       #301
      00FF54C7H   LINE      CODE     ---       #303
      00FF54C9H   LINE      CODE     ---       #304
      ---         BLOCKEND  ---      ---       LVL=0
L251 LINKER/LOCATER V4.66.93.0                                                        03/07/2024  21:02:42  PAGE 78



      00FF6049H   BLOCK     CODE     ---       LVL=0
      R11         REGSYM    ---      BYTE      DevAddress
      R10         REGSYM    ---      BYTE      addr
      0000031DH   SYMBOL    EDATA    BYTE      bitNum
      REG=3       REGSYM    ---      ---       Data
      00FF6051H   BLOCK     CODE     NEAR LAB  LVL=1
      0000031EH   SYMBOL    EDATA    BYTE      b
      ---         BLOCKEND  ---      ---       LVL=1
      00FF6049H   LINE      CODE     ---       #312
      00FF6051H   LINE      CODE     ---       #313
      00FF6051H   LINE      CODE     ---       #315
      00FF605EH   LINE      CODE     ---       #317
      00FF6074H   LINE      CODE     ---       #318
      00FF6077H   LINE      CODE     ---       #319
      00FF6077H   LINE      CODE     ---       #322
      00FF6079H   LINE      CODE     ---       #323
      00FF6079H   LINE      CODE     ---       #324
      ---         BLOCKEND  ---      ---       LVL=0

      00FF56A6H   BLOCK     CODE     ---       LVL=0
      R11         REGSYM    ---      BYTE      DevAddress
      R10         REGSYM    ---      BYTE      addr
      R14         REGSYM    ---      BYTE      bitStart
      R15         REGSYM    ---      BYTE      length
      0000031DH   SYMBOL    EDATA    ---       Data
      00FF56B0H   BLOCK     CODE     NEAR LAB  LVL=1
      00000479H   SYMBOL    EDATA    BYTE      b
      0000047AH   SYMBOL    EDATA    BYTE      mask
      ---         BLOCKEND  ---      ---       LVL=1
      00FF56A6H   LINE      CODE     ---       #333
      00FF56B0H   LINE      CODE     ---       #334
      00FF56B0H   LINE      CODE     ---       #341
      00FF56BDH   LINE      CODE     ---       #344
      00FF56DFH   LINE      CODE     ---       #345
      00FF56E7H   LINE      CODE     ---       #346
      00FF56FEH   LINE      CODE     ---       #347
      00FF5709H   LINE      CODE     ---       #348
      00FF570CH   LINE      CODE     ---       #349
      00FF570CH   LINE      CODE     ---       #351
      00FF570EH   LINE      CODE     ---       #352
      ---         BLOCKEND  ---      ---       LVL=0

      00FF655FH   BLOCK     CODE     ---       LVL=0
      DR4         REGSYM    ---      DWORD     i
      00FF655FH   LINE      CODE     ---       #356
      00FF655FH   LINE      CODE     ---       #357
      00FF655FH   LINE      CODE     ---       #359
      00FF6560H   LINE      CODE     ---       #360
      00FF6564H   LINE      CODE     ---       #361
      00FF6568H   LINE      CODE     ---       #362
      ---         BLOCKEND  ---      ---       LVL=0

      00FF6433H   BLOCK     CODE     ---       LVL=0
      WR14        REGSYM    ---      WORD      Milliseconds
      00FF6433H   LINE      CODE     ---       #365
      00FF6437H   LINE      CODE     ---       #367
      00FF6444H   LINE      CODE     ---       #369
      ---         BLOCKEND  ---      ---       LVL=0

      00FF6549H   BLOCK     CODE     ---       LVL=0
      R7          REGSYM    ---      BYTE      reg
      R6          REGSYM    ---      BYTE      len
      REG=0       REGSYM    ---      ---       buf
      00FF6549H   LINE      CODE     ---       #377
L251 LINKER/LOCATER V4.66.93.0                                                        03/07/2024  21:02:42  PAGE 79


      00FF654DH   LINE      CODE     ---       #379
      ---         BLOCKEND  ---      ---       LVL=0

      00FF6533H   BLOCK     CODE     ---       LVL=0
      R7          REGSYM    ---      BYTE      reg
      R6          REGSYM    ---      BYTE      len
      REG=0       REGSYM    ---      ---       buf
      00FF6533H   LINE      CODE     ---       #388
      00FF6537H   LINE      CODE     ---       #390
      ---         BLOCKEND  ---      ---       LVL=0

      00FF641EH   BLOCK     CODE     ---       LVL=0
      R10         REGSYM    ---      BYTE      reg
      0000031FH   SYMBOL    EDATA    BYTE      Data
      00FF641EH   LINE      CODE     ---       #398
      00FF6424H   LINE      CODE     ---       #400
      ---         BLOCKEND  ---      ---       LVL=0
      R10         REGSYM    ---      BYTE      reg

      00FF6519H   BLOCK     CODE     ---       LVL=0
      R7          REGSYM    ---      BYTE      addr
      R6          REGSYM    ---      BYTE      bitNum
      R10         REGSYM    ---      BYTE      Data
      00FF6519H   LINE      CODE     ---       #414
      00FF651FH   LINE      CODE     ---       #416
      ---         BLOCKEND  ---      ---       LVL=0

      00FF650CH   BLOCK     CODE     ---       LVL=0
      R7          REGSYM    ---      BYTE      addr
      R6          REGSYM    ---      BYTE      bitStart
      R5          REGSYM    ---      BYTE      length
      R4          REGSYM    ---      BYTE      Data
      00FF650CH   LINE      CODE     ---       #420
      00FF6514H   LINE      CODE     ---       #422
      ---         BLOCKEND  ---      ---       LVL=0

      00FF6569H   BLOCK     CODE     ---       LVL=0
      R7          REGSYM    ---      BYTE      addr
      R6          REGSYM    ---      BYTE      bitNum
      REG=0       REGSYM    ---      ---       Data
      00FF6569H   LINE      CODE     ---       #426
      00FF656DH   LINE      CODE     ---       #428
      ---         BLOCKEND  ---      ---       LVL=0

      00FF0046H   BLOCK     CODE     ---       LVL=0
      R7          REGSYM    ---      BYTE      addr
      R6          REGSYM    ---      BYTE      bitStart
      R10         REGSYM    ---      BYTE      length
      REG=0       REGSYM    ---      ---       Data
      00FF0046H   LINE      CODE     ---       #432
      00FF004CH   LINE      CODE     ---       #434
      ---         BLOCKEND  ---      ---       LVL=0
      R11         REGSYM    ---      BYTE      res
      R10         REGSYM    ---      BYTE      fsr
      R10         REGSYM    ---      BYTE      fsr
      WR6         REGSYM    ---      WORD      lpf
      R10         REGSYM    ---      BYTE      Data
      WR14        REGSYM    ---      WORD      rate
      0000047BH   SYMBOL    EDATA    BYTE      Data
      WR4         REGSYM    ---      INT       raw
      DR4         REGSYM    ---      FLOAT     temp

      00FF595EH   BLOCK     CODE     ---       LVL=0
      00000317H   SYMBOL    EDATA    ---       gx
      REG=3       REGSYM    ---      ---       gy
L251 LINKER/LOCATER V4.66.93.0                                                        03/07/2024  21:02:42  PAGE 80


      0000031BH   SYMBOL    EDATA    ---       gz
      00FF5966H   BLOCK     CODE     NEAR LAB  LVL=1
      0000031FH   SYMBOL    EDATA    ---       buf
      R11         REGSYM    ---      BYTE      res
      ---         BLOCKEND  ---      ---       LVL=1
      00FF595EH   LINE      CODE     ---       #543
      00FF5966H   LINE      CODE     ---       #544
      00FF5966H   LINE      CODE     ---       #546
      00FF5972H   LINE      CODE     ---       #547
      00FF5974H   LINE      CODE     ---       #549
      00FF598BH   LINE      CODE     ---       #550
      00FF599EH   LINE      CODE     ---       #551
      00FF59B3H   LINE      CODE     ---       #552
      00FF59B3H   LINE      CODE     ---       #553
      00FF59B3H   LINE      CODE     ---       #554
      ---         BLOCKEND  ---      ---       LVL=0
      REG=3       REGSYM    ---      ---       ay
      R11         REGSYM    ---      BYTE      res

      00FF534EH   BLOCK     CODE     ---       LVL=0
      00FF5350H   BLOCK     CODE     NEAR LAB  LVL=1
      WR14        REGSYM    ---      WORD      datanum
      0000031DH   SYMBOL    EDATA    BYTE      ye
      0000031EH   SYMBOL    EDATA    BYTE      i
      R12         REGSYM    ---      BYTE      bank
      R13         REGSYM    ---      BYTE      addr
      ---         BLOCKEND  ---      ---       LVL=1
      00FF534EH   LINE      CODE     ---       #790
      00FF5350H   LINE      CODE     ---       #791
      00FF5350H   LINE      CODE     ---       #792
      00FF5352H   LINE      CODE     ---       #794
      00FF5354H   LINE      CODE     ---       #795
      00FF5356H   LINE      CODE     ---       #797
      00FF5356H   LINE      CODE     ---       #799
      00FF535BH   LINE      CODE     ---       #800
      00FF535FH   LINE      CODE     ---       #802
      00FF5365H   LINE      CODE     ---       #803
      00FF5368H   LINE      CODE     ---       #805
      00FF536FH   LINE      CODE     ---       #806
      00FF5376H   LINE      CODE     ---       #807
      00FF5388H   LINE      CODE     ---       #808
      00FF538CH   LINE      CODE     ---       #809
      00FF538FH   LINE      CODE     ---       #810
      00FF53A2H   LINE      CODE     ---       #811
      00FF53A9H   LINE      CODE     ---       #812
      00FF53B1H   LINE      CODE     ---       #813
      00FF53B8H   LINE      CODE     ---       #814
      00FF53CAH   LINE      CODE     ---       #815
      00FF53CAH   LINE      CODE     ---       #816
      00FF53CCH   LINE      CODE     ---       #817
      ---         BLOCKEND  ---      ---       LVL=0

      00FF4DFDH   BLOCK     CODE     ---       LVL=0
      00FF4DFFH   BLOCK     CODE     NEAR LAB  LVL=1
      R14         REGSYM    ---      BYTE      line
      0000031DH   SYMBOL    EDATA    BYTE      bank
      R15         REGSYM    ---      BYTE      datacounts
      R13         REGSYM    ---      BYTE      bytes2write
      0000031EH   SYMBOL    EDATA    BYTE      offset
      0000047CH   SYMBOL    EDATA    BYTE      writingcounts
      R12         REGSYM    ---      BYTE      special
      ---         BLOCKEND  ---      ---       LVL=1
      00FF4DFDH   LINE      CODE     ---       #819
      00FF4DFFH   LINE      CODE     ---       #820
      00FF4DFFH   LINE      CODE     ---       #823
L251 LINKER/LOCATER V4.66.93.0                                                        03/07/2024  21:02:42  PAGE 81


      00FF4E01H   LINE      CODE     ---       #829
      00FF4E04H   LINE      CODE     ---       #831
      00FF4E1AH   LINE      CODE     ---       #832
      00FF4E30H   LINE      CODE     ---       #833
      00FF4E44H   LINE      CODE     ---       #834
      00FF4E4DH   LINE      CODE     ---       #835
      00FF4E56H   LINE      CODE     ---       #836
      00FF4E67H   LINE      CODE     ---       #837
      00FF4E6BH   LINE      CODE     ---       #838
      00FF4E6DH   LINE      CODE     ---       #839
      00FF4E71H   LINE      CODE     ---       #841
      00FF4E85H   LINE      CODE     ---       #842
      00FF4E8AH   LINE      CODE     ---       #847
      00FF4E92H   LINE      CODE     ---       #848
      00FF4E94H   LINE      CODE     ---       #850
      00FF4E97H   LINE      CODE     ---       #851
      00FF4E9EH   LINE      CODE     ---       #853
      00FF4EA0H   LINE      CODE     ---       #854
      ---         BLOCKEND  ---      ---       LVL=0

      00FF577AH   BLOCK     CODE     ---       LVL=0
      R15         REGSYM    ---      BYTE      datacounts
      00FF5780H   BLOCK     CODE     NEAR LAB  LVL=1
      0000047DH   SYMBOL    EDATA    BYTE      writingcounts
      R7          REGSYM    ---      BYTE      bank
      R13         REGSYM    ---      BYTE      offset
      R14         REGSYM    ---      BYTE      bytes2write
      ---         BLOCKEND  ---      ---       LVL=1
      00FF577AH   LINE      CODE     ---       #857
      00FF5780H   LINE      CODE     ---       #858
      00FF5780H   LINE      CODE     ---       #862
      00FF5792H   LINE      CODE     ---       #863
      00FF57A6H   LINE      CODE     ---       #864
      00FF57BAH   LINE      CODE     ---       #865
      00FF57BFH   LINE      CODE     ---       #866
      00FF57C6H   LINE      CODE     ---       #867
      00FF57D7H   LINE      CODE     ---       #868
      00FF57DBH   LINE      CODE     ---       #869
      00FF57DBH   LINE      CODE     ---       #870
      00FF57DDH   LINE      CODE     ---       #871
      ---         BLOCKEND  ---      ---       LVL=0

      00FF0026H   BLOCK     CODE     ---       LVL=0
      0000031DH   SYMBOL    EDATA    ---       i
      00FF0026H   LINE      CODE     ---       #875
      00FF0026H   LINE      CODE     ---       #876
      00FF0026H   LINE      CODE     ---       #878
      00FF0032H   LINE      CODE     ---       #879
      00FF0042H   LINE      CODE     ---       #880
      ---         BLOCKEND  ---      ---       LVL=0

      00FF64E0H   BLOCK     CODE     ---       LVL=0
      REG=7       REGSYM    ---      ---       Data
      00FF64E0H   LINE      CODE     ---       #886
      00FF64E0H   LINE      CODE     ---       #888
      00FF64EEH   LINE      CODE     ---       #889
      ---         BLOCKEND  ---      ---       LVL=0

      00FF3D15H   BLOCK     CODE     ---       LVL=0
      00000317H   SYMBOL    EDATA    BYTE      hwRevision
      00000318H   SYMBOL    EDATA    BYTE      otpValid
      00000319H   SYMBOL    EDATA    BYTE      mpuIntStatus
      0000031AH   SYMBOL    EDATA    BYTE      xgOffsetTC
      0000031BH   SYMBOL    EDATA    BYTE      ygOffsetTC
      0000031CH   SYMBOL    EDATA    BYTE      zgOffsetTC
L251 LINKER/LOCATER V4.66.93.0                                                        03/07/2024  21:02:42  PAGE 82


      0000047EH   SYMBOL    EDATA    WORD      fifoCount
      00FF3D15H   LINE      CODE     ---       #892
      00FF3D15H   LINE      CODE     ---       #893
      00FF3D15H   LINE      CODE     ---       #897
      00FF3D20H   LINE      CODE     ---       #898
      00FF3D27H   LINE      CODE     ---       #899
      00FF3D31H   LINE      CODE     ---       #900
      00FF3D39H   LINE      CODE     ---       #901
      00FF3D41H   LINE      CODE     ---       #902
      00FF3D4DH   LINE      CODE     ---       #903
      00FF3D54H   LINE      CODE     ---       #904
      00FF3D5EH   LINE      CODE     ---       #905
      00FF3D6CH   LINE      CODE     ---       #906
      00FF3D7BH   LINE      CODE     ---       #907
      00FF3D8AH   LINE      CODE     ---       #911
      00FF3D95H   LINE      CODE     ---       #912
      00FF3D9CH   LINE      CODE     ---       #913
      00FF3DA1H   LINE      CODE     ---       #914
      00FF3DA3H   LINE      CODE     ---       #915
      00FF3DA8H   LINE      CODE     ---       #916
      00FF3DAAH   LINE      CODE     ---       #917
      00FF3DB8H   LINE      CODE     ---       #918
      00FF3DC0H   LINE      CODE     ---       #919
      00FF3DC8H   LINE      CODE     ---       #920
      00FF3DD6H   LINE      CODE     ---       #921
      00FF3DE4H   LINE      CODE     ---       #922
      00FF3DF2H   LINE      CODE     ---       #923
      00FF3DFAH   LINE      CODE     ---       #924
      00FF3E01H   LINE      CODE     ---       #925
      00FF3E09H   LINE      CODE     ---       #926
      00FF3E15H   LINE      CODE     ---       #927
      00FF3E22H   LINE      CODE     ---       #928
      00FF3E2FH   LINE      CODE     ---       #929
      00FF3E35H   LINE      CODE     ---       #930
      00FF3E37H   LINE      CODE     ---       #931
      00FF3E3EH   LINE      CODE     ---       #932
      00FF3E40H   LINE      CODE     ---       #933
      00FF3E4BH   LINE      CODE     ---       #934
      00FF3E52H   LINE      CODE     ---       #936
      00FF3E5DH   LINE      CODE     ---       #938
      00FF3E65H   LINE      CODE     ---       #939
      00FF3E6DH   LINE      CODE     ---       #940
      00FF3E75H   LINE      CODE     ---       #941
      00FF3E7CH   LINE      CODE     ---       #942
      00FF3E87H   LINE      CODE     ---       #943
      00FF3E92H   LINE      CODE     ---       #944
      00FF3E9DH   LINE      CODE     ---       #945
      00FF3EA8H   LINE      CODE     ---       #946
      00FF3EAFH   LINE      CODE     ---       #947
      00FF3EB1H   LINE      CODE     ---       #948
      00FF3EB8H   LINE      CODE     ---       #949
      00FF3EBAH   LINE      CODE     ---       #950
      00FF3EC1H   LINE      CODE     ---       #951
      00FF3EC3H   LINE      CODE     ---       #952
      00FF3ED0H   LINE      CODE     ---       #953
      00FF3EDBH   LINE      CODE     ---       #955
      00FF3EE7H   LINE      CODE     ---       #956
      00FF3EEEH   LINE      CODE     ---       #957
      00FF3EF0H   LINE      CODE     ---       #958
      00FF3EFDH   LINE      CODE     ---       #959
      00FF3F08H   LINE      CODE     ---       #961
      00FF3F14H   LINE      CODE     ---       #962
      00FF3F1BH   LINE      CODE     ---       #963
      00FF3F1DH   LINE      CODE     ---       #964
      00FF3F27H   LINE      CODE     ---       #965
L251 LINKER/LOCATER V4.66.93.0                                                        03/07/2024  21:02:42  PAGE 83


      00FF3F32H   LINE      CODE     ---       #966
      00FF3F3EH   LINE      CODE     ---       #968
      00FF3F40H   LINE      CODE     ---       #969
      ---         BLOCKEND  ---      ---       LVL=0

      00FF60AFH   BLOCK     CODE     ---       LVL=0
      00FF60AFH   LINE      CODE     ---       #972
      00FF60AFH   LINE      CODE     ---       #974
      00FF60BDH   LINE      CODE     ---       #975
      00FF60CAH   LINE      CODE     ---       #976
      00FF60D7H   LINE      CODE     ---       #977
      ---         BLOCKEND  ---      ---       LVL=0

      00FF6311H   BLOCK     CODE     ---       LVL=0
      00000317H   SYMBOL    EDATA    BYTE      b
      00FF6311H   LINE      CODE     ---       #981
      00FF6311H   LINE      CODE     ---       #982
      00FF6311H   LINE      CODE     ---       #983
      00FF6316H   LINE      CODE     ---       #984
      00FF6325H   LINE      CODE     ---       #985
      00FF6330H   LINE      CODE     ---       #987
      ---         BLOCKEND  ---      ---       LVL=0

      00FF62CCH   BLOCK     CODE     ---       LVL=0
      00FF62CCH   LINE      CODE     ---       #989
      00FF62CCH   LINE      CODE     ---       #991
      00FF62CFH   LINE      CODE     ---       #992
      00FF62D4H   LINE      CODE     ---       #993
      00FF62D9H   LINE      CODE     ---       #994
      00FF62E4H   LINE      CODE     ---       #995
      ---         BLOCKEND  ---      ---       LVL=0

      00FF3A7BH   BLOCK     CODE     ---       LVL=0
      00FF3A7DH   BLOCK     CODE     NEAR LAB  LVL=1
      00000480H   SYMBOL    EDATA    BYTE      zd
      00000481H   SYMBOL    EDATA    WORD      i
      ---         BLOCKEND  ---      ---       LVL=1
      00FF3A7BH   LINE      CODE     ---       #999
      00FF3A7DH   LINE      CODE     ---       #1000
      00FF3A7DH   LINE      CODE     ---       #1004
      00FF3A84H   LINE      CODE     ---       #1005
      00FF3A90H   LINE      CODE     ---       #1006
      00FF3AA3H   LINE      CODE     ---       #1008
      00FF3AAEH   LINE      CODE     ---       #1009
      00FF3AB1H   LINE      CODE     ---       #1010
      00FF3AB9H   LINE      CODE     ---       #1012
      00FF3ACCH   LINE      CODE     ---       #1014
      00FF3AD5H   LINE      CODE     ---       #1016
      00FF3AF3H   LINE      CODE     ---       #1017
      00FF3B0BH   LINE      CODE     ---       #1018
      00FF3B23H   LINE      CODE     ---       #1019
      00FF3B3BH   LINE      CODE     ---       #1020
      00FF3B3BH   LINE      CODE     ---       #1025
      00FF3B83H   LINE      CODE     ---       #1026
      00FF3BFAH   LINE      CODE     ---       #1027
      00FF3C7EH   LINE      CODE     ---       #1029
      00FF3C99H   LINE      CODE     ---       #1030
      00FF3CAFH   LINE      CODE     ---       #1032
      00FF3CBFH   LINE      CODE     ---       #1033
      00FF3CDEH   LINE      CODE     ---       #1034
      00FF3CFDH   LINE      CODE     ---       #1036
      00FF3D05H   LINE      CODE     ---       #1038
      00FF3D12H   LINE      CODE     ---       #1040
      ---         BLOCKEND  ---      ---       LVL=0

L251 LINKER/LOCATER V4.66.93.0                                                        03/07/2024  21:02:42  PAGE 84


      ---         MODULE    ---      ---       TOF
      00FF229EH   PUBLIC    CODE     ---       vl53l0x_init
      0000065FH   PUBLIC    EDATA    WORD      vl53l0x_distance_mm
      00000661H   PUBLIC    EDATA    BYTE      vl53l0x_finsh_flag
      000000D0H   SFRSYM    DATA     BYTE      PSW
      000000B7H   SFRSYM    DATA     BYTE      IPH
      000000C0H.7 SFRSYM    DATA     BIT       P47
      000000B0H.3 SFRSYM    DATA     BIT       P33
      00000088H   SFRSYM    DATA     BYTE      TCON
      000000B0H.2 SFRSYM    DATA     BIT       P32
      00000098H   SFRSYM    DATA     BYTE      SCON
      000000BCH   SFRSYM    DATA     BYTE      ADC_CONTR
      000000DEH   SFRSYM    DATA     BYTE      ADCCFG
      000000B8H   SFRSYM    DATA     BYTE      IP
      000000A8H   SFRSYM    DATA     BYTE      IE
      000000F8H   SFRSYM    DATA     BYTE      P7
      000000E8H   SFRSYM    DATA     BYTE      P6
      000000C8H   SFRSYM    DATA     BYTE      P5
      000000C0H   SFRSYM    DATA     BYTE      P4
      000000B0H   SFRSYM    DATA     BYTE      P3
      000000A0H   SFRSYM    DATA     BYTE      P2
      00000090H   SFRSYM    DATA     BYTE      P1
      00000080H   SFRSYM    DATA     BYTE      P0
      00FF6331H   SYMBOL    CODE     ---       vl53l0x_simiic_sendack
      00FF5EC6H   SYMBOL    CODE     ---       vl53l0x_timeout_microseconds_to_mclks
      00FF5E4BH   SYMBOL    CODE     ---       vl53l0x_timeout_mclks_to_microseconds
      00FF6239H   SYMBOL    CODE     ---       vl53l0x_set_signal_rate_limit
      00FF5F02H   SYMBOL    CODE     ---       vl53l0x_read_ch
      00FF64B1H   SYMBOL    CODE     ---       vl53l0x_decode_timeout
      00FF6110H   SYMBOL    CODE     ---       vl53l0x_send_ch
      00FF4100H   SYMBOL    CODE     ---       vl53l0x_get_spad_info
      00FF5FE2H   SYMBOL    CODE     ---       vl53l0x_encode_timeout
      00FF59B6H   SYMBOL    CODE     ---       vl53l0x_get_sequence_step_enables
      00FF0066H   SYMBOL    CODE     ---       vl53l0x_sccb_waitack
      00FF6526H   SYMBOL    CODE     ---       vl53l0x_simiic_delay
      00FF5546H   SYMBOL    CODE     ---       vl53l0x_perform_single_ref_calibration
      00FF4AC9H   SYMBOL    CODE     ---       vl53l0x_get_sequence_step_timeouts
      00FF64EFH   SYMBOL    CODE     ---       vl53l0x_simiic_start
      00FF5AB6H   SYMBOL    CODE     ---       vl53l0x_simiic_read_regs
      00FF5633H   SYMBOL    CODE     ---       vl53l0x_get_measurement_timing_budget
      00FF5FADH   SYMBOL    CODE     ---       vl53l0x_simiic_write_dats
      00FF6210H   SYMBOL    CODE     ---       vl53l0x_simiic_read_reg
      00FF4905H   SYMBOL    CODE     ---       vl53l0x_set_measurement_timing_budget
      00FF648FH   SYMBOL    CODE     ---       vl53l0x_simiic_stop
      00FF62EFH   SYMBOL    CODE     ---       vl53l0x_simiic_write_reg
      00FF5BA8H   SYMBOL    CODE     ---       vl53l0x_get_vcsel_pulse_period

      00FF6526H   BLOCK     CODE     ---       LVL=0
      WR6         REGSYM    ---      WORD      j
      00FF6526H   LINE      CODE     ---       #77
      00FF6526H   LINE      CODE     ---       #78
      00FF6526H   LINE      CODE     ---       #79
      00FF652AH   LINE      CODE     ---       #80
      00FF6532H   LINE      CODE     ---       #81
      ---         BLOCKEND  ---      ---       LVL=0

      00FF64EFH   BLOCK     CODE     ---       LVL=0
      00FF64EFH   LINE      CODE     ---       #84
      00FF64EFH   LINE      CODE     ---       #86
      00FF64F1H   LINE      CODE     ---       #87
      00FF64F3H   LINE      CODE     ---       #88
      00FF64F6H   LINE      CODE     ---       #89
      00FF64F8H   LINE      CODE     ---       #90
      00FF64FBH   LINE      CODE     ---       #91
      00FF64FDH   LINE      CODE     ---       #92
L251 LINKER/LOCATER V4.66.93.0                                                        03/07/2024  21:02:42  PAGE 85


      ---         BLOCKEND  ---      ---       LVL=0

      00FF648FH   BLOCK     CODE     ---       LVL=0
      00FF648FH   LINE      CODE     ---       #95
      00FF648FH   LINE      CODE     ---       #97
      00FF6491H   LINE      CODE     ---       #98
      00FF6493H   LINE      CODE     ---       #99
      00FF6496H   LINE      CODE     ---       #100
      00FF6498H   LINE      CODE     ---       #101
      00FF649BH   LINE      CODE     ---       #102
      00FF649DH   LINE      CODE     ---       #103
      ---         BLOCKEND  ---      ---       LVL=0

      00FF6331H   BLOCK     CODE     ---       LVL=0
      R15         REGSYM    ---      BYTE      ack_dat
      00FF6331H   LINE      CODE     ---       #108
      00FF6335H   LINE      CODE     ---       #110
      00FF6337H   LINE      CODE     ---       #111
      00FF633AH   LINE      CODE     ---       #112
      00FF6342H   LINE      CODE     ---       #113
      00FF6344H   LINE      CODE     ---       #115
      00FF6346H   LINE      CODE     ---       #116
      00FF6349H   LINE      CODE     ---       #117
      00FF634BH   LINE      CODE     ---       #118
      00FF634EH   LINE      CODE     ---       #119
      ---         BLOCKEND  ---      ---       LVL=0

      00FF0066H   BLOCK     CODE     ---       LVL=0
      00FF0066H   LINE      CODE     ---       #122
      00FF0066H   LINE      CODE     ---       #124
      00FF0068H   LINE      CODE     ---       #126
      00FF006BH   LINE      CODE     ---       #128
      00FF006DH   LINE      CODE     ---       #129
      00FF0070H   LINE      CODE     ---       #131
      00FF0073H   LINE      CODE     ---       #134
      00FF0075H   LINE      CODE     ---       #135
      00FF0078H   LINE      CODE     ---       #136
      00FF0078H   LINE      CODE     ---       #138
      00FF007AH   LINE      CODE     ---       #139
      00FF007DH   LINE      CODE     ---       #140
      00FF0081H   LINE      CODE     ---       #141
      ---         BLOCKEND  ---      ---       LVL=0

      00FF6110H   BLOCK     CODE     ---       LVL=0
      R15         REGSYM    ---      BYTE      c
      00FF6114H   BLOCK     CODE     NEAR LAB  LVL=1
      R14         REGSYM    ---      BYTE      i
      ---         BLOCKEND  ---      ---       LVL=1
      00FF6110H   LINE      CODE     ---       #147
      00FF6114H   LINE      CODE     ---       #148
      00FF6114H   LINE      CODE     ---       #149
      00FF6117H   LINE      CODE     ---       #150
      00FF6119H   LINE      CODE     ---       #152
      00FF6122H   LINE      CODE     ---       #153
      00FF6124H   LINE      CODE     ---       #154
      00FF6126H   LINE      CODE     ---       #155
      00FF6129H   LINE      CODE     ---       #156
      00FF612BH   LINE      CODE     ---       #157
      00FF612EH   LINE      CODE     ---       #158
      00FF6130H   LINE      CODE     ---       #159
      00FF6138H   LINE      CODE     ---       #160
      00FF613BH   LINE      CODE     ---       #161
      ---         BLOCKEND  ---      ---       LVL=0

      00FF5F02H   BLOCK     CODE     ---       LVL=0
L251 LINKER/LOCATER V4.66.93.0                                                        03/07/2024  21:02:42  PAGE 86


      R15         REGSYM    ---      BYTE      ack_x
      00FF5F08H   BLOCK     CODE     NEAR LAB  LVL=1
      R13         REGSYM    ---      BYTE      i
      R14         REGSYM    ---      BYTE      c
      ---         BLOCKEND  ---      ---       LVL=1
      00FF5F02H   LINE      CODE     ---       #167
      00FF5F08H   LINE      CODE     ---       #168
      00FF5F08H   LINE      CODE     ---       #171
      00FF5F0AH   LINE      CODE     ---       #172
      00FF5F0CH   LINE      CODE     ---       #173
      00FF5F0FH   LINE      CODE     ---       #174
      00FF5F11H   LINE      CODE     ---       #176
      00FF5F14H   LINE      CODE     ---       #178
      00FF5F17H   LINE      CODE     ---       #179
      00FF5F19H   LINE      CODE     ---       #180
      00FF5F1CH   LINE      CODE     ---       #181
      00FF5F1EH   LINE      CODE     ---       #182
      00FF5F21H   LINE      CODE     ---       #183
      00FF5F23H   LINE      CODE     ---       #184
      00FF5F26H   LINE      CODE     ---       #186
      00FF5F28H   LINE      CODE     ---       #187
      00FF5F2CH   LINE      CODE     ---       #190
      00FF5F2EH   LINE      CODE     ---       #191
      00FF5F31H   LINE      CODE     ---       #192
      00FF5F36H   LINE      CODE     ---       #194
      00FF5F38H   LINE      CODE     ---       #195
      ---         BLOCKEND  ---      ---       LVL=0

      00FF5FADH   BLOCK     CODE     ---       LVL=0
      0000034CH   SYMBOL    EDATA    BYTE      dev_add
      0000034DH   SYMBOL    EDATA    ---       dat
      DR12        REGSYM    ---      DWORD     len
      00FF5FADH   LINE      CODE     ---       #207
      00FF5FB9H   LINE      CODE     ---       #209
      00FF5FBCH   LINE      CODE     ---       #210
      00FF5FC2H   LINE      CODE     ---       #211
      00FF5FC4H   LINE      CODE     ---       #213
      00FF5FD4H   LINE      CODE     ---       #214
      00FF5FDCH   LINE      CODE     ---       #217
      00FF5FDFH   LINE      CODE     ---       #218
      ---         BLOCKEND  ---      ---       LVL=0

      00FF62EFH   BLOCK     CODE     ---       LVL=0
      R13         REGSYM    ---      BYTE      dev_add
      R14         REGSYM    ---      BYTE      reg
      R15         REGSYM    ---      BYTE      dat
      00FF62EFH   LINE      CODE     ---       #230
      00FF62F7H   LINE      CODE     ---       #232
      00FF62FAH   LINE      CODE     ---       #233
      00FF62FFH   LINE      CODE     ---       #234
      00FF6304H   LINE      CODE     ---       #235
      00FF6309H   LINE      CODE     ---       #236
      00FF630CH   LINE      CODE     ---       #237
      ---         BLOCKEND  ---      ---       LVL=0

      00FF6210H   BLOCK     CODE     ---       LVL=0
      R15         REGSYM    ---      BYTE      dev_add
      R14         REGSYM    ---      BYTE      reg
      00FF6216H   BLOCK     CODE     NEAR LAB  LVL=1
      R15         REGSYM    ---      BYTE      dat
      ---         BLOCKEND  ---      ---       LVL=1
      00FF6210H   LINE      CODE     ---       #248
      00FF6216H   LINE      CODE     ---       #249
      00FF6216H   LINE      CODE     ---       #251
      00FF6219H   LINE      CODE     ---       #252
L251 LINKER/LOCATER V4.66.93.0                                                        03/07/2024  21:02:42  PAGE 87


      00FF621EH   LINE      CODE     ---       #253
      00FF6223H   LINE      CODE     ---       #256
      00FF6226H   LINE      CODE     ---       #257
      00FF622FH   LINE      CODE     ---       #258
      00FF6233H   LINE      CODE     ---       #259
      00FF6236H   LINE      CODE     ---       #261
      00FF6236H   LINE      CODE     ---       #262
      ---         BLOCKEND  ---      ---       LVL=0

      00FF5AB6H   BLOCK     CODE     ---       LVL=0
      00000353H   SYMBOL    EDATA    BYTE      dev_add
      00000354H   SYMBOL    EDATA    BYTE      reg
      REG=3       REGSYM    ---      ---       dat_add
      00000355H   SYMBOL    EDATA    DWORD     num
      00FF5AB6H   LINE      CODE     ---       #275
      00FF5AC2H   LINE      CODE     ---       #277
      00FF5AC5H   LINE      CODE     ---       #278
      00FF5ACEH   LINE      CODE     ---       #279
      00FF5AD5H   LINE      CODE     ---       #282
      00FF5AD8H   LINE      CODE     ---       #283
      00FF5AE3H   LINE      CODE     ---       #284
      00FF5AE5H   LINE      CODE     ---       #286
      00FF5AEDH   LINE      CODE     ---       #287
      00FF5AEFH   LINE      CODE     ---       #288
      00FF5AFDH   LINE      CODE     ---       #289
      00FF5B04H   LINE      CODE     ---       #290
      00FF5B07H   LINE      CODE     ---       #291
      ---         BLOCKEND  ---      ---       LVL=0
      REG=3       REGSYM    ---      ---       dat_add

      00FF4100H   BLOCK     CODE     ---       LVL=0
      00000329H   SYMBOL    EDATA    ---       index
      REG=3       REGSYM    ---      ---       type_is_aperture
      00FF4108H   BLOCK     CODE     NEAR LAB  LVL=1
      0000032DH   SYMBOL    EDATA    BYTE      tmp
      0000032EH   SYMBOL    EDATA    BYTE      return_state
      0000032FH   SYMBOL    EDATA    WORD      loop_count
      ---         BLOCKEND  ---      ---       LVL=1
      00FF4100H   LINE      CODE     ---       #352
      00FF4108H   LINE      CODE     ---       #353
      00FF4108H   LINE      CODE     ---       #354
      00FF410DH   LINE      CODE     ---       #355
      00FF4111H   LINE      CODE     ---       #356
      00FF4117H   LINE      CODE     ---       #358
      00FF4117H   LINE      CODE     ---       #360
      00FF4122H   LINE      CODE     ---       #361
      00FF412DH   LINE      CODE     ---       #362
      00FF4136H   LINE      CODE     ---       #364
      00FF4141H   LINE      CODE     ---       #365
      00FF4155H   LINE      CODE     ---       #366
      00FF4164H   LINE      CODE     ---       #367
      00FF416FH   LINE      CODE     ---       #368
      00FF417AH   LINE      CODE     ---       #370
      00FF4185H   LINE      CODE     ---       #372
      00FF4190H   LINE      CODE     ---       #373
      00FF419AH   LINE      CODE     ---       #375
      00FF419FH   LINE      CODE     ---       #376
      00FF41A1H   LINE      CODE     ---       #378
      00FF41B5H   LINE      CODE     ---       #379
      00FF41BFH   LINE      CODE     ---       #380
      00FF41C9H   LINE      CODE     ---       #382
      00FF41CFH   LINE      CODE     ---       #383
      00FF41D1H   LINE      CODE     ---       #384
      00FF41D8H   LINE      CODE     ---       #387
      00FF41E1H   LINE      CODE     ---       #389
L251 LINKER/LOCATER V4.66.93.0                                                        03/07/2024  21:02:42  PAGE 88


      00FF41E1H   LINE      CODE     ---       #390
      00FF41E1H   LINE      CODE     ---       #391
      00FF41ECH   LINE      CODE     ---       #392
      00FF4200H   LINE      CODE     ---       #394
      00FF420DH   LINE      CODE     ---       #395
      00FF4217H   LINE      CODE     ---       #397
      00FF4221H   LINE      CODE     ---       #398
      00FF422CH   LINE      CODE     ---       #399
      00FF4240H   LINE      CODE     ---       #400
      00FF424CH   LINE      CODE     ---       #401
      00FF4257H   LINE      CODE     ---       #402
      00FF4261H   LINE      CODE     ---       #404
      00FF426BH   LINE      CODE     ---       #405
      00FF4275H   LINE      CODE     ---       #406
      00FF4275H   LINE      CODE     ---       #408
      00FF4279H   LINE      CODE     ---       #409
      ---         BLOCKEND  ---      ---       LVL=0

      00FF5E4BH   BLOCK     CODE     ---       LVL=0
      WR30        REGSYM    ---      WORD      timeout_period_mclks
      R5          REGSYM    ---      BYTE      vcsel_period_pclks
      00FF5E4DH   BLOCK     CODE     NEAR LAB  LVL=1
      DR24        REGSYM    ---      DWORD     macro_period_ns
      ---         BLOCKEND  ---      ---       LVL=1
      00FF5E4BH   LINE      CODE     ---       #419
      00FF5E4DH   LINE      CODE     ---       #420
      00FF5E4DH   LINE      CODE     ---       #421
      00FF5E6EH   LINE      CODE     ---       #423
      ---         BLOCKEND  ---      ---       LVL=0

      00FF5EC6H   BLOCK     CODE     ---       LVL=0
      DR28        REGSYM    ---      DWORD     timeout_period_us
      R3          REGSYM    ---      BYTE      vcsel_period_pclks
      00FF5EC8H   BLOCK     CODE     NEAR LAB  LVL=1
      DR8         REGSYM    ---      DWORD     macro_period_ns
      ---         BLOCKEND  ---      ---       LVL=1
      00FF5EC6H   LINE      CODE     ---       #434
      00FF5EC8H   LINE      CODE     ---       #435
      00FF5EC8H   LINE      CODE     ---       #436
      00FF5EE9H   LINE      CODE     ---       #438
      ---         BLOCKEND  ---      ---       LVL=0

      00FF64B1H   BLOCK     CODE     ---       LVL=0
      WR4         REGSYM    ---      WORD      reg_val
      00FF64B1H   LINE      CODE     ---       #448
      00FF64B3H   LINE      CODE     ---       #451
      00FF64C0H   LINE      CODE     ---       #453
      ---         BLOCKEND  ---      ---       LVL=0

      00FF5FE2H   BLOCK     CODE     ---       LVL=0
      WR2         REGSYM    ---      WORD      timeout_mclks
      00FF5FE4H   BLOCK     CODE     NEAR LAB  LVL=1
      DR8         REGSYM    ---      DWORD     ls_byte
      WR4         REGSYM    ---      WORD      ms_byte
      WR6         REGSYM    ---      WORD      return_data
      ---         BLOCKEND  ---      ---       LVL=1
      00FF5FE2H   LINE      CODE     ---       #462
      00FF5FE4H   LINE      CODE     ---       #463
      00FF5FE4H   LINE      CODE     ---       #464
      00FF5FE4H   LINE      CODE     ---       #465
      00FF5FE8H   LINE      CODE     ---       #466
      00FF5FE8H   LINE      CODE     ---       #468
      00FF5FEEH   LINE      CODE     ---       #471
      00FF5FF4H   LINE      CODE     ---       #472
      00FF5FF6H   LINE      CODE     ---       #474
L251 LINKER/LOCATER V4.66.93.0                                                        03/07/2024  21:02:42  PAGE 89


      00FF5FFFH   LINE      CODE     ---       #475
      00FF6001H   LINE      CODE     ---       #476
      00FF600BH   LINE      CODE     ---       #477
      00FF6015H   LINE      CODE     ---       #478
      00FF6015H   LINE      CODE     ---       #479
      00FF6015H   LINE      CODE     ---       #480
      ---         BLOCKEND  ---      ---       LVL=0

      00FF59B6H   BLOCK     CODE     ---       LVL=0
      REG=3       REGSYM    ---      ---       enables
      00FF59BAH   BLOCK     CODE     NEAR LAB  LVL=1
      0000034CH   SYMBOL    EDATA    BYTE      sequence_config
      ---         BLOCKEND  ---      ---       LVL=1
      00FF59B6H   LINE      CODE     ---       #489
      00FF59BAH   LINE      CODE     ---       #490
      00FF59BAH   LINE      CODE     ---       #491
      00FF59BFH   LINE      CODE     ---       #492
      00FF59D0H   LINE      CODE     ---       #494
      00FF59DAH   LINE      CODE     ---       #495
      00FF59E6H   LINE      CODE     ---       #496
      00FF59F4H   LINE      CODE     ---       #497
      00FF5A00H   LINE      CODE     ---       #498
      00FF5A0BH   LINE      CODE     ---       #499
      ---         BLOCKEND  ---      ---       LVL=0

      00FF5BA8H   BLOCK     CODE     ---       LVL=0
      WR6         REGSYM    ---      INT       type
      00000352H   SYMBOL    EDATA    BYTE      data_buffer
      00FF5BA8H   LINE      CODE     ---       #508
      00FF5BA8H   LINE      CODE     ---       #509
      00FF5BA8H   LINE      CODE     ---       #510
      00FF5BADH   LINE      CODE     ---       #511
      00FF5BB1H   LINE      CODE     ---       #513
      00FF5BBEH   LINE      CODE     ---       #514
      00FF5BBEH   LINE      CODE     ---       #515
      00FF5BC0H   LINE      CODE     ---       #516
      00FF5BC6H   LINE      CODE     ---       #518
      00FF5BDAH   LINE      CODE     ---       #519
      00FF5BE8H   LINE      CODE     ---       #520
      00FF5BEAH   LINE      CODE     ---       #523
      00FF5BF0H   LINE      CODE     ---       #524
      00FF5BF0H   LINE      CODE     ---       #525
      00FF5BF4H   LINE      CODE     ---       #526
      ---         BLOCKEND  ---      ---       LVL=0

      00FF4AC9H   BLOCK     CODE     ---       LVL=0
      0000034CH   SYMBOL    EDATA    ---       enables
      REG=3       REGSYM    ---      ---       timeouts
      00FF4AD1H   BLOCK     CODE     NEAR LAB  LVL=1
      00000350H   SYMBOL    EDATA    ---       reg_buffer
      WR6         REGSYM    ---      WORD      reg16_buffer
      ---         BLOCKEND  ---      ---       LVL=1
      00FF4AC9H   LINE      CODE     ---       #536
      00FF4AD1H   LINE      CODE     ---       #537
      00FF4AD1H   LINE      CODE     ---       #539
      00FF4AD1H   LINE      CODE     ---       #541
      00FF4ADBH   LINE      CODE     ---       #543
      00FF4AEFH   LINE      CODE     ---       #544
      00FF4AFBH   LINE      CODE     ---       #545
      00FF4B09H   LINE      CODE     ---       #547
      00FF4B1DH   LINE      CODE     ---       #548
      00FF4B29H   LINE      CODE     ---       #549
      00FF4B30H   LINE      CODE     ---       #550
      00FF4B3EH   LINE      CODE     ---       #552
      00FF4B4BH   LINE      CODE     ---       #554
L251 LINKER/LOCATER V4.66.93.0                                                        03/07/2024  21:02:42  PAGE 90


      00FF4B5FH   LINE      CODE     ---       #555
      00FF4B6BH   LINE      CODE     ---       #556
      00FF4B72H   LINE      CODE     ---       #558
      00FF4B7CH   LINE      CODE     ---       #560
      00FF4B8EH   LINE      CODE     ---       #561
      00FF4B8EH   LINE      CODE     ---       #563
      00FF4BA1H   LINE      CODE     ---       #564
      ---         BLOCKEND  ---      ---       LVL=0

      00FF5546H   BLOCK     CODE     ---       LVL=0
      R10         REGSYM    ---      BYTE      vhv_init_byte
      00FF554AH   BLOCK     CODE     NEAR LAB  LVL=1
      R15         REGSYM    ---      BYTE      return_state
      00000329H   SYMBOL    EDATA    BYTE      data_buffer
      0000032AH   SYMBOL    EDATA    WORD      loop_count
      ---         BLOCKEND  ---      ---       LVL=1
      00FF5546H   LINE      CODE     ---       #573
      00FF554AH   LINE      CODE     ---       #574
      00FF554AH   LINE      CODE     ---       #575
      00FF554CH   LINE      CODE     ---       #576
      00FF5551H   LINE      CODE     ---       #577
      00FF5557H   LINE      CODE     ---       #578
      00FF5557H   LINE      CODE     ---       #580
      00FF5561H   LINE      CODE     ---       #581
      00FF5561H   LINE      CODE     ---       #582
      00FF5563H   LINE      CODE     ---       #584
      00FF556DH   LINE      CODE     ---       #586
      00FF5570H   LINE      CODE     ---       #587
      00FF5572H   LINE      CODE     ---       #588
      00FF5572H   LINE      CODE     ---       #589
      00FF5584H   LINE      CODE     ---       #591
      00FF5598H   LINE      CODE     ---       #592
      00FF55A0H   LINE      CODE     ---       #594
      00FF55A4H   LINE      CODE     ---       #596
      00FF55A4H   LINE      CODE     ---       #597
      00FF55A4H   LINE      CODE     ---       #598
      00FF55AFH   LINE      CODE     ---       #599
      00FF55B8H   LINE      CODE     ---       #600
      00FF55B8H   LINE      CODE     ---       #602
      00FF55BAH   LINE      CODE     ---       #603
      ---         BLOCKEND  ---      ---       LVL=0

      00FF4905H   BLOCK     CODE     ---       LVL=0
      DR12        REGSYM    ---      DWORD     budget_us
      00FF4909H   BLOCK     CODE     NEAR LAB  LVL=1
      00000329H   SYMBOL    EDATA    BYTE      return_state
      0000032AH   SYMBOL    EDATA    ---       data_buffer
      WR6         REGSYM    ---      WORD      dat
      0000032DH   SYMBOL    EDATA    DWORD     used_budget_us
      DR4         REGSYM    ---      DWORD     final_range_timeout_us
      WR6         REGSYM    ---      WORD      final_range_timeout_mclks
      00000331H   SYMBOL    EDATA    ---       enables
      00000336H   SYMBOL    EDATA    ---       timeouts
      ---         BLOCKEND  ---      ---       LVL=1
      00FF4905H   LINE      CODE     ---       #616
      00FF4909H   LINE      CODE     ---       #617
      00FF4909H   LINE      CODE     ---       #618
      00FF490EH   LINE      CODE     ---       #620
      00FF490EH   LINE      CODE     ---       #628
      00FF490EH   LINE      CODE     ---       #630
      00FF4914H   LINE      CODE     ---       #632
      00FF4914H   LINE      CODE     ---       #633
      00FF4917H   LINE      CODE     ---       #634
      00FF4917H   LINE      CODE     ---       #636
      00FF491FH   LINE      CODE     ---       #637
L251 LINKER/LOCATER V4.66.93.0                                                        03/07/2024  21:02:42  PAGE 91


      00FF4926H   LINE      CODE     ---       #638
      00FF4931H   LINE      CODE     ---       #640
      00FF4937H   LINE      CODE     ---       #642
      00FF4947H   LINE      CODE     ---       #643
      00FF4947H   LINE      CODE     ---       #645
      00FF494DH   LINE      CODE     ---       #647
      00FF4959H   LINE      CODE     ---       #648
      00FF495BH   LINE      CODE     ---       #649
      00FF4961H   LINE      CODE     ---       #651
      00FF4973H   LINE      CODE     ---       #652
      00FF4973H   LINE      CODE     ---       #654
      00FF4979H   LINE      CODE     ---       #656
      00FF498BH   LINE      CODE     ---       #657
      00FF498BH   LINE      CODE     ---       #659
      00FF4991H   LINE      CODE     ---       #664
      00FF499DH   LINE      CODE     ---       #665
      00FF49A5H   LINE      CODE     ---       #668
      00FF49ABH   LINE      CODE     ---       #669
      00FF49ADH   LINE      CODE     ---       #670
      00FF49ADH   LINE      CODE     ---       #675
      00FF49B1H   LINE      CODE     ---       #676
      00FF49B8H   LINE      CODE     ---       #680
      00FF49BEH   LINE      CODE     ---       #682
      00FF49C4H   LINE      CODE     ---       #683
      00FF49C4H   LINE      CODE     ---       #685
      00FF49C7H   LINE      CODE     ---       #686
      00FF49CDH   LINE      CODE     ---       #687
      00FF49D1H   LINE      CODE     ---       #688
      00FF49D5H   LINE      CODE     ---       #689
      00FF49E2H   LINE      CODE     ---       #690
      00FF49E2H   LINE      CODE     ---       #692
      00FF49E6H   LINE      CODE     ---       #693
      ---         BLOCKEND  ---      ---       LVL=0

      00FF5633H   BLOCK     CODE     ---       LVL=0
      00FF5635H   BLOCK     CODE     NEAR LAB  LVL=1
      00000329H   SYMBOL    EDATA    ---       enables
      0000032EH   SYMBOL    EDATA    ---       timeouts
      DR12        REGSYM    ---      DWORD     budget_us
      ---         BLOCKEND  ---      ---       LVL=1
      00FF5633H   LINE      CODE     ---       #702
      00FF5635H   LINE      CODE     ---       #703
      00FF5635H   LINE      CODE     ---       #708
      00FF5639H   LINE      CODE     ---       #710
      00FF5640H   LINE      CODE     ---       #711
      00FF564BH   LINE      CODE     ---       #713
      00FF5651H   LINE      CODE     ---       #715
      00FF565DH   LINE      CODE     ---       #716
      00FF565DH   LINE      CODE     ---       #718
      00FF5663H   LINE      CODE     ---       #720
      00FF566FH   LINE      CODE     ---       #721
      00FF5671H   LINE      CODE     ---       #722
      00FF5677H   LINE      CODE     ---       #724
      00FF5681H   LINE      CODE     ---       #725
      00FF5681H   LINE      CODE     ---       #727
      00FF5687H   LINE      CODE     ---       #729
      00FF5691H   LINE      CODE     ---       #730
      00FF5691H   LINE      CODE     ---       #732
      00FF5697H   LINE      CODE     ---       #734
      00FF56A1H   LINE      CODE     ---       #735
      00FF56A1H   LINE      CODE     ---       #737
      00FF56A3H   LINE      CODE     ---       #738
      ---         BLOCKEND  ---      ---       LVL=0

      00FF6239H   BLOCK     CODE     ---       LVL=0
L251 LINKER/LOCATER V4.66.93.0                                                        03/07/2024  21:02:42  PAGE 92


      DR4         REGSYM    ---      FLOAT     limit_mcps
      00000329H   SYMBOL    EDATA    ---       data_buffer
      WR6         REGSYM    ---      WORD      limit_mcps_16bit
      00FF6239H   LINE      CODE     ---       #751
      00FF6239H   LINE      CODE     ---       #752
      00FF6239H   LINE      CODE     ---       #754
      00FF6245H   LINE      CODE     ---       #758
      00FF624BH   LINE      CODE     ---       #759
      00FF624FH   LINE      CODE     ---       #760
      00FF6253H   LINE      CODE     ---       #762
      ---         BLOCKEND  ---      ---       LVL=0

      00FF229EH   BLOCK     CODE     ---       LVL=0
      00FF22A2H   BLOCK     CODE     NEAR LAB  LVL=1
      00000317H   SYMBOL    EDATA    DWORD     measurement_timing_budget_us
      0000031BH   SYMBOL    EDATA    BYTE      stop_variable
      R15         REGSYM    ---      BYTE      return_state
      R14         REGSYM    ---      BYTE      reg_data_buffer
      0000031CH   SYMBOL    EDATA    ---       ref_spad_map
      00000322H   SYMBOL    EDATA    ---       data_buffer
      R13         REGSYM    ---      BYTE      i
      ---         BLOCKEND  ---      ---       LVL=1
      00FF229EH   LINE      CODE     ---       #800
      00FF22A2H   LINE      CODE     ---       #801
      00FF22A2H   LINE      CODE     ---       #802
      00FF22A2H   LINE      CODE     ---       #803
      00FF22A7H   LINE      CODE     ---       #804
      00FF22A9H   LINE      CODE     ---       #805
      00FF22A9H   LINE      CODE     ---       #808
      00FF22A9H   LINE      CODE     ---       #810
      00FF22B4H   LINE      CODE     ---       #811
      00FF22C0H   LINE      CODE     ---       #815
      00FF22C0H   LINE      CODE     ---       #817
      00FF22C7H   LINE      CODE     ---       #818
      00FF22C9H   LINE      CODE     ---       #819
      00FF22D0H   LINE      CODE     ---       #820
      00FF22D2H   LINE      CODE     ---       #821
      00FF22D9H   LINE      CODE     ---       #824
      00FF22E3H   LINE      CODE     ---       #825
      00FF22F0H   LINE      CODE     ---       #827
      00FF22FAH   LINE      CODE     ---       #829
      00FF2305H   LINE      CODE     ---       #830
      00FF2310H   LINE      CODE     ---       #831
      00FF2319H   LINE      CODE     ---       #833
      00FF232DH   LINE      CODE     ---       #835
      00FF2337H   LINE      CODE     ---       #836
      00FF2341H   LINE      CODE     ---       #837
      00FF234BH   LINE      CODE     ---       #840
      00FF2355H   LINE      CODE     ---       #841
      00FF2362H   LINE      CODE     ---       #843
      00FF236BH   LINE      CODE     ---       #844
      00FF2376H   LINE      CODE     ---       #848
      00FF2383H   LINE      CODE     ---       #850
      00FF2386H   LINE      CODE     ---       #855
      00FF2391H   LINE      CODE     ---       #856
      00FF2394H   LINE      CODE     ---       #857
      00FF2394H   LINE      CODE     ---       #860
      00FF23A8H   LINE      CODE     ---       #862
      00FF23B3H   LINE      CODE     ---       #863
      00FF23BDH   LINE      CODE     ---       #864
      00FF23C8H   LINE      CODE     ---       #865
      00FF23D2H   LINE      CODE     ---       #866
      00FF23DDH   LINE      CODE     ---       #868
      00FF23EEH   LINE      CODE     ---       #869
      00FF23F0H   LINE      CODE     ---       #871
L251 LINKER/LOCATER V4.66.93.0                                                        03/07/2024  21:02:42  PAGE 93


      00FF2402H   LINE      CODE     ---       #876
      00FF2430H   LINE      CODE     ---       #877
      00FF2432H   LINE      CODE     ---       #878
      00FF2455H   LINE      CODE     ---       #880
      00FF245EH   LINE      CODE     ---       #881
      00FF2465H   LINE      CODE     ---       #884
      00FF246BH   LINE      CODE     ---       #885
      00FF246EH   LINE      CODE     ---       #887
      00FF2478H   LINE      CODE     ---       #888
      00FF247FH   LINE      CODE     ---       #889
      00FF248CH   LINE      CODE     ---       #892
      00FF2497H   LINE      CODE     ---       #893
      00FF24A0H   LINE      CODE     ---       #894
      00FF24AAH   LINE      CODE     ---       #895
      00FF24B4H   LINE      CODE     ---       #896
      00FF24BEH   LINE      CODE     ---       #897
      00FF24C8H   LINE      CODE     ---       #898
      00FF24D3H   LINE      CODE     ---       #899
      00FF24DEH   LINE      CODE     ---       #900
      00FF24E8H   LINE      CODE     ---       #901
      00FF24F3H   LINE      CODE     ---       #902
      00FF24FEH   LINE      CODE     ---       #903
      00FF2508H   LINE      CODE     ---       #904
      00FF2513H   LINE      CODE     ---       #905
      00FF251DH   LINE      CODE     ---       #906
      00FF2528H   LINE      CODE     ---       #907
      00FF2532H   LINE      CODE     ---       #908
      00FF253DH   LINE      CODE     ---       #909
      00FF2548H   LINE      CODE     ---       #910
      00FF2553H   LINE      CODE     ---       #911
      00FF255EH   LINE      CODE     ---       #912
      00FF2568H   LINE      CODE     ---       #913
      00FF2572H   LINE      CODE     ---       #914
      00FF257DH   LINE      CODE     ---       #915
      00FF2587H   LINE      CODE     ---       #916
      00FF2592H   LINE      CODE     ---       #917
      00FF259DH   LINE      CODE     ---       #918
      00FF25A8H   LINE      CODE     ---       #919
      00FF25B2H   LINE      CODE     ---       #920
      00FF25BCH   LINE      CODE     ---       #921
      00FF25C6H   LINE      CODE     ---       #922
      00FF25D0H   LINE      CODE     ---       #923
      00FF25DBH   LINE      CODE     ---       #924
      00FF25E6H   LINE      CODE     ---       #925
      00FF25F1H   LINE      CODE     ---       #926
      00FF25FCH   LINE      CODE     ---       #927
      00FF2607H   LINE      CODE     ---       #928
      00FF2611H   LINE      CODE     ---       #929
      00FF261BH   LINE      CODE     ---       #930
      00FF2626H   LINE      CODE     ---       #931
      00FF2630H   LINE      CODE     ---       #932
      00FF263BH   LINE      CODE     ---       #933
      00FF2646H   LINE      CODE     ---       #934
      00FF2651H   LINE      CODE     ---       #935
      00FF265BH   LINE      CODE     ---       #936
      00FF2666H   LINE      CODE     ---       #937
      00FF2671H   LINE      CODE     ---       #938
      00FF267CH   LINE      CODE     ---       #939
      00FF2687H   LINE      CODE     ---       #940
      00FF2692H   LINE      CODE     ---       #941
      00FF269DH   LINE      CODE     ---       #942
      00FF26A8H   LINE      CODE     ---       #943
      00FF26B2H   LINE      CODE     ---       #944
      00FF26BDH   LINE      CODE     ---       #945
      00FF26C8H   LINE      CODE     ---       #946
L251 LINKER/LOCATER V4.66.93.0                                                        03/07/2024  21:02:42  PAGE 94


      00FF26D3H   LINE      CODE     ---       #947
      00FF26DEH   LINE      CODE     ---       #948
      00FF26E9H   LINE      CODE     ---       #949
      00FF26F4H   LINE      CODE     ---       #950
      00FF26FFH   LINE      CODE     ---       #951
      00FF2709H   LINE      CODE     ---       #952
      00FF2713H   LINE      CODE     ---       #953
      00FF271EH   LINE      CODE     ---       #954
      00FF2729H   LINE      CODE     ---       #955
      00FF2734H   LINE      CODE     ---       #956
      00FF273EH   LINE      CODE     ---       #957
      00FF2749H   LINE      CODE     ---       #958
      00FF2754H   LINE      CODE     ---       #959
      00FF275FH   LINE      CODE     ---       #960
      00FF2769H   LINE      CODE     ---       #961
      00FF2773H   LINE      CODE     ---       #962
      00FF277EH   LINE      CODE     ---       #963
      00FF2789H   LINE      CODE     ---       #964
      00FF2793H   LINE      CODE     ---       #965
      00FF279EH   LINE      CODE     ---       #966
      00FF27A9H   LINE      CODE     ---       #967
      00FF27B4H   LINE      CODE     ---       #968
      00FF27BFH   LINE      CODE     ---       #969
      00FF27C9H   LINE      CODE     ---       #970
      00FF27D3H   LINE      CODE     ---       #971
      00FF27DDH   LINE      CODE     ---       #974
      00FF27E8H   LINE      CODE     ---       #975
      00FF27F2H   LINE      CODE     ---       #976
      00FF27FFH   LINE      CODE     ---       #977
      00FF280AH   LINE      CODE     ---       #979
      00FF2811H   LINE      CODE     ---       #984
      00FF281CH   LINE      CODE     ---       #985
      00FF2823H   LINE      CODE     ---       #988
      00FF282EH   LINE      CODE     ---       #989
      00FF2835H   LINE      CODE     ---       #991
      00FF2835H   LINE      CODE     ---       #992
      00FF2837H   LINE      CODE     ---       #993
      00FF2837H   LINE      CODE     ---       #994
      00FF2842H   LINE      CODE     ---       #995
      00FF2848H   LINE      CODE     ---       #997
      00FF284BH   LINE      CODE     ---       #998
      00FF284DH   LINE      CODE     ---       #999
      00FF284DH   LINE      CODE     ---       #1000
      00FF2858H   LINE      CODE     ---       #1002
      00FF285FH   LINE      CODE     ---       #1004
      00FF286AH   LINE      CODE     ---       #1005
      00FF2875H   LINE      CODE     ---       #1006
      00FF287EH   LINE      CODE     ---       #1007
      00FF288AH   LINE      CODE     ---       #1008
      00FF2894H   LINE      CODE     ---       #1009
      00FF289EH   LINE      CODE     ---       #1010
      00FF28A8H   LINE      CODE     ---       #1012
      00FF28B2H   LINE      CODE     ---       #1013
      00FF28B2H   LINE      CODE     ---       #1015
      00FF28B4H   LINE      CODE     ---       #1016
      ---         BLOCKEND  ---      ---       LVL=0

      ---         MODULE    ---      ---       Element
      00FF5C3FH   PUBLIC    CODE     ---       Elem_Up_Down
      00FF43EBH   PUBLIC    CODE     ---       Elem_Circle_L
      00FF4514H   PUBLIC    CODE     ---       Elem_Circle_R
      00000606H   PUBLIC    EDATA    FLOAT     Sum_Angle
      0000060AH   PUBLIC    EDATA    CHAR      Up_Down_Flag
      0000060BH   PUBLIC    EDATA    CHAR      circle_flag_L
      0000060CH   PUBLIC    EDATA    CHAR      circle_Force_Flag
L251 LINKER/LOCATER V4.66.93.0                                                        03/07/2024  21:02:42  PAGE 95


      0000060DH   PUBLIC    EDATA    CHAR      circle_flag_R
      0000060EH   PUBLIC    EDATA    CHAR      Barrier_Flag1
      0000060FH   PUBLIC    EDATA    CHAR      Barrier_Flag2
      00000610H   PUBLIC    EDATA    CHAR      Barrier_Flag3
      00000611H   PUBLIC    EDATA    CHAR      Barrier_Flag4
      00000612H   PUBLIC    EDATA    CHAR      Barrier_Executed
      00000613H   PUBLIC    EDATA    CHAR      circle_In_Flag
      00000614H   PUBLIC    EDATA    CHAR      circle_Out_Flag
      00000615H   PUBLIC    EDATA    CHAR      Avoid_ON
      000000D0H   SFRSYM    DATA     BYTE      PSW
      000000B7H   SFRSYM    DATA     BYTE      IPH
      00000088H   SFRSYM    DATA     BYTE      TCON
      00000098H   SFRSYM    DATA     BYTE      SCON
      000000BCH   SFRSYM    DATA     BYTE      ADC_CONTR
      000000DEH   SFRSYM    DATA     BYTE      ADCCFG
      000000B8H   SFRSYM    DATA     BYTE      IP
      000000A8H   SFRSYM    DATA     BYTE      IE
      000000F8H   SFRSYM    DATA     BYTE      P7
      000000E8H   SFRSYM    DATA     BYTE      P6
      000000C8H   SFRSYM    DATA     BYTE      P5
      000000C0H   SFRSYM    DATA     BYTE      P4
      000000B0H   SFRSYM    DATA     BYTE      P3
      000000A0H   SFRSYM    DATA     BYTE      P2
      00000090H   SFRSYM    DATA     BYTE      P1
      00000080H   SFRSYM    DATA     BYTE      P0

      00FF5C3FH   BLOCK     CODE     ---       LVL=0
      DR12        REGSYM    ---      FLOAT     Angle
      DR0         REGSYM    ---      FLOAT     Gyro
      00FF5C3FH   LINE      CODE     ---       #41
      00FF5C43H   LINE      CODE     ---       #43
      00FF5C53H   LINE      CODE     ---       #45
      00FF5C6AH   LINE      CODE     ---       #47
      ---         BLOCKEND  ---      ---       LVL=0
      DR28        REGSYM    ---      FLOAT     Gyro_Z

      00FF4514H   BLOCK     CODE     ---       LVL=0
      DR24        REGSYM    ---      FLOAT     Speed
      DR28        REGSYM    ---      FLOAT     Gyro_Z
      00FF4518H   BLOCK     CODE     NEAR LAB  LVL=1
      00000616H   SYMBOL    EDATA    FLOAT     Sum_Dis1
      0000061AH   SYMBOL    EDATA    FLOAT     Sum_Dis2
      0000061EH   SYMBOL    EDATA    FLOAT     Sum_Angle_C
      ---         BLOCKEND  ---      ---       LVL=1
      00FF4514H   LINE      CODE     ---       #106
      00FF4518H   LINE      CODE     ---       #107
      00FF4518H   LINE      CODE     ---       #111
      00FF4524H   LINE      CODE     ---       #113
      00FF4531H   LINE      CODE     ---       #114
      00FF4542H   LINE      CODE     ---       #116
      00FF4558H   LINE      CODE     ---       #117
      00FF456EH   LINE      CODE     ---       #119
      00FF457DH   LINE      CODE     ---       #121
      00FF4583H   LINE      CODE     ---       #122
      00FF4585H   LINE      CODE     ---       #124
      00FF4591H   LINE      CODE     ---       #125
      00FF4591H   LINE      CODE     ---       #126
      00FF4598H   LINE      CODE     ---       #128
      00FF45ACH   LINE      CODE     ---       #129
      00FF45C2H   LINE      CODE     ---       #130
      00FF45D1H   LINE      CODE     ---       #131
      00FF45D7H   LINE      CODE     ---       #132
      00FF45D7H   LINE      CODE     ---       #133
      00FF45EDH   LINE      CODE     ---       #135
      00FF45FAH   LINE      CODE     ---       #136
L251 LINKER/LOCATER V4.66.93.0                                                        03/07/2024  21:02:42  PAGE 96


      00FF4601H   LINE      CODE     ---       #137
      00FF4615H   LINE      CODE     ---       #140
      00FF461BH   LINE      CODE     ---       #141
      00FF4620H   LINE      CODE     ---       #142
      00FF4624H   LINE      CODE     ---       #143
      00FF4628H   LINE      CODE     ---       #144
      00FF462CH   LINE      CODE     ---       #145
      00FF4630H   LINE      CODE     ---       #146
      00FF4634H   LINE      CODE     ---       #154
      00FF4634H   LINE      CODE     ---       #155
      00FF4634H   LINE      CODE     ---       #157
      ---         BLOCKEND  ---      ---       LVL=0

      00FF43EBH   BLOCK     CODE     ---       LVL=0
      DR24        REGSYM    ---      FLOAT     Speed
      DR28        REGSYM    ---      FLOAT     Gyro_Z
      00FF43EFH   BLOCK     CODE     NEAR LAB  LVL=1
      00000622H   SYMBOL    EDATA    FLOAT     Sum_Dis1
      00000626H   SYMBOL    EDATA    FLOAT     Sum_Dis2
      0000062AH   SYMBOL    EDATA    FLOAT     Sum_Angle_C
      ---         BLOCKEND  ---      ---       LVL=1
      00FF43EBH   LINE      CODE     ---       #164
      00FF43EFH   LINE      CODE     ---       #165
      00FF43EFH   LINE      CODE     ---       #169
      00FF43FBH   LINE      CODE     ---       #171
      00FF4408H   LINE      CODE     ---       #172
      00FF4419H   LINE      CODE     ---       #174
      00FF442FH   LINE      CODE     ---       #175
      00FF4445H   LINE      CODE     ---       #176
      00FF4454H   LINE      CODE     ---       #178
      00FF445AH   LINE      CODE     ---       #180
      00FF445CH   LINE      CODE     ---       #182
      00FF4468H   LINE      CODE     ---       #183
      00FF4468H   LINE      CODE     ---       #184
      00FF446FH   LINE      CODE     ---       #186
      00FF4483H   LINE      CODE     ---       #187
      00FF4499H   LINE      CODE     ---       #188
      00FF44A8H   LINE      CODE     ---       #189
      00FF44AEH   LINE      CODE     ---       #190
      00FF44AEH   LINE      CODE     ---       #191
      00FF44C4H   LINE      CODE     ---       #194
      00FF44D1H   LINE      CODE     ---       #195
      00FF44E0H   LINE      CODE     ---       #196
      00FF44F4H   LINE      CODE     ---       #199
      00FF44FAH   LINE      CODE     ---       #200
      00FF44FFH   LINE      CODE     ---       #201
      00FF4503H   LINE      CODE     ---       #202
      00FF4507H   LINE      CODE     ---       #203
      00FF450BH   LINE      CODE     ---       #204
      00FF450FH   LINE      CODE     ---       #205
      00FF4513H   LINE      CODE     ---       #206
      00FF4513H   LINE      CODE     ---       #207
      00FF4513H   LINE      CODE     ---       #209
      ---         BLOCKEND  ---      ---       LVL=0

      ---         MODULE    ---      ---       Buzzer
      00FF64A0H   PUBLIC    CODE     ---       Buzzer_Init
      00000669H   PUBLIC    EDATA    WORD      x10_ms
      000000D0H   SFRSYM    DATA     BYTE      PSW
      000000B7H   SFRSYM    DATA     BYTE      IPH
      00000088H   SFRSYM    DATA     BYTE      TCON
      00000098H   SFRSYM    DATA     BYTE      SCON
      000000BCH   SFRSYM    DATA     BYTE      ADC_CONTR
      000000DEH   SFRSYM    DATA     BYTE      ADCCFG
      000000B8H   SFRSYM    DATA     BYTE      IP
L251 LINKER/LOCATER V4.66.93.0                                                        03/07/2024  21:02:42  PAGE 97


      000000A8H   SFRSYM    DATA     BYTE      IE
      000000F8H   SFRSYM    DATA     BYTE      P7
      000000E8H   SFRSYM    DATA     BYTE      P6
      000000C8H   SFRSYM    DATA     BYTE      P5
      000000C0H   SFRSYM    DATA     BYTE      P4
      000000B0H   SFRSYM    DATA     BYTE      P3
      000000A0H   SFRSYM    DATA     BYTE      P2
      00000090H   SFRSYM    DATA     BYTE      P1
      00000080H   SFRSYM    DATA     BYTE      P0

      00FF64A0H   BLOCK     CODE     ---       LVL=0
      00FF64A0H   LINE      CODE     ---       #12
      00FF64A0H   LINE      CODE     ---       #14
      ---         BLOCKEND  ---      ---       LVL=0

      ---         MODULE    ---      ---       Key
      00FF6285H   PUBLIC    CODE     ---       Key_Init
      00FF55BDH   PUBLIC    CODE     ---       GetKey_Value
      00000662H   PUBLIC    EDATA    CHAR      Mode
      00000663H   PUBLIC    EDATA    CHAR      clear_Num
      000000D0H   SFRSYM    DATA     BYTE      PSW
      000000B7H   SFRSYM    DATA     BYTE      IPH
      000000F8H.3 SFRSYM    DATA     BIT       P73
      000000F8H.2 SFRSYM    DATA     BIT       P72
      000000F8H.1 SFRSYM    DATA     BIT       P71
      000000F8H.0 SFRSYM    DATA     BIT       P70
      00000088H   SFRSYM    DATA     BYTE      TCON
      00000098H   SFRSYM    DATA     BYTE      SCON
      000000BCH   SFRSYM    DATA     BYTE      ADC_CONTR
      000000DEH   SFRSYM    DATA     BYTE      ADCCFG
      000000B8H   SFRSYM    DATA     BYTE      IP
      000000A8H   SFRSYM    DATA     BYTE      IE
      000000F8H   SFRSYM    DATA     BYTE      P7
      000000E8H   SFRSYM    DATA     BYTE      P6
      000000C8H   SFRSYM    DATA     BYTE      P5
      000000C0H   SFRSYM    DATA     BYTE      P4
      000000B0H   SFRSYM    DATA     BYTE      P3
      000000A0H   SFRSYM    DATA     BYTE      P2
      00000090H   SFRSYM    DATA     BYTE      P1
      00000080H   SFRSYM    DATA     BYTE      P0

      00FF6285H   BLOCK     CODE     ---       LVL=0
      00FF6285H   LINE      CODE     ---       #12
      00FF6285H   LINE      CODE     ---       #15
      00FF628EH   LINE      CODE     ---       #16
      00FF6297H   LINE      CODE     ---       #17
      00FF62A0H   LINE      CODE     ---       #18
      ---         BLOCKEND  ---      ---       LVL=0

      00FF55BDH   BLOCK     CODE     ---       LVL=0
      R7          REGSYM    ---      BYTE      mode
      00FF55BFH   BLOCK     CODE     NEAR LAB  LVL=1
      00000664H   SYMBOL    EDATA    BYTE      key_up
      ---         BLOCKEND  ---      ---       LVL=1
      00FF55BDH   LINE      CODE     ---       #30
      00FF55BFH   LINE      CODE     ---       #31
      00FF55BFH   LINE      CODE     ---       #33
      00FF55C3H   LINE      CODE     ---       #34
      00FF55C9H   LINE      CODE     ---       #35
      00FF55E7H   LINE      CODE     ---       #38
      00FF55ECH   LINE      CODE     ---       #39
      00FF55F4H   LINE      CODE     ---       #40
      00FF55FDH   LINE      CODE     ---       #41
      00FF5606H   LINE      CODE     ---       #42
      00FF560FH   LINE      CODE     ---       #43
L251 LINKER/LOCATER V4.66.93.0                                                        03/07/2024  21:02:42  PAGE 98


      00FF560FH   LINE      CODE     ---       #44
      00FF562BH   LINE      CODE     ---       #45
      00FF5631H   LINE      CODE     ---       #46
      00FF5632H   LINE      CODE     ---       #47
      ---         BLOCKEND  ---      ---       LVL=0

      ---         MODULE    ---      ---       UI
      00FF65AAH   PUBLIC    CODE     ---       ui_show
      00FF5D8FH   PUBLIC    CODE     ---       oled_all_static_state
      00FF472DH   PUBLIC    CODE     ---       value_name_init
      00FF5D4FH   PUBLIC    CODE     ---       oled_show
      00FF5248H   PUBLIC    CODE     ---       refresh_value
      00FF6572H   PUBLIC    CODE     ---       ui_init
      00000008H   PUBLIC    EDATA    BYTE      page
      00000009H   PUBLIC    EDATA    ---       value
      00000079H   PUBLIC    EDATA    ---       value_name
      000000D0H   SFRSYM    DATA     BYTE      PSW
      000000B7H   SFRSYM    DATA     BYTE      IPH
      00000088H   SFRSYM    DATA     BYTE      TCON
      00000098H   SFRSYM    DATA     BYTE      SCON
      000000BCH   SFRSYM    DATA     BYTE      ADC_CONTR
      000000DEH   SFRSYM    DATA     BYTE      ADCCFG
      000000B8H   SFRSYM    DATA     BYTE      IP
      000000A8H   SFRSYM    DATA     BYTE      IE
      000000F8H   SFRSYM    DATA     BYTE      P7
      000000E8H   SFRSYM    DATA     BYTE      P6
      000000C8H   SFRSYM    DATA     BYTE      P5
      000000C0H   SFRSYM    DATA     BYTE      P4
      000000B0H   SFRSYM    DATA     BYTE      P3
      000000A0H   SFRSYM    DATA     BYTE      P2
      00000090H   SFRSYM    DATA     BYTE      P1
      00000080H   SFRSYM    DATA     BYTE      P0

      00FF472DH   BLOCK     CODE     ---       LVL=0
      00FF472DH   LINE      CODE     ---       #24
      00FF472DH   LINE      CODE     ---       #27
      00FF473CH   LINE      CODE     ---       #28
      00FF474BH   LINE      CODE     ---       #29
      00FF475AH   LINE      CODE     ---       #30
      00FF4769H   LINE      CODE     ---       #34
      00FF4778H   LINE      CODE     ---       #35
      00FF4787H   LINE      CODE     ---       #36
      00FF4796H   LINE      CODE     ---       #37
      00FF47A5H   LINE      CODE     ---       #41
      00FF47B4H   LINE      CODE     ---       #42
      00FF47C3H   LINE      CODE     ---       #43
      00FF47D2H   LINE      CODE     ---       #44
      00FF47E1H   LINE      CODE     ---       #47
      00FF47F0H   LINE      CODE     ---       #48
      00FF47FFH   LINE      CODE     ---       #49
      00FF480EH   LINE      CODE     ---       #50
      ---         BLOCKEND  ---      ---       LVL=0

      00FF5248H   BLOCK     CODE     ---       LVL=0
      00FF5248H   LINE      CODE     ---       #54
      00FF5248H   LINE      CODE     ---       #57
      00FF5250H   LINE      CODE     ---       #58
      00FF5258H   LINE      CODE     ---       #59
      00FF5260H   LINE      CODE     ---       #60
      00FF5268H   LINE      CODE     ---       #63
      00FF5270H   LINE      CODE     ---       #64
      00FF5278H   LINE      CODE     ---       #65
      00FF5280H   LINE      CODE     ---       #66
      00FF5288H   LINE      CODE     ---       #69
      00FF5290H   LINE      CODE     ---       #70
L251 LINKER/LOCATER V4.66.93.0                                                        03/07/2024  21:02:42  PAGE 99


      00FF5298H   LINE      CODE     ---       #71
      00FF52A0H   LINE      CODE     ---       #72
      00FF52A8H   LINE      CODE     ---       #75
      00FF52B4H   LINE      CODE     ---       #76
      00FF52BCH   LINE      CODE     ---       #77
      00FF52C4H   LINE      CODE     ---       #78
      00FF52CCH   LINE      CODE     ---       #80
      ---         BLOCKEND  ---      ---       LVL=0
      WR30        REGSYM    ---      INT       pages
      WR8         REGSYM    ---      INT       y
      DR24        REGSYM    ---      FLOAT     value_new

      00FF5D8FH   BLOCK     CODE     ---       LVL=0
      00FF5D91H   BLOCK     CODE     NEAR LAB  LVL=1
      R14         REGSYM    ---      BYTE      i
      R15         REGSYM    ---      BYTE      j
      ---         BLOCKEND  ---      ---       LVL=1
      00FF5D8FH   LINE      CODE     ---       #90
      00FF5D91H   LINE      CODE     ---       #91
      00FF5D91H   LINE      CODE     ---       #99
      00FF5D93H   LINE      CODE     ---       #101
      00FF5D99H   LINE      CODE     ---       #102
      00FF5DB5H   LINE      CODE     ---       #103
      00FF5DC4H   LINE      CODE     ---       #104
      00FF5DCBH   LINE      CODE     ---       #105
      ---         BLOCKEND  ---      ---       LVL=0

      00FF5D4FH   BLOCK     CODE     ---       LVL=0
      00FF5D51H   BLOCK     CODE     NEAR LAB  LVL=1
      R14         REGSYM    ---      BYTE      i
      R15         REGSYM    ---      BYTE      j
      ---         BLOCKEND  ---      ---       LVL=1
      00FF5D4FH   LINE      CODE     ---       #108
      00FF5D51H   LINE      CODE     ---       #109
      00FF5D51H   LINE      CODE     ---       #111
      00FF5D54H   LINE      CODE     ---       #112
      00FF5D56H   LINE      CODE     ---       #114
      00FF5D5CH   LINE      CODE     ---       #115
      00FF5D85H   LINE      CODE     ---       #116
      00FF5D8CH   LINE      CODE     ---       #117
      ---         BLOCKEND  ---      ---       LVL=0

      00FF6572H   BLOCK     CODE     ---       LVL=0
      00FF6572H   LINE      CODE     ---       #120
      00FF6572H   LINE      CODE     ---       #122
      00FF6575H   LINE      CODE     ---       #123
      00FF6578H   LINE      CODE     ---       #124
      ---         BLOCKEND  ---      ---       LVL=0

      00FF65AAH   BLOCK     CODE     ---       LVL=0
      00FF65AAH   LINE      CODE     ---       #127
      00FF65AAH   LINE      CODE     ---       #129
      00FF65ADH   LINE      CODE     ---       #130
      ---         BLOCKEND  ---      ---       LVL=0

      ---         MODULE    ---      ---       ?C?FPADD
      00FF0EB4H   PUBLIC    CODE     ---       ?C?FPADD
      00FF0EB1H   PUBLIC    CODE     ---       ?C?FPSUB

      ---         MODULE    ---      ---       ?C?FPMUL
      00FF0F6CH   PUBLIC    CODE     ---       ?C?FPMUL

      ---         MODULE    ---      ---       ?C?FPDIV
      00FF100CH   PUBLIC    CODE     ---       ?C?FPDIV

L251 LINKER/LOCATER V4.66.93.0                                                        03/07/2024  21:02:42  PAGE 100


      ---         MODULE    ---      ---       ?C?FPCMP
      00FF108FH   PUBLIC    CODE     ---       ?C?FPCMP
      00FF108DH   PUBLIC    CODE     ---       ?C?FPCMP3

      ---         MODULE    ---      ---       ?C?FPNEG
      00FF10D3H   PUBLIC    CODE     ---       ?C?FPNEG

      ---         MODULE    ---      ---       ?C?FCAST
      00FF10EBH   PUBLIC    CODE     NEAR LAB  ?C?FCASTC
      00FF10E6H   PUBLIC    CODE     NEAR LAB  ?C?FCASTI
      00FF10E1H   PUBLIC    CODE     NEAR LAB  ?C?FCASTL

      ---         MODULE    ---      ---       ?C?CASTF
      00FF111EH   PUBLIC    CODE     NEAR LAB  ?C?CASTF

      ---         MODULE    ---      ---       PRINTF
      00000351H   PUBLIC    EDATA    ---       ?PRINTF?BYTE
      00FF115BH   PUBLIC    CODE     NEAR LAB  PRINTF

      ---         MODULE    ---      ---       ASIN?_
      00FF1187H   PUBLIC    CODE     ---       ASIN?_

      ---         MODULE    ---      ---       atan2
      00FF5C84H   PUBLIC    CODE     ---       atan2?_

      ---         MODULE    ---      ---       ?C?FPGETOPN
      00FF11A7H   PUBLIC    CODE     ---       ?C?FPGETOPN2
      00FF11E4H   PUBLIC    CODE     ---       ?C?FPNANRESULT
      00FF11ECH   PUBLIC    CODE     ---       ?C?FPOVERFLOW
      00FF11C0H   PUBLIC    CODE     ---       ?C?FPRESULT
      00FF11D6H   PUBLIC    CODE     ---       ?C?FPRESULT2
      00FF11E9H   PUBLIC    CODE     ---       ?C?FPUNDERFLOW

      ---         MODULE    ---      ---       ?C?PRNFMT
      00FF1225H   PUBLIC    CODE     ---       ?C?PRNFMT

      ---         MODULE    ---      ---       SQRT?_
      00FF1634H   PUBLIC    CODE     ---       SQRT?_

      ---         MODULE    ---      ---       ATAN?_
      00FF16E4H   PUBLIC    CODE     ---       ATAN?_

      ---         MODULE    ---      ---       ?C?FPCONVERT
      00FF17C4H   PUBLIC    CODE     ---       ?C?FPCONVERT
      00FF187CH   PUBLIC    CODE     ---       ?C?FPROUND

      ---         MODULE    ---      ---       ?C?FPSERIES
      00FF18BFH   PUBLIC    CODE     ---       ?C?FP2SERIES
      00FF18C8H   PUBLIC    CODE     ---       ?C?FPSERIES

      ---         MODULE    ---      ---       ?C?FTNPWR
      00FF191CH   PUBLIC    CODE     ---       ?C?FTNPWR

      ---         MODULE    ---      ---       ?C_START
      00FF0000H   PUBLIC    CODE     ---       ?C?STARTUP
      00FF0000H   PUBLIC    CODE     ---       ?C_STARTUP

      ---         MODULE    ---      ---       ?C?INITEDATA
      00FF5DE1H   PUBLIC    CODE     ---       ?C?INITEDATA

      ---         MODULE    ---      ---       ?C?SIDIV
      00FF1953H   PUBLIC    CODE     ---       ?C?SIDIV

      ---         MODULE    ---      ---       ?C?LMUL
      00FF1985H   PUBLIC    CODE     ---       ?C?LMUL
L251 LINKER/LOCATER V4.66.93.0                                                        03/07/2024  21:02:42  PAGE 101



      ---         MODULE    ---      ---       ?C?LIMUL
      00FF1996H   PUBLIC    CODE     ---       ?C?LIMUL

      ---         MODULE    ---      ---       ?C?ULDIV
      00FF19A1H   PUBLIC    CODE     NEAR LAB  ?C?ULDIV
      00FF199FH   PUBLIC    CODE     NEAR LAB  ?C?ULIDIV

      ---         MODULE    ---      ---       ?C?SLDIV
      00FF19F2H   PUBLIC    CODE     NEAR LAB  ?C?SLDIV

      ---         MODULE    ---      ---       ABS
      00FF64C1H   PUBLIC    CODE     ---       abs?_

      ---         MODULE    ---      ---       STRCPY?_
      00FF6447H   PUBLIC    CODE     NEAR LAB  STRCPY?_

      ---         MODULE    ---      ---       memcpy
      00FF6260H   PUBLIC    CODE     ---       memcpy?_

      ---         MODULE    ---      ---       memset
      00FF638DH   PUBLIC    CODE     ---       memset?_

      ---         MODULE    ---      ---       ?C?INITEDATA_END
      00FF66F3H   PUBLIC    HCONST   WORD      ?C?INITEDATA_END

Program Size: data=8.0 edata+hdata=1891 xdata=0 const=607 code=26007
L251 RUN COMPLETE.  0 WARNING(S),  0 ERROR(S)
