L251 LINKER/LOCATER V4.66.93.0                                                          03/17/2024  15:38:36  PAGE 1


L251 LINKER/LOCATER V4.66.93.0, INVOKED BY:
D:\KEIL5\KEIL5_MDK\KEIL5_MDK_32\C251\BIN\L251.EXE .\Out_File\board.obj, .\Out_File\common.obj, .\Out_File\SEEKFREE_PRINT
>> F.obj, .\Out_File\zf_adc.obj, .\Out_File\zf_delay.obj, .\Out_File\zf_eeprom.obj, .\Out_File\zf_exti.obj, .\Out_File\z
>> f_gpio.obj, .\Out_File\zf_iic.obj, .\Out_File\zf_nvic.obj, .\Out_File\zf_pwm.obj, .\Out_File\zf_spi.obj, .\Out_File\z
>> f_tim.obj, .\Out_File\zf_uart.obj, .\Out_File\zf_fifo.obj, .\Out_File\SEEKFREE_18TFT.obj, .\Out_File\SEEKFREE_ABSOLUT
>> E_ENCODER.obj, .\Out_File\SEEKFREE_FONT.obj, .\Out_File\SEEKFREE_IIC.obj, .\Out_File\SEEKFREE_MPU6050.obj, .\Out_File
>> \SEEKFREE_OLED.obj, .\Out_File\SEEKFREE_AT24C02.obj, .\Out_File\SEEKFREE_BLUETOOTH_CH9141.obj, .\Out_File\SEEKFREE_IC
>> M20602.obj, .\Out_File\SEEKFREE_IPS114_SPI.obj, .\Out_File\SEEKFREE_TSL1401.obj, .\Out_File\SEEKFREE_VIRSCO.obj, .\Ou
>> t_File\SEEKFREE_WIRELESS.obj, .\Out_File\SEEKFREE_WIRELESS_CH573.obj, .\Out_File\isr.obj, .\Out_File\main.obj, .\Out_
>> File\motor.obj, .\Out_File\ADC.obj, .\Out_File\PID.obj, .\Out_File\MPU6050.obj, .\Out_File\TOF.obj, .\Out_File\Elemen
>> t.obj, .\Out_File\Buzzer.obj, .\Out_File\Key.obj, .\Out_File\UI.obj TO .\Out_File\SEEKFREE PRINT (.\Out_File\SEEKFREE
>> .map) CASE DISABLEWARNING (16, 57) REMOVEUNUSED CLASSES (EDATA (0X0-0XFFF), HDATA (0X0-0XFFF))


CPU MODE:     251 SOURCE MODE
INTR FRAME:   2 BYTES SAVED ON INTERRUPT
MEMORY MODEL: XSMALL WITH FLOATING POINT ARITHMETIC


INPUT MODULES INCLUDED:
  .\Out_File\board.obj (board)
         COMMENT TYPE 0: C251 V5.60.0
  .\Out_File\common.obj (common)
         COMMENT TYPE 0: C251 V5.60.0
  .\Out_File\SEEKFREE_PRINTF.obj (SEEKFREE_PRINTF)
         COMMENT TYPE 0: C251 V5.60.0
  .\Out_File\zf_adc.obj (zf_adc)
         COMMENT TYPE 0: C251 V5.60.0
  .\Out_File\zf_delay.obj (zf_delay)
         COMMENT TYPE 0: C251 V5.60.0
  .\Out_File\zf_eeprom.obj (zf_eeprom)
         COMMENT TYPE 0: C251 V5.60.0
  .\Out_File\zf_exti.obj (zf_exti)
         COMMENT TYPE 0: C251 V5.60.0
  .\Out_File\zf_gpio.obj (zf_gpio)
         COMMENT TYPE 0: C251 V5.60.0
  .\Out_File\zf_iic.obj (zf_iic)
         COMMENT TYPE 0: C251 V5.60.0
  .\Out_File\zf_nvic.obj (zf_nvic)
         COMMENT TYPE 0: C251 V5.60.0
  .\Out_File\zf_pwm.obj (zf_pwm)
         COMMENT TYPE 0: C251 V5.60.0
  .\Out_File\zf_spi.obj (zf_spi)
         COMMENT TYPE 0: C251 V5.60.0
  .\Out_File\zf_tim.obj (zf_tim)
         COMMENT TYPE 0: C251 V5.60.0
  .\Out_File\zf_uart.obj (zf_uart)
         COMMENT TYPE 0: C251 V5.60.0
  .\Out_File\zf_fifo.obj (zf_fifo)
         COMMENT TYPE 0: C251 V5.60.0
  .\Out_File\SEEKFREE_18TFT.obj (SEEKFREE_18TFT)
         COMMENT TYPE 0: C251 V5.60.0
  .\Out_File\SEEKFREE_ABSOLUTE_ENCODER.obj (SEEKFREE_ABSOLUTE_ENCODER)
         COMMENT TYPE 0: C251 V5.60.0
  .\Out_File\SEEKFREE_FONT.obj (SEEKFREE_FONT)
         COMMENT TYPE 0: C251 V5.60.0
  .\Out_File\SEEKFREE_IIC.obj (SEEKFREE_IIC)
         COMMENT TYPE 0: C251 V5.60.0
  .\Out_File\SEEKFREE_MPU6050.obj (SEEKFREE_MPU6050)
         COMMENT TYPE 0: C251 V5.60.0
  .\Out_File\SEEKFREE_OLED.obj (SEEKFREE_OLED)
         COMMENT TYPE 0: C251 V5.60.0
  .\Out_File\SEEKFREE_AT24C02.obj (SEEKFREE_AT24C02)
         COMMENT TYPE 0: C251 V5.60.0
  .\Out_File\SEEKFREE_BLUETOOTH_CH9141.obj (SEEKFREE_BLUETOOTH_CH9141)
         COMMENT TYPE 0: C251 V5.60.0
L251 LINKER/LOCATER V4.66.93.0                                                        03/17/2024  15:38:36  PAGE 2


  .\Out_File\SEEKFREE_ICM20602.obj (SEEKFREE_ICM20602)
         COMMENT TYPE 0: C251 V5.60.0
  .\Out_File\SEEKFREE_IPS114_SPI.obj (SEEKFREE_IPS114_SPI)
         COMMENT TYPE 0: C251 V5.60.0
  .\Out_File\SEEKFREE_TSL1401.obj (SEEKFREE_TSL1401)
         COMMENT TYPE 0: C251 V5.60.0
  .\Out_File\SEEKFREE_VIRSCO.obj (SEEKFREE_VIRSCO)
         COMMENT TYPE 0: C251 V5.60.0
  .\Out_File\SEEKFREE_WIRELESS.obj (SEEKFREE_WIRELESS)
         COMMENT TYPE 0: C251 V5.60.0
  .\Out_File\SEEKFREE_WIRELESS_CH573.obj (SEEKFREE_WIRELESS_CH573)
         COMMENT TYPE 0: C251 V5.60.0
  .\Out_File\isr.obj (isr)
         COMMENT TYPE 0: C251 V5.60.0
  .\Out_File\main.obj (main)
         COMMENT TYPE 0: C251 V5.60.0
  .\Out_File\motor.obj (motor)
         COMMENT TYPE 0: C251 V5.60.0
  .\Out_File\ADC.obj (ADC)
         COMMENT TYPE 0: C251 V5.60.0
  .\Out_File\PID.obj (PID)
         COMMENT TYPE 0: C251 V5.60.0
  .\Out_File\MPU6050.obj (MPU6050)
         COMMENT TYPE 0: C251 V5.60.0
  .\Out_File\TOF.obj (TOF)
         COMMENT TYPE 0: C251 V5.60.0
  .\Out_File\Element.obj (Element)
         COMMENT TYPE 0: C251 V5.60.0
  .\Out_File\Buzzer.obj (Buzzer)
         COMMENT TYPE 0: C251 V5.60.0
  .\Out_File\Key.obj (Key)
         COMMENT TYPE 0: C251 V5.60.0
  .\Out_File\UI.obj (UI)
         COMMENT TYPE 0: C251 V5.60.0
  D:\KEIL5\KEIL5_MDK\KEIL5_MDK_32\C251\LIB\C2SFPXS.LIB (?C?FPADD)
         COMMENT TYPE 0: A251 V4.69.6.0
  D:\KEIL5\KEIL5_MDK\KEIL5_MDK_32\C251\LIB\C2SFPXS.LIB (?C?FPMUL)
         COMMENT TYPE 0: A251 V4.69.6.0
  D:\KEIL5\KEIL5_MDK\KEIL5_MDK_32\C251\LIB\C2SFPXS.LIB (?C?FPDIV)
         COMMENT TYPE 0: A251 V4.69.6.0
  D:\KEIL5\KEIL5_MDK\KEIL5_MDK_32\C251\LIB\C2SFPXS.LIB (?C?FPCMP)
         COMMENT TYPE 0: A251 V4.69.6.0
  D:\KEIL5\KEIL5_MDK\KEIL5_MDK_32\C251\LIB\C2SFPXS.LIB (?C?FPNEG)
         COMMENT TYPE 0: A251 V4.69.6.0
  D:\KEIL5\KEIL5_MDK\KEIL5_MDK_32\C251\LIB\C2SFPXS.LIB (?C?FCAST)
         COMMENT TYPE 0: A251 V4.69.6.0
  D:\KEIL5\KEIL5_MDK\KEIL5_MDK_32\C251\LIB\C2SFPXS.LIB (?C?CASTF)
         COMMENT TYPE 0: A251 V4.69.6.0
  D:\KEIL5\KEIL5_MDK\KEIL5_MDK_32\C251\LIB\C2SFPXS.LIB (PRINTF)
         COMMENT TYPE 0: A251 V4.69.6.0
  D:\KEIL5\KEIL5_MDK\KEIL5_MDK_32\C251\LIB\C2SFPXS.LIB (SQRT?_)
         COMMENT TYPE 0: A251 V4.69.6.0
  D:\KEIL5\KEIL5_MDK\KEIL5_MDK_32\C251\LIB\C2SFPXS.LIB (ASIN?_)
         COMMENT TYPE 0: A251 V4.69.6.0
  D:\KEIL5\KEIL5_MDK\KEIL5_MDK_32\C251\LIB\C2SFPXS.LIB (atan2)
         COMMENT TYPE 0: C251 V5.58.7
  D:\KEIL5\KEIL5_MDK\KEIL5_MDK_32\C251\LIB\C2SFPXS.LIB (?C?FPGETOPN)
         COMMENT TYPE 0: A251 V4.69.6.0
  D:\KEIL5\KEIL5_MDK\KEIL5_MDK_32\C251\LIB\C2SFPXS.LIB (?C?PRNFMT)
         COMMENT TYPE 0: A251 V4.69.6.0
  D:\KEIL5\KEIL5_MDK\KEIL5_MDK_32\C251\LIB\C2SFPXS.LIB (ATAN?_)
         COMMENT TYPE 0: A251 V4.69.6.0
  D:\KEIL5\KEIL5_MDK\KEIL5_MDK_32\C251\LIB\C2SFPXS.LIB (?C?FPCONVERT)
         COMMENT TYPE 0: A251 V4.69.6.0
  D:\KEIL5\KEIL5_MDK\KEIL5_MDK_32\C251\LIB\C2SFPXS.LIB (?C?FPSERIES)
L251 LINKER/LOCATER V4.66.93.0                                                        03/17/2024  15:38:36  PAGE 3


         COMMENT TYPE 0: A251 V4.69.6.0
  D:\KEIL5\KEIL5_MDK\KEIL5_MDK_32\C251\LIB\C2SFPXS.LIB (?C?FTNPWR)
         COMMENT TYPE 0: A251 V4.69.6.0
  D:\KEIL5\KEIL5_MDK\KEIL5_MDK_32\C251\LIB\C2SXS.LIB (?C_START)
         COMMENT TYPE 0: A251 V4.69.6.0
  D:\KEIL5\KEIL5_MDK\KEIL5_MDK_32\C251\LIB\C2SXS.LIB (?C?INITEDATA)
         COMMENT TYPE 0: A251 V4.69.6.0
  D:\KEIL5\KEIL5_MDK\KEIL5_MDK_32\C251\LIB\C2SXS.LIB (?C?SIDIV)
         COMMENT TYPE 0: A251 V4.69.6.0
  D:\KEIL5\KEIL5_MDK\KEIL5_MDK_32\C251\LIB\C2SXS.LIB (?C?LMUL)
         COMMENT TYPE 0: A251 V4.69.6.0
  D:\KEIL5\KEIL5_MDK\KEIL5_MDK_32\C251\LIB\C2SXS.LIB (?C?LIMUL)
         COMMENT TYPE 0: A251 V4.69.6.0
  D:\KEIL5\KEIL5_MDK\KEIL5_MDK_32\C251\LIB\C2SXS.LIB (?C?ULDIV)
         COMMENT TYPE 0: A251 V4.69.6.0
  D:\KEIL5\KEIL5_MDK\KEIL5_MDK_32\C251\LIB\C2SXS.LIB (?C?SLDIV)
         COMMENT TYPE 0: A251 V4.69.6.0
  D:\KEIL5\KEIL5_MDK\KEIL5_MDK_32\C251\LIB\C2SXS.LIB (ABS)
         COMMENT TYPE 0: C251 V5.58.7
  D:\KEIL5\KEIL5_MDK\KEIL5_MDK_32\C251\LIB\C2SXS.LIB (STRCPY?_)
         COMMENT TYPE 0: A251 V4.69.6.0
  D:\KEIL5\KEIL5_MDK\KEIL5_MDK_32\C251\LIB\C2SXS.LIB (memcpy)
         COMMENT TYPE 0: C251 V5.58.7
  D:\KEIL5\KEIL5_MDK\KEIL5_MDK_32\C251\LIB\C2SXS.LIB (memset)
         COMMENT TYPE 0: C251 V5.58.7
  D:\KEIL5\KEIL5_MDK\KEIL5_MDK_32\C251\LIB\C2SXS.LIB (?C?INITEDATA_END)
         COMMENT TYPE 0: A251 V4.69.6.0


ACTIVE MEMORY CLASSES OF MODULE:  .\Out_File\SEEKFREE (board)

BASE        START       END         USED      MEMORY CLASS
==========================================================
000000H     000000H     000FFFH     000769H   EDATA
000000H     000000H     000FFFH               HDATA
FF0000H     FF0000H     FFFFFFH     00652EH   CODE
000000H     FF0000H     FFFFFFH     00025FH   HCONST
FF0000H     FF0000H     FFFFFFH     000004H   CONST
000000H     000000H     00007FH     000008H   DATA


MEMORY MAP OF MODULE:  .\Out_File\SEEKFREE (board)


START     STOP      LENGTH    ALIGN  RELOC    MEMORY CLASS   SEGMENT NAME
=========================================================================
000000H   000007H   000008H   ---    AT..     DATA           "REG BANK 0"
000008H   00013CH   000135H   BYTE   UNIT     EDATA          ?ED?UI
00013DH   00023DH   000101H   BYTE   UNIT     EDATA          ?ED?SEEKFREE_TSL1401
00023EH   00030AH   0000CDH   BYTE   UNIT     EDATA          ?ED?ZF_UART
00030BH   0003A1H   000097H   BYTE   UNIT     EDATA          _EDATA_GROUP_
0003A2H   00041BH   00007AH   BYTE   UNIT     EDATA          ?ED?MOTOR
00041CH   000486H   00006BH   BYTE   UNIT     EDATA          ?ED?MPU6050
000487H   0004DBH   000055H   BYTE   UNIT     EDATA          ?ED?SEEKFREE_BLUETOOTH_CH9141
0004DCH   000530H   000055H   BYTE   UNIT     EDATA          ?ED?SEEKFREE_WIRELESS
000531H   000585H   000055H   BYTE   UNIT     EDATA          ?ED?SEEKFREE_WIRELESS_CH573
000586H   0005D5H   000050H   BYTE   UNIT     EDATA          ?ED?ADC
0005D6H   000616H   000041H   BYTE   UNIT     EDATA          ?ED?MAIN
000617H   000633H   00001DH   BYTE   UNIT     EDATA          ?ED?ELEMENT
000634H   00063FH   00000CH   BYTE   UNIT     EDATA          ?ED?SEEKFREE_MPU6050
000640H   00064BH   00000CH   BYTE   UNIT     EDATA          ?ED?SEEKFREE_ICM20602
00064CH   000655H   00000AH   BYTE   UNIT     EDATA          ?ED?SEEKFREE_VIRSCO
000656H   00065CH   000007H   BYTE   UNIT     EDATA          ?ED?SEEKFREE_IIC
00065DH   000660H   000004H   BYTE   UNIT     EDATA          ?ED?BOARD
000661H   000664H   000004H   BYTE   UNIT     EDATA          ?ED?ZF_DELAY
L251 LINKER/LOCATER V4.66.93.0                                                        03/17/2024  15:38:36  PAGE 4


000665H   000667H   000003H   BYTE   UNIT     EDATA          ?ED?TOF
000668H   00066AH   000003H   BYTE   UNIT     EDATA          ?ED?KEY
00066BH   00066CH   000002H   BYTE   UNIT     EDATA          ?ED?COMMON
00066DH   00066EH   000002H   BYTE   UNIT     EDATA          ?ED?ISR
00066FH   000670H   000002H   BYTE   UNIT     EDATA          ?ED?BUZZER
000671H   000770H   000100H   BYTE   UNIT     EDATA          ?STACK
000771H   FEFFFFH   FEF88FH   ---    ---      **GAP**
FF0000H   FF0002H   000003H   ---    OFFS..   CODE           ?CO?start251?4
FF0003H   FF0005H   000003H   ---    OFFS..   CODE           ?PR?IV?0
FF0006H   FF000AH   000005H   BYTE   INSEG    CODE           ?PR?I2C_SDA_READ?MPU6050
FF000BH   FF000DH   000003H   ---    OFFS..   CODE           ?PR?IV?1
FF000EH   FF0010H   000003H   BYTE   INSEG    CODE           ?PR?ENABLEGLOBALIRQ?BOARD
FF0011H   FF0011H   000001H   BYTE   INSEG    CODE           ?PR?INT1_ISR?ISR
FF0012H   FF0012H   000001H   BYTE   INSEG    CODE           ?PR?TM0_ISR?ISR
FF0013H   FF0015H   000003H   ---    OFFS..   CODE           ?PR?IV?2
FF0016H   FF0018H   000003H   BYTE   INSEG    CODE           ?PR?DISABLEGLOBALIRQ?BOARD
FF0019H   FF0019H   000001H   BYTE   INSEG    CODE           ?PR?TM1_ISR?ISR
FF001AH   FF001AH   000001H   ---    ---      **GAP**
FF001BH   FF001DH   000003H   ---    OFFS..   CODE           ?PR?IV?3
FF001EH   FF0020H   000003H   BYTE   INSEG    CODE           ?PR?I2C_SDA_H?MPU6050
FF0021H   FF0022H   000002H   ---    ---      **GAP**
FF0023H   FF0025H   000003H   ---    OFFS..   CODE           ?PR?IV?4
FF0026H   FF0042H   00001DH   BYTE   INSEG    CODE           ?PR?GETFIFOCOUNT?MPU6050
FF0043H   FF0045H   000003H   ---    OFFS..   CODE           ?PR?IV?8
FF0046H   FF0052H   00000DH   BYTE   INSEG    CODE           ?PR?MPU_READ_BITS?MPU6050
FF0053H   FF0055H   000003H   ---    OFFS..   CODE           ?PR?IV?10
FF0056H   FF0058H   000003H   BYTE   INSEG    CODE           ?PR?I2C_SDA_L?MPU6050
FF0059H   FF005AH   000002H   ---    ---      **GAP**
FF005BH   FF005DH   000003H   ---    OFFS..   CODE           ?PR?IV?11
FF005EH   FF0060H   000003H   BYTE   INSEG    CODE           ?PR?I2C_SCL_H?MPU6050
FF0061H   FF0062H   000002H   ---    ---      **GAP**
FF0063H   FF0065H   000003H   ---    OFFS..   CODE           ?PR?IV?12
FF0066H   FF0081H   00001CH   BYTE   INSEG    CODE           ?PR?VL53L0X_SCCB_WAITACK?TOF
FF0082H   FF0082H   000001H   ---    ---      **GAP**
FF0083H   FF0085H   000003H   ---    OFFS..   CODE           ?PR?IV?16
FF0086H   FF0088H   000003H   BYTE   INSEG    CODE           ?PR?I2C_SCL_L?MPU6050
FF0089H   FF008AH   000002H   ---    ---      **GAP**
FF008BH   FF008DH   000003H   ---    OFFS..   CODE           ?PR?IV?17
FF008EH   FF0091H   000004H   BYTE   UNIT     CONST          ?CO?PRINTF
FF0092H   FF0092H   000001H   ---    ---      **GAP**
FF0093H   FF0095H   000003H   ---    OFFS..   CODE           ?PR?IV?18
FF0096H   FF009AH   000005H   ---    ---      **GAP**
FF009BH   FF009DH   000003H   ---    OFFS..   CODE           ?PR?IV?19
FF009EH   FF00A2H   000005H   ---    ---      **GAP**
FF00A3H   FF00A5H   000003H   ---    OFFS..   CODE           ?PR?IV?20
FF00A6H   FF0EADH   000E08H   BYTE   UNIT     CODE           ?CO?SEEKFREE_FONT
FF0EAEH   FF1A25H   000B78H   BYTE   UNIT     CODE           ?C?LIB_CODE
FF1A26H   FF229DH   000878H   BYTE   UNIT     CODE           ?CO?MPU6050
FF229EH   FF28B8H   00061BH   BYTE   INSEG    CODE           ?PR?VL53L0X_INIT?TOF
FF28B9H   FF2DB2H   0004FAH   BYTE   INSEG    CODE           ?PR?ZF_SPRINTF?SEEKFREE_PRINTF
FF2DB3H   FF31A9H   0003F7H   BYTE   INSEG    CODE           ?PR?GPIO_MODE?ZF_GPIO
FF31AAH   FF3504H   00035BH   BYTE   INSEG    CODE           ?PR?MAIN?MAIN
FF3505H   FF37E8H   0002E4H   BYTE   INSEG    CODE           ?PR?PWM_INIT?ZF_PWM
FF37E9H   FF3A89H   0002A1H   BYTE   INSEG    CODE           ?PR?PWM_SET_GPIO?ZF_PWM
FF3A8AH   FF3D23H   00029AH   BYTE   INSEG    CODE           ?PR?MPU6050_REFRESH_DMP?MPU6050
FF3D24H   FF3F4FH   00022CH   BYTE   INSEG    CODE           ?PR?DMPINITIALIZE?MPU6050
FF3F50H   FF410EH   0001BFH   BYTE   INSEG    CODE           ?PR?UART_INIT?ZF_UART
FF410FH   FF428AH   00017CH   BYTE   INSEG    CODE           ?PR?VL53L0X_GET_SPAD_INFO?TOF
FF428BH   FF43D5H   00014BH   BYTE   INSEG    CODE           ?PR?ADC_GETVALUE?ADC
FF43D6H   FF4510H   00013BH   BYTE   INSEG    CODE           ?PR?ELEM_CIRCLE?ELEMENT
FF4511H   FF4608H   0000F8H   BYTE   INSEG    CODE           ?PR?OLED_PRINTF_FLOAT?SEEKFREE_OLED
FF4609H   FF46F8H   0000F0H   BYTE   INSEG    CODE           ?PR?VALUE_NAME_INIT?UI
FF46F9H   FF47E0H   0000E8H   BYTE   INSEG    CODE           ?PR?OLED_P8X16STR?SEEKFREE_OLED
FF47E1H   FF48C4H   0000E4H   BYTE   INSEG    CODE           ?PR?VL53L0X_SET_MEASUREMENT_TIMING_BUDGET?TOF
FF48C5H   FF49A4H   0000E0H   BYTE   INSEG    CODE           ?PR?FIFO_WRITE_BUFFER?ZF_FIFO
L251 LINKER/LOCATER V4.66.93.0                                                        03/17/2024  15:38:36  PAGE 5


FF49A5H   FF4A7FH   0000DBH   BYTE   INSEG    CODE           ?PR?VL53L0X_GET_SEQUENCE_STEP_TIMEOUTS?TOF
FF4A80H   FF4B59H   0000DAH   BYTE   INSEG    CODE           ?PR?INIT_ALL?MAIN
FF4B5AH   FF4C20H   0000C7H   BYTE   INSEG    CODE           ?PR?PID_CALCULATE?PID
FF4C21H   FF4CE3H   0000C3H   BYTE   INSEG    CODE           ?PR?LEFT_SETSPEED?MOTOR
FF4CE4H   FF4D9BH   0000B8H   BYTE   INSEG    CODE           ?PR?PWM_DUTY?ZF_PWM
FF4D9CH   FF4E4BH   0000B0H   BYTE   INSEG    CODE           ?PR?RIGHT_SETSPEED?MOTOR
FF4E4CH   FF4EF1H   0000A6H   BYTE   INSEG    CODE           ?PR?LOADCFGUPD?MPU6050
FF4EF2H   FF4F94H   0000A3H   BYTE   INSEG    CODE           ?PR?OLED_INIT?SEEKFREE_OLED
FF4F95H   FF5028H   000094H   BYTE   INSEG    CODE           ?PR?PIT_TIMER_MS?ZF_TIM
FF5029H   FF50BAH   000092H   BYTE   INSEG    CODE           ?PR?NUMBER_CONVERSION_ASCII?SEEKFREE_PRINTF
FF50BBH   FF5145H   00008BH   BYTE   INSEG    CODE           ?PR?XDMPUPDATES?MPU6050
FF5146H   FF51CAH   000085H   BYTE   INSEG    CODE           ?PR?REFRESH_VALUE?UI
FF51CBH   FF524BH   000081H   BYTE   INSEG    CODE           ?PR?BOARD_INIT?BOARD
FF524CH   FF52CCH   000081H   BYTE   INSEG    CODE           ?PR?LOADFIRMWARE?MPU6050
FF52CDH   FF534CH   000080H   BYTE   INSEG    CODE           ?PR?TM4_ISR?ISR
FF534DH   FF53C9H   00007DH   BYTE   INSEG    CODE           ?PR?I2C_WRITE_BITS?MPU6050
FF53CAH   FF5443H   00007AH   BYTE   INSEG    CODE           ?PR?I2C_MEM_READ?MPU6050
FF5444H   FF54BAH   000077H   BYTE   INSEG    CODE           ?PR?VL53L0X_PERFORM_SINGLE_REF_CALIBRATION?TOF
FF54BBH   FF5530H   000076H   BYTE   INSEG    CODE           ?PR?GETKEY_VALUE?KEY
FF5531H   FF55A3H   000073H   BYTE   INSEG    CODE           ?PR?VL53L0X_GET_MEASUREMENT_TIMING_BUDGET?TOF
FF55A4H   FF560EH   00006BH   BYTE   INSEG    CODE           ?PR?I2C_READ_BITS?MPU6050
FF560FH   FF5678H   00006AH   BYTE   INSEG    CODE           ?PR?GET_RATIO?MAIN
FF5679H   FF56E1H   000069H   BYTE   INSEG    CODE           ?PR?UART4_ISR?ISR
FF56E2H   FF5744H   000063H   BYTE   INSEG    CODE           ?PR?GET_SPEED?MOTOR
FF5745H   FF57A3H   00005FH   BYTE   INSEG    CODE           ?PR?I2C_MEM_WRITE?MPU6050
FF57A4H   FF5801H   00005EH   BYTE   INSEG    CODE           ?PR?ADC_INIT?ZF_ADC
FF5802H   FF585EH   00005DH   BYTE   INSEG    CODE           ?PR?VL53L0X_GET_DISTANCE?TOF
FF585FH   FF58BAH   00005CH   BYTE   INSEG    CODE           ?PR?I2C_WRITE_BIT?MPU6050
FF58BBH   FF5912H   000058H   BYTE   INSEG    CODE           ?PR?MPU_GET_GYROSCOPE?MPU6050
FF5913H   FF596AH   000058H   BYTE   INSEG    CODE           ?PR?VL53L0X_GET_SEQUENCE_STEP_ENABLES?TOF
FF596BH   FF59BEH   000054H   BYTE   INSEG    CODE           ?PR?UART_PUTCHAR?ZF_UART
FF59BFH   FF5A12H   000054H   BYTE   INSEG    CODE           ?PR?PID_INIT?PID
FF5A13H   FF5A66H   000054H   BYTE   INSEG    CODE           ?PR?VL53L0X_SIMIIC_READ_REGS?TOF
FF5A67H   FF5ABAH   000054H   BYTE   INSEG    CODE           ?PR?VL53L0X_SIMIIC_READ_REGS_1?TOF
FF5ABBH   FF5B0BH   000051H   BYTE   INSEG    CODE           ?PR?CTIMER_COUNT_CLEAN?ZF_TIM
FF5B0CH   FF5B58H   00004DH   BYTE   INSEG    CODE           ?PR?CTIMER_COUNT_READ?ZF_TIM
FF5B59H   FF5BA5H   00004DH   BYTE   INSEG    CODE           ?PR?VL53L0X_GET_VCSEL_PULSE_PERIOD?TOF
FF5BA6H   FF5BEFH   00004AH   BYTE   INSEG    CODE           ?PR?CTIMER_COUNT_INIT?ZF_TIM
FF5BF0H   FF5C34H   000045H   BYTE   INSEG    CODE           ?PR?ATAN2?_?ATAN2
FF5C35H   FF5C78H   000044H   BYTE   INSEG    CODE           ?PR?MOTOR_INIT?MOTOR
FF5C79H   FF5CBAH   000042H   BYTE   INSEG    CODE           ?PR?FIFO_HEAD_OFFSET?ZF_FIFO
FF5CBBH   FF5CFAH   000040H   BYTE   INSEG    CODE           ?PR?OLED_SHOW?UI
FF5CFBH   FF5D39H   00003FH   BYTE   INSEG    CODE           ?PR?OLED_ALL_STATIC_STATE?UI
FF5D3AH   FF5D4CH   000013H   BYTE   UNIT     CODE           ?C_C51STARTUP
FF5D4DH   FF5D75H   000029H   BYTE   UNIT     CODE           ?C_C51STARTUP?2
FF5D76H   FF5D78H   000003H   BYTE   UNIT     CODE           ?C_C51STARTUP?3
FF5D79H   FF5DB6H   00003EH   BYTE   INSEG    CODE           ?PR?PRINTF_REVERSE_ORDER?SEEKFREE_PRINTF
FF5DB7H   FF5DF4H   00003EH   BYTE   INSEG    CODE           ?PR?VL53L0X_TIMEOUT_MCLKS_TO_MICROSECONDS?TOF
FF5DF5H   FF5E31H   00003DH   BYTE   INSEG    CODE           ?PR?UART1_ISR?ISR
FF5E32H   FF5E6DH   00003CH   BYTE   INSEG    CODE           ?PR?VL53L0X_TIMEOUT_MICROSECONDS_TO_MCLKS?TOF
FF5E6EH   FF5EA9H   00003CH   BYTE   INSEG    CODE           ?PR?ELEM_UP_DOWN?ELEMENT
FF5EAAH   FF5EE4H   00003BH   BYTE   INSEG    CODE           ?PR?VL53L0X_READ_CH?TOF
FF5EE5H   FF5F1DH   000039H   BYTE   INSEG    CODE           ?PR?DELAY_INIT?ZF_DELAY
FF5F1EH   FF5F54H   000037H   BYTE   INSEG    CODE           ?PR?I2C_READ_BYTE?MPU6050
FF5F55H   FF5F89H   000035H   BYTE   INSEG    CODE           ?PR?VL53L0X_SIMIIC_WRITE_DATS?TOF
FF5F8AH   FF5FBDH   000034H   BYTE   INSEG    CODE           ?PR?VL53L0X_ENCODE_TIMEOUT?TOF
FF5FBEH   FF5FF0H   000033H   BYTE   INSEG    CODE           ?PR?OLED_FILL?SEEKFREE_OLED
FF5FF1H   FF6023H   000033H   BYTE   INSEG    CODE           ?PR?I2C_READ_BIT?MPU6050
FF6024H   FF6056H   000033H   BYTE   INSEG    CODE           ?PR?I2C_WRITE_BYTE?MPU6050
FF6057H   FF6089H   000033H   BYTE   INSEG    CODE           ?PR?INITMPU6050?MPU6050
FF608AH   FF60B7H   00002EH   BYTE   INSEG    CODE           ?PR?ADC_ONCE?ZF_ADC
FF60B8H   FF60E5H   00002EH   BYTE   INSEG    CODE           ?PR?VL53L0X_SEND_CH?TOF
FF60E6H   FF6110H   00002BH   BYTE   INSEG    CODE           ?PR?LIMIT_OUT?MOTOR
FF6111H   FF613BH   00002BH   BYTE   INSEG    CODE           ?PR?ADC_INITALL?ADC
FF613CH   FF6165H   00002AH   BYTE   INSEG    CODE           ?PR?I2C_WAIT_ACK?MPU6050
L251 LINKER/LOCATER V4.66.93.0                                                        03/17/2024  15:38:36  PAGE 6


FF6166H   FF618EH   000029H   BYTE   INSEG    CODE           ?PR?OLED_WRCMD?SEEKFREE_OLED
FF618FH   FF61B7H   000029H   BYTE   INSEG    CODE           ?PR?OLED_WRDAT?SEEKFREE_OLED
FF61B8H   FF61E0H   000029H   BYTE   INSEG    CODE           ?PR?VL53L0X_SIMIIC_READ_REG?TOF
FF61E1H   FF6207H   000027H   BYTE   INSEG    CODE           ?PR?VL53L0X_SET_SIGNAL_RATE_LIMIT?TOF
FF6208H   FF622CH   000025H   BYTE   INSEG    CODE           ?PR?MEMCPY?_?MEMCPY
FF622DH   FF6250H   000024H   BYTE   INSEG    CODE           ?PR?KEY_INIT?KEY
FF6251H   FF6273H   000023H   BYTE   INSEG    CODE           ?PR?OLED_SET_POS?SEEKFREE_OLED
FF6274H   FF6296H   000023H   BYTE   INSEG    CODE           ?PR?MPU6050_DMP_INIT?MPU6050
FF6297H   FF62B8H   000022H   BYTE   INSEG    CODE           ?PR?VL53L0X_SIMIIC_WRITE_REG?TOF
FF62B9H   FF62D8H   000020H   BYTE   INSEG    CODE           ?PR?GETDEVICEID?MPU6050
FF62D9H   FF62F8H   000020H   BYTE   INSEG    CODE           ?PR?VL53L0X_SIMIIC_SENDACK?TOF
FF62F9H   FF6316H   00001EH   BYTE   INSEG    CODE           ?PR?UART2_ISR?ISR
FF6317H   FF6334H   00001EH   BYTE   INSEG    CODE           ?PR?UART3_ISR?ISR
FF6335H   FF634EH   00001AH   BYTE   INSEG    CODE           ?PR?MEMSET?_?MEMSET
FF634FH   FF6367H   000019H   BYTE   INSEG    CODE           ?PR?BLUETOOTH_CH9141_UART_CALLBACK?SEEKFREE_BLUETOOTH_CH91
                                                             -41
FF6368H   FF6380H   000019H   BYTE   INSEG    CODE           ?PR?WIRELESS_UART_CALLBACK?SEEKFREE_WIRELESS
FF6381H   FF6399H   000019H   BYTE   INSEG    CODE           ?PR?WIRELESS_CH573_CALLBACK?SEEKFREE_WIRELESS_CH573
FF639AH   FF63B0H   000017H   BYTE   INSEG    CODE           ?PR?DELAY_MS?ZF_DELAY
FF63B1H   FF63C5H   000015H   BYTE   INSEG    CODE           ?PR?I2C_ACK?MPU6050
FF63C6H   FF63DAH   000015H   BYTE   INSEG    CODE           ?PR?MPU_WRITE_BYTE?MPU6050
FF63DBH   FF63EEH   000014H   BYTE   INSEG    CODE           ?PR?MPU_DELAY_MS?MPU6050
FF63EFH   FF6401H   000013H   BYTE   UNIT     CODE           ?PR?STRCPY?_
FF6402H   FF6413H   000012H   BYTE   INSEG    CODE           ?PR?I2C_NACK?MPU6050
FF6414H   FF6425H   000012H   BYTE   INSEG    CODE           ?PR?I2C_START?MPU6050
FF6426H   FF6436H   000011H   BYTE   INSEG    CODE           ?PR?VL53L0X_SIMIIC_STOP?TOF
FF6437H   FF6447H   000011H   BYTE   INSEG    CODE           ?PR?BUZZER_INIT?BUZZER
FF6448H   FF6457H   000010H   BYTE   INSEG    CODE           ?PR?VL53L0X_DECODE_TIMEOUT?TOF
FF6458H   FF6467H   000010H   BYTE   INSEG    CODE           ?PR?ABS?_?ABS
FF6468H   FF6476H   00000FH   BYTE   INSEG    CODE           ?PR?I2C_STOP?MPU6050
FF6477H   FF6485H   00000FH   BYTE   INSEG    CODE           ?PR?READDMP?MPU6050
FF6486H   FF6494H   00000FH   BYTE   INSEG    CODE           ?PR?VL53L0X_SIMIIC_START?TOF
FF6495H   FF64A2H   00000EH   BYTE   INSEG    CODE           ?PR?PUTCHAR?BOARD
FF64A3H   FF64AFH   00000DH   BYTE   INSEG    CODE           ?PR?MPU_WRITE_BITS?MPU6050
FF64B0H   FF64BCH   00000DH   BYTE   INSEG    CODE           ?PR?MPU_WRITE_BIT?MPU6050
FF64BDH   FF64C9H   00000DH   BYTE   INSEG    CODE           ?PR?VL53L0X_SIMIIC_DELAY?TOF
FF64CAH   FF64D4H   00000BH   BYTE   INSEG    CODE           ?PR?MPU_READ_LEN?MPU6050
FF64D5H   FF64DFH   00000BH   BYTE   INSEG    CODE           ?PR?I2C_TIMEOUT_DELAY?MPU6050
FF64E0H   FF64EAH   00000BH   BYTE   INSEG    CODE           ?PR?MPU_WRITE_LEN?MPU6050
FF64EBH   FF64F5H   00000BH   BYTE   INSEG    CODE           ?PR?I2C_DELAY?MPU6050
FF64F6H   FF64FFH   00000AH   BYTE   INSEG    CODE           ?PR?DELAY1MS?MPU6050
FF6500H   FF6508H   000009H   BYTE   INSEG    CODE           ?PR?MPU_READ_BIT?MPU6050
FF6509H   FF6511H   000009H   BYTE   INSEG    CODE           ?PR?UI_INIT?UI
FF6512H   FF6519H   000008H   BYTE   INSEG    CODE           ?PR?INT2_ISR?ISR
FF651AH   FF6521H   000008H   BYTE   INSEG    CODE           ?PR?INT3_ISR?ISR
FF6522H   FF6529H   000008H   BYTE   INSEG    CODE           ?PR?INT4_ISR?ISR
FF652AH   FF6531H   000008H   BYTE   INSEG    CODE           ?PR?TM2_ISR?ISR
FF6532H   FF6539H   000008H   BYTE   INSEG    CODE           ?PR?TM3_ISR?ISR
FF653AH   FF6540H   000007H   BYTE   INSEG    CODE           ?PR?INT0_ISR?ISR
FF6541H   FF6546H   000006H   BYTE   INSEG    CODE           ?PR?UI_SHOW?UI
FF6547H   FF668AH   000144H   BYTE   UNIT     HCONST         ?C_INITEDATA
FF668BH   FF66FCH   000072H   BYTE   UNIT     HCONST         ?HC?UI
FF66FDH   FF6754H   000058H   BYTE   UNIT     HCONST         ?HC?ZF_PWM
FF6755H   FF6779H   000025H   BYTE   UNIT     HCONST         ?HC?MAIN
FF677AH   FF678FH   000016H   BYTE   UNIT     HCONST         ?HC?TOF
FF6790H   FF6799H   00000AH   BYTE   UNIT     HCONST         ?HC?SEEKFREE_OLED
FF679AH   FF679FH   000006H   BYTE   UNIT     HCONST         ?HC?SEEKFREE_18TFT
FF67A0H   FF67A5H   000006H   BYTE   UNIT     HCONST         ?HC?SEEKFREE_IPS114_SPI

* * * * * * * * *   R E M O V E D     S E G M E N T S   * * * * * * * *
   *DEL*:           000019H   BYTE   INSEG    CODE           ?PR?DELAY_US?ZF_DELAY
   *DEL*:           000016H   BYTE   INSEG    CODE           ?PR?IAP_SET_TPS?ZF_EEPROM
   *DEL*:           000015H   BYTE   INSEG    CODE           ?PR?EEPROM_TRIG?ZF_EEPROM
   *DEL*:           00000EH   BYTE   INSEG    CODE           ?PR?IAP_ERASE_PAGE?ZF_EEPROM
   *DEL*:           000004H   BYTE   INSEG    CODE           ?PR?IAP_IDLE?ZF_EEPROM
L251 LINKER/LOCATER V4.66.93.0                                                        03/17/2024  15:38:36  PAGE 7


   *DEL*:           000047H   BYTE   INSEG    CODE           ?PR?IAP_READ_BYTES?ZF_EEPROM
   *DEL*:           00006DH   BYTE   INSEG    CODE           ?PR?EXTERN_IAP_WRITE_BYTES?ZF_EEPROM
   *DEL*:           000006H   BYTE   INSEG    CODE           ?PR?IAP_INIT?ZF_EEPROM
   *DEL*:           000047H   BYTE   INSEG    CODE           ?PR?IAP_WRITE_BYTES?ZF_EEPROM
   *DEL*:           00000CH   BYTE   INSEG    CODE           ?PR?IAP_GET_CMD_STATE?ZF_EEPROM
   *DEL*:           000004H   BYTE   UNIT     EDATA          ?ED?IAP_READ_BYTES?ZF_EEPROM
   *DEL*:           000004H   BYTE   UNIT     EDATA          ?ED?IAP_WRITE_BYTES?ZF_EEPROM
   *DEL*:           000204H   BYTE   UNIT     EDATA          ?ED?EXTERN_IAP_WRITE_BYTES?ZF_EEPROM
   *DEL*:           00003EH   BYTE   INSEG    CODE           ?PR?EXIT_INIT?ZF_EXTI
   *DEL*:           00006EH   BYTE   INSEG    CODE           ?PR?GPIO_PULL_SET?ZF_GPIO
   *DEL*:           000017H   BYTE   INSEG    CODE           ?PR?SEND_DATA?ZF_IIC
   *DEL*:           00002FH   BYTE   INSEG    CODE           ?PR?IIC_CHANGE_PIN?ZF_IIC
   *DEL*:           00001CH   BYTE   INSEG    CODE           ?PR?RECV_DATA?ZF_IIC
   *DEL*:           000010H   BYTE   INSEG    CODE           ?PR?START?ZF_IIC
   *DEL*:           000045H   BYTE   INSEG    CODE           ?PR?WAIT?ZF_IIC
   *DEL*:           000018H   BYTE   INSEG    CODE           ?PR?SEND_ACK?ZF_IIC
   *DEL*:           000010H   BYTE   INSEG    CODE           ?PR?RECV_ACK?ZF_IIC
   *DEL*:           000010H   BYTE   INSEG    CODE           ?PR?STOP?ZF_IIC
   *DEL*:           000019H   BYTE   INSEG    CODE           ?PR?SEND_NAK?ZF_IIC
   *DEL*:           00005EH   BYTE   INSEG    CODE           ?PR?IIC_INIT?ZF_IIC
   *DEL*:           000075H   BYTE   INSEG    CODE           ?PR?IIC_READ_REG?ZF_IIC
   *DEL*:           00009CH   BYTE   INSEG    CODE           ?PR?IIC_READ_REG_BYTES?ZF_IIC
   *DEL*:           000060H   BYTE   INSEG    CODE           ?PR?IIC_WRITE_REG?ZF_IIC
   *DEL*:           000015H   BYTE   INSEG    CODE           ?PR?IIC_DELAY_US?ZF_IIC
   *DEL*:           000004H   BYTE   UNIT     EDATA          ?ED?IIC_INIT?ZF_IIC
   *DEL*:           000004H   BYTE   UNIT     EDATA          ?ED?IIC_READ_REG?ZF_IIC
   *DEL*:           000003H   BYTE   UNIT     EDATA          ?ED?IIC_READ_REG_BYTES?ZF_IIC
   *DEL*:           00006CH   BYTE   INSEG    CODE           ?PR?NVIC_SETPRIORITY?ZF_NVIC
   *DEL*:           000121H   BYTE   INSEG    CODE           ?PR?PWM_FREQ?ZF_PWM
   *DEL*:           000004H   BYTE   UNIT     EDATA          ?ED?PWM_FREQ?ZF_PWM
   *DEL*:           00001DH   BYTE   INSEG    CODE           ?PR?SPI_CHANGE_MODE?ZF_SPI
   *DEL*:           0000AEH   BYTE   INSEG    CODE           ?PR?SPI_CHANGE_PIN?ZF_SPI
   *DEL*:           0000DFH   BYTE   INSEG    CODE           ?PR?SPI_INIT?ZF_SPI
   *DEL*:           00000EH   BYTE   INSEG    CODE           ?PR?SPI_MOSI?ZF_SPI
   *DEL*:           000004H   BYTE   UNIT     EDATA          ?ED?SPI_INIT?ZF_SPI
   *DEL*:           00002DH   BYTE   INSEG    CODE           ?PR?UART_PUTBUFF?ZF_UART
   *DEL*:           00001EH   BYTE   INSEG    CODE           ?PR?UART_PUTSTR?ZF_UART
   *DEL*:           000004H   BYTE   UNIT     EDATA          ?ED?UART_PUTBUFF?ZF_UART
   *DEL*:           000002H   BYTE   UNIT     EDATA          ?ED?UART_PUTSTR?ZF_UART
   *DEL*:           000113H   BYTE   INSEG    CODE           ?PR?FIFO_READ_BUFFER?ZF_FIFO
   *DEL*:           000025H   BYTE   INSEG    CODE           ?PR?FIFO_CLEAR?ZF_FIFO
   *DEL*:           000046H   BYTE   INSEG    CODE           ?PR?FIFO_END_OFFSET?ZF_FIFO
   *DEL*:           000015H   BYTE   INSEG    CODE           ?PR?FIFO_USED?ZF_FIFO
   *DEL*:           000043H   BYTE   INSEG    CODE           ?PR?FIFO_INIT?ZF_FIFO
   *DEL*:           000004H   BYTE   UNIT     EDATA          ?ED?FIFO_INIT?ZF_FIFO
   *DEL*:           00000FH   BYTE   UNIT     EDATA          ?ED?FIFO_READ_BUFFER?ZF_FIFO
   *DEL*:           00008BH   BYTE   INSEG    CODE           ?PR?LCD_SHOWUINT16?SEEKFREE_18TFT
   *DEL*:           000082H   BYTE   INSEG    CODE           ?PR?LCD_SHOWINT32_SIMSPI?SEEKFREE_18TFT
   *DEL*:           0000DDH   BYTE   INSEG    CODE           ?PR?LCD_SHOWINT16_SIMSPI?SEEKFREE_18TFT
   *DEL*:           000082H   BYTE   INSEG    CODE           ?PR?LCD_SHOWINT32?SEEKFREE_18TFT
   *DEL*:           0000DDH   BYTE   INSEG    CODE           ?PR?LCD_SHOWINT16?SEEKFREE_18TFT
   *DEL*:           00002BH   BYTE   INSEG    CODE           ?PR?LCD_CLEAR_SIMSPI?SEEKFREE_18TFT
   *DEL*:           00002BH   BYTE   INSEG    CODE           ?PR?LCD_CLEAR?SEEKFREE_18TFT
   *DEL*:           00004EH   BYTE   INSEG    CODE           ?PR?LCD_SHOWSTR_SIMSPI?SEEKFREE_18TFT
   *DEL*:           00004EH   BYTE   INSEG    CODE           ?PR?LCD_SHOWSTR?SEEKFREE_18TFT
   *DEL*:           000029H   BYTE   INSEG    CODE           ?PR?LCD_WRITEINDEX_SIMSPI?SEEKFREE_18TFT
   *DEL*:           000029H   BYTE   INSEG    CODE           ?PR?LCD_WRITEDATA_SIMSPI?SEEKFREE_18TFT
   *DEL*:           00000AH   BYTE   INSEG    CODE           ?PR?LCD_WRITEINDEX?SEEKFREE_18TFT
   *DEL*:           00000AH   BYTE   INSEG    CODE           ?PR?LCD_WRITEDATA?SEEKFREE_18TFT
   *DEL*:           00002CH   BYTE   INSEG    CODE           ?PR?LCD_WRITEDATA_16BIT_SIMSPI?SEEKFREE_18TFT
   *DEL*:           00004CH   BYTE   INSEG    CODE           ?PR?LCD_SET_REGION_SIMSPI?SEEKFREE_18TFT
   *DEL*:           0001F1H   BYTE   INSEG    CODE           ?PR?LCD_INIT_SIMSPI?SEEKFREE_18TFT
   *DEL*:           00009AH   BYTE   INSEG    CODE           ?PR?SHOWIMAGE?SEEKFREE_18TFT
   *DEL*:           000050H   BYTE   INSEG    CODE           ?PR?LCD_SET_REGION?SEEKFREE_18TFT
   *DEL*:           0001EEH   BYTE   INSEG    CODE           ?PR?LCD_INIT?SEEKFREE_18TFT
L251 LINKER/LOCATER V4.66.93.0                                                        03/17/2024  15:38:36  PAGE 8


   *DEL*:           00007BH   BYTE   INSEG    CODE           ?PR?LCD_SHOWUINT8_SIMSPI?SEEKFREE_18TFT
   *DEL*:           00007BH   BYTE   INSEG    CODE           ?PR?LCD_SHOWUINT8?SEEKFREE_18TFT
   *DEL*:           0000B9H   BYTE   INSEG    CODE           ?PR?LCD_SHOWINT8_SIMSPI?SEEKFREE_18TFT
   *DEL*:           0000B9H   BYTE   INSEG    CODE           ?PR?LCD_SHOWINT8?SEEKFREE_18TFT
   *DEL*:           00001FH   BYTE   INSEG    CODE           ?PR?LCD_WRITEDATA_16BIT?SEEKFREE_18TFT
   *DEL*:           0000F8H   BYTE   INSEG    CODE           ?PR?LCD_SHOWFLOAT_SIMSPI?SEEKFREE_18TFT
   *DEL*:           000013H   BYTE   INSEG    CODE           ?PR?LCD_DRAWPOINT_SIMSPI?SEEKFREE_18TFT
   *DEL*:           0000F8H   BYTE   INSEG    CODE           ?PR?LCD_SHOWFLOAT?SEEKFREE_18TFT
   *DEL*:           000013H   BYTE   INSEG    CODE           ?PR?LCD_DRAWPOINT?SEEKFREE_18TFT
   *DEL*:           00008EH   BYTE   INSEG    CODE           ?PR?LCD_SHOWCHAR_SIMSPI?SEEKFREE_18TFT
   *DEL*:           00008EH   BYTE   INSEG    CODE           ?PR?LCD_SHOWCHAR?SEEKFREE_18TFT
   *DEL*:           00008BH   BYTE   INSEG    CODE           ?PR?LCD_SHOWUINT16_SIMSPI?SEEKFREE_18TFT
   *DEL*:           000004H   BYTE   UNIT     EDATA          ?ED?LCD_SET_REGION_SIMSPI?SEEKFREE_18TFT
   *DEL*:           000004H   BYTE   UNIT     EDATA          ?ED?LCD_SHOWCHAR_SIMSPI?SEEKFREE_18TFT
   *DEL*:           000006H   BYTE   UNIT     EDATA          ?ED?LCD_SHOWSTR_SIMSPI?SEEKFREE_18TFT
   *DEL*:           000005H   BYTE   UNIT     EDATA          ?ED?LCD_SHOWINT8_SIMSPI?SEEKFREE_18TFT
   *DEL*:           000004H   BYTE   UNIT     EDATA          ?ED?LCD_SHOWUINT8_SIMSPI?SEEKFREE_18TFT
   *DEL*:           000008H   BYTE   UNIT     EDATA          ?ED?LCD_SHOWINT16_SIMSPI?SEEKFREE_18TFT
   *DEL*:           000006H   BYTE   UNIT     EDATA          ?ED?LCD_SHOWUINT16_SIMSPI?SEEKFREE_18TFT
   *DEL*:           000028H   BYTE   UNIT     EDATA          ?ED?LCD_SHOWINT32_SIMSPI?SEEKFREE_18TFT
   *DEL*:           00002BH   BYTE   UNIT     EDATA          ?ED?LCD_SHOWFLOAT_SIMSPI?SEEKFREE_18TFT
   *DEL*:           000002H   BYTE   UNIT     EDATA          ?ED?LCD_WRITEDATA_16BIT?SEEKFREE_18TFT
   *DEL*:           000004H   BYTE   UNIT     EDATA          ?ED?LCD_SET_REGION?SEEKFREE_18TFT
   *DEL*:           000004H   BYTE   UNIT     EDATA          ?ED?LCD_SHOWCHAR?SEEKFREE_18TFT
   *DEL*:           000006H   BYTE   UNIT     EDATA          ?ED?LCD_SHOWSTR?SEEKFREE_18TFT
   *DEL*:           000005H   BYTE   UNIT     EDATA          ?ED?LCD_SHOWINT8?SEEKFREE_18TFT
   *DEL*:           000004H   BYTE   UNIT     EDATA          ?ED?LCD_SHOWUINT8?SEEKFREE_18TFT
   *DEL*:           000008H   BYTE   UNIT     EDATA          ?ED?LCD_SHOWINT16?SEEKFREE_18TFT
   *DEL*:           000006H   BYTE   UNIT     EDATA          ?ED?LCD_SHOWUINT16?SEEKFREE_18TFT
   *DEL*:           000028H   BYTE   UNIT     EDATA          ?ED?LCD_SHOWINT32?SEEKFREE_18TFT
   *DEL*:           00002BH   BYTE   UNIT     EDATA          ?ED?LCD_SHOWFLOAT?SEEKFREE_18TFT
   *DEL*:           000008H   BYTE   UNIT     EDATA          ?ED?SHOWIMAGE?SEEKFREE_18TFT
   *DEL*:           000011H   BYTE   INSEG    CODE           ?PR?ENCODER_SELF4_CHECK?SEEKFREE_ABSOLUTE_ENCODER
   *DEL*:           000011H   BYTE   INSEG    CODE           ?PR?ENCODER_SELF5_CHECK?SEEKFREE_ABSOLUTE_ENCODER
   *DEL*:           00002FH   BYTE   INSEG    CODE           ?PR?ENCODER_SPI_R_REG_BYTE?SEEKFREE_ABSOLUTE_ENCODER
   *DEL*:           000005H   BYTE   INSEG    CODE           ?PR?ENCODER_DELAY_US?SEEKFREE_ABSOLUTE_ENCODER
   *DEL*:           000038H   BYTE   INSEG    CODE           ?PR?ENCODER_SPI_W_REG_BYTE?SEEKFREE_ABSOLUTE_ENCODER
   *DEL*:           00001CH   BYTE   INSEG    CODE           ?PR?SIMSPI_R_REG_BYTE?SEEKFREE_ABSOLUTE_ENCODER
   *DEL*:           00001AH   BYTE   INSEG    CODE           ?PR?SIMSPI_W_REG_BYTE?SEEKFREE_ABSOLUTE_ENCODER
   *DEL*:           000029H   BYTE   INSEG    CODE           ?PR?ENCODER_INIT_SPI?SEEKFREE_ABSOLUTE_ENCODER
   *DEL*:           000004H   BYTE   INSEG    CODE           ?PR?SPI_WR_BYTE?SEEKFREE_ABSOLUTE_ENCODER
   *DEL*:           000024H   BYTE   INSEG    CODE           ?PR?SET_ZERO_POSITION_SIMSPI?SEEKFREE_ABSOLUTE_ENCODER
   *DEL*:           000023H   BYTE   INSEG    CODE           ?PR?ENCODER_ANGLE_SIMSPI?SEEKFREE_ABSOLUTE_ENCODER
   *DEL*:           00001CH   BYTE   INSEG    CODE           ?PR?SPI_R_REG_BYTE?SEEKFREE_ABSOLUTE_ENCODER
   *DEL*:           00001AH   BYTE   INSEG    CODE           ?PR?SPI_W_REG_BYTE?SEEKFREE_ABSOLUTE_ENCODER
   *DEL*:           00002FH   BYTE   INSEG    CODE           ?PR?ENCODER_SIMSPI_R_REG_BYTE?SEEKFREE_ABSOLUTE_ENCODER
   *DEL*:           000038H   BYTE   INSEG    CODE           ?PR?ENCODER_SIMSPI_W_REG_BYTE?SEEKFREE_ABSOLUTE_ENCODER
   *DEL*:           00000FH   BYTE   INSEG    CODE           ?PR?ENCODER_INIT_SIMSPI?SEEKFREE_ABSOLUTE_ENCODER
   *DEL*:           000024H   BYTE   INSEG    CODE           ?PR?SET_ZERO_POSITION_SPI?SEEKFREE_ABSOLUTE_ENCODER
   *DEL*:           00001FH   BYTE   INSEG    CODE           ?PR?SIMSPI_WR_BYTE?SEEKFREE_ABSOLUTE_ENCODER
   *DEL*:           000023H   BYTE   INSEG    CODE           ?PR?ENCODER_ANGLE_SPI?SEEKFREE_ABSOLUTE_ENCODER
   *DEL*:           000001H   BYTE   UNIT     EDATA          ?ED?ENCODER_SELF4_CHECK?SEEKFREE_ABSOLUTE_ENCODER
   *DEL*:           000001H   BYTE   UNIT     EDATA          ?ED?ENCODER_SELF5_CHECK?SEEKFREE_ABSOLUTE_ENCODER
   *DEL*:           00000FH   BYTE   INSEG    CODE           ?PR?SIMIIC_START?SEEKFREE_IIC
   *DEL*:           000066H   BYTE   INSEG    CODE           ?PR?SIMIIC_READ_REGS?SEEKFREE_IIC
   *DEL*:           000001H   BYTE   INSEG    CODE           ?PR?SIMIIC_INIT?SEEKFREE_IIC
   *DEL*:           000034H   BYTE   INSEG    CODE           ?PR?SIMIIC_READ_REG?SEEKFREE_IIC
   *DEL*:           000011H   BYTE   INSEG    CODE           ?PR?SIMIIC_STOP?SEEKFREE_IIC
   *DEL*:           000022H   BYTE   INSEG    CODE           ?PR?SIMIIC_WRITE_REG?SEEKFREE_IIC
   *DEL*:           000020H   BYTE   INSEG    CODE           ?PR?SIMIIC_SENDACK?SEEKFREE_IIC
   *DEL*:           00003BH   BYTE   INSEG    CODE           ?PR?READ_CH?SEEKFREE_IIC
   *DEL*:           00002EH   BYTE   INSEG    CODE           ?PR?SEND_CH?SEEKFREE_IIC
   *DEL*:           00001CH   BYTE   INSEG    CODE           ?PR?SCCB_WAITACK?SEEKFREE_IIC
   *DEL*:           00000BH   BYTE   INSEG    CODE           ?PR?SIMIIC_DELAY?SEEKFREE_IIC
   *DEL*:           000005H   BYTE   UNIT     EDATA          ?ED?SIMIIC_READ_REGS?SEEKFREE_IIC
L251 LINKER/LOCATER V4.66.93.0                                                        03/17/2024  15:38:36  PAGE 9


   *DEL*:           000055H   BYTE   INSEG    CODE           ?PR?MPU6050_INIT?SEEKFREE_MPU6050
   *DEL*:           00002CH   BYTE   INSEG    CODE           ?PR?MPU6050_SELF1_CHECK?SEEKFREE_MPU6050
   *DEL*:           000044H   BYTE   INSEG    CODE           ?PR?MPU6050_GET_GYRO?SEEKFREE_MPU6050
   *DEL*:           000044H   BYTE   INSEG    CODE           ?PR?MPU6050_GET_ACCDATA?SEEKFREE_MPU6050
   *DEL*:           000006H   BYTE   UNIT     EDATA          ?ED?MPU6050_GET_ACCDATA?SEEKFREE_MPU6050
   *DEL*:           000006H   BYTE   UNIT     EDATA          ?ED?MPU6050_GET_GYRO?SEEKFREE_MPU6050
   *DEL*:           000033H   BYTE   INSEG    CODE           ?PR?OLED_PUTPIXEL?SEEKFREE_OLED
   *DEL*:           000032H   BYTE   INSEG    CODE           ?PR?OLED_HEXASCII_SPI?SEEKFREE_OLED
   *DEL*:           000325H   BYTE   INSEG    CODE           ?PR?OLED_DIS_BMP_SPI?SEEKFREE_OLED
   *DEL*:           0000E8H   BYTE   INSEG    CODE           ?PR?OLED_P8X16STR_SPI?SEEKFREE_OLED
   *DEL*:           00002AH   BYTE   INSEG    CODE           ?PR?OLED_CLRPIXEL_SPI?SEEKFREE_OLED
   *DEL*:           000090H   BYTE   INSEG    CODE           ?PR?OLED_PRINT_CHINESE_SPI?SEEKFREE_OLED
   *DEL*:           000082H   BYTE   INSEG    CODE           ?PR?OLED_PRINTF_INT32?SEEKFREE_OLED
   *DEL*:           00001DH   BYTE   INSEG    CODE           ?PR?OLED_UINT16?SEEKFREE_OLED
   *DEL*:           000031H   BYTE   INSEG    CODE           ?PR?OLED_PUTPIXEL_SPI?SEEKFREE_OLED
   *DEL*:           000021H   BYTE   INSEG    CODE           ?PR?OLED_SET_POS_SPI?SEEKFREE_OLED
   *DEL*:           0000A9H   BYTE   INSEG    CODE           ?PR?OLED_P6X8STR?SEEKFREE_OLED
   *DEL*:           00004BH   BYTE   INSEG    CODE           ?PR?OLED_INT16?SEEKFREE_OLED
   *DEL*:           0000F8H   BYTE   INSEG    CODE           ?PR?OLED_PRINTF_FLOAT_SPI?SEEKFREE_OLED
   *DEL*:           00000AH   BYTE   INSEG    CODE           ?PR?OLED_WRCMD_SPI?SEEKFREE_OLED
   *DEL*:           00000AH   BYTE   INSEG    CODE           ?PR?OLED_WRDAT_SPI?SEEKFREE_OLED
   *DEL*:           000032H   BYTE   INSEG    CODE           ?PR?OLED_HEXASCII?SEEKFREE_OLED
   *DEL*:           000033H   BYTE   INSEG    CODE           ?PR?OLED_FILL_SPI?SEEKFREE_OLED
   *DEL*:           000082H   BYTE   INSEG    CODE           ?PR?OLED_PRINTF_INT32_SPI?SEEKFREE_OLED
   *DEL*:           00001DH   BYTE   INSEG    CODE           ?PR?OLED_UINT16_SPI?SEEKFREE_OLED
   *DEL*:           0000A9H   BYTE   INSEG    CODE           ?PR?OLED_P6X8STR_SPI?SEEKFREE_OLED
   *DEL*:           00004BH   BYTE   INSEG    CODE           ?PR?OLED_INT16_SPI?SEEKFREE_OLED
   *DEL*:           00033BH   BYTE   INSEG    CODE           ?PR?OLED_DIS_BMP?SEEKFREE_OLED
   *DEL*:           0000BFH   BYTE   INSEG    CODE           ?PR?OLED_INIT_SPI?SEEKFREE_OLED
   *DEL*:           00002CH   BYTE   INSEG    CODE           ?PR?OLED_CLRPIXEL?SEEKFREE_OLED
   *DEL*:           000090H   BYTE   INSEG    CODE           ?PR?OLED_PRINT_CHINESE?SEEKFREE_OLED
   *DEL*:           000005H   BYTE   UNIT     EDATA          ?ED?OLED_P6X8STR?SEEKFREE_OLED
   *DEL*:           000007H   BYTE   UNIT     EDATA          ?ED?OLED_UINT16?SEEKFREE_OLED
   *DEL*:           000007H   BYTE   UNIT     EDATA          ?ED?OLED_INT16?SEEKFREE_OLED
   *DEL*:           000028H   BYTE   UNIT     EDATA          ?ED?OLED_PRINTF_INT32?SEEKFREE_OLED
   *DEL*:           00000CH   BYTE   UNIT     EDATA          ?ED?OLED_DIS_BMP?SEEKFREE_OLED
   *DEL*:           00000AH   BYTE   UNIT     EDATA          ?ED?OLED_PRINT_CHINESE?SEEKFREE_OLED
   *DEL*:           000005H   BYTE   UNIT     EDATA          ?ED?OLED_P6X8STR_SPI?SEEKFREE_OLED
   *DEL*:           000005H   BYTE   UNIT     EDATA          ?ED?OLED_P8X16STR_SPI?SEEKFREE_OLED
   *DEL*:           000007H   BYTE   UNIT     EDATA          ?ED?OLED_UINT16_SPI?SEEKFREE_OLED
   *DEL*:           000007H   BYTE   UNIT     EDATA          ?ED?OLED_INT16_SPI?SEEKFREE_OLED
   *DEL*:           000028H   BYTE   UNIT     EDATA          ?ED?OLED_PRINTF_INT32_SPI?SEEKFREE_OLED
   *DEL*:           00002BH   BYTE   UNIT     EDATA          ?ED?OLED_PRINTF_FLOAT_SPI?SEEKFREE_OLED
   *DEL*:           00000CH   BYTE   UNIT     EDATA          ?ED?OLED_DIS_BMP_SPI?SEEKFREE_OLED
   *DEL*:           00000AH   BYTE   UNIT     EDATA          ?ED?OLED_PRINT_CHINESE_SPI?SEEKFREE_OLED
   *DEL*:           00005EH   BYTE   INSEG    CODE           ?PR?AT24C02_READ_BYTES?SEEKFREE_AT24C02
   *DEL*:           000017H   BYTE   INSEG    CODE           ?PR?AT24C02_READ_BYTE?SEEKFREE_AT24C02
   *DEL*:           00005BH   BYTE   INSEG    CODE           ?PR?AT24C02_WRITE_BYTES?SEEKFREE_AT24C02
   *DEL*:           000019H   BYTE   INSEG    CODE           ?PR?AT24C02_WRITE_BYTE?SEEKFREE_AT24C02
   *DEL*:           000002H   BYTE   UNIT     EDATA          ?ED?AT24C02_WRITE_BYTES?SEEKFREE_AT24C02
   *DEL*:           000002H   BYTE   UNIT     EDATA          ?ED?AT24C02_READ_BYTES?SEEKFREE_AT24C02
   *DEL*:           000022H   BYTE   INSEG    CODE           ?PR?BLUETOOTH_CH9141_READ_BUFF?SEEKFREE_BLUETOOTH_CH9141
   *DEL*:           0000ABH   BYTE   INSEG    CODE           ?PR?BLUETOOTH_CH9141_SEND_BUFF?SEEKFREE_BLUETOOTH_CH9141
   *DEL*:           00003CH   BYTE   INSEG    CODE           ?PR?BLUETOOTH_CH9141_INIT?SEEKFREE_BLUETOOTH_CH9141
   *DEL*:           000006H   BYTE   UNIT     EDATA          ?ED?BLUETOOTH_CH9141_SEND_BUFF?SEEKFREE_BLUETOOTH_CH9141
   *DEL*:           000004H   BYTE   UNIT     EDATA          ?ED?BLUETOOTH_CH9141_READ_BUFF?SEEKFREE_BLUETOOTH_CH9141
   *DEL*:           00001FH   BYTE   INSEG    CODE           ?PR?ICM_SIMSPI_WR_BYTE?SEEKFREE_ICM20602
   *DEL*:           000075H   BYTE   INSEG    CODE           ?PR?ICM20602_INIT_SIMIIC?SEEKFREE_ICM20602
   *DEL*:           000040H   BYTE   INSEG    CODE           ?PR?ICM_SIMSPI_R_REG_BYTES?SEEKFREE_ICM20602
   *DEL*:           00001CH   BYTE   INSEG    CODE           ?PR?ICM_SIMSPI_R_REG_BYTE?SEEKFREE_ICM20602
   *DEL*:           000013H   BYTE   INSEG    CODE           ?PR?ICM_SIMSPI_W_REG_BYTE?SEEKFREE_ICM20602
   *DEL*:           000059H   BYTE   INSEG    CODE           ?PR?ICM20602_INIT_SIMSPI?SEEKFREE_ICM20602
   *DEL*:           00002BH   BYTE   INSEG    CODE           ?PR?ICM20602_SELF1_CHECK?SEEKFREE_ICM20602
   *DEL*:           000011H   BYTE   INSEG    CODE           ?PR?ICM20602_SELF4_CHECK?SEEKFREE_ICM20602
   *DEL*:           000044H   BYTE   INSEG    CODE           ?PR?GET_ICM20602_GYRO_SIMIIC?SEEKFREE_ICM20602
L251 LINKER/LOCATER V4.66.93.0                                                        03/17/2024  15:38:36  PAGE 10


   *DEL*:           000044H   BYTE   INSEG    CODE           ?PR?GET_ICM20602_ACCDATA_SIMIIC?SEEKFREE_ICM20602
   *DEL*:           00003DH   BYTE   INSEG    CODE           ?PR?GET_ICM20602_GYRO_SIMSPI?SEEKFREE_ICM20602
   *DEL*:           00003DH   BYTE   INSEG    CODE           ?PR?GET_ICM20602_ACCDATA_SIMSPI?SEEKFREE_ICM20602
   *DEL*:           000006H   BYTE   UNIT     EDATA          ?ED?GET_ICM20602_ACCDATA_SIMIIC?SEEKFREE_ICM20602
   *DEL*:           000006H   BYTE   UNIT     EDATA          ?ED?GET_ICM20602_GYRO_SIMIIC?SEEKFREE_ICM20602
   *DEL*:           000003H   BYTE   UNIT     EDATA          ?ED?ICM_SIMSPI_R_REG_BYTES?SEEKFREE_ICM20602
   *DEL*:           000001H   BYTE   UNIT     EDATA          ?ED?ICM20602_SELF4_CHECK?SEEKFREE_ICM20602
   *DEL*:           000001H   BYTE   UNIT     EDATA          ?ED?ICM20602_INIT_SIMSPI?SEEKFREE_ICM20602
   *DEL*:           000006H   BYTE   UNIT     EDATA          ?ED?GET_ICM20602_ACCDATA_SIMSPI?SEEKFREE_ICM20602
   *DEL*:           000006H   BYTE   UNIT     EDATA          ?ED?GET_ICM20602_GYRO_SIMSPI?SEEKFREE_ICM20602
   *DEL*:           00007BH   BYTE   INSEG    CODE           ?PR?IPS114_SHOWUINT8_SIMSPI?SEEKFREE_IPS114_SPI
   *DEL*:           000077H   BYTE   INSEG    CODE           ?PR?IPS114_SHOWUINT8?SEEKFREE_IPS114_SPI
   *DEL*:           0000B9H   BYTE   INSEG    CODE           ?PR?IPS114_SHOWINT8_SIMSPI?SEEKFREE_IPS114_SPI
   *DEL*:           0000B5H   BYTE   INSEG    CODE           ?PR?IPS114_SHOWINT8?SEEKFREE_IPS114_SPI
   *DEL*:           00001FH   BYTE   INSEG    CODE           ?PR?IPS114_WRITEDATA_16BIT?SEEKFREE_IPS114_SPI
   *DEL*:           0000F8H   BYTE   INSEG    CODE           ?PR?IPS114_SHOWFLOAT_SIMSPI?SEEKFREE_IPS114_SPI
   *DEL*:           000013H   BYTE   INSEG    CODE           ?PR?IPS114_DRAWPOINT_SIMSPI?SEEKFREE_IPS114_SPI
   *DEL*:           0000F8H   BYTE   INSEG    CODE           ?PR?IPS114_SHOWFLOAT?SEEKFREE_IPS114_SPI
   *DEL*:           000013H   BYTE   INSEG    CODE           ?PR?IPS114_DRAWPOINT?SEEKFREE_IPS114_SPI
   *DEL*:           00008EH   BYTE   INSEG    CODE           ?PR?IPS114_SHOWCHAR_SIMSPI?SEEKFREE_IPS114_SPI
   *DEL*:           00008EH   BYTE   INSEG    CODE           ?PR?IPS114_SHOWCHAR?SEEKFREE_IPS114_SPI
   *DEL*:           00008BH   BYTE   INSEG    CODE           ?PR?IPS114_SHOWUINT16_SIMSPI?SEEKFREE_IPS114_SPI
   *DEL*:           00008BH   BYTE   INSEG    CODE           ?PR?IPS114_SHOWUINT16?SEEKFREE_IPS114_SPI
   *DEL*:           000082H   BYTE   INSEG    CODE           ?PR?IPS114_SHOWINT32_SIMSPI?SEEKFREE_IPS114_SPI
   *DEL*:           0000DDH   BYTE   INSEG    CODE           ?PR?IPS114_SHOWINT16_SIMSPI?SEEKFREE_IPS114_SPI
   *DEL*:           000082H   BYTE   INSEG    CODE           ?PR?IPS114_SHOWINT32?SEEKFREE_IPS114_SPI
   *DEL*:           0000D9H   BYTE   INSEG    CODE           ?PR?IPS114_SHOWINT16?SEEKFREE_IPS114_SPI
   *DEL*:           00003CH   BYTE   INSEG    CODE           ?PR?IPS114_CLEAR_SIMSPI?SEEKFREE_IPS114_SPI
   *DEL*:           00003CH   BYTE   INSEG    CODE           ?PR?IPS114_CLEAR?SEEKFREE_IPS114_SPI
   *DEL*:           00002CH   BYTE   INSEG    CODE           ?PR?IPS114_WRITEDATAI_16BIT_SIMSPI?SEEKFREE_IPS114_SPI
   *DEL*:           00004EH   BYTE   INSEG    CODE           ?PR?IPS114_SHOWSTR_SIMSPI?SEEKFREE_IPS114_SPI
   *DEL*:           00004EH   BYTE   INSEG    CODE           ?PR?IPS114_SHOWSTR?SEEKFREE_IPS114_SPI
   *DEL*:           000029H   BYTE   INSEG    CODE           ?PR?IPS114_WRITEINDEX_SIMSPI?SEEKFREE_IPS114_SPI
   *DEL*:           000029H   BYTE   INSEG    CODE           ?PR?IPS114_WRITEDATA_SIMSPI?SEEKFREE_IPS114_SPI
   *DEL*:           00000AH   BYTE   INSEG    CODE           ?PR?IPS114_WRITEINDEX?SEEKFREE_IPS114_SPI
   *DEL*:           00000AH   BYTE   INSEG    CODE           ?PR?IPS114_WRITEDATA?SEEKFREE_IPS114_SPI
   *DEL*:           000044H   BYTE   INSEG    CODE           ?PR?IPS114_SET_REGION_SIMSPI?SEEKFREE_IPS114_SPI
   *DEL*:           00014FH   BYTE   INSEG    CODE           ?PR?IPS114_INIT_SIMSPI?SEEKFREE_IPS114_SPI
   *DEL*:           000048H   BYTE   INSEG    CODE           ?PR?IPS114_SET_REGION?SEEKFREE_IPS114_SPI
   *DEL*:           00016DH   BYTE   INSEG    CODE           ?PR?IPS114_INIT?SEEKFREE_IPS114_SPI
   *DEL*:           000004H   BYTE   UNIT     EDATA          ?ED?IPS114_SET_REGION_SIMSPI?SEEKFREE_IPS114_SPI
   *DEL*:           000002H   BYTE   UNIT     EDATA          ?ED?IPS114_CLEAR_SIMSPI?SEEKFREE_IPS114_SPI
   *DEL*:           000004H   BYTE   UNIT     EDATA          ?ED?IPS114_SHOWCHAR_SIMSPI?SEEKFREE_IPS114_SPI
   *DEL*:           000006H   BYTE   UNIT     EDATA          ?ED?IPS114_SHOWSTR_SIMSPI?SEEKFREE_IPS114_SPI
   *DEL*:           000005H   BYTE   UNIT     EDATA          ?ED?IPS114_SHOWINT8_SIMSPI?SEEKFREE_IPS114_SPI
   *DEL*:           000004H   BYTE   UNIT     EDATA          ?ED?IPS114_SHOWUINT8_SIMSPI?SEEKFREE_IPS114_SPI
   *DEL*:           000008H   BYTE   UNIT     EDATA          ?ED?IPS114_SHOWINT16_SIMSPI?SEEKFREE_IPS114_SPI
   *DEL*:           000006H   BYTE   UNIT     EDATA          ?ED?IPS114_SHOWUINT16_SIMSPI?SEEKFREE_IPS114_SPI
   *DEL*:           000028H   BYTE   UNIT     EDATA          ?ED?IPS114_SHOWINT32_SIMSPI?SEEKFREE_IPS114_SPI
   *DEL*:           00002BH   BYTE   UNIT     EDATA          ?ED?IPS114_SHOWFLOAT_SIMSPI?SEEKFREE_IPS114_SPI
   *DEL*:           000002H   BYTE   UNIT     EDATA          ?ED?IPS114_WRITEDATA_16BIT?SEEKFREE_IPS114_SPI
   *DEL*:           000004H   BYTE   UNIT     EDATA          ?ED?IPS114_SET_REGION?SEEKFREE_IPS114_SPI
   *DEL*:           000002H   BYTE   UNIT     EDATA          ?ED?IPS114_CLEAR?SEEKFREE_IPS114_SPI
   *DEL*:           000004H   BYTE   UNIT     EDATA          ?ED?IPS114_SHOWCHAR?SEEKFREE_IPS114_SPI
   *DEL*:           000006H   BYTE   UNIT     EDATA          ?ED?IPS114_SHOWSTR?SEEKFREE_IPS114_SPI
   *DEL*:           000005H   BYTE   UNIT     EDATA          ?ED?IPS114_SHOWINT8?SEEKFREE_IPS114_SPI
   *DEL*:           000004H   BYTE   UNIT     EDATA          ?ED?IPS114_SHOWUINT8?SEEKFREE_IPS114_SPI
   *DEL*:           000008H   BYTE   UNIT     EDATA          ?ED?IPS114_SHOWINT16?SEEKFREE_IPS114_SPI
   *DEL*:           000006H   BYTE   UNIT     EDATA          ?ED?IPS114_SHOWUINT16?SEEKFREE_IPS114_SPI
   *DEL*:           000028H   BYTE   UNIT     EDATA          ?ED?IPS114_SHOWINT32?SEEKFREE_IPS114_SPI
   *DEL*:           00002BH   BYTE   UNIT     EDATA          ?ED?IPS114_SHOWFLOAT?SEEKFREE_IPS114_SPI
   *DEL*:           000070H   BYTE   INSEG    CODE           ?PR?CCD_SEND_DATA?SEEKFREE_TSL1401
   *DEL*:           000016H   BYTE   INSEG    CODE           ?PR?CCD_INIT?SEEKFREE_TSL1401
   *DEL*:           000035H   BYTE   INSEG    CODE           ?PR?CCD_COLLECT?SEEKFREE_TSL1401
   *DEL*:           000003H   BYTE   UNIT     EDATA          ?ED?CCD_SEND_DATA?SEEKFREE_TSL1401
L251 LINKER/LOCATER V4.66.93.0                                                        03/17/2024  15:38:36  PAGE 11


   *DEL*:           00003AH   BYTE   INSEG    CODE           ?PR?CRC_CHECK?SEEKFREE_VIRSCO
   *DEL*:           000069H   BYTE   INSEG    CODE           ?PR?DATA_CONVERSION?SEEKFREE_VIRSCO
   *DEL*:           000004H   BYTE   UNIT     EDATA          ?ED?DATA_CONVERSION?SEEKFREE_VIRSCO
   *DEL*:           000022H   BYTE   INSEG    CODE           ?PR?WIRELESS_UART_READ_BUFF?SEEKFREE_WIRELESS
   *DEL*:           00005DH   BYTE   INSEG    CODE           ?PR?WIRELESS_UART_SEND_BUFF?SEEKFREE_WIRELESS
   *DEL*:           00003CH   BYTE   INSEG    CODE           ?PR?WIRELESS_UART_INIT?SEEKFREE_WIRELESS
   *DEL*:           000002H   BYTE   UNIT     EDATA          ?ED?WIRELESS_UART_SEND_BUFF?SEEKFREE_WIRELESS
   *DEL*:           000004H   BYTE   UNIT     EDATA          ?ED?WIRELESS_UART_READ_BUFF?SEEKFREE_WIRELESS
   *DEL*:           000022H   BYTE   INSEG    CODE           ?PR?WIRELESS_CH573_READ_BUFF?SEEKFREE_WIRELESS_CH573
   *DEL*:           00005DH   BYTE   INSEG    CODE           ?PR?WIRELESS_CH573_SEND_BUFF?SEEKFREE_WIRELESS_CH573
   *DEL*:           00003CH   BYTE   INSEG    CODE           ?PR?WIRELESS_CH573_INIT?SEEKFREE_WIRELESS_CH573
   *DEL*:           000002H   BYTE   UNIT     EDATA          ?ED?WIRELESS_CH573_SEND_BUFF?SEEKFREE_WIRELESS_CH573
   *DEL*:           000004H   BYTE   UNIT     EDATA          ?ED?WIRELESS_CH573_READ_BUFF?SEEKFREE_WIRELESS_CH573
   *DEL*:           000011H   BYTE   INSEG    CODE           ?PR?NUM2ABS?MOTOR
   *DEL*:           000013H   BYTE   INSEG    CODE           ?PR?MPU_SET_GYRO_FSR?MPU6050
   *DEL*:           000058H   BYTE   INSEG    CODE           ?PR?MPU_GET_ACCELEROMETER?MPU6050
   *DEL*:           000041H   BYTE   INSEG    CODE           ?PR?MPU_SET_LPF?MPU6050
   *DEL*:           000016H   BYTE   INSEG    CODE           ?PR?MPU_READ_BYTE?MPU6050
   *DEL*:           000013H   BYTE   INSEG    CODE           ?PR?MPU_SET_ACCEL_FSR?MPU6050
   *DEL*:           000031H   BYTE   INSEG    CODE           ?PR?ZERO_ALL?MPU6050
   *DEL*:           000069H   BYTE   INSEG    CODE           ?PR?MPU_INIT?MPU6050
   *DEL*:           00003BH   BYTE   INSEG    CODE           ?PR?MPU_GET_TEMPERATURE?MPU6050
   *DEL*:           000037H   BYTE   INSEG    CODE           ?PR?MPU_SET_RATE?MPU6050
   *DEL*:           000001H   BYTE   UNIT     EDATA          ?ED?MPU_READ_BYTE?MPU6050
   *DEL*:           000002H   BYTE   UNIT     EDATA          ?ED?MPU_GET_TEMPERATURE?MPU6050
   *DEL*:           00000EH   BYTE   UNIT     EDATA          ?ED?MPU_GET_ACCELEROMETER?MPU6050
   *DEL*:           0000D3H   BYTE   INSEG    CODE           ?PR?ELEM_BARRIER?ELEMENT
   *DEL*:           00002DH   BYTE   INSEG    CODE           ?PR?OLED_CHANGE_VALUE?UI



OVERLAY MAP OF MODULE:   .\Out_File\SEEKFREE (board)


FUNCTION/MODULE                               EDATA_GROUP
--> CALLED FUNCTION/MODULE                    START  STOP
=========================================================
UART1_Isr/isr                                 ----- -----

*** NEW ROOT ********************************

UART2_Isr/isr                                 ----- -----

*** NEW ROOT ********************************

UART3_Isr/isr                                 ----- -----

*** NEW ROOT ********************************

UART4_Isr/isr                                 ----- -----
  +--> wireless_uart_callback/SEEKFREE_WIRELESS
  +--> bluetooth_ch9141_uart_callback/SEEKFREE_BLUETOOTH_CH9141
  +--> wireless_ch573_callback/SEEKFREE_WIRELESS_CH573

wireless_uart_callback/SEEKFREE_WIRELESS      ----- -----
  +--> fifo_write_buffer/zf_fifo

fifo_write_buffer/zf_fifo                     030BH 0316H
  +--> memcpy?_/memcpy
  +--> fifo_head_offset/zf_fifo

memcpy?_/memcpy                               ----- -----

fifo_head_offset/zf_fifo                      ----- -----

L251 LINKER/LOCATER V4.66.93.0                                                        03/17/2024  15:38:36  PAGE 12


bluetooth_ch9141_uart_callback/SEEKFREE_+     ----- -----
... BLUETOOTH_CH9141
  +--> fifo_write_buffer/zf_fifo

wireless_ch573_callback/SEEKFREE_WIRELES+     ----- -----
... S_CH573
  +--> fifo_write_buffer/zf_fifo

*** NEW ROOT ********************************

INT0_Isr/isr                                  ----- -----

*** NEW ROOT ********************************

INT1_Isr/isr                                  ----- -----

*** NEW ROOT ********************************

INT2_Isr/isr                                  ----- -----

*** NEW ROOT ********************************

INT3_Isr/isr                                  ----- -----

*** NEW ROOT ********************************

INT4_Isr/isr                                  ----- -----

*** NEW ROOT ********************************

TM0_Isr/isr                                   ----- -----

*** NEW ROOT ********************************

TM1_Isr/isr                                   ----- -----

*** NEW ROOT ********************************

TM2_Isr/isr                                   ----- -----

*** NEW ROOT ********************************

TM3_Isr/isr                                   ----- -----

*** NEW ROOT ********************************

TM4_Isr/isr                                   ----- -----
  +--> pwm_duty/zf_pwm

pwm_duty/zf_pwm                               ----- -----

*** NEW ROOT ********************************

?C_C51STARTUP                                 ----- -----

*** NEW ROOT ********************************

?C_C51STARTUP?3                               ----- -----
  +--> main/main

main/main                                     ----- -----
  +--> Init_all/main
  +--> EnableGlobalIRQ/board
  +--> PRINTF/PRINTF
  +--> ui_show/UI
L251 LINKER/LOCATER V4.66.93.0                                                        03/17/2024  15:38:36  PAGE 13


  +--> GetKey_Value/Key
  +--> oled_all_static_state/UI
  +--> ADC_GetValue/ADC
  +--> MPU6050_Refresh_DMP/MPU6050
  +--> MPU_Get_Gyroscope/MPU6050
  +--> Get_Ratio/main
  +--> vl53l0x_get_distance/TOF
  +--> Elem_Circle/Element
  +--> PID_Calculate/PID
  +--> Limit_Out/motor
  +--> Elem_Up_Down/Element
  +--> Get_Speed/motor
  +--> Left_SetSpeed/motor
  +--> Right_SetSpeed/motor

Init_all/main                                 ----- -----
  +--> DisableGlobalIRQ/board
  +--> board_init/board
  +--> gpio_mode/zf_gpio
  +--> Key_Init/Key
  +--> vl53l0x_init/TOF
  +--> ui_init/UI
  +--> MPU6050_DMP_Init/MPU6050
  +--> pit_timer_ms/zf_tim
  +--> ctimer_count_init/zf_tim
  +--> Motor_Init/motor
  +--> Buzzer_Init/Buzzer
  +--> ADC_InitAll/ADC
  +--> PID_Init/PID

DisableGlobalIRQ/board                        ----- -----

board_init/board                              ----- -----
  +--> delay_init/zf_delay
  +--> uart_init/zf_uart

delay_init/zf_delay                           ----- -----
  +--> ?C?SLDIV/?C?SLDIV

?C?SLDIV/?C?SLDIV                             ----- -----
  +--> ?C?ULIDIV/?C?ULDIV

?C?ULIDIV/?C?ULDIV                            ----- -----

uart_init/zf_uart                             0317H 031CH
  +--> ?C?ULIDIV/?C?ULDIV

gpio_mode/zf_gpio                             ----- -----

Key_Init/Key                                  ----- -----
  +--> gpio_mode/zf_gpio

vl53l0x_init/TOF                              0317H 0328H
  +--> memset?_/memset
  +--> delay_ms/zf_delay
  +--> vl53l0x_simiic_read_reg/TOF
  +--> vl53l0x_simiic_write_reg/TOF
  +--> vl53l0x_simiic_read_regs/TOF
  +--> vl53l0x_set_signal_rate_limit/TOF
  +--> vl53l0x_get_spad_info/TOF
  +--> PRINTF/PRINTF
  +--> vl53l0x_simiic_write_dats/TOF
  +--> vl53l0x_get_measurement_timing_budget/TOF
  +--> vl53l0x_set_measurement_timing_budget/TOF
  +--> vl53l0x_perform_single_ref_calibration/TOF
L251 LINKER/LOCATER V4.66.93.0                                                        03/17/2024  15:38:36  PAGE 14



memset?_/memset                               ----- -----

delay_ms/zf_delay                             ----- -----

vl53l0x_simiic_read_reg/TOF                   ----- -----
  +--> vl53l0x_simiic_start/TOF
  +--> vl53l0x_send_ch/TOF
  +--> vl53l0x_read_ch/TOF
  +--> vl53l0x_simiic_stop/TOF

vl53l0x_simiic_start/TOF                      ----- -----
  +--> vl53l0x_simiic_delay/TOF

vl53l0x_simiic_delay/TOF                      ----- -----

vl53l0x_send_ch/TOF                           ----- -----
  +--> vl53l0x_simiic_delay/TOF
  +--> vl53l0x_sccb_waitack/TOF

vl53l0x_sccb_waitack/TOF                      ----- -----
  +--> vl53l0x_simiic_delay/TOF

vl53l0x_read_ch/TOF                           ----- -----
  +--> vl53l0x_simiic_delay/TOF
  +--> vl53l0x_simiic_sendack/TOF

vl53l0x_simiic_sendack/TOF                    ----- -----
  +--> vl53l0x_simiic_delay/TOF

vl53l0x_simiic_stop/TOF                       ----- -----
  +--> vl53l0x_simiic_delay/TOF

vl53l0x_simiic_write_reg/TOF                  ----- -----
  +--> vl53l0x_simiic_start/TOF
  +--> vl53l0x_send_ch/TOF
  +--> vl53l0x_simiic_stop/TOF

vl53l0x_simiic_read_regs/TOF                  0353H 0358H
  +--> vl53l0x_simiic_start/TOF
  +--> vl53l0x_send_ch/TOF
  +--> vl53l0x_read_ch/TOF
  +--> vl53l0x_simiic_stop/TOF

vl53l0x_set_signal_rate_limit/TOF             0329H 032BH
  +--> vl53l0x_simiic_write_dats/TOF

vl53l0x_simiic_write_dats/TOF                 034CH 0350H
  +--> vl53l0x_simiic_start/TOF
  +--> vl53l0x_send_ch/TOF
  +--> vl53l0x_simiic_stop/TOF

vl53l0x_get_spad_info/TOF                     0329H 0330H
  +--> vl53l0x_simiic_write_reg/TOF
  +--> vl53l0x_simiic_read_regs/TOF

PRINTF/PRINTF                                 0329H 0350H
  +--> OUT/PRINTF

OUT/PRINTF                                    ----- -----
  +--> PUTCH/PRINTF

PUTCH/PRINTF                                  ----- -----
  +--> putchar/board
  +--> OUT/PRINTF
L251 LINKER/LOCATER V4.66.93.0                                                        03/17/2024  15:38:36  PAGE 15



putchar/board                                 ----- -----
  +--> uart_putchar/zf_uart

uart_putchar/zf_uart                          ----- -----

vl53l0x_get_measurement_timing_budget/TO+     0329H 0343H
... F
  +--> vl53l0x_get_sequence_step_enables/TOF
  +--> vl53l0x_get_sequence_step_timeouts/TOF

vl53l0x_get_sequence_step_enables/TOF         034CH 034CH
  +--> vl53l0x_simiic_read_regs/TOF

vl53l0x_get_sequence_step_timeouts/TOF        034CH 0351H
  +--> vl53l0x_get_vcsel_pulse_period/TOF
  +--> vl53l0x_simiic_read_regs/TOF
  +--> vl53l0x_timeout_mclks_to_microseconds/TOF
  +--> vl53l0x_decode_timeout/TOF

vl53l0x_get_vcsel_pulse_period/TOF            0352H 0352H
  +--> vl53l0x_simiic_read_regs/TOF

vl53l0x_timeout_mclks_to_microseconds/TO+     ----- -----
... F
  +--> ?C?ULIDIV/?C?ULDIV

vl53l0x_decode_timeout/TOF                    ----- -----

vl53l0x_set_measurement_timing_budget/TO+     0329H 034BH
... F
  +--> vl53l0x_get_sequence_step_enables/TOF
  +--> vl53l0x_get_sequence_step_timeouts/TOF
  +--> vl53l0x_timeout_microseconds_to_mclks/TOF
  +--> vl53l0x_encode_timeout/TOF
  +--> vl53l0x_simiic_write_dats/TOF

vl53l0x_timeout_microseconds_to_mclks/TO+     ----- -----
... F
  +--> ?C?ULIDIV/?C?ULDIV

vl53l0x_encode_timeout/TOF                    ----- -----

vl53l0x_perform_single_ref_calibration/T+     0329H 032BH
... OF
  +--> vl53l0x_simiic_write_reg/TOF
  +--> vl53l0x_simiic_read_regs/TOF

ui_init/UI                                    ----- -----
  +--> oled_init/SEEKFREE_OLED
  +--> value_name_init/UI
  +--> oled_all_static_state/UI

oled_init/SEEKFREE_OLED                       ----- -----
  +--> delay_ms/zf_delay
  +--> oled_wrcmd/SEEKFREE_OLED
  +--> oled_fill/SEEKFREE_OLED
  +--> oled_set_pos/SEEKFREE_OLED

oled_wrcmd/SEEKFREE_OLED                      ----- -----

oled_fill/SEEKFREE_OLED                       ----- -----
  +--> oled_wrcmd/SEEKFREE_OLED
  +--> oled_wrdat/SEEKFREE_OLED

L251 LINKER/LOCATER V4.66.93.0                                                        03/17/2024  15:38:36  PAGE 16


oled_wrdat/SEEKFREE_OLED                      ----- -----

oled_set_pos/SEEKFREE_OLED                    ----- -----
  +--> oled_wrcmd/SEEKFREE_OLED

value_name_init/UI                            ----- -----
  +--> STRCPY?_/STRCPY?_

STRCPY?_/STRCPY?_                             ----- -----

oled_all_static_state/UI                      ----- -----
  +--> oled_p8x16str/SEEKFREE_OLED

oled_p8x16str/SEEKFREE_OLED                   0342H 0346H
  +--> oled_set_pos/SEEKFREE_OLED
  +--> oled_wrdat/SEEKFREE_OLED

MPU6050_DMP_Init/MPU6050                      ----- -----
  +--> initMPU6050/MPU6050
  +--> getDeviceID/MPU6050
  +--> dmpInitialize/MPU6050
  +--> MPU_Write_Bit/MPU6050

initMPU6050/MPU6050                           ----- -----
  +--> MPU_Write_Bits/MPU6050
  +--> MPU_Write_Bit/MPU6050

MPU_Write_Bits/MPU6050                        ----- -----
  +--> i2c_write_bits/MPU6050

i2c_write_bits/MPU6050                        031DH 031DH
  +--> i2c_mem_read/MPU6050
  +--> i2c_mem_write/MPU6050

i2c_mem_read/MPU6050                          0325H 0328H
  +--> i2c_start/MPU6050
  +--> i2c_write_byte/MPU6050
  +--> i2c_wait_ack/MPU6050
  +--> i2c_read_byte/MPU6050
  +--> i2c_stop/MPU6050

i2c_start/MPU6050                             ----- -----
  +--> I2C_SDA_H/MPU6050
  +--> I2C_SCL_H/MPU6050
  +--> i2c_delay/MPU6050
  +--> I2C_SDA_L/MPU6050
  +--> I2C_SCL_L/MPU6050

I2C_SDA_H/MPU6050                             ----- -----

I2C_SCL_H/MPU6050                             ----- -----

i2c_delay/MPU6050                             ----- -----

I2C_SDA_L/MPU6050                             ----- -----

I2C_SCL_L/MPU6050                             ----- -----

i2c_write_byte/MPU6050                        ----- -----
  +--> I2C_SCL_L/MPU6050
  +--> I2C_SDA_H/MPU6050
  +--> I2C_SDA_L/MPU6050
  +--> i2c_delay/MPU6050
  +--> I2C_SCL_H/MPU6050

L251 LINKER/LOCATER V4.66.93.0                                                        03/17/2024  15:38:36  PAGE 17


i2c_wait_ack/MPU6050                          ----- -----
  +--> I2C_SCL_H/MPU6050
  +--> i2c_delay/MPU6050
  +--> i2c_timeout_delay/MPU6050
  +--> i2c_stop/MPU6050
  +--> I2C_SDA_Read/MPU6050
  +--> I2C_SCL_L/MPU6050

i2c_timeout_delay/MPU6050                     ----- -----

i2c_stop/MPU6050                              ----- -----
  +--> I2C_SDA_L/MPU6050
  +--> I2C_SCL_H/MPU6050
  +--> i2c_delay/MPU6050
  +--> I2C_SDA_H/MPU6050

I2C_SDA_Read/MPU6050                          ----- -----

i2c_read_byte/MPU6050                         ----- -----
  +--> I2C_SCL_L/MPU6050
  +--> i2c_delay/MPU6050
  +--> I2C_SCL_H/MPU6050
  +--> I2C_SDA_Read/MPU6050
  +--> i2c_nack/MPU6050
  +--> i2c_ack/MPU6050

i2c_nack/MPU6050                              ----- -----
  +--> I2C_SCL_L/MPU6050
  +--> I2C_SDA_H/MPU6050
  +--> i2c_delay/MPU6050
  +--> I2C_SCL_H/MPU6050

i2c_ack/MPU6050                               ----- -----
  +--> I2C_SCL_L/MPU6050
  +--> I2C_SDA_L/MPU6050
  +--> i2c_delay/MPU6050
  +--> I2C_SCL_H/MPU6050
  +--> I2C_SDA_H/MPU6050

i2c_mem_write/MPU6050                         0320H 0323H
  +--> i2c_start/MPU6050
  +--> i2c_write_byte/MPU6050
  +--> i2c_wait_ack/MPU6050
  +--> i2c_stop/MPU6050

MPU_Write_Bit/MPU6050                         ----- -----
  +--> i2c_write_bit/MPU6050

i2c_write_bit/MPU6050                         031DH 031DH
  +--> i2c_mem_read/MPU6050
  +--> i2c_mem_write/MPU6050

getDeviceID/MPU6050                           0317H 0317H
  +--> MPU_Read_Bits/MPU6050

MPU_Read_Bits/MPU6050                         ----- -----
  +--> i2c_read_bits/MPU6050

i2c_read_bits/MPU6050                         031DH 0320H
  +--> i2c_mem_read/MPU6050

dmpInitialize/MPU6050                         0317H 031CH
  +--> MPU_Write_Bit/MPU6050
  +--> MPU_Delay_Ms/MPU6050
  +--> MPU_Write_Byte/MPU6050
L251 LINKER/LOCATER V4.66.93.0                                                        03/17/2024  15:38:36  PAGE 18


  +--> MPU_Read_Len/MPU6050
  +--> MPU_Read_Bit/MPU6050
  +--> MPU_Read_Bits/MPU6050
  +--> loadfirmware/MPU6050
  +--> loadcfgupd/MPU6050
  +--> MPU_Write_Bits/MPU6050
  +--> xdmpUpdates/MPU6050
  +--> getFIFOCount/MPU6050

MPU_Delay_Ms/MPU6050                          ----- -----
  +--> Delay1ms/MPU6050

Delay1ms/MPU6050                              ----- -----

MPU_Write_Byte/MPU6050                        031FH 031FH
  +--> i2c_mem_write/MPU6050

MPU_Read_Len/MPU6050                          ----- -----
  +--> i2c_mem_read/MPU6050

MPU_Read_Bit/MPU6050                          ----- -----
  +--> i2c_read_bit/MPU6050

i2c_read_bit/MPU6050                          031DH 031EH
  +--> i2c_mem_read/MPU6050

loadfirmware/MPU6050                          031DH 031EH
  +--> MPU_Write_Byte/MPU6050
  +--> MPU_Write_Len/MPU6050

MPU_Write_Len/MPU6050                         ----- -----
  +--> i2c_mem_write/MPU6050

loadcfgupd/MPU6050                            031DH 031EH
  +--> MPU_Write_Byte/MPU6050
  +--> MPU_Write_Len/MPU6050

xdmpUpdates/MPU6050                           031DH 031DH
  +--> MPU_Write_Byte/MPU6050
  +--> MPU_Write_Len/MPU6050

getFIFOCount/MPU6050                          031DH 031EH
  +--> MPU_Read_Len/MPU6050

pit_timer_ms/zf_tim                           ----- -----
  +--> ?C?SLDIV/?C?SLDIV

ctimer_count_init/zf_tim                      ----- -----

Motor_Init/motor                              ----- -----
  +--> pwm_init/zf_pwm

pwm_init/zf_pwm                               0317H 031EH
  +--> pwm_set_gpio/zf_pwm
  +--> ?C?ULIDIV/?C?ULDIV

pwm_set_gpio/zf_pwm                           ----- -----
  +--> gpio_mode/zf_gpio

Buzzer_Init/Buzzer                            ----- -----
  +--> pwm_init/zf_pwm

ADC_InitAll/ADC                               ----- -----
  +--> adc_init/zf_adc

L251 LINKER/LOCATER V4.66.93.0                                                        03/17/2024  15:38:36  PAGE 19


adc_init/zf_adc                               ----- -----

PID_Init/PID                                  0317H 0326H

EnableGlobalIRQ/board                         ----- -----

ui_show/UI                                    ----- -----
  +--> refresh_value/UI
  +--> oled_show/UI

refresh_value/UI                              ----- -----

oled_show/UI                                  ----- -----
  +--> refresh_value/UI
  +--> oled_printf_float/SEEKFREE_OLED

oled_printf_float/SEEKFREE_OLED               0317H 0341H
  +--> zf_sprintf/SEEKFREE_PRINTF
  +--> oled_p8x16str/SEEKFREE_OLED

zf_sprintf/SEEKFREE_PRINTF                    0342H 03A0H
  +--> number_conversion_ascii/SEEKFREE_PRINTF
  +--> printf_reverse_order/SEEKFREE_PRINTF
  +--> memcpy?_/memcpy

number_conversion_ascii/SEEKFREE_PRINTF       03A1H 03A1H
  +--> ?C?SLDIV/?C?SLDIV
  +--> ?C?ULIDIV/?C?ULDIV

printf_reverse_order/SEEKFREE_PRINTF          ----- -----

GetKey_Value/Key                              ----- -----

ADC_GetValue/ADC                              ----- -----
  +--> adc_once/zf_adc

adc_once/zf_adc                               ----- -----

MPU6050_Refresh_DMP/MPU6050                   ----- -----
  +--> getFIFOCount/MPU6050
  +--> MPU_Read_Len/MPU6050
  +--> MPU_Write_Bit/MPU6050
  +--> readdmp/MPU6050
  +--> atan2?_/atan2

readdmp/MPU6050                               ----- -----
  +--> MPU_Read_Len/MPU6050

atan2?_/atan2                                 ----- -----

MPU_Get_Gyroscope/MPU6050                     0317H 0324H
  +--> MPU_Read_Len/MPU6050

Get_Ratio/main                                ----- -----

vl53l0x_get_distance/TOF                      0317H 0319H
  +--> vl53l0x_simiic_read_regs_1/TOF
  +--> vl53l0x_simiic_write_reg/TOF

vl53l0x_simiic_read_regs_1/TOF                031AH 031FH
  +--> vl53l0x_simiic_start/TOF
  +--> vl53l0x_send_ch/TOF
  +--> vl53l0x_read_ch/TOF
  +--> vl53l0x_simiic_stop/TOF

L251 LINKER/LOCATER V4.66.93.0                                                        03/17/2024  15:38:36  PAGE 20


Elem_Circle/Element                           ----- -----

PID_Calculate/PID                             0317H 031AH
  +--> Limit_Out/motor

Limit_Out/motor                               031BH 031EH

Elem_Up_Down/Element                          ----- -----

Get_Speed/motor                               ----- -----
  +--> ctimer_count_read/zf_tim
  +--> ctimer_count_clean/zf_tim

ctimer_count_read/zf_tim                      ----- -----

ctimer_count_clean/zf_tim                     ----- -----

Left_SetSpeed/motor                           ----- -----
  +--> abs?_/ABS
  +--> pwm_duty/zf_pwm

abs?_/ABS                                     ----- -----

Right_SetSpeed/motor                          ----- -----
  +--> abs?_/ABS
  +--> pwm_duty/zf_pwm

*** NEW ROOT ********************************

?C_C51STARTUP?2                               ----- -----



PUBLIC SYMBOLS OF MODULE:  .\Out_File\SEEKFREE (board)


      VALUE       CLASS    TYPE      PUBLIC SYMBOL NAME
      =================================================
      00FF111EH   CODE     NEAR LAB  ?C?CASTF
      000000FFH   NUMBER   ---       ?C?CODESEG
      00FF10EBH   CODE     NEAR LAB  ?C?FCASTC
      00FF10E6H   CODE     NEAR LAB  ?C?FCASTI
      00FF10E1H   CODE     NEAR LAB  ?C?FCASTL
      00FF18BFH   CODE     ---       ?C?FP2SERIES
      00FF0EB4H   CODE     ---       ?C?FPADD
      00FF108FH   CODE     ---       ?C?FPCMP
      00FF108DH   CODE     ---       ?C?FPCMP3
      00FF17C4H   CODE     ---       ?C?FPCONVERT
      00FF100CH   CODE     ---       ?C?FPDIV
      00FF1237H   CODE     ---       ?C?FPGETOPN2
      00FF0F6CH   CODE     ---       ?C?FPMUL
      00FF1274H   CODE     ---       ?C?FPNANRESULT
      00FF10D3H   CODE     ---       ?C?FPNEG
      00FF127CH   CODE     ---       ?C?FPOVERFLOW
      00FF1250H   CODE     ---       ?C?FPRESULT
      00FF1266H   CODE     ---       ?C?FPRESULT2
      00FF187CH   CODE     ---       ?C?FPROUND
      00FF18C8H   CODE     ---       ?C?FPSERIES
      00FF0EB1H   CODE     ---       ?C?FPSUB
      00FF1279H   CODE     ---       ?C?FPUNDERFLOW
      00FF191CH   CODE     ---       ?C?FTNPWR
      00FF5D4DH   CODE     ---       ?C?INITEDATA
      00FF6689H   HCONST   WORD      ?C?INITEDATA_END
      00FF1996H   CODE     ---       ?C?LIMUL
      00FF1985H   CODE     ---       ?C?LMUL
L251 LINKER/LOCATER V4.66.93.0                                                        03/17/2024  15:38:36  PAGE 21


      00FF12B5H   CODE     ---       ?C?PRNFMT
      00FF1953H   CODE     ---       ?C?SIDIV
      00FF19F2H   CODE     NEAR LAB  ?C?SLDIV
      00FF0000H   CODE     ---       ?C?STARTUP
      00FF19A1H   CODE     NEAR LAB  ?C?ULDIV
      00FF199FH   CODE     NEAR LAB  ?C?ULIDIV
      00000001H   NUMBER   ---       ?C?XDATASEG
      00FF0000H   CODE     ---       ?C_STARTUP
*DEL*:1FFFFFF8H   EDATA    BYTE      ?data_conversion?BYTE
*DEL*:1FFFFFF8H   EDATA    BYTE      ?fifo_init?BYTE
*DEL*:1FFFFFFCH   EDATA    BYTE      ?fifo_read_buffer?BYTE
      00000307H   EDATA    BYTE      ?fifo_write_buffer?BYTE
*DEL*:1FFFFFFAH   EDATA    BYTE      ?iic_init?BYTE
*DEL*:1FFFFFFCH   EDATA    BYTE      ?ips114_showfloat?BYTE
*DEL*:1FFFFFFCH   EDATA    BYTE      ?ips114_showfloat_simspi?BYTE
*DEL*:1FFFFFFCH   EDATA    BYTE      ?lcd_showfloat?BYTE
*DEL*:1FFFFFFCH   EDATA    BYTE      ?lcd_showfloat_simspi?BYTE
      00000313H   EDATA    BYTE      ?Limit_Out?BYTE
*DEL*:1FFFFFFCH   EDATA    BYTE      ?MPU_Get_Accelerometer?BYTE
      00000313H   EDATA    BYTE      ?MPU_Get_Gyroscope?BYTE
      00000398H   EDATA    BYTE      ?number_conversion_ascii?BYTE
      00000313H   EDATA    BYTE      ?oled_printf_float?BYTE
*DEL*:1FFFFFFCH   EDATA    BYTE      ?oled_printf_float_spi?BYTE
      0000030FH   EDATA    BYTE      ?PID_Calculate?BYTE
      0000030FH   EDATA    BYTE      ?PID_Init?BYTE
      00000351H   EDATA    ---       ?printf?BYTE
*DEL*:1FFFFFFAH   EDATA    BYTE      ?pwm_freq?BYTE
      00000315H   EDATA    BYTE      ?pwm_init?BYTE
*DEL*:1FFFFFF7H   EDATA    BYTE      ?spi_init?BYTE
      00000311H   EDATA    BYTE      ?uart_init?BYTE
      0000036AH   EDATA    BYTE      ?zf_sprintf?BYTE
      000003F2H   EDATA    CHAR      A
      00000417H   EDATA    CHAR      A1
      00FF6458H   CODE     ---       abs?_
      00000586H   EDATA    ---       ADC_Array_Original
*SFR* 000000BCH   DATA     BYTE      ADC_CONTR
      00FF428BH   CODE     ---       ADC_GetValue
      00FF57A4H   CODE     ---       adc_init
      00FF6111H   CODE     ---       ADC_InitAll
      00FF608AH   CODE     ---       adc_once
      000005C2H   EDATA    ---       ADC_proc
*SFR* 000000BDH   DATA     BYTE      ADC_RES
*SFR* 000000BEH   DATA     BYTE      ADC_RESL
*SFR* 000000DEH   DATA     BYTE      ADCCFG
      00000607H   EDATA    FLOAT     Adjust_Val
      00FF1217H   CODE     ---       asin?_
*DEL*:00000000H   CODE     ---       at24c02_read_byte
*DEL*:00000000H   CODE     ---       at24c02_read_bytes
*DEL*:00000000H   CODE     ---       at24c02_write_byte
*DEL*:00000000H   CODE     ---       at24c02_write_bytes
      00FF5BF0H   CODE     ---       atan2?_
      00FF16E4H   CODE     ---       ATAN?_
*SFR* 000000EFH   DATA     BYTE      AUXINTIF
*SFR* 0000008EH   DATA     BYTE      AUXR
      00000632H   EDATA    CHAR      Avoid_ON
      00000629H   EDATA    CHAR      Barrier_Executed
      00000625H   EDATA    CHAR      Barrier_Flag1
      00000626H   EDATA    CHAR      Barrier_Flag2
      00000627H   EDATA    CHAR      Barrier_Flag3
      00000628H   EDATA    CHAR      Barrier_Flag4
*DEL*:00000000H   CODE     ---       bluetooth_ch9141_init
*DEL*:00000000H   CODE     ---       bluetooth_ch9141_read_buff
*DEL*:00000000H   CODE     ---       bluetooth_ch9141_send_buff
      00FF634FH   CODE     ---       bluetooth_ch9141_uart_callback
      00FF51CBH   CODE     ---       board_init
L251 LINKER/LOCATER V4.66.93.0                                                        03/17/2024  15:38:36  PAGE 22


      00000306H   EDATA    ---       busy
      00FF6437H   CODE     ---       Buzzer_Init
*DEL*:00000000H   CODE     ---       ccd_collect
      0000013EH   EDATA    ---       ccd_data
*DEL*:00000000H   CODE     ---       ccd_init
*DEL*:00000000H   CODE     ---       ccd_send_data
      0000061CH   EDATA    FLOAT     Circle_Flag
      00000669H   EDATA    CHAR      clear_Num
      0000066DH   EDATA    CHAR      count
*DEL*:00000000H   CODE     ---       CRC_CHECK
      00FF5ABBH   CODE     ---       ctimer_count_clean
      00FF5BA6H   CODE     ---       ctimer_count_init
      00FF5B0CH   CODE     ---       ctimer_count_read
*DEL*:00000000H   CODE     ---       data_conversion
      00FF64F6H   CODE     ---       Delay1ms
      00000620H   EDATA    CHAR      delay_10ms
      00FF5EE5H   CODE     ---       delay_init
      00FF639AH   CODE     ---       delay_ms
*DEL*:00000000H   CODE     ---       delay_us
      0000060FH   EDATA    FLOAT     Diff
      0000060BH   EDATA    FLOAT     Diff_Mid
      00FF0016H   CODE     ---       DisableGlobalIRQ
      00FF1A55H   CODE     ---       dmpcfgupddata
      0000044CH   EDATA    ---       dmpdatas
      00FF3D24H   CODE     ---       dmpInitialize
      00FF1B15H   CODE     ---       dmpmemorydata
      00FF1A26H   CODE     ---       dmpUpdates
*SFR* 000000A8H.7 DATA     BIT       EA
*DEL*:00000000H   CODE     ---       eeprom_trig
*DEL*:00000000H   CODE     ---       Elem_Barrier
      00FF43D6H   CODE     ---       Elem_Circle
      00FF5E6EH   CODE     ---       Elem_Up_Down
      00FF000EH   CODE     ---       EnableGlobalIRQ
*DEL*:00000000H   CODE     ---       encoder_angle_simspi
*DEL*:00000000H   CODE     ---       encoder_angle_spi
*DEL*:00000000H   CODE     ---       encoder_delay_us
*DEL*:00000000H   CODE     ---       encoder_init_simspi
*DEL*:00000000H   CODE     ---       encoder_init_spi
*DEL*:00000000H   CODE     ---       encoder_self4_check
*DEL*:00000000H   CODE     ---       encoder_self5_check
*DEL*:00000000H   CODE     ---       encoder_simspi_r_reg_byte
*DEL*:00000000H   CODE     ---       encoder_simspi_w_reg_byte
*DEL*:00000000H   CODE     ---       encoder_spi_r_reg_byte
*DEL*:00000000H   CODE     ---       encoder_spi_w_reg_byte
*SFR* 000000A8H.4 DATA     BIT       ES
*SFR* 000000A8H.1 DATA     BIT       ET0
*SFR* 000000A8H.3 DATA     BIT       ET1
*SFR* 000000A8H.0 DATA     BIT       EX0
*SFR* 000000A8H.2 DATA     BIT       EX1
*DEL*:00000000H   CODE     ---       exit_init
      000005DAH   EDATA    FLOAT     Exp_Speed
      000005F3H   EDATA    FLOAT     Exp_Speed_L
      000005F7H   EDATA    FLOAT     Exp_Speed_R
*DEL*:00000000H   CODE     ---       extern_iap_write_bytes
*SFR* 000000D0H.5 DATA     BIT       F0
*DEL*:00000000H   CODE     ---       fifo_clear
*DEL*:00000000H   CODE     ---       fifo_end_offset
      00FF5C79H   CODE     ---       fifo_head_offset
*DEL*:00000000H   CODE     ---       fifo_init
*DEL*:00000000H   CODE     ---       fifo_read_buffer
*DEL*:00000000H   CODE     ---       fifo_used
      00FF48C5H   CODE     ---       fifo_write_buffer
*DEL*:00000000H   CODE     ---       get_icm20602_accdata_simiic
*DEL*:00000000H   CODE     ---       get_icm20602_accdata_simspi
*DEL*:00000000H   CODE     ---       get_icm20602_gyro_simiic
L251 LINKER/LOCATER V4.66.93.0                                                        03/17/2024  15:38:36  PAGE 23


*DEL*:00000000H   CODE     ---       get_icm20602_gyro_simspi
      00FF560FH   CODE     ---       Get_Ratio
      00FF56E2H   CODE     ---       Get_Speed
      00FF62B9H   CODE     ---       getDeviceID
      00FF0026H   CODE     ---       getFIFOCount
      00FF54BBH   CODE     ---       GetKey_Value
      00FF2DB3H   CODE     ---       gpio_mode
*DEL*:00000000H   CODE     ---       gpio_pull_set
      000005FFH   EDATA    INT       gx
      00000601H   EDATA    INT       gy
      00000603H   EDATA    INT       gz
      00FF63B1H   CODE     ---       i2c_ack
      00FF64EBH   CODE     ---       i2c_delay
      00FF53CAH   CODE     ---       i2c_mem_read
      00FF5745H   CODE     ---       i2c_mem_write
      00FF6402H   CODE     ---       i2c_nack
      00FF5FF1H   CODE     ---       i2c_read_bit
      00FF55A4H   CODE     ---       i2c_read_bits
      00FF5F1EH   CODE     ---       i2c_read_byte
      00FF005EH   CODE     ---       I2C_SCL_H
      00FF0086H   CODE     ---       I2C_SCL_L
      00FF001EH   CODE     ---       I2C_SDA_H
      00FF0056H   CODE     ---       I2C_SDA_L
      00FF0006H   CODE     ---       I2C_SDA_Read
      00FF6414H   CODE     ---       i2c_start
      00FF6468H   CODE     ---       i2c_stop
      00FF64D5H   CODE     ---       i2c_timeout_delay
      00FF613CH   CODE     ---       i2c_wait_ack
      00FF585FH   CODE     ---       i2c_write_bit
      00FF534DH   CODE     ---       i2c_write_bits
      00FF6024H   CODE     ---       i2c_write_byte
*SFR* 000000F6H   DATA     BYTE      IAP_ADDRE
*SFR* 000000C3H   DATA     BYTE      IAP_ADDRH
*SFR* 000000C4H   DATA     BYTE      IAP_ADDRL
*SFR* 000000C5H   DATA     BYTE      IAP_CMD
*SFR* 000000C7H   DATA     BYTE      IAP_CONTR
*SFR* 000000C2H   DATA     BYTE      IAP_DATA
*DEL*:00000000H   CODE     ---       iap_erase_page
*DEL*:00000000H   CODE     ---       iap_get_cmd_state
*DEL*:00000000H   CODE     ---       iap_idle
*DEL*:00000000H   CODE     ---       iap_init
*DEL*:00000000H   CODE     ---       iap_read_bytes
*DEL*:00000000H   CODE     ---       iap_set_tps
*SFR* 000000F5H   DATA     BYTE      IAP_TPS
*SFR* 000000C6H   DATA     BYTE      IAP_TRIG
*DEL*:00000000H   CODE     ---       iap_write_bytes
*DEL*:00000000H   CODE     ---       icm20602_init_simiic
*DEL*:00000000H   CODE     ---       icm20602_init_simspi
*DEL*:00000000H   CODE     ---       icm20602_self1_check
*DEL*:00000000H   CODE     ---       icm20602_self4_check
      00000640H   EDATA    INT       icm_acc_x
      00000642H   EDATA    INT       icm_acc_y
      00000644H   EDATA    INT       icm_acc_z
      00000646H   EDATA    INT       icm_gyro_x
      00000648H   EDATA    INT       icm_gyro_y
      0000064AH   EDATA    INT       icm_gyro_z
*DEL*:00000000H   CODE     ---       icm_simspi_r_reg_byte
*DEL*:00000000H   CODE     ---       icm_simspi_r_reg_bytes
*DEL*:00000000H   CODE     ---       icm_simspi_w_reg_byte
*DEL*:00000000H   CODE     ---       icm_simspi_wr_byte
*SFR* 000000A8H   DATA     BYTE      IE
*SFR* 000000AFH   DATA     BYTE      IE2
      00000656H   EDATA    BYTE      IIC_ad_main
      00000658H   EDATA    BYTE      IIC_ad_sub
      00000659H   EDATA    ---       IIC_buf
L251 LINKER/LOCATER V4.66.93.0                                                        03/17/2024  15:38:36  PAGE 24


*DEL*:00000000H   CODE     ---       iic_change_pin
*DEL*:00000000H   CODE     ---       iic_delay_us
*DEL*:00000000H   CODE     ---       iic_init
      00000657H   EDATA    BYTE      IIC_num
*DEL*:00000000H   CODE     ---       iic_read_reg
*DEL*:00000000H   CODE     ---       iic_read_reg_bytes
*DEL*:00000000H   CODE     ---       iic_write_reg
      00FF4A80H   CODE     ---       Init_all
      00FF6057H   CODE     ---       initMPU6050
      00FF653AH   CODE     ---       INT0_Isr
      00FF0011H   CODE     ---       INT1_Isr
      00FF6512H   CODE     ---       INT2_Isr
      00FF651AH   CODE     ---       INT3_Isr
      00FF6522H   CODE     ---       INT4_Isr
*SFR* 0000008FH   DATA     BYTE      INTCLKO
*SFR* 000000B8H   DATA     BYTE      IP
*SFR* 000000B5H   DATA     BYTE      IP2
*SFR* 000000B6H   DATA     BYTE      IP2H
*SFR* 000000B7H   DATA     BYTE      IPH
*DEL*:00000000H   CODE     ---       ips114_clear
*DEL*:00000000H   CODE     ---       ips114_clear_simspi
*DEL*:00000000H   CODE     ---       ips114_drawpoint
*DEL*:00000000H   CODE     ---       ips114_drawpoint_simspi
*DEL*:00000000H   CODE     ---       ips114_init
*DEL*:00000000H   CODE     ---       ips114_init_simspi
*DEL*:00000000H   CODE     ---       ips114_set_region
*DEL*:00000000H   CODE     ---       ips114_set_region_simspi
*DEL*:00000000H   CODE     ---       ips114_showchar
*DEL*:00000000H   CODE     ---       ips114_showchar_simspi
*DEL*:00000000H   CODE     ---       ips114_showfloat
*DEL*:00000000H   CODE     ---       ips114_showfloat_simspi
*DEL*:00000000H   CODE     ---       ips114_showint16
*DEL*:00000000H   CODE     ---       ips114_showint16_simspi
*DEL*:00000000H   CODE     ---       ips114_showint32
*DEL*:00000000H   CODE     ---       ips114_showint32_simspi
*DEL*:00000000H   CODE     ---       ips114_showint8
*DEL*:00000000H   CODE     ---       ips114_showint8_simspi
*DEL*:00000000H   CODE     ---       ips114_showstr
*DEL*:00000000H   CODE     ---       ips114_showstr_simspi
*DEL*:00000000H   CODE     ---       ips114_showuint16
*DEL*:00000000H   CODE     ---       ips114_showuint16_simspi
*DEL*:00000000H   CODE     ---       ips114_showuint8
*DEL*:00000000H   CODE     ---       ips114_showuint8_simspi
*DEL*:00000000H   CODE     ---       ips114_writeData
*DEL*:00000000H   CODE     ---       ips114_writedata_16bit
*DEL*:00000000H   CODE     ---       ips114_writeData_simspi
*DEL*:00000000H   CODE     ---       ips114_writeDatai_16bit_simspi
*DEL*:00000000H   CODE     ---       ips114_writeIndex
*DEL*:00000000H   CODE     ---       ips114_writeIndex_simspi
      00000606H   EDATA    CHAR      Isr_flag_10
*SFR* 00000088H.0 DATA     BIT       IT0
*SFR* 00000088H.2 DATA     BIT       IT1
      00FF622DH   CODE     ---       Key_Init
      000005F2H   EDATA    CHAR      KeyValue
*DEL*:00000000H   CODE     ---       lcd_clear
*DEL*:00000000H   CODE     ---       lcd_clear_simspi
*DEL*:00000000H   CODE     ---       lcd_drawpoint
*DEL*:00000000H   CODE     ---       lcd_drawpoint_simspi
*DEL*:00000000H   CODE     ---       lcd_init
*DEL*:00000000H   CODE     ---       lcd_init_simspi
*DEL*:00000000H   CODE     ---       lcd_set_region
*DEL*:00000000H   CODE     ---       lcd_set_region_simspi
*DEL*:00000000H   CODE     ---       lcd_showchar
*DEL*:00000000H   CODE     ---       lcd_showchar_simspi
*DEL*:00000000H   CODE     ---       lcd_showfloat
L251 LINKER/LOCATER V4.66.93.0                                                        03/17/2024  15:38:36  PAGE 25


*DEL*:00000000H   CODE     ---       lcd_showfloat_simspi
*DEL*:00000000H   CODE     ---       lcd_showint16
*DEL*:00000000H   CODE     ---       lcd_showint16_simspi
*DEL*:00000000H   CODE     ---       lcd_showint32
*DEL*:00000000H   CODE     ---       lcd_showint32_simspi
*DEL*:00000000H   CODE     ---       lcd_showint8
*DEL*:00000000H   CODE     ---       lcd_showint8_simspi
*DEL*:00000000H   CODE     ---       lcd_showstr
*DEL*:00000000H   CODE     ---       lcd_showstr_simspi
*DEL*:00000000H   CODE     ---       lcd_showuint16
*DEL*:00000000H   CODE     ---       lcd_showuint16_simspi
*DEL*:00000000H   CODE     ---       lcd_showuint8
*DEL*:00000000H   CODE     ---       lcd_showuint8_simspi
*DEL*:00000000H   CODE     ---       lcd_writeData
*DEL*:00000000H   CODE     ---       lcd_writedata_16bit
*DEL*:00000000H   CODE     ---       lcd_writeData_16bit_simspi
*DEL*:00000000H   CODE     ---       lcd_writeData_simspi
*DEL*:00000000H   CODE     ---       lcd_writeIndex
*DEL*:00000000H   CODE     ---       lcd_writeIndex_simspi
      00FF4C21H   CODE     ---       Left_SetSpeed
      000003CAH   EDATA    ---       Left_Wheel_PID
      00FF60E6H   CODE     ---       Limit_Out
      00FF4E4CH   CODE     ---       loadcfgupd
      00FF524CH   CODE     ---       loadfirmware
      00FF31AAH   CODE     ---       main
      00FF6208H   CODE     ---       memcpy?_
      00FF6335H   CODE     ---       memset?_
      00000668H   EDATA    CHAR      Mode
      00FF5C35H   CODE     ---       Motor_Init
      00FF6274H   CODE     ---       MPU6050_DMP_Init
*DEL*:00000000H   CODE     ---       mpu6050_get_accdata
*DEL*:00000000H   CODE     ---       mpu6050_get_gyro
*DEL*:00000000H   CODE     ---       mpu6050_init
      00FF3A8AH   CODE     ---       MPU6050_Refresh_DMP
*DEL*:00000000H   CODE     ---       mpu6050_self1_check
      00000634H   EDATA    INT       mpu_acc_x
      00000636H   EDATA    INT       mpu_acc_y
      00000638H   EDATA    INT       mpu_acc_z
      00FF63DBH   CODE     ---       MPU_Delay_Ms
*DEL*:00000000H   CODE     ---       MPU_Get_Accelerometer
      00FF58BBH   CODE     ---       MPU_Get_Gyroscope
*DEL*:00000000H   CODE     ---       MPU_Get_Temperature
      0000063AH   EDATA    INT       mpu_gyro_x
      0000063CH   EDATA    INT       mpu_gyro_y
      0000063EH   EDATA    INT       mpu_gyro_z
*DEL*:00000000H   CODE     ---       MPU_Init
      00FF6500H   CODE     ---       MPU_Read_Bit
      00FF0046H   CODE     ---       MPU_Read_Bits
*DEL*:00000000H   CODE     ---       MPU_Read_Byte
      00FF64CAH   CODE     ---       MPU_Read_Len
*DEL*:00000000H   CODE     ---       MPU_Set_Accel_Fsr
*DEL*:00000000H   CODE     ---       MPU_Set_Gyro_Fsr
*DEL*:00000000H   CODE     ---       MPU_Set_LPF
*DEL*:00000000H   CODE     ---       MPU_Set_Rate
      00000476H   EDATA    CHAR      mpu_state
      00FF64B0H   CODE     ---       MPU_Write_Bit
      00FF64A3H   CODE     ---       MPU_Write_Bits
      00FF63C6H   CODE     ---       MPU_Write_Byte
      00FF64E0H   CODE     ---       MPU_Write_Len
      00000605H   EDATA    CHAR      Num1
*DEL*:00000000H   CODE     ---       Num2Abs
      00FF5029H   CODE     ---       number_conversion_ascii
*DEL*:00000000H   CODE     ---       NVIC_SetPriority
      00FF0C86H   CODE     ---       oled_6x8
      00FF00A6H   CODE     ---       oled_8x16
L251 LINKER/LOCATER V4.66.93.0                                                        03/17/2024  15:38:36  PAGE 26


      00FF5CFBH   CODE     ---       oled_all_static_state
*DEL*:00000000H   CODE     ---       oled_change_value
*DEL*:00000000H   CODE     ---       oled_clrpixel
*DEL*:00000000H   CODE     ---       oled_clrpixel_spi
*DEL*:00000000H   CODE     ---       oled_dis_bmp
*DEL*:00000000H   CODE     ---       oled_dis_bmp_spi
      00FF5FBEH   CODE     ---       oled_fill
*DEL*:00000000H   CODE     ---       oled_fill_spi
*DEL*:00000000H   CODE     ---       oled_hexascii
*DEL*:00000000H   CODE     ---       oled_hexascii_spi
      00FF4EF2H   CODE     ---       oled_init
*DEL*:00000000H   CODE     ---       oled_init_spi
*DEL*:00000000H   CODE     ---       oled_int16
*DEL*:00000000H   CODE     ---       oled_int16_spi
*DEL*:00000000H   CODE     ---       oled_p6x8str
*DEL*:00000000H   CODE     ---       oled_p6x8str_spi
      00FF46F9H   CODE     ---       oled_p8x16str
*DEL*:00000000H   CODE     ---       oled_p8x16str_spi
*DEL*:00000000H   CODE     ---       oled_print_chinese
*DEL*:00000000H   CODE     ---       oled_print_chinese_spi
      00FF4511H   CODE     ---       oled_printf_float
*DEL*:00000000H   CODE     ---       oled_printf_float_spi
*DEL*:00000000H   CODE     ---       oled_printf_int32
*DEL*:00000000H   CODE     ---       oled_printf_int32_spi
*DEL*:00000000H   CODE     ---       oled_putpixel
*DEL*:00000000H   CODE     ---       oled_putpixel_spi
      00FF6251H   CODE     ---       oled_set_pos
*DEL*:00000000H   CODE     ---       oled_set_pos_spi
      00FF5CBBH   CODE     ---       oled_show
*DEL*:00000000H   CODE     ---       oled_uint16
*DEL*:00000000H   CODE     ---       oled_uint16_spi
      00FF6166H   CODE     ---       oled_wrcmd
*DEL*:00000000H   CODE     ---       oled_wrcmd_spi
      00FF618FH   CODE     ---       oled_wrdat
*DEL*:00000000H   CODE     ---       oled_wrdat_spi
*SFR* 00000080H   DATA     BYTE      P0
*SFR* 00000080H.7 DATA     BIT       P07
*SFR* 00000094H   DATA     BYTE      P0M0
*SFR* 00000093H   DATA     BYTE      P0M1
*SFR* 00000090H   DATA     BYTE      P1
*SFR* 00000092H   DATA     BYTE      P1M0
*SFR* 00000091H   DATA     BYTE      P1M1
*SFR* 000000A0H   DATA     BYTE      P2
*SFR* 000000A0H.0 DATA     BIT       P20
*SFR* 000000A0H.1 DATA     BIT       P21
*SFR* 000000A0H.2 DATA     BIT       P22
*SFR* 000000A0H.3 DATA     BIT       P23
*SFR* 000000A0H.4 DATA     BIT       P24
*SFR* 000000A0H.5 DATA     BIT       P25
*SFR* 000000A0H.6 DATA     BIT       P26
*SFR* 000000A0H.7 DATA     BIT       P27
*SFR* 00000096H   DATA     BYTE      P2M0
*SFR* 00000095H   DATA     BYTE      P2M1
*SFR* 000000B0H   DATA     BYTE      P3
*SFR* 000000B0H.2 DATA     BIT       P32
*SFR* 000000B0H.3 DATA     BIT       P33
*SFR* 000000B0H.5 DATA     BIT       P35
*SFR* 000000B2H   DATA     BYTE      P3M0
*SFR* 000000B1H   DATA     BYTE      P3M1
*SFR* 000000C0H   DATA     BYTE      P4
*SFR* 000000C0H.0 DATA     BIT       P40
*SFR* 000000C0H.1 DATA     BIT       P41
*SFR* 000000C0H.2 DATA     BIT       P42
*SFR* 000000C0H.3 DATA     BIT       P43
*SFR* 000000C0H.7 DATA     BIT       P47
L251 LINKER/LOCATER V4.66.93.0                                                        03/17/2024  15:38:36  PAGE 27


*SFR* 000000B4H   DATA     BYTE      P4M0
*SFR* 000000B3H   DATA     BYTE      P4M1
*SFR* 000000C8H   DATA     BYTE      P5
*SFR* 000000C8H.0 DATA     BIT       P50
*SFR* 000000C8H.1 DATA     BIT       P51
*SFR* 000000C8H.2 DATA     BIT       P52
*SFR* 000000C8H.3 DATA     BIT       P53
*SFR* 000000CAH   DATA     BYTE      P5M0
*SFR* 000000C9H   DATA     BYTE      P5M1
*SFR* 000000E8H   DATA     BYTE      P6
*SFR* 000000CCH   DATA     BYTE      P6M0
*SFR* 000000CBH   DATA     BYTE      P6M1
*SFR* 000000F8H   DATA     BYTE      P7
*SFR* 000000F8H.0 DATA     BIT       P70
*SFR* 000000F8H.1 DATA     BIT       P71
*SFR* 000000F8H.2 DATA     BIT       P72
*SFR* 000000F8H.3 DATA     BIT       P73
*SFR* 000000E2H   DATA     BYTE      P7M0
*SFR* 000000E1H   DATA     BYTE      P7M1
*SFR* 000000A2H   DATA     BYTE      P_SW1
*SFR* 000000BAH   DATA     BYTE      P_SW2
      00000008H   EDATA    BYTE      page
      00FF4B5AH   CODE     ---       PID_Calculate
      00FF59BFH   CODE     ---       PID_Init
      00FF4F95H   CODE     ---       pit_timer_ms
      00000477H   EDATA    FLOAT     Pitch
      000005EEH   EDATA    FLOAT     Plus
      000005EAH   EDATA    FLOAT     Plus_Mid
      00FF115BH   CODE     NEAR LAB  printf
      00FF5D79H   CODE     ---       printf_reverse_order
*SFR* 000000D0H   DATA     BYTE      PSW
      00FF6495H   CODE     ---       putchar
      00FF671DH   HCONST   ---       PWM_ARR_ADDR
      00FF6725H   HCONST   ---       PWM_CCER_ADDR
      00FF6735H   HCONST   ---       PWM_CCMR_ADDR
      00FF66FDH   HCONST   ---       PWM_CCR_ADDR
      00FF4CE4H   CODE     ---       pwm_duty
*DEL*:00000000H   CODE     ---       pwm_freq
      00FF3505H   CODE     ---       pwm_init
      00FF37E9H   CODE     ---       pwm_set_gpio
      0000043CH   EDATA    ---       Q
      000005D6H   EDATA    FLOAT     Ratio
      00000613H   EDATA    FLOAT     Ratio_Mid
*DEL*:00000000H   CODE     ---       read_ch
      00FF6477H   CODE     ---       readdmp
*DEL*:00000000H   CODE     ---       recv_ack
*DEL*:00000000H   CODE     ---       recv_data
      00FF5146H   CODE     ---       refresh_value
      00FF4D9CH   CODE     ---       Right_SetSpeed
      000003A2H   EDATA    ---       Right_Wheel_PID
      00000424H   EDATA    FLOAT     Roll
      000005E6H   EDATA    FLOAT     Round_Flag_R
*SFR* 000000FFH   DATA     BYTE      RSTCFG
*SFR* 0000009BH   DATA     BYTE      S2BUF
*SFR* 0000009AH   DATA     BYTE      S2CON
*SFR* 000000ADH   DATA     BYTE      S3BUF
*SFR* 000000ACH   DATA     BYTE      S3CON
*SFR* 000000FEH   DATA     BYTE      S4BUF
*SFR* 000000FDH   DATA     BYTE      S4CON
*SFR* 00000099H   DATA     BYTE      SBUF
*SFR* 00000098H   DATA     BYTE      SCON
*DEL*:00000000H   CODE     ---       send_ack
*DEL*:00000000H   CODE     ---       send_ch
*DEL*:00000000H   CODE     ---       send_data
*DEL*:00000000H   CODE     ---       send_nak
L251 LINKER/LOCATER V4.66.93.0                                                        03/17/2024  15:38:36  PAGE 28


*DEL*:00000000H   CODE     ---       set_zero_position_simspi
*DEL*:00000000H   CODE     ---       set_zero_position_spi
*DEL*:00000000H   CODE     ---       showimage
*DEL*:00000000H   CODE     ---       simiic_delay
*DEL*:00000000H   CODE     ---       simiic_init
*DEL*:00000000H   CODE     ---       simiic_read_reg
*DEL*:00000000H   CODE     ---       simiic_read_regs
*DEL*:00000000H   CODE     ---       simiic_sendack
*DEL*:00000000H   CODE     ---       simiic_start
*DEL*:00000000H   CODE     ---       simiic_stop
*DEL*:00000000H   CODE     ---       simiic_write_reg
*DEL*:00000000H   CODE     ---       simspi_r_reg_byte
*DEL*:00000000H   CODE     ---       simspi_w_reg_byte
*DEL*:00000000H   CODE     ---       simspi_wr_byte
*SFR* 000000CEH   DATA     BYTE      SPCTL
*SFR* 000000CFH   DATA     BYTE      SPDAT
      000003C6H   EDATA    FLOAT     Speed_L
      000003EEH   EDATA    FLOAT     Speed_R
*DEL*:00000000H   CODE     ---       spi_change_mode
*DEL*:00000000H   CODE     ---       spi_change_pin
*DEL*:00000000H   CODE     ---       spi_init
*DEL*:00000000H   CODE     ---       spi_mosi
*DEL*:00000000H   CODE     ---       spi_r_reg_byte
*DEL*:00000000H   CODE     ---       spi_w_reg_byte
*DEL*:00000000H   CODE     ---       spi_wr_byte
*SFR* 000000CDH   DATA     BYTE      SPSTAT
      00FF1187H   CODE     ---       sqrt?_
*DEL*:00000000H   CODE     ---       start
*DEL*:00000000H   CODE     ---       stop
      00FF63EFH   CODE     NEAR LAB  strcpy?_
      000005FBH   EDATA    FLOAT     sum
      00000617H   EDATA    FLOAT     Sum_Angle
      00000621H   EDATA    FLOAT     Sum_Angle_C1
      0000062AH   EDATA    FLOAT     Sum_Dis1
      0000062EH   EDATA    FLOAT     Sum_Dis2
      000005DEH   EDATA    FLOAT     sum_L
      000005E2H   EDATA    FLOAT     sum_R
      0000065DH   EDATA    LONG      sys_clk
*SFR* 000000D6H   DATA     BYTE      T2H
*SFR* 000000D7H   DATA     BYTE      T2L
*SFR* 000000D4H   DATA     BYTE      T3H
*SFR* 000000D5H   DATA     BYTE      T3L
*SFR* 000000D2H   DATA     BYTE      T4H
*SFR* 000000D3H   DATA     BYTE      T4L
*SFR* 000000DDH   DATA     BYTE      T4T3M
*SFR* 00000088H   DATA     BYTE      TCON
      00FF0696H   CODE     ---       tft_ascii
*SFR* 0000008CH   DATA     BYTE      TH0
*SFR* 0000008DH   DATA     BYTE      TH1
*SFR* 0000008AH   DATA     BYTE      TL0
*SFR* 0000008BH   DATA     BYTE      TL1
      00FF0012H   CODE     ---       TM0_Isr
      00FF0019H   CODE     ---       TM1_Isr
      00FF652AH   CODE     ---       TM2_Isr
      00FF6532H   CODE     ---       TM3_Isr
      00FF52CDH   CODE     ---       TM4_Isr
*SFR* 00000089H   DATA     BYTE      TMOD
*SFR* 00000088H.4 DATA     BIT       TR0
*SFR* 00000088H.6 DATA     BIT       TR1
      0000013DH   EDATA    BYTE      tsl1401_finish_flag
      000003F3H   EDATA    ---       Turn_PID
      00FF5DF5H   CODE     ---       UART1_Isr
      0000023EH   EDATA    ---       uart1_rx_buff
      000002A2H   EDATA    ---       uart1_tx_buff
      00FF62F9H   CODE     ---       UART2_Isr
L251 LINKER/LOCATER V4.66.93.0                                                        03/17/2024  15:38:36  PAGE 29


      00FF6317H   CODE     ---       UART3_Isr
      00FF5679H   CODE     ---       UART4_Isr
      00FF3F50H   CODE     ---       uart_init
*DEL*:00000000H   CODE     ---       uart_putbuff
      00FF596BH   CODE     ---       uart_putchar
*DEL*:00000000H   CODE     ---       uart_putstr
      00FF6509H   CODE     ---       ui_init
      00FF6541H   CODE     ---       ui_show
      0000061BH   EDATA    CHAR      Up_Down_Flag
      00000009H   EDATA    ---       value
      00000079H   EDATA    ---       value_name
      00FF4609H   CODE     ---       value_name_init
      0000064CH   EDATA    ---       virtual_scope_data
      00000665H   EDATA    WORD      vl53l0x_distance_mm
      00000667H   EDATA    BYTE      vl53l0x_finsh_flag
      00FF5802H   CODE     ---       vl53l0x_get_distance
      00FF229EH   CODE     ---       vl53l0x_init
*DEL*:00000000H   CODE     ---       wait
      00FF6381H   CODE     ---       wireless_ch573_callback
*DEL*:00000000H   CODE     ---       wireless_ch573_init
*DEL*:00000000H   CODE     ---       wireless_ch573_read_buff
*DEL*:00000000H   CODE     ---       wireless_ch573_send_buff
      0000066BH   EDATA    INT       wireless_type
      00FF6368H   CODE     ---       wireless_uart_callback
*DEL*:00000000H   CODE     ---       wireless_uart_init
*DEL*:00000000H   CODE     ---       wireless_uart_read_buff
*DEL*:00000000H   CODE     ---       wireless_uart_send_buff
*SFR* 000000E9H   DATA     BYTE      WTST
      00000428H   EDATA    FLOAT     x1
      0000066FH   EDATA    WORD      x10_ms
      00FF50BBH   CODE     ---       xdmpUpdates
      0000042CH   EDATA    FLOAT     y1
      00000438H   EDATA    FLOAT     Yaw
      00000430H   EDATA    FLOAT     z1
      0000041CH   EDATA    FLOAT     z_add
      00000420H   EDATA    FLOAT     z_last
      00000434H   EDATA    FLOAT     z_now
*DEL*:00000000H   CODE     ---       zero_all
      00000661H   EDATA    WORD      zf_delay_ms
      00000663H   EDATA    WORD      zf_delay_us
      00FF28B9H   CODE     ---       zf_sprintf



SYMBOL TABLE OF MODULE:  .\Out_File\SEEKFREE (board)

      VALUE       REP       CLASS    TYPE      SYMBOL NAME
      ====================================================
      ---         MODULE    ---      ---       board
      00FF000EH   PUBLIC    CODE     ---       EnableGlobalIRQ
      00FF51CBH   PUBLIC    CODE     ---       board_init
      00FF0016H   PUBLIC    CODE     ---       DisableGlobalIRQ
      00FF6495H   PUBLIC    CODE     ---       putchar
      0000065DH   PUBLIC    EDATA    LONG      sys_clk
      00000094H   SFRSYM    DATA     BYTE      P0M0
      000000D0H   SFRSYM    DATA     BYTE      PSW
      000000FDH   SFRSYM    DATA     BYTE      S4CON
      000000ACH   SFRSYM    DATA     BYTE      S3CON
      0000009AH   SFRSYM    DATA     BYTE      S2CON
      000000B7H   SFRSYM    DATA     BYTE      IPH
      000000E9H   SFRSYM    DATA     BYTE      WTST
      000000FFH   SFRSYM    DATA     BYTE      RSTCFG
      0000008EH   SFRSYM    DATA     BYTE      AUXR
      000000AFH   SFRSYM    DATA     BYTE      IE2
      00000088H   SFRSYM    DATA     BYTE      TCON
L251 LINKER/LOCATER V4.66.93.0                                                        03/17/2024  15:38:36  PAGE 30


      00000089H   SFRSYM    DATA     BYTE      TMOD
      00000098H   SFRSYM    DATA     BYTE      SCON
      000000BCH   SFRSYM    DATA     BYTE      ADC_CONTR
      000000DEH   SFRSYM    DATA     BYTE      ADCCFG
      000000B8H   SFRSYM    DATA     BYTE      IP
      000000A8H   SFRSYM    DATA     BYTE      IE
      000000BAH   SFRSYM    DATA     BYTE      P_SW2
      000000A2H   SFRSYM    DATA     BYTE      P_SW1
      000000F8H   SFRSYM    DATA     BYTE      P7
      000000A8H.7 SFRSYM    DATA     BIT       EA
      000000E1H   SFRSYM    DATA     BYTE      P7M1
      000000E8H   SFRSYM    DATA     BYTE      P6
      000000C8H   SFRSYM    DATA     BYTE      P5
      000000CBH   SFRSYM    DATA     BYTE      P6M1
      000000E2H   SFRSYM    DATA     BYTE      P7M0
      000000C0H   SFRSYM    DATA     BYTE      P4
      000000C9H   SFRSYM    DATA     BYTE      P5M1
      000000CCH   SFRSYM    DATA     BYTE      P6M0
      000000B0H   SFRSYM    DATA     BYTE      P3
      000000B3H   SFRSYM    DATA     BYTE      P4M1
      000000CAH   SFRSYM    DATA     BYTE      P5M0
      000000A0H   SFRSYM    DATA     BYTE      P2
      000000B1H   SFRSYM    DATA     BYTE      P3M1
      000000B4H   SFRSYM    DATA     BYTE      P4M0
      00000090H   SFRSYM    DATA     BYTE      P1
      00000095H   SFRSYM    DATA     BYTE      P2M1
      000000B2H   SFRSYM    DATA     BYTE      P3M0
      00000080H   SFRSYM    DATA     BYTE      P0
      00000091H   SFRSYM    DATA     BYTE      P1M1
      00000096H   SFRSYM    DATA     BYTE      P2M0
      00000092H   SFRSYM    DATA     BYTE      P1M0
      00000093H   SFRSYM    DATA     BYTE      P0M1

      00FF51CBH   BLOCK     CODE     ---       LVL=0
      00FF51CBH   LINE      CODE     ---       #177
      00FF51CBH   LINE      CODE     ---       #179
      00FF51CEH   LINE      CODE     ---       #197
      00FF51D1H   LINE      CODE     ---       #199
      00FF51D4H   LINE      CODE     ---       #200
      00FF51D7H   LINE      CODE     ---       #201
      00FF51E3H   LINE      CODE     ---       #203
      00FF51E6H   LINE      CODE     ---       #204
      00FF51E9H   LINE      CODE     ---       #205
      00FF51ECH   LINE      CODE     ---       #206
      00FF51EFH   LINE      CODE     ---       #207
      00FF51F2H   LINE      CODE     ---       #208
      00FF51F5H   LINE      CODE     ---       #209
      00FF51F8H   LINE      CODE     ---       #210
      00FF51FBH   LINE      CODE     ---       #211
      00FF51FEH   LINE      CODE     ---       #212
      00FF5201H   LINE      CODE     ---       #213
      00FF5204H   LINE      CODE     ---       #214
      00FF5207H   LINE      CODE     ---       #215
      00FF520AH   LINE      CODE     ---       #216
      00FF520DH   LINE      CODE     ---       #217
      00FF5210H   LINE      CODE     ---       #218
      00FF5213H   LINE      CODE     ---       #220
      00FF5216H   LINE      CODE     ---       #221
      00FF5219H   LINE      CODE     ---       #222
      00FF521CH   LINE      CODE     ---       #223
      00FF521FH   LINE      CODE     ---       #224
      00FF5222H   LINE      CODE     ---       #225
      00FF5225H   LINE      CODE     ---       #226
      00FF5228H   LINE      CODE     ---       #227
      00FF522BH   LINE      CODE     ---       #228
L251 LINKER/LOCATER V4.66.93.0                                                        03/17/2024  15:38:36  PAGE 31


      00FF522EH   LINE      CODE     ---       #229
      00FF5231H   LINE      CODE     ---       #231
      ---         BLOCKEND  ---      ---       LVL=0

      00FF6495H   BLOCK     CODE     ---       LVL=0
      R15         REGSYM    ---      CHAR      c
      00FF6495H   LINE      CODE     ---       #237
      00FF6499H   LINE      CODE     ---       #239
      00FF649EH   LINE      CODE     ---       #241
      00FF64A0H   LINE      CODE     ---       #242
      ---         BLOCKEND  ---      ---       LVL=0

      00FF0016H   BLOCK     CODE     ---       LVL=0
      00FF0016H   LINE      CODE     ---       #245
      00FF0016H   LINE      CODE     ---       #247
      00FF0018H   LINE      CODE     ---       #248
      ---         BLOCKEND  ---      ---       LVL=0

      00FF000EH   BLOCK     CODE     ---       LVL=0
      00FF000EH   LINE      CODE     ---       #251
      00FF000EH   LINE      CODE     ---       #253
      00FF0010H   LINE      CODE     ---       #254
      ---         BLOCKEND  ---      ---       LVL=0

      ---         MODULE    ---      ---       common
      0000066BH   PUBLIC    EDATA    INT       wireless_type
      000000D0H   SFRSYM    DATA     BYTE      PSW
      000000B7H   SFRSYM    DATA     BYTE      IPH
      00000088H   SFRSYM    DATA     BYTE      TCON
      00000098H   SFRSYM    DATA     BYTE      SCON
      000000BCH   SFRSYM    DATA     BYTE      ADC_CONTR
      000000DEH   SFRSYM    DATA     BYTE      ADCCFG
      000000B8H   SFRSYM    DATA     BYTE      IP
      000000A8H   SFRSYM    DATA     BYTE      IE
      000000F8H   SFRSYM    DATA     BYTE      P7
      000000E8H   SFRSYM    DATA     BYTE      P6
      000000C8H   SFRSYM    DATA     BYTE      P5
      000000C0H   SFRSYM    DATA     BYTE      P4
      000000B0H   SFRSYM    DATA     BYTE      P3
      000000A0H   SFRSYM    DATA     BYTE      P2
      00000090H   SFRSYM    DATA     BYTE      P1
      00000080H   SFRSYM    DATA     BYTE      P0

      ---         MODULE    ---      ---       SEEKFREE_PRINTF
      00FF5029H   PUBLIC    CODE     ---       number_conversion_ascii
      00FF28B9H   PUBLIC    CODE     ---       zf_sprintf
      00FF5D79H   PUBLIC    CODE     ---       printf_reverse_order
      00000398H   PUBLIC    EDATA    BYTE      ?number_conversion_ascii?BYTE
      0000036AH   PUBLIC    EDATA    BYTE      ?zf_sprintf?BYTE
      000000D0H   SFRSYM    DATA     BYTE      PSW
      000000B7H   SFRSYM    DATA     BYTE      IPH
      00000088H   SFRSYM    DATA     BYTE      TCON
      00000098H   SFRSYM    DATA     BYTE      SCON
      000000BCH   SFRSYM    DATA     BYTE      ADC_CONTR
      000000DEH   SFRSYM    DATA     BYTE      ADCCFG
      000000B8H   SFRSYM    DATA     BYTE      IP
      000000A8H   SFRSYM    DATA     BYTE      IE
      000000F8H   SFRSYM    DATA     BYTE      P7
      000000E8H   SFRSYM    DATA     BYTE      P6
      000000C8H   SFRSYM    DATA     BYTE      P5
      000000C0H   SFRSYM    DATA     BYTE      P4
      000000B0H   SFRSYM    DATA     BYTE      P3
      000000A0H   SFRSYM    DATA     BYTE      P2
      00000090H   SFRSYM    DATA     BYTE      P1
      00000080H   SFRSYM    DATA     BYTE      P0
L251 LINKER/LOCATER V4.66.93.0                                                        03/17/2024  15:38:36  PAGE 32



      00FF5029H   BLOCK     CODE     ---       LVL=0
      DR24        REGSYM    ---      DWORD     dat
      REG=7       REGSYM    ---      ---       p
      R10         REGSYM    ---      BYTE      neg_type
      000003A1H   SYMBOL    EDATA    BYTE      radix
      00FF5031H   BLOCK     CODE     NEAR LAB  LVL=1
      DR20        REGSYM    ---      LONG      neg_dat
      DR24        REGSYM    ---      DWORD     pos_dat
      R14         REGSYM    ---      BYTE      temp_data
      R15         REGSYM    ---      BYTE      valid_num
      ---         BLOCKEND  ---      ---       LVL=1
      00FF5029H   LINE      CODE     ---       #25
      00FF5031H   LINE      CODE     ---       #26
      00FF5031H   LINE      CODE     ---       #29
      00FF5031H   LINE      CODE     ---       #30
      00FF5033H   LINE      CODE     ---       #32
      00FF5037H   LINE      CODE     ---       #34
      00FF5039H   LINE      CODE     ---       #35
      00FF5049H   LINE      CODE     ---       #36
      00FF5049H   LINE      CODE     ---       #38
      00FF505FH   LINE      CODE     ---       #39
      00FF506EH   LINE      CODE     ---       #40
      00FF5070H   LINE      CODE     ---       #42
      00FF5076H   LINE      CODE     ---       #43
      00FF5078H   LINE      CODE     ---       #44
      00FF507AH   LINE      CODE     ---       #45
      00FF507CH   LINE      CODE     ---       #48
      00FF507CH   LINE      CODE     ---       #49
      00FF507CH   LINE      CODE     ---       #51
      00FF508BH   LINE      CODE     ---       #52
      00FF5095H   LINE      CODE     ---       #53
      00FF5098H   LINE      CODE     ---       #55
      00FF509BH   LINE      CODE     ---       #57
      00FF50AAH   LINE      CODE     ---       #58
      00FF50ACH   LINE      CODE     ---       #60
      00FF50B2H   LINE      CODE     ---       #61
      00FF50B4H   LINE      CODE     ---       #62
      00FF50B6H   LINE      CODE     ---       #63
      00FF50B6H   LINE      CODE     ---       #64
      00FF50B8H   LINE      CODE     ---       #65
      ---         BLOCKEND  ---      ---       LVL=0

      00FF5D79H   BLOCK     CODE     ---       LVL=0
      REG=7       REGSYM    ---      ---       d_buff
      DR24        REGSYM    ---      DWORD     len
      00FF5D7DH   BLOCK     CODE     NEAR LAB  LVL=1
      DR4         REGSYM    ---      DWORD     i
      R3          REGSYM    ---      CHAR      temp_data
      ---         BLOCKEND  ---      ---       LVL=1
      00FF5D79H   LINE      CODE     ---       #67
      00FF5D7DH   LINE      CODE     ---       #68
      00FF5D7DH   LINE      CODE     ---       #71
      00FF5D81H   LINE      CODE     ---       #73
      00FF5D90H   LINE      CODE     ---       #74
      00FF5D9EH   LINE      CODE     ---       #75
      00FF5DA5H   LINE      CODE     ---       #76
      00FF5DB6H   LINE      CODE     ---       #77
      ---         BLOCKEND  ---      ---       LVL=0

      00FF28B9H   BLOCK     CODE     ---       LVL=0
      REG=3       REGSYM    ---      ---       buff
      0000036EH   SYMBOL    EDATA    ---       format
      00FF28C1H   BLOCK     CODE     NEAR LAB  LVL=1
      00000372H   SYMBOL    EDATA    DWORD     buff_len
L251 LINKER/LOCATER V4.66.93.0                                                        03/17/2024  15:38:36  PAGE 33


      00000376H   SYMBOL    EDATA    ---       arg
      00FF28D6H   BLOCK     CODE     NEAR LAB  LVL=2
      0000037AH   SYMBOL    EDATA    CHAR      ret
      00FF2A00H   BLOCK     CODE     NEAR LAB  LVL=3
      0000037BH   SYMBOL    EDATA    CHAR      ch
      ---         BLOCKEND  ---      ---       LVL=3
      00FF2A19H   BLOCK     CODE     NEAR LAB  LVL=3
      0000037BH   SYMBOL    EDATA    ---       vstr
      0000039CH   SYMBOL    EDATA    LONG      ival
      000003A0H   SYMBOL    EDATA    BYTE      vlen
      ---         BLOCKEND  ---      ---       LVL=3
      00FF2A92H   BLOCK     CODE     NEAR LAB  LVL=3
      0000037BH   SYMBOL    EDATA    ---       vstr
      0000039CH   SYMBOL    EDATA    FLOAT     ival
      000003A0H   SYMBOL    EDATA    BYTE      vlen
      ---         BLOCKEND  ---      ---       LVL=3
      00FF2BCDH   BLOCK     CODE     NEAR LAB  LVL=3
      0000037BH   SYMBOL    EDATA    ---       vstr
      0000039CH   SYMBOL    EDATA    DWORD     ival
      000003A0H   SYMBOL    EDATA    BYTE      vlen
      ---         BLOCKEND  ---      ---       LVL=3
      00FF2C25H   BLOCK     CODE     NEAR LAB  LVL=3
      0000037BH   SYMBOL    EDATA    ---       vstr
      0000039CH   SYMBOL    EDATA    DWORD     ival
      000003A0H   SYMBOL    EDATA    BYTE      vlen
      ---         BLOCKEND  ---      ---       LVL=3
      00FF2C7CH   BLOCK     CODE     NEAR LAB  LVL=3
      0000037BH   SYMBOL    EDATA    ---       vstr
      0000039CH   SYMBOL    EDATA    DWORD     ival
      000003A0H   SYMBOL    EDATA    BYTE      vlen
      ---         BLOCKEND  ---      ---       LVL=3
      00FF2CDEH   BLOCK     CODE     NEAR LAB  LVL=3
      0000037BH   SYMBOL    EDATA    ---       pc
      ---         BLOCKEND  ---      ---       LVL=3
      00FF2D20H   BLOCK     CODE     NEAR LAB  LVL=3
      0000037BH   SYMBOL    EDATA    ---       vstr
      0000039CH   SYMBOL    EDATA    DWORD     ival
      ---         BLOCKEND  ---      ---       LVL=3
      ---         BLOCKEND  ---      ---       LVL=2
      ---         BLOCKEND  ---      ---       LVL=1
      00FF28B9H   LINE      CODE     ---       #212
      00FF28C1H   LINE      CODE     ---       #213
      00FF28C1H   LINE      CODE     ---       #214
      00FF28C7H   LINE      CODE     ---       #216
      00FF28D3H   LINE      CODE     ---       #218
      00FF28D6H   LINE      CODE     ---       #219
      00FF28D6H   LINE      CODE     ---       #220
      00FF28E1H   LINE      CODE     ---       #221
      00FF28E9H   LINE      CODE     ---       #223
      00FF2A00H   LINE      CODE     ---       #225
      00FF2A00H   LINE      CODE     ---       #229
      00FF2A00H   LINE      CODE     ---       #232
      00FF2A00H   LINE      CODE     ---       #233
      00FF2A00H   LINE      CODE     ---       #234
      00FF2A16H   LINE      CODE     ---       #235
      00FF2A16H   LINE      CODE     ---       #236
      00FF2A16H   LINE      CODE     ---       #237
      00FF2A16H   LINE      CODE     ---       #239
      00FF2A19H   LINE      CODE     ---       #242
      00FF2A19H   LINE      CODE     ---       #243
      00FF2A19H   LINE      CODE     ---       #244
      00FF2A19H   LINE      CODE     ---       #246
      00FF2A32H   LINE      CODE     ---       #247
      00FF2A45H   LINE      CODE     ---       #249
      00FF2A4FH   LINE      CODE     ---       #251
L251 LINKER/LOCATER V4.66.93.0                                                        03/17/2024  15:38:36  PAGE 34


      00FF2A5CH   LINE      CODE     ---       #252
      00FF2A61H   LINE      CODE     ---       #253
      00FF2A61H   LINE      CODE     ---       #254
      00FF2A70H   LINE      CODE     ---       #255
      00FF2A83H   LINE      CODE     ---       #256
      00FF2A8BH   LINE      CODE     ---       #257
      00FF2A8FH   LINE      CODE     ---       #260
      00FF2A92H   LINE      CODE     ---       #262
      00FF2A92H   LINE      CODE     ---       #263
      00FF2A92H   LINE      CODE     ---       #264
      00FF2A92H   LINE      CODE     ---       #266
      00FF2AABH   LINE      CODE     ---       #267
      00FF2AC1H   LINE      CODE     ---       #269
      00FF2ACCH   LINE      CODE     ---       #271
      00FF2AD9H   LINE      CODE     ---       #272
      00FF2ADEH   LINE      CODE     ---       #273
      00FF2ADEH   LINE      CODE     ---       #274
      00FF2AEDH   LINE      CODE     ---       #275
      00FF2B00H   LINE      CODE     ---       #276
      00FF2B08H   LINE      CODE     ---       #277
      00FF2B1AH   LINE      CODE     ---       #279
      00FF2B3EH   LINE      CODE     ---       #280
      00FF2B44H   LINE      CODE     ---       #282
      00FF2B56H   LINE      CODE     ---       #283
      00FF2B58H   LINE      CODE     ---       #286
      00FF2B72H   LINE      CODE     ---       #287
      00FF2B78H   LINE      CODE     ---       #288
      00FF2B78H   LINE      CODE     ---       #290
      00FF2B7DH   LINE      CODE     ---       #292
      00FF2B87H   LINE      CODE     ---       #293
      00FF2B8CH   LINE      CODE     ---       #294
      00FF2B95H   LINE      CODE     ---       #296
      00FF2B9DH   LINE      CODE     ---       #297
      00FF2BA4H   LINE      CODE     ---       #299
      00FF2BB3H   LINE      CODE     ---       #300
      00FF2BC6H   LINE      CODE     ---       #301
      00FF2BCAH   LINE      CODE     ---       #303
      00FF2BCDH   LINE      CODE     ---       #306
      00FF2BCDH   LINE      CODE     ---       #307
      00FF2BCDH   LINE      CODE     ---       #309
      00FF2BE6H   LINE      CODE     ---       #310
      00FF2BF8H   LINE      CODE     ---       #312
      00FF2C03H   LINE      CODE     ---       #313
      00FF2C16H   LINE      CODE     ---       #314
      00FF2C1EH   LINE      CODE     ---       #315
      00FF2C22H   LINE      CODE     ---       #316
      00FF2C25H   LINE      CODE     ---       #318
      00FF2C25H   LINE      CODE     ---       #319
      00FF2C25H   LINE      CODE     ---       #321
      00FF2C3EH   LINE      CODE     ---       #322
      00FF2C50H   LINE      CODE     ---       #324
      00FF2C5BH   LINE      CODE     ---       #325
      00FF2C6EH   LINE      CODE     ---       #326
      00FF2C76H   LINE      CODE     ---       #327
      00FF2C7AH   LINE      CODE     ---       #329
      00FF2C7CH   LINE      CODE     ---       #331
      00FF2C7CH   LINE      CODE     ---       #332
      00FF2C7CH   LINE      CODE     ---       #333
      00FF2C7CH   LINE      CODE     ---       #335
      00FF2C95H   LINE      CODE     ---       #336
      00FF2CA7H   LINE      CODE     ---       #338
      00FF2CB2H   LINE      CODE     ---       #339
      00FF2CC5H   LINE      CODE     ---       #340
      00FF2CCDH   LINE      CODE     ---       #341
      00FF2CDBH   LINE      CODE     ---       #342
L251 LINKER/LOCATER V4.66.93.0                                                        03/17/2024  15:38:36  PAGE 35


      00FF2CDEH   LINE      CODE     ---       #345
      00FF2CDEH   LINE      CODE     ---       #346
      00FF2CDEH   LINE      CODE     ---       #347
      00FF2CF3H   LINE      CODE     ---       #348
      00FF2CF5H   LINE      CODE     ---       #350
      00FF2CFFH   LINE      CODE     ---       #351
      00FF2D01H   LINE      CODE     ---       #352
      00FF2D0BH   LINE      CODE     ---       #353
      00FF2D15H   LINE      CODE     ---       #354
      00FF2D1EH   LINE      CODE     ---       #355
      00FF2D20H   LINE      CODE     ---       #357
      00FF2D20H   LINE      CODE     ---       #358
      00FF2D20H   LINE      CODE     ---       #360
      00FF2D39H   LINE      CODE     ---       #362
      00FF2D47H   LINE      CODE     ---       #364
      00FF2D52H   LINE      CODE     ---       #365
      00FF2D63H   LINE      CODE     ---       #366
      00FF2D67H   LINE      CODE     ---       #367
      00FF2D6FH   LINE      CODE     ---       #369
      00FF2D71H   LINE      CODE     ---       #372
      00FF2D71H   LINE      CODE     ---       #374
      00FF2D76H   LINE      CODE     ---       #375
      00FF2D78H   LINE      CODE     ---       #376
      00FF2D7EH   LINE      CODE     ---       #377
      00FF2D80H   LINE      CODE     ---       #379
      00FF2D80H   LINE      CODE     ---       #380
      00FF2D80H   LINE      CODE     ---       #381
      00FF2D80H   LINE      CODE     ---       #384
      00FF2D8AH   LINE      CODE     ---       #385
      00FF2D8CH   LINE      CODE     ---       #386
      00FF2D96H   LINE      CODE     ---       #387
      00FF2D96H   LINE      CODE     ---       #388
      00FF2DA0H   LINE      CODE     ---       #389
      00FF2DACH   LINE      CODE     ---       #392
      00FF2DB0H   LINE      CODE     ---       #393
      ---         BLOCKEND  ---      ---       LVL=0

      ---         MODULE    ---      ---       zf_adc
      00FF608AH   PUBLIC    CODE     ---       adc_once
      00FF57A4H   PUBLIC    CODE     ---       adc_init
      00000094H   SFRSYM    DATA     BYTE      P0M0
      000000D0H   SFRSYM    DATA     BYTE      PSW
      000000B7H   SFRSYM    DATA     BYTE      IPH
      000000BEH   SFRSYM    DATA     BYTE      ADC_RESL
      00000088H   SFRSYM    DATA     BYTE      TCON
      00000098H   SFRSYM    DATA     BYTE      SCON
      000000BCH   SFRSYM    DATA     BYTE      ADC_CONTR
      000000DEH   SFRSYM    DATA     BYTE      ADCCFG
      000000B8H   SFRSYM    DATA     BYTE      IP
      000000BDH   SFRSYM    DATA     BYTE      ADC_RES
      000000A8H   SFRSYM    DATA     BYTE      IE
      000000F8H   SFRSYM    DATA     BYTE      P7
      000000E8H   SFRSYM    DATA     BYTE      P6
      000000C8H   SFRSYM    DATA     BYTE      P5
      000000C0H   SFRSYM    DATA     BYTE      P4
      000000B0H   SFRSYM    DATA     BYTE      P3
      000000A0H   SFRSYM    DATA     BYTE      P2
      00000090H   SFRSYM    DATA     BYTE      P1
      00000080H   SFRSYM    DATA     BYTE      P0
      00000091H   SFRSYM    DATA     BYTE      P1M1
      00000092H   SFRSYM    DATA     BYTE      P1M0
      00000093H   SFRSYM    DATA     BYTE      P0M1

      00FF57A4H   BLOCK     CODE     ---       LVL=0
      WR4         REGSYM    ---      INT       adcn
L251 LINKER/LOCATER V4.66.93.0                                                        03/17/2024  15:38:36  PAGE 36


      WR2         REGSYM    ---      INT       speed
      00FF57A4H   LINE      CODE     ---       #32
      00FF57A8H   LINE      CODE     ---       #34
      00FF57ABH   LINE      CODE     ---       #36
      00FF57AEH   LINE      CODE     ---       #37
      00FF57B4H   LINE      CODE     ---       #39
      00FF57C0H   LINE      CODE     ---       #42
      00FF57D5H   LINE      CODE     ---       #43
      00FF57D9H   LINE      CODE     ---       #44
      00FF57DBH   LINE      CODE     ---       #45
      00FF57DFH   LINE      CODE     ---       #48
      00FF57F4H   LINE      CODE     ---       #49
      00FF57F8H   LINE      CODE     ---       #50
      00FF57F8H   LINE      CODE     ---       #52
      00FF57FEH   LINE      CODE     ---       #54
      00FF5801H   LINE      CODE     ---       #55
      ---         BLOCKEND  ---      ---       LVL=0

      00FF608AH   BLOCK     CODE     ---       LVL=0
      WR6         REGSYM    ---      INT       adcn
      WR4         REGSYM    ---      INT       resolution
      WR6         REGSYM    ---      WORD      adc_value
      00FF608AH   LINE      CODE     ---       #66
      00FF608AH   LINE      CODE     ---       #67
      00FF608AH   LINE      CODE     ---       #70
      00FF608DH   LINE      CODE     ---       #71
      00FF6091H   LINE      CODE     ---       #73
      00FF6094H   LINE      CODE     ---       #74
      00FF6099H   LINE      CODE     ---       #75
      00FF609CH   LINE      CODE     ---       #77
      00FF609EH   LINE      CODE     ---       #78
      00FF60A2H   LINE      CODE     ---       #79
      00FF60A8H   LINE      CODE     ---       #81
      00FF60ABH   LINE      CODE     ---       #82
      00FF60AEH   LINE      CODE     ---       #84
      00FF60B7H   LINE      CODE     ---       #87
      00FF60B7H   LINE      CODE     ---       #88
      ---         BLOCKEND  ---      ---       LVL=0

      ---         MODULE    ---      ---       zf_delay
      00FF5EE5H   PUBLIC    CODE     ---       delay_init
      00FF639AH   PUBLIC    CODE     ---       delay_ms
      00000661H   PUBLIC    EDATA    WORD      zf_delay_ms
      00000663H   PUBLIC    EDATA    WORD      zf_delay_us
      000000D0H   SFRSYM    DATA     BYTE      PSW
      000000B7H   SFRSYM    DATA     BYTE      IPH
      00000088H   SFRSYM    DATA     BYTE      TCON
      00000098H   SFRSYM    DATA     BYTE      SCON
      000000BCH   SFRSYM    DATA     BYTE      ADC_CONTR
      000000DEH   SFRSYM    DATA     BYTE      ADCCFG
      000000B8H   SFRSYM    DATA     BYTE      IP
      000000A8H   SFRSYM    DATA     BYTE      IE
      000000F8H   SFRSYM    DATA     BYTE      P7
      000000E8H   SFRSYM    DATA     BYTE      P6
      000000C8H   SFRSYM    DATA     BYTE      P5
      000000C0H   SFRSYM    DATA     BYTE      P4
      000000B0H   SFRSYM    DATA     BYTE      P3
      000000A0H   SFRSYM    DATA     BYTE      P2
      00000090H   SFRSYM    DATA     BYTE      P1
      00000080H   SFRSYM    DATA     BYTE      P0

      00FF5EE5H   BLOCK     CODE     ---       LVL=0
      00FF5EE5H   LINE      CODE     ---       #34
      00FF5EE5H   LINE      CODE     ---       #36
      00FF5EF6H   LINE      CODE     ---       #37
L251 LINKER/LOCATER V4.66.93.0                                                        03/17/2024  15:38:36  PAGE 37


      00FF5F07H   LINE      CODE     ---       #38
      00FF5F1DH   LINE      CODE     ---       #40
      ---         BLOCKEND  ---      ---       LVL=0

      00FF639AH   BLOCK     CODE     ---       LVL=0
      WR4         REGSYM    ---      WORD      ms
      00FF639CH   BLOCK     CODE     NEAR LAB  LVL=1
      WR6         REGSYM    ---      WORD      i
      ---         BLOCKEND  ---      ---       LVL=1
      00FF639AH   LINE      CODE     ---       #48
      00FF639CH   LINE      CODE     ---       #49
      00FF639CH   LINE      CODE     ---       #51
      00FF639CH   LINE      CODE     ---       #52
      00FF63A0H   LINE      CODE     ---       #54
      00FF63A8H   LINE      CODE     ---       #55
      00FF63B0H   LINE      CODE     ---       #56
      ---         BLOCKEND  ---      ---       LVL=0
      DR0         REGSYM    ---      DWORD     us
      WR6         REGSYM    ---      WORD      i

      ---         MODULE    ---      ---       zf_eeprom
      000000D0H   SFRSYM    DATA     BYTE      PSW
      000000D0H.5 SFRSYM    DATA     BIT       F0
      000000C6H   SFRSYM    DATA     BYTE      IAP_TRIG
      000000B7H   SFRSYM    DATA     BYTE      IPH
      000000C2H   SFRSYM    DATA     BYTE      IAP_DATA
      000000C7H   SFRSYM    DATA     BYTE      IAP_CONTR
      00000088H   SFRSYM    DATA     BYTE      TCON
      00000098H   SFRSYM    DATA     BYTE      SCON
      000000F5H   SFRSYM    DATA     BYTE      IAP_TPS
      000000BCH   SFRSYM    DATA     BYTE      ADC_CONTR
      000000C4H   SFRSYM    DATA     BYTE      IAP_ADDRL
      000000C3H   SFRSYM    DATA     BYTE      IAP_ADDRH
      000000F6H   SFRSYM    DATA     BYTE      IAP_ADDRE
      000000DEH   SFRSYM    DATA     BYTE      ADCCFG
      000000B8H   SFRSYM    DATA     BYTE      IP
      000000C5H   SFRSYM    DATA     BYTE      IAP_CMD
      000000A8H   SFRSYM    DATA     BYTE      IE
      000000F8H   SFRSYM    DATA     BYTE      P7
      000000A8H.7 SFRSYM    DATA     BIT       EA
      000000E8H   SFRSYM    DATA     BYTE      P6
      000000C8H   SFRSYM    DATA     BYTE      P5
      000000C0H   SFRSYM    DATA     BYTE      P4
      000000B0H   SFRSYM    DATA     BYTE      P3
      000000A0H   SFRSYM    DATA     BYTE      P2
      00000090H   SFRSYM    DATA     BYTE      P1
      00000080H   SFRSYM    DATA     BYTE      P0
      R11         REGSYM    ---      BYTE      write_time
      REG=3       REGSYM    ---      ---       buf
      REG=3       REGSYM    ---      ---       buf
      WR6         REGSYM    ---      WORD      addr
      REG=3       REGSYM    ---      ---       buf
      WR6         REGSYM    ---      WORD      i

      ---         MODULE    ---      ---       zf_exti
      000000D0H   SFRSYM    DATA     BYTE      PSW
      000000B7H   SFRSYM    DATA     BYTE      IPH
      00000088H.2 SFRSYM    DATA     BIT       IT1
      000000A8H.2 SFRSYM    DATA     BIT       EX1
      00000088H.0 SFRSYM    DATA     BIT       IT0
      000000A8H.0 SFRSYM    DATA     BIT       EX0
      00000088H   SFRSYM    DATA     BYTE      TCON
      00000098H   SFRSYM    DATA     BYTE      SCON
      000000BCH   SFRSYM    DATA     BYTE      ADC_CONTR
      000000DEH   SFRSYM    DATA     BYTE      ADCCFG
L251 LINKER/LOCATER V4.66.93.0                                                        03/17/2024  15:38:36  PAGE 38


      000000B8H   SFRSYM    DATA     BYTE      IP
      0000008FH   SFRSYM    DATA     BYTE      INTCLKO
      000000A8H   SFRSYM    DATA     BYTE      IE
      000000F8H   SFRSYM    DATA     BYTE      P7
      000000E8H   SFRSYM    DATA     BYTE      P6
      000000C8H   SFRSYM    DATA     BYTE      P5
      000000C0H   SFRSYM    DATA     BYTE      P4
      000000B0H   SFRSYM    DATA     BYTE      P3
      000000A0H   SFRSYM    DATA     BYTE      P2
      00000090H   SFRSYM    DATA     BYTE      P1
      00000080H   SFRSYM    DATA     BYTE      P0
      WR4         REGSYM    ---      INT       int_n
      WR2         REGSYM    ---      INT       mode

      ---         MODULE    ---      ---       zf_gpio
      00FF2DB3H   PUBLIC    CODE     ---       gpio_mode
      00000094H   SFRSYM    DATA     BYTE      P0M0
      000000D0H   SFRSYM    DATA     BYTE      PSW
      000000B7H   SFRSYM    DATA     BYTE      IPH
      00000088H   SFRSYM    DATA     BYTE      TCON
      00000098H   SFRSYM    DATA     BYTE      SCON
      000000BCH   SFRSYM    DATA     BYTE      ADC_CONTR
      000000DEH   SFRSYM    DATA     BYTE      ADCCFG
      000000B8H   SFRSYM    DATA     BYTE      IP
      000000A8H   SFRSYM    DATA     BYTE      IE
      000000F8H   SFRSYM    DATA     BYTE      P7
      000000E1H   SFRSYM    DATA     BYTE      P7M1
      000000E8H   SFRSYM    DATA     BYTE      P6
      000000C8H   SFRSYM    DATA     BYTE      P5
      000000CBH   SFRSYM    DATA     BYTE      P6M1
      000000E2H   SFRSYM    DATA     BYTE      P7M0
      000000C0H   SFRSYM    DATA     BYTE      P4
      000000C9H   SFRSYM    DATA     BYTE      P5M1
      000000CCH   SFRSYM    DATA     BYTE      P6M0
      000000B0H   SFRSYM    DATA     BYTE      P3
      000000B3H   SFRSYM    DATA     BYTE      P4M1
      000000CAH   SFRSYM    DATA     BYTE      P5M0
      000000A0H   SFRSYM    DATA     BYTE      P2
      000000B1H   SFRSYM    DATA     BYTE      P3M1
      000000B4H   SFRSYM    DATA     BYTE      P4M0
      00000090H   SFRSYM    DATA     BYTE      P1
      00000095H   SFRSYM    DATA     BYTE      P2M1
      000000B2H   SFRSYM    DATA     BYTE      P3M0
      00000080H   SFRSYM    DATA     BYTE      P0
      00000091H   SFRSYM    DATA     BYTE      P1M1
      00000096H   SFRSYM    DATA     BYTE      P2M0
      00000092H   SFRSYM    DATA     BYTE      P1M0
      00000093H   SFRSYM    DATA     BYTE      P0M1
      WR4         REGSYM    ---      INT       pin
      WR2         REGSYM    ---      INT       pull

      00FF2DB3H   BLOCK     CODE     ---       LVL=0
      WR4         REGSYM    ---      INT       pin
      WR2         REGSYM    ---      INT       mode
      00FF2DB3H   LINE      CODE     ---       #54
      00FF2DB7H   LINE      CODE     ---       #56
      00FF2DBEH   LINE      CODE     ---       #58
      00FF2DC6H   LINE      CODE     ---       #60
      00FF2DDEH   LINE      CODE     ---       #61
      00FF2DE0H   LINE      CODE     ---       #62
      00FF2DE0H   LINE      CODE     ---       #63
      00FF2DE6H   LINE      CODE     ---       #65
      00FF2DFEH   LINE      CODE     ---       #66
      00FF2E00H   LINE      CODE     ---       #67
      00FF2E00H   LINE      CODE     ---       #68
L251 LINKER/LOCATER V4.66.93.0                                                        03/17/2024  15:38:36  PAGE 39


      00FF2E06H   LINE      CODE     ---       #70
      00FF2E1EH   LINE      CODE     ---       #71
      00FF2E20H   LINE      CODE     ---       #72
      00FF2E20H   LINE      CODE     ---       #74
      00FF2E26H   LINE      CODE     ---       #76
      00FF2E3EH   LINE      CODE     ---       #77
      00FF2E40H   LINE      CODE     ---       #78
      00FF2E40H   LINE      CODE     ---       #79
      00FF2E46H   LINE      CODE     ---       #81
      00FF2E5EH   LINE      CODE     ---       #82
      00FF2E60H   LINE      CODE     ---       #83
      00FF2E60H   LINE      CODE     ---       #84
      00FF2E66H   LINE      CODE     ---       #86
      00FF2E7EH   LINE      CODE     ---       #87
      00FF2E80H   LINE      CODE     ---       #88
      00FF2E80H   LINE      CODE     ---       #89
      00FF2E86H   LINE      CODE     ---       #91
      00FF2E9EH   LINE      CODE     ---       #92
      00FF2EA0H   LINE      CODE     ---       #93
      00FF2EA0H   LINE      CODE     ---       #94
      00FF2EA9H   LINE      CODE     ---       #96
      00FF2EC1H   LINE      CODE     ---       #97
      00FF2EC3H   LINE      CODE     ---       #98
      00FF2EC4H   LINE      CODE     ---       #100
      00FF2ECDH   LINE      CODE     ---       #102
      00FF2ED5H   LINE      CODE     ---       #104
      00FF2EEAH   LINE      CODE     ---       #105
      00FF2EEEH   LINE      CODE     ---       #106
      00FF2EEEH   LINE      CODE     ---       #107
      00FF2EF4H   LINE      CODE     ---       #109
      00FF2F09H   LINE      CODE     ---       #110
      00FF2F0DH   LINE      CODE     ---       #111
      00FF2F0DH   LINE      CODE     ---       #112
      00FF2F13H   LINE      CODE     ---       #114
      00FF2F28H   LINE      CODE     ---       #115
      00FF2F2CH   LINE      CODE     ---       #116
      00FF2F2CH   LINE      CODE     ---       #118
      00FF2F32H   LINE      CODE     ---       #120
      00FF2F47H   LINE      CODE     ---       #121
      00FF2F4BH   LINE      CODE     ---       #122
      00FF2F4BH   LINE      CODE     ---       #123
      00FF2F51H   LINE      CODE     ---       #125
      00FF2F66H   LINE      CODE     ---       #126
      00FF2F6AH   LINE      CODE     ---       #127
      00FF2F6AH   LINE      CODE     ---       #128
      00FF2F70H   LINE      CODE     ---       #130
      00FF2F85H   LINE      CODE     ---       #131
      00FF2F89H   LINE      CODE     ---       #132
      00FF2F89H   LINE      CODE     ---       #133
      00FF2F8FH   LINE      CODE     ---       #135
      00FF2FA4H   LINE      CODE     ---       #136
      00FF2FA8H   LINE      CODE     ---       #137
      00FF2FA8H   LINE      CODE     ---       #138
      00FF2FB1H   LINE      CODE     ---       #140
      00FF2FC8H   LINE      CODE     ---       #141
      00FF2FC8H   LINE      CODE     ---       #142
      00FF2FCBH   LINE      CODE     ---       #145
      00FF2FD4H   LINE      CODE     ---       #147
      00FF2FDCH   LINE      CODE     ---       #149
      00FF2FEFH   LINE      CODE     ---       #150
      00FF2FF3H   LINE      CODE     ---       #151
      00FF2FF3H   LINE      CODE     ---       #152
      00FF2FF9H   LINE      CODE     ---       #154
      00FF300CH   LINE      CODE     ---       #155
      00FF3010H   LINE      CODE     ---       #156
L251 LINKER/LOCATER V4.66.93.0                                                        03/17/2024  15:38:36  PAGE 40


      00FF3010H   LINE      CODE     ---       #157
      00FF3016H   LINE      CODE     ---       #159
      00FF3029H   LINE      CODE     ---       #160
      00FF302DH   LINE      CODE     ---       #161
      00FF302DH   LINE      CODE     ---       #163
      00FF3033H   LINE      CODE     ---       #165
      00FF3046H   LINE      CODE     ---       #166
      00FF304AH   LINE      CODE     ---       #167
      00FF304AH   LINE      CODE     ---       #168
      00FF3050H   LINE      CODE     ---       #170
      00FF3063H   LINE      CODE     ---       #171
      00FF3067H   LINE      CODE     ---       #172
      00FF3067H   LINE      CODE     ---       #173
      00FF306DH   LINE      CODE     ---       #175
      00FF3080H   LINE      CODE     ---       #176
      00FF3084H   LINE      CODE     ---       #177
      00FF3084H   LINE      CODE     ---       #178
      00FF308AH   LINE      CODE     ---       #180
      00FF309DH   LINE      CODE     ---       #181
      00FF30A1H   LINE      CODE     ---       #182
      00FF30A1H   LINE      CODE     ---       #183
      00FF30AAH   LINE      CODE     ---       #185
      00FF30BDH   LINE      CODE     ---       #186
      00FF30C1H   LINE      CODE     ---       #187
      00FF30C2H   LINE      CODE     ---       #189
      00FF30CBH   LINE      CODE     ---       #191
      00FF30D3H   LINE      CODE     ---       #193
      00FF30E6H   LINE      CODE     ---       #194
      00FF30E8H   LINE      CODE     ---       #195
      00FF30E8H   LINE      CODE     ---       #196
      00FF30EEH   LINE      CODE     ---       #198
      00FF3101H   LINE      CODE     ---       #199
      00FF3103H   LINE      CODE     ---       #200
      00FF3103H   LINE      CODE     ---       #201
      00FF3109H   LINE      CODE     ---       #203
      00FF311CH   LINE      CODE     ---       #204
      00FF311EH   LINE      CODE     ---       #205
      00FF311EH   LINE      CODE     ---       #207
      00FF3124H   LINE      CODE     ---       #209
      00FF3137H   LINE      CODE     ---       #210
      00FF3139H   LINE      CODE     ---       #211
      00FF3139H   LINE      CODE     ---       #212
      00FF313FH   LINE      CODE     ---       #214
      00FF3152H   LINE      CODE     ---       #215
      00FF3154H   LINE      CODE     ---       #216
      00FF3154H   LINE      CODE     ---       #217
      00FF315AH   LINE      CODE     ---       #219
      00FF316DH   LINE      CODE     ---       #220
      00FF316FH   LINE      CODE     ---       #221
      00FF316FH   LINE      CODE     ---       #222
      00FF3175H   LINE      CODE     ---       #224
      00FF3188H   LINE      CODE     ---       #225
      00FF318AH   LINE      CODE     ---       #226
      00FF318AH   LINE      CODE     ---       #227
      00FF3190H   LINE      CODE     ---       #229
      00FF31A5H   LINE      CODE     ---       #230
      00FF31A9H   LINE      CODE     ---       #231
      00FF31A9H   LINE      CODE     ---       #233
      ---         BLOCKEND  ---      ---       LVL=0

      ---         MODULE    ---      ---       zf_iic
      000000D0H   SFRSYM    DATA     BYTE      PSW
      000000B7H   SFRSYM    DATA     BYTE      IPH
      00000088H   SFRSYM    DATA     BYTE      TCON
      00000098H   SFRSYM    DATA     BYTE      SCON
L251 LINKER/LOCATER V4.66.93.0                                                        03/17/2024  15:38:36  PAGE 41


      000000BCH   SFRSYM    DATA     BYTE      ADC_CONTR
      000000DEH   SFRSYM    DATA     BYTE      ADCCFG
      000000B8H   SFRSYM    DATA     BYTE      IP
      000000A8H   SFRSYM    DATA     BYTE      IE
      000000BAH   SFRSYM    DATA     BYTE      P_SW2
      000000F8H   SFRSYM    DATA     BYTE      P7
      000000E8H   SFRSYM    DATA     BYTE      P6
      000000C8H   SFRSYM    DATA     BYTE      P5
      000000C0H   SFRSYM    DATA     BYTE      P4
      000000B0H   SFRSYM    DATA     BYTE      P3
      000000A0H   SFRSYM    DATA     BYTE      P2
      00000090H   SFRSYM    DATA     BYTE      P1
      00000080H   SFRSYM    DATA     BYTE      P0
      WR6         REGSYM    ---      WORD      x
      R10         REGSYM    ---      BYTE      i
      WR12        REGSYM    ---      WORD      count
      R15         REGSYM    ---      BYTE      ret
      R11         REGSYM    ---      BYTE      ret
      R11         REGSYM    ---      CHAR      dat
      R11         REGSYM    ---      BYTE      ret
      R11         REGSYM    ---      BYTE      ret
      R11         REGSYM    ---      BYTE      ret
      R11         REGSYM    ---      BYTE      ret
      WR6         REGSYM    ---      INT       iic_n
      R13         REGSYM    ---      BYTE      dev_add
      R14         REGSYM    ---      BYTE      reg
      R15         REGSYM    ---      BYTE      dat
      R15         REGSYM    ---      BYTE      dev_add
      R14         REGSYM    ---      BYTE      reg
      REG=3       REGSYM    ---      ---       dat
      WR6         REGSYM    ---      INT       iic_n

      ---         MODULE    ---      ---       zf_nvic
      000000D0H   SFRSYM    DATA     BYTE      PSW
      000000B7H   SFRSYM    DATA     BYTE      IPH
      000000B5H   SFRSYM    DATA     BYTE      IP2
      00000088H   SFRSYM    DATA     BYTE      TCON
      00000098H   SFRSYM    DATA     BYTE      SCON
      000000BCH   SFRSYM    DATA     BYTE      ADC_CONTR
      000000DEH   SFRSYM    DATA     BYTE      ADCCFG
      000000B8H   SFRSYM    DATA     BYTE      IP
      000000B6H   SFRSYM    DATA     BYTE      IP2H
      000000A8H   SFRSYM    DATA     BYTE      IE
      000000F8H   SFRSYM    DATA     BYTE      P7
      000000E8H   SFRSYM    DATA     BYTE      P6
      000000C8H   SFRSYM    DATA     BYTE      P5
      000000C0H   SFRSYM    DATA     BYTE      P4
      000000B0H   SFRSYM    DATA     BYTE      P3
      000000A0H   SFRSYM    DATA     BYTE      P2
      00000090H   SFRSYM    DATA     BYTE      P1
      00000080H   SFRSYM    DATA     BYTE      P0
      WR4         REGSYM    ---      INT       irqn
      R3          REGSYM    ---      BYTE      priority

      ---         MODULE    ---      ---       zf_pwm
      00FF4CE4H   PUBLIC    CODE     ---       pwm_duty
      00FF37E9H   PUBLIC    CODE     ---       pwm_set_gpio
      00FF3505H   PUBLIC    CODE     ---       pwm_init
      00FF66FDH   PUBLIC    HCONST   ---       PWM_CCR_ADDR
      00FF671DH   PUBLIC    HCONST   ---       PWM_ARR_ADDR
      00FF6725H   PUBLIC    HCONST   ---       PWM_CCER_ADDR
      00FF6735H   PUBLIC    HCONST   ---       PWM_CCMR_ADDR
      00000315H   PUBLIC    EDATA    BYTE      ?pwm_init?BYTE
      000000D0H   SFRSYM    DATA     BYTE      PSW
      000000B7H   SFRSYM    DATA     BYTE      IPH
L251 LINKER/LOCATER V4.66.93.0                                                        03/17/2024  15:38:36  PAGE 42


      00000088H   SFRSYM    DATA     BYTE      TCON
      00000098H   SFRSYM    DATA     BYTE      SCON
      000000BCH   SFRSYM    DATA     BYTE      ADC_CONTR
      000000DEH   SFRSYM    DATA     BYTE      ADCCFG
      000000B8H   SFRSYM    DATA     BYTE      IP
      000000A8H   SFRSYM    DATA     BYTE      IE
      000000BAH   SFRSYM    DATA     BYTE      P_SW2
      000000F8H   SFRSYM    DATA     BYTE      P7
      000000E8H   SFRSYM    DATA     BYTE      P6
      000000C8H   SFRSYM    DATA     BYTE      P5
      000000C0H   SFRSYM    DATA     BYTE      P4
      000000B0H   SFRSYM    DATA     BYTE      P3
      000000A0H   SFRSYM    DATA     BYTE      P2
      00000090H   SFRSYM    DATA     BYTE      P1
      00000080H   SFRSYM    DATA     BYTE      P0

      00FF37E9H   BLOCK     CODE     ---       LVL=0
      WR6         REGSYM    ---      INT       pwmch
      00FF37E9H   LINE      CODE     ---       #49
      00FF37E9H   LINE      CODE     ---       #51
      00FF395CH   LINE      CODE     ---       #53
      00FF395CH   LINE      CODE     ---       #55
      00FF3960H   LINE      CODE     ---       #56
      00FF3963H   LINE      CODE     ---       #58
      00FF3963H   LINE      CODE     ---       #60
      00FF3967H   LINE      CODE     ---       #61
      00FF396AH   LINE      CODE     ---       #63
      00FF396AH   LINE      CODE     ---       #65
      00FF396EH   LINE      CODE     ---       #66
      00FF3971H   LINE      CODE     ---       #68
      00FF3971H   LINE      CODE     ---       #70
      00FF3975H   LINE      CODE     ---       #71
      00FF3978H   LINE      CODE     ---       #73
      00FF3978H   LINE      CODE     ---       #75
      00FF397CH   LINE      CODE     ---       #76
      00FF397FH   LINE      CODE     ---       #78
      00FF397FH   LINE      CODE     ---       #80
      00FF3983H   LINE      CODE     ---       #81
      00FF3986H   LINE      CODE     ---       #84
      00FF3986H   LINE      CODE     ---       #86
      00FF398AH   LINE      CODE     ---       #87
      00FF398DH   LINE      CODE     ---       #89
      00FF398DH   LINE      CODE     ---       #91
      00FF3991H   LINE      CODE     ---       #92
      00FF3994H   LINE      CODE     ---       #94
      00FF3994H   LINE      CODE     ---       #96
      00FF3998H   LINE      CODE     ---       #97
      00FF399BH   LINE      CODE     ---       #99
      00FF399BH   LINE      CODE     ---       #101
      00FF399FH   LINE      CODE     ---       #102
      00FF39A2H   LINE      CODE     ---       #104
      00FF39A2H   LINE      CODE     ---       #106
      00FF39A6H   LINE      CODE     ---       #107
      00FF39A9H   LINE      CODE     ---       #109
      00FF39A9H   LINE      CODE     ---       #111
      00FF39ADH   LINE      CODE     ---       #112
      00FF39B0H   LINE      CODE     ---       #115
      00FF39B0H   LINE      CODE     ---       #117
      00FF39B4H   LINE      CODE     ---       #118
      00FF39B6H   LINE      CODE     ---       #120
      00FF39B6H   LINE      CODE     ---       #122
      00FF39BAH   LINE      CODE     ---       #123
      00FF39BCH   LINE      CODE     ---       #125
      00FF39BCH   LINE      CODE     ---       #127
      00FF39C0H   LINE      CODE     ---       #128
L251 LINKER/LOCATER V4.66.93.0                                                        03/17/2024  15:38:36  PAGE 43


      00FF39C2H   LINE      CODE     ---       #130
      00FF39C2H   LINE      CODE     ---       #132
      00FF39C6H   LINE      CODE     ---       #133
      00FF39C8H   LINE      CODE     ---       #135
      00FF39C8H   LINE      CODE     ---       #137
      00FF39CCH   LINE      CODE     ---       #138
      00FF39CEH   LINE      CODE     ---       #140
      00FF39CEH   LINE      CODE     ---       #142
      00FF39D2H   LINE      CODE     ---       #143
      00FF39D4H   LINE      CODE     ---       #147
      00FF39D4H   LINE      CODE     ---       #149
      00FF39D8H   LINE      CODE     ---       #150
      00FF39DAH   LINE      CODE     ---       #152
      00FF39DAH   LINE      CODE     ---       #154
      00FF39DEH   LINE      CODE     ---       #155
      00FF39E0H   LINE      CODE     ---       #157
      00FF39E0H   LINE      CODE     ---       #159
      00FF39E4H   LINE      CODE     ---       #160
      00FF39E6H   LINE      CODE     ---       #162
      00FF39E6H   LINE      CODE     ---       #164
      00FF39EAH   LINE      CODE     ---       #165
      00FF39ECH   LINE      CODE     ---       #167
      00FF39ECH   LINE      CODE     ---       #169
      00FF39F0H   LINE      CODE     ---       #170
      00FF39F2H   LINE      CODE     ---       #172
      00FF39F2H   LINE      CODE     ---       #174
      00FF39F6H   LINE      CODE     ---       #175
      00FF39F8H   LINE      CODE     ---       #177
      00FF39F8H   LINE      CODE     ---       #179
      00FF39FCH   LINE      CODE     ---       #180
      00FF39FEH   LINE      CODE     ---       #182
      00FF39FEH   LINE      CODE     ---       #184
      00FF3A02H   LINE      CODE     ---       #185
      00FF3A04H   LINE      CODE     ---       #189
      00FF3A04H   LINE      CODE     ---       #191
      00FF3A08H   LINE      CODE     ---       #192
      00FF3A0AH   LINE      CODE     ---       #194
      00FF3A0AH   LINE      CODE     ---       #196
      00FF3A0EH   LINE      CODE     ---       #197
      00FF3A10H   LINE      CODE     ---       #199
      00FF3A10H   LINE      CODE     ---       #201
      00FF3A12H   LINE      CODE     ---       #202
      00FF3A14H   LINE      CODE     ---       #204
      00FF3A14H   LINE      CODE     ---       #206
      00FF3A18H   LINE      CODE     ---       #207
      00FF3A1AH   LINE      CODE     ---       #210
      00FF3A1AH   LINE      CODE     ---       #212
      00FF3A1EH   LINE      CODE     ---       #213
      00FF3A20H   LINE      CODE     ---       #215
      00FF3A20H   LINE      CODE     ---       #217
      00FF3A24H   LINE      CODE     ---       #218
      00FF3A26H   LINE      CODE     ---       #220
      00FF3A26H   LINE      CODE     ---       #222
      00FF3A2CH   LINE      CODE     ---       #223
      00FF3A2EH   LINE      CODE     ---       #225
      00FF3A2EH   LINE      CODE     ---       #227
      00FF3A36H   LINE      CODE     ---       #228
      00FF3A38H   LINE      CODE     ---       #232
      00FF3A38H   LINE      CODE     ---       #234
      00FF3A40H   LINE      CODE     ---       #235
      00FF3A42H   LINE      CODE     ---       #237
      00FF3A42H   LINE      CODE     ---       #239
      00FF3A4AH   LINE      CODE     ---       #240
      00FF3A4CH   LINE      CODE     ---       #242
      00FF3A4CH   LINE      CODE     ---       #244
L251 LINKER/LOCATER V4.66.93.0                                                        03/17/2024  15:38:36  PAGE 44


      00FF3A54H   LINE      CODE     ---       #245
      00FF3A56H   LINE      CODE     ---       #247
      00FF3A56H   LINE      CODE     ---       #249
      00FF3A5EH   LINE      CODE     ---       #250
      00FF3A60H   LINE      CODE     ---       #254
      00FF3A60H   LINE      CODE     ---       #256
      00FF3A68H   LINE      CODE     ---       #257
      00FF3A6AH   LINE      CODE     ---       #259
      00FF3A6AH   LINE      CODE     ---       #261
      00FF3A72H   LINE      CODE     ---       #262
      00FF3A74H   LINE      CODE     ---       #264
      00FF3A74H   LINE      CODE     ---       #266
      00FF3A7CH   LINE      CODE     ---       #267
      00FF3A7EH   LINE      CODE     ---       #269
      00FF3A7EH   LINE      CODE     ---       #271
      00FF3A89H   LINE      CODE     ---       #272
      00FF3A89H   LINE      CODE     ---       #275
      00FF3A89H   LINE      CODE     ---       #277
      ---         BLOCKEND  ---      ---       LVL=0

      00FF3505H   BLOCK     CODE     ---       LVL=0
      WR14        REGSYM    ---      INT       pwmch
      00000317H   SYMBOL    EDATA    DWORD     freq
      0000031BH   SYMBOL    EDATA    DWORD     duty
      00FF350DH   BLOCK     CODE     NEAR LAB  LVL=1
      DR4         REGSYM    ---      DWORD     match_temp
      DR28        REGSYM    ---      DWORD     period_temp
      WR26        REGSYM    ---      WORD      freq_div
      ---         BLOCKEND  ---      ---       LVL=1
      00FF3505H   LINE      CODE     ---       #290
      00FF350DH   LINE      CODE     ---       #291
      00FF350DH   LINE      CODE     ---       #295
      00FF350DH   LINE      CODE     ---       #298
      00FF3510H   LINE      CODE     ---       #301
      00FF3513H   LINE      CODE     ---       #305
      00FF3524H   LINE      CODE     ---       #306
      00FF3524H   LINE      CODE     ---       #307
      00FF352DH   LINE      CODE     ---       #309
      00FF354EH   LINE      CODE     ---       #312
      00FF3557H   LINE      CODE     ---       #315
      00FF3582H   LINE      CODE     ---       #316
      00FF35A3H   LINE      CODE     ---       #319
      00FF35EFH   LINE      CODE     ---       #322
      00FF35FEH   LINE      CODE     ---       #323
      00FF3609H   LINE      CODE     ---       #325
      00FF3612H   LINE      CODE     ---       #326
      00FF3618H   LINE      CODE     ---       #327
      00FF361BH   LINE      CODE     ---       #330
      00FF3653H   LINE      CODE     ---       #331
      00FF3676H   LINE      CODE     ---       #334
      00FF36C8H   LINE      CODE     ---       #338
      00FF36D7H   LINE      CODE     ---       #339
      00FF36E2H   LINE      CODE     ---       #341
      00FF36EBH   LINE      CODE     ---       #342
      00FF36F8H   LINE      CODE     ---       #343
      00FF36F8H   LINE      CODE     ---       #346
      00FF3724H   LINE      CODE     ---       #347
      00FF3752H   LINE      CODE     ---       #350
      00FF3778H   LINE      CODE     ---       #351
      00FF37A4H   LINE      CODE     ---       #354
      00FF37BBH   LINE      CODE     ---       #355
      00FF37E6H   LINE      CODE     ---       #360
      ---         BLOCKEND  ---      ---       LVL=0

      00FF4CE4H   BLOCK     CODE     ---       LVL=0
L251 LINKER/LOCATER V4.66.93.0                                                        03/17/2024  15:38:36  PAGE 45


      WR30        REGSYM    ---      INT       pwmch
      DR24        REGSYM    ---      DWORD     duty
      00FF4CE8H   BLOCK     CODE     NEAR LAB  LVL=1
      DR0         REGSYM    ---      DWORD     match_temp
      DR20        REGSYM    ---      DWORD     arr
      ---         BLOCKEND  ---      ---       LVL=1
      00FF4CE4H   LINE      CODE     ---       #370
      00FF4CE8H   LINE      CODE     ---       #371
      00FF4CE8H   LINE      CODE     ---       #373
      00FF4D2CH   LINE      CODE     ---       #377
      00FF4D4DH   LINE      CODE     ---       #381
      00FF4D73H   LINE      CODE     ---       #382
      00FF4D9BH   LINE      CODE     ---       #386
      ---         BLOCKEND  ---      ---       LVL=0
      WR30        REGSYM    ---      INT       pwmch
      DR24        REGSYM    ---      DWORD     freq
      DR0         REGSYM    ---      DWORD     match_temp
      DR24        REGSYM    ---      DWORD     period_temp
      WR28        REGSYM    ---      WORD      freq_div

      ---         MODULE    ---      ---       zf_spi
      000000CFH   SFRSYM    DATA     BYTE      SPDAT
      000000D0H   SFRSYM    DATA     BYTE      PSW
      000000B7H   SFRSYM    DATA     BYTE      IPH
      000000CDH   SFRSYM    DATA     BYTE      SPSTAT
      00000088H   SFRSYM    DATA     BYTE      TCON
      00000098H   SFRSYM    DATA     BYTE      SCON
      000000BCH   SFRSYM    DATA     BYTE      ADC_CONTR
      000000DEH   SFRSYM    DATA     BYTE      ADCCFG
      000000B8H   SFRSYM    DATA     BYTE      IP
      000000A8H   SFRSYM    DATA     BYTE      IE
      000000A2H   SFRSYM    DATA     BYTE      P_SW1
      000000CEH   SFRSYM    DATA     BYTE      SPCTL
      000000F8H   SFRSYM    DATA     BYTE      P7
      000000E8H   SFRSYM    DATA     BYTE      P6
      000000C8H   SFRSYM    DATA     BYTE      P5
      000000C0H   SFRSYM    DATA     BYTE      P4
      000000B0H   SFRSYM    DATA     BYTE      P3
      000000A0H   SFRSYM    DATA     BYTE      P2
      00000090H   SFRSYM    DATA     BYTE      P1
      00000080H   SFRSYM    DATA     BYTE      P0
      WR14        REGSYM    ---      INT       spi_n
      R13         REGSYM    ---      BYTE      mode
      R11         REGSYM    ---      BYTE      dat
      WR14        REGSYM    ---      INT       spi_n
      R7          REGSYM    ---      BYTE      mode

      ---         MODULE    ---      ---       zf_tim
      00FF5B0CH   PUBLIC    CODE     ---       ctimer_count_read
      00FF4F95H   PUBLIC    CODE     ---       pit_timer_ms
      00FF5BA6H   PUBLIC    CODE     ---       ctimer_count_init
      00FF5ABBH   PUBLIC    CODE     ---       ctimer_count_clean
      000000D0H   SFRSYM    DATA     BYTE      PSW
      000000B7H   SFRSYM    DATA     BYTE      IPH
      000000DDH   SFRSYM    DATA     BYTE      T4T3M
      00000088H.6 SFRSYM    DATA     BIT       TR1
      00000088H.4 SFRSYM    DATA     BIT       TR0
      000000D3H   SFRSYM    DATA     BYTE      T4L
      000000D5H   SFRSYM    DATA     BYTE      T3L
      000000D7H   SFRSYM    DATA     BYTE      T2L
      0000008BH   SFRSYM    DATA     BYTE      TL1
      0000008AH   SFRSYM    DATA     BYTE      TL0
      000000D2H   SFRSYM    DATA     BYTE      T4H
      000000D4H   SFRSYM    DATA     BYTE      T3H
      000000D6H   SFRSYM    DATA     BYTE      T2H
L251 LINKER/LOCATER V4.66.93.0                                                        03/17/2024  15:38:36  PAGE 46


      0000008DH   SFRSYM    DATA     BYTE      TH1
      0000008CH   SFRSYM    DATA     BYTE      TH0
      000000A8H.3 SFRSYM    DATA     BIT       ET1
      000000A8H.1 SFRSYM    DATA     BIT       ET0
      0000008EH   SFRSYM    DATA     BYTE      AUXR
      000000AFH   SFRSYM    DATA     BYTE      IE2
      00000088H   SFRSYM    DATA     BYTE      TCON
      00000089H   SFRSYM    DATA     BYTE      TMOD
      00000098H   SFRSYM    DATA     BYTE      SCON
      000000BCH   SFRSYM    DATA     BYTE      ADC_CONTR
      000000DEH   SFRSYM    DATA     BYTE      ADCCFG
      000000B8H   SFRSYM    DATA     BYTE      IP
      000000A8H   SFRSYM    DATA     BYTE      IE
      000000F8H   SFRSYM    DATA     BYTE      P7
      000000E8H   SFRSYM    DATA     BYTE      P6
      000000C8H   SFRSYM    DATA     BYTE      P5
      000000C0H   SFRSYM    DATA     BYTE      P4
      000000B0H   SFRSYM    DATA     BYTE      P3
      000000A0H   SFRSYM    DATA     BYTE      P2
      00000090H   SFRSYM    DATA     BYTE      P1
      00000080H   SFRSYM    DATA     BYTE      P0

      00FF5BA6H   BLOCK     CODE     ---       LVL=0
      WR6         REGSYM    ---      INT       tim_n
      00FF5BA6H   LINE      CODE     ---       #39
      00FF5BA6H   LINE      CODE     ---       #42
      00FF5BBAH   LINE      CODE     ---       #44
      00FF5BBAH   LINE      CODE     ---       #46
      00FF5BBDH   LINE      CODE     ---       #47
      00FF5BC0H   LINE      CODE     ---       #48
      00FF5BC3H   LINE      CODE     ---       #49
      00FF5BC5H   LINE      CODE     ---       #50
      00FF5BC6H   LINE      CODE     ---       #53
      00FF5BC6H   LINE      CODE     ---       #55
      00FF5BC9H   LINE      CODE     ---       #56
      00FF5BCCH   LINE      CODE     ---       #57
      00FF5BCFH   LINE      CODE     ---       #58
      00FF5BD1H   LINE      CODE     ---       #59
      00FF5BD2H   LINE      CODE     ---       #62
      00FF5BD2H   LINE      CODE     ---       #64
      00FF5BD5H   LINE      CODE     ---       #65
      00FF5BD8H   LINE      CODE     ---       #66
      00FF5BDBH   LINE      CODE     ---       #67
      00FF5BDCH   LINE      CODE     ---       #70
      00FF5BDCH   LINE      CODE     ---       #72
      00FF5BDFH   LINE      CODE     ---       #73
      00FF5BE2H   LINE      CODE     ---       #74
      00FF5BE5H   LINE      CODE     ---       #75
      00FF5BE6H   LINE      CODE     ---       #78
      00FF5BE6H   LINE      CODE     ---       #80
      00FF5BE9H   LINE      CODE     ---       #81
      00FF5BECH   LINE      CODE     ---       #82
      00FF5BEFH   LINE      CODE     ---       #83
      00FF5BEFH   LINE      CODE     ---       #86
      00FF5BEFH   LINE      CODE     ---       #87
      ---         BLOCKEND  ---      ---       LVL=0

      00FF5B0CH   BLOCK     CODE     ---       LVL=0
      WR4         REGSYM    ---      INT       tim_n
      00FF5B0EH   BLOCK     CODE     NEAR LAB  LVL=1
      WR6         REGSYM    ---      WORD      dat
      ---         BLOCKEND  ---      ---       LVL=1
      00FF5B0CH   LINE      CODE     ---       #95
      00FF5B0EH   LINE      CODE     ---       #96
      00FF5B0EH   LINE      CODE     ---       #97
L251 LINKER/LOCATER V4.66.93.0                                                        03/17/2024  15:38:36  PAGE 47


      00FF5B10H   LINE      CODE     ---       #99
      00FF5B24H   LINE      CODE     ---       #101
      00FF5B24H   LINE      CODE     ---       #103
      00FF5B2AH   LINE      CODE     ---       #104
      00FF5B2CH   LINE      CODE     ---       #105
      00FF5B2EH   LINE      CODE     ---       #107
      00FF5B2EH   LINE      CODE     ---       #109
      00FF5B34H   LINE      CODE     ---       #110
      00FF5B36H   LINE      CODE     ---       #111
      00FF5B38H   LINE      CODE     ---       #113
      00FF5B38H   LINE      CODE     ---       #115
      00FF5B3EH   LINE      CODE     ---       #116
      00FF5B40H   LINE      CODE     ---       #117
      00FF5B42H   LINE      CODE     ---       #119
      00FF5B42H   LINE      CODE     ---       #121
      00FF5B48H   LINE      CODE     ---       #122
      00FF5B4AH   LINE      CODE     ---       #123
      00FF5B4CH   LINE      CODE     ---       #125
      00FF5B4CH   LINE      CODE     ---       #127
      00FF5B52H   LINE      CODE     ---       #128
      00FF5B58H   LINE      CODE     ---       #129
      00FF5B58H   LINE      CODE     ---       #132
      00FF5B58H   LINE      CODE     ---       #133
      00FF5B58H   LINE      CODE     ---       #134
      ---         BLOCKEND  ---      ---       LVL=0

      00FF5ABBH   BLOCK     CODE     ---       LVL=0
      WR6         REGSYM    ---      INT       tim_n
      00FF5ABBH   LINE      CODE     ---       #143
      00FF5ABBH   LINE      CODE     ---       #145
      00FF5ACFH   LINE      CODE     ---       #147
      00FF5ACFH   LINE      CODE     ---       #149
      00FF5AD1H   LINE      CODE     ---       #150
      00FF5AD4H   LINE      CODE     ---       #151
      00FF5AD7H   LINE      CODE     ---       #152
      00FF5AD9H   LINE      CODE     ---       #153
      00FF5ADAH   LINE      CODE     ---       #155
      00FF5ADAH   LINE      CODE     ---       #157
      00FF5ADCH   LINE      CODE     ---       #158
      00FF5ADFH   LINE      CODE     ---       #159
      00FF5AE2H   LINE      CODE     ---       #160
      00FF5AE4H   LINE      CODE     ---       #161
      00FF5AE5H   LINE      CODE     ---       #163
      00FF5AE5H   LINE      CODE     ---       #165
      00FF5AE8H   LINE      CODE     ---       #166
      00FF5AEBH   LINE      CODE     ---       #167
      00FF5AEEH   LINE      CODE     ---       #168
      00FF5AF1H   LINE      CODE     ---       #169
      00FF5AF2H   LINE      CODE     ---       #171
      00FF5AF2H   LINE      CODE     ---       #173
      00FF5AF5H   LINE      CODE     ---       #174
      00FF5AF8H   LINE      CODE     ---       #175
      00FF5AFBH   LINE      CODE     ---       #176
      00FF5AFEH   LINE      CODE     ---       #177
      00FF5AFFH   LINE      CODE     ---       #179
      00FF5AFFH   LINE      CODE     ---       #181
      00FF5B02H   LINE      CODE     ---       #182
      00FF5B05H   LINE      CODE     ---       #183
      00FF5B08H   LINE      CODE     ---       #184
      00FF5B0BH   LINE      CODE     ---       #185
      00FF5B0BH   LINE      CODE     ---       #187
      00FF5B0BH   LINE      CODE     ---       #188
      ---         BLOCKEND  ---      ---       LVL=0

      00FF4F95H   BLOCK     CODE     ---       LVL=0
L251 LINKER/LOCATER V4.66.93.0                                                        03/17/2024  15:38:36  PAGE 48


      WR30        REGSYM    ---      INT       tim_n
      WR28        REGSYM    ---      WORD      time_ms
      00FF4F97H   BLOCK     CODE     NEAR LAB  LVL=1
      WR28        REGSYM    ---      WORD      temp
      ---         BLOCKEND  ---      ---       LVL=1
      00FF4F95H   LINE      CODE     ---       #198
      00FF4F97H   LINE      CODE     ---       #199
      00FF4F97H   LINE      CODE     ---       #201
      00FF4FB4H   LINE      CODE     ---       #203
      00FF4FB8H   LINE      CODE     ---       #205
      00FF4FBCH   LINE      CODE     ---       #206
      00FF4FC2H   LINE      CODE     ---       #207
      00FF4FC6H   LINE      CODE     ---       #208
      00FF4FC8H   LINE      CODE     ---       #209
      00FF4FCAH   LINE      CODE     ---       #210
      00FF4FCBH   LINE      CODE     ---       #211
      00FF4FD1H   LINE      CODE     ---       #213
      00FF4FD5H   LINE      CODE     ---       #214
      00FF4FDBH   LINE      CODE     ---       #215
      00FF4FDFH   LINE      CODE     ---       #216
      00FF4FE1H   LINE      CODE     ---       #217
      00FF4FE3H   LINE      CODE     ---       #218
      00FF4FE4H   LINE      CODE     ---       #219
      00FF4FEAH   LINE      CODE     ---       #221
      00FF4FF0H   LINE      CODE     ---       #222
      00FF4FF4H   LINE      CODE     ---       #223
      00FF4FF7H   LINE      CODE     ---       #224
      00FF4FFAH   LINE      CODE     ---       #225
      00FF4FFBH   LINE      CODE     ---       #226
      00FF5001H   LINE      CODE     ---       #228
      00FF5007H   LINE      CODE     ---       #229
      00FF500BH   LINE      CODE     ---       #230
      00FF500EH   LINE      CODE     ---       #231
      00FF5011H   LINE      CODE     ---       #232
      00FF5012H   LINE      CODE     ---       #233
      00FF5018H   LINE      CODE     ---       #235
      00FF501EH   LINE      CODE     ---       #236
      00FF5022H   LINE      CODE     ---       #237
      00FF5025H   LINE      CODE     ---       #238
      00FF5028H   LINE      CODE     ---       #239
      ---         BLOCKEND  ---      ---       LVL=0

      ---         MODULE    ---      ---       zf_uart
      00FF596BH   PUBLIC    CODE     ---       uart_putchar
      00FF3F50H   PUBLIC    CODE     ---       uart_init
      0000023EH   PUBLIC    EDATA    ---       uart1_rx_buff
      000002A2H   PUBLIC    EDATA    ---       uart1_tx_buff
      00000306H   PUBLIC    EDATA    ---       busy
      00000311H   PUBLIC    EDATA    BYTE      ?uart_init?BYTE
      000000D0H   SFRSYM    DATA     BYTE      PSW
      000000FDH   SFRSYM    DATA     BYTE      S4CON
      000000ACH   SFRSYM    DATA     BYTE      S3CON
      0000009AH   SFRSYM    DATA     BYTE      S2CON
      000000FEH   SFRSYM    DATA     BYTE      S4BUF
      000000ADH   SFRSYM    DATA     BYTE      S3BUF
      0000009BH   SFRSYM    DATA     BYTE      S2BUF
      000000B7H   SFRSYM    DATA     BYTE      IPH
      000000DDH   SFRSYM    DATA     BYTE      T4T3M
      00000088H.6 SFRSYM    DATA     BIT       TR1
      000000D3H   SFRSYM    DATA     BYTE      T4L
      000000D5H   SFRSYM    DATA     BYTE      T3L
      000000D7H   SFRSYM    DATA     BYTE      T2L
      0000008BH   SFRSYM    DATA     BYTE      TL1
      000000D2H   SFRSYM    DATA     BYTE      T4H
      000000D4H   SFRSYM    DATA     BYTE      T3H
L251 LINKER/LOCATER V4.66.93.0                                                        03/17/2024  15:38:36  PAGE 49


      000000D6H   SFRSYM    DATA     BYTE      T2H
      0000008DH   SFRSYM    DATA     BYTE      TH1
      0000008EH   SFRSYM    DATA     BYTE      AUXR
      000000AFH   SFRSYM    DATA     BYTE      IE2
      00000088H   SFRSYM    DATA     BYTE      TCON
      00000089H   SFRSYM    DATA     BYTE      TMOD
      00000098H   SFRSYM    DATA     BYTE      SCON
      00000099H   SFRSYM    DATA     BYTE      SBUF
      000000BCH   SFRSYM    DATA     BYTE      ADC_CONTR
      000000DEH   SFRSYM    DATA     BYTE      ADCCFG
      000000B8H   SFRSYM    DATA     BYTE      IP
      000000A8H.4 SFRSYM    DATA     BIT       ES
      000000A8H   SFRSYM    DATA     BYTE      IE
      000000BAH   SFRSYM    DATA     BYTE      P_SW2
      000000A2H   SFRSYM    DATA     BYTE      P_SW1
      000000F8H   SFRSYM    DATA     BYTE      P7
      000000E8H   SFRSYM    DATA     BYTE      P6
      000000C8H   SFRSYM    DATA     BYTE      P5
      000000C0H   SFRSYM    DATA     BYTE      P4
      000000C9H   SFRSYM    DATA     BYTE      P5M1
      000000B0H   SFRSYM    DATA     BYTE      P3
      000000CAH   SFRSYM    DATA     BYTE      P5M0
      000000A0H   SFRSYM    DATA     BYTE      P2
      00000090H   SFRSYM    DATA     BYTE      P1
      00000080H   SFRSYM    DATA     BYTE      P0

      00FF3F50H   BLOCK     CODE     ---       LVL=0
      WR24        REGSYM    ---      INT       uart_n
      WR28        REGSYM    ---      INT       uart_rx_pin
      WR30        REGSYM    ---      INT       uart_tx_pin
      00000317H   SYMBOL    EDATA    DWORD     baud
      WR26        REGSYM    ---      INT       tim_n
      00FF3F58H   BLOCK     CODE     NEAR LAB  LVL=1
      WR6         REGSYM    ---      WORD      brt
      ---         BLOCKEND  ---      ---       LVL=1
      00FF3F50H   LINE      CODE     ---       #48
      00FF3F58H   LINE      CODE     ---       #49
      00FF3F58H   LINE      CODE     ---       #52
      00FF3F7BH   LINE      CODE     ---       #55
      00FF3F99H   LINE      CODE     ---       #57
      00FF3F99H   LINE      CODE     ---       #59
      00FF3F9FH   LINE      CODE     ---       #61
      00FF3FA2H   LINE      CODE     ---       #62
      00FF3FA6H   LINE      CODE     ---       #63
      00FF3FAAH   LINE      CODE     ---       #64
      00FF3FAEH   LINE      CODE     ---       #65
      00FF3FB1H   LINE      CODE     ---       #66
      00FF3FB3H   LINE      CODE     ---       #67
      00FF3FB8H   LINE      CODE     ---       #68
      00FF3FBAH   LINE      CODE     ---       #69
      00FF3FC0H   LINE      CODE     ---       #71
      00FF3FC3H   LINE      CODE     ---       #72
      00FF3FC7H   LINE      CODE     ---       #73
      00FF3FCBH   LINE      CODE     ---       #74
      00FF3FCEH   LINE      CODE     ---       #75
      00FF3FCEH   LINE      CODE     ---       #76
      00FF3FD1H   LINE      CODE     ---       #77
      00FF3FDBH   LINE      CODE     ---       #79
      00FF3FDFH   LINE      CODE     ---       #80
      00FF3FE1H   LINE      CODE     ---       #81
      00FF3FEDH   LINE      CODE     ---       #83
      00FF3FF0H   LINE      CODE     ---       #84
      00FF3FF2H   LINE      CODE     ---       #85
      00FF3FFEH   LINE      CODE     ---       #87
      00FF4001H   LINE      CODE     ---       #88
L251 LINKER/LOCATER V4.66.93.0                                                        03/17/2024  15:38:36  PAGE 50


      00FF4003H   LINE      CODE     ---       #89
      00FF400FH   LINE      CODE     ---       #91
      00FF4012H   LINE      CODE     ---       #92
      00FF4012H   LINE      CODE     ---       #93
      00FF4017H   LINE      CODE     ---       #94
      00FF4019H   LINE      CODE     ---       #95
      00FF401AH   LINE      CODE     ---       #98
      00FF401AH   LINE      CODE     ---       #100
      00FF4020H   LINE      CODE     ---       #102
      00FF4023H   LINE      CODE     ---       #103
      00FF4027H   LINE      CODE     ---       #104
      00FF402BH   LINE      CODE     ---       #105
      00FF402EH   LINE      CODE     ---       #106
      00FF402EH   LINE      CODE     ---       #108
      00FF4031H   LINE      CODE     ---       #109
      00FF403DH   LINE      CODE     ---       #111
      00FF4041H   LINE      CODE     ---       #112
      00FF4043H   LINE      CODE     ---       #113
      00FF404FH   LINE      CODE     ---       #115
      00FF4052H   LINE      CODE     ---       #116
      00FF4052H   LINE      CODE     ---       #118
      00FF4055H   LINE      CODE     ---       #119
      00FF405AH   LINE      CODE     ---       #120
      00FF405BH   LINE      CODE     ---       #123
      00FF405BH   LINE      CODE     ---       #125
      00FF4061H   LINE      CODE     ---       #127
      00FF4064H   LINE      CODE     ---       #128
      00FF4068H   LINE      CODE     ---       #129
      00FF406CH   LINE      CODE     ---       #130
      00FF406FH   LINE      CODE     ---       #131
      00FF4071H   LINE      CODE     ---       #132
      00FF4077H   LINE      CODE     ---       #134
      00FF407AH   LINE      CODE     ---       #135
      00FF407EH   LINE      CODE     ---       #136
      00FF4082H   LINE      CODE     ---       #137
      00FF4085H   LINE      CODE     ---       #138
      00FF4085H   LINE      CODE     ---       #140
      00FF4088H   LINE      CODE     ---       #141
      00FF4094H   LINE      CODE     ---       #143
      00FF4098H   LINE      CODE     ---       #144
      00FF409AH   LINE      CODE     ---       #145
      00FF40A6H   LINE      CODE     ---       #147
      00FF40A9H   LINE      CODE     ---       #148
      00FF40A9H   LINE      CODE     ---       #150
      00FF40ACH   LINE      CODE     ---       #151
      00FF40B1H   LINE      CODE     ---       #152
      00FF40B2H   LINE      CODE     ---       #155
      00FF40B2H   LINE      CODE     ---       #157
      00FF40B8H   LINE      CODE     ---       #159
      00FF40BBH   LINE      CODE     ---       #160
      00FF40BFH   LINE      CODE     ---       #161
      00FF40C3H   LINE      CODE     ---       #162
      00FF40C6H   LINE      CODE     ---       #163
      00FF40C8H   LINE      CODE     ---       #164
      00FF40CEH   LINE      CODE     ---       #166
      00FF40D1H   LINE      CODE     ---       #167
      00FF40D5H   LINE      CODE     ---       #168
      00FF40D9H   LINE      CODE     ---       #169
      00FF40DCH   LINE      CODE     ---       #170
      00FF40DCH   LINE      CODE     ---       #172
      00FF40DFH   LINE      CODE     ---       #173
      00FF40EBH   LINE      CODE     ---       #175
      00FF40EFH   LINE      CODE     ---       #176
      00FF40F1H   LINE      CODE     ---       #177
      00FF40FDH   LINE      CODE     ---       #179
L251 LINKER/LOCATER V4.66.93.0                                                        03/17/2024  15:38:36  PAGE 51


      00FF4100H   LINE      CODE     ---       #180
      00FF4103H   LINE      CODE     ---       #181
      00FF4106H   LINE      CODE     ---       #182
      00FF4106H   LINE      CODE     ---       #183
      00FF4109H   LINE      CODE     ---       #184
      00FF410EH   LINE      CODE     ---       #185
      00FF410EH   LINE      CODE     ---       #188
      00FF410EH   LINE      CODE     ---       #190
      ---         BLOCKEND  ---      ---       LVL=0

      00FF596BH   BLOCK     CODE     ---       LVL=0
      WR6         REGSYM    ---      INT       uart_n
      R10         REGSYM    ---      BYTE      dat
      00FF596BH   LINE      CODE     ---       #199
      00FF596DH   LINE      CODE     ---       #201
      00FF597FH   LINE      CODE     ---       #203
      00FF597FH   LINE      CODE     ---       #204
      00FF5985H   LINE      CODE     ---       #205
      00FF598BH   LINE      CODE     ---       #206
      00FF598EH   LINE      CODE     ---       #207
      00FF598FH   LINE      CODE     ---       #208
      00FF598FH   LINE      CODE     ---       #209
      00FF5995H   LINE      CODE     ---       #210
      00FF599BH   LINE      CODE     ---       #211
      00FF599EH   LINE      CODE     ---       #212
      00FF599FH   LINE      CODE     ---       #213
      00FF599FH   LINE      CODE     ---       #214
      00FF59A5H   LINE      CODE     ---       #215
      00FF59ABH   LINE      CODE     ---       #216
      00FF59AEH   LINE      CODE     ---       #217
      00FF59AFH   LINE      CODE     ---       #218
      00FF59AFH   LINE      CODE     ---       #219
      00FF59B5H   LINE      CODE     ---       #220
      00FF59BBH   LINE      CODE     ---       #221
      00FF59BEH   LINE      CODE     ---       #222
      00FF59BEH   LINE      CODE     ---       #223
      00FF59BEH   LINE      CODE     ---       #224
      ---         BLOCKEND  ---      ---       LVL=0
      REG=3       REGSYM    ---      ---       p
      REG=3       REGSYM    ---      ---       str

      ---         MODULE    ---      ---       zf_fifo
      00FF5C79H   PUBLIC    CODE     ---       fifo_head_offset
      00FF48C5H   PUBLIC    CODE     ---       fifo_write_buffer
      00000307H   PUBLIC    EDATA    BYTE      ?fifo_write_buffer?BYTE
      000000D0H   SFRSYM    DATA     BYTE      PSW
      000000B7H   SFRSYM    DATA     BYTE      IPH
      00000088H   SFRSYM    DATA     BYTE      TCON
      00000098H   SFRSYM    DATA     BYTE      SCON
      000000BCH   SFRSYM    DATA     BYTE      ADC_CONTR
      000000DEH   SFRSYM    DATA     BYTE      ADCCFG
      000000B8H   SFRSYM    DATA     BYTE      IP
      000000A8H   SFRSYM    DATA     BYTE      IE
      000000F8H   SFRSYM    DATA     BYTE      P7
      000000E8H   SFRSYM    DATA     BYTE      P6
      000000C8H   SFRSYM    DATA     BYTE      P5
      000000C0H   SFRSYM    DATA     BYTE      P4
      000000B0H   SFRSYM    DATA     BYTE      P3
      000000A0H   SFRSYM    DATA     BYTE      P2
      00000090H   SFRSYM    DATA     BYTE      P1
      00000080H   SFRSYM    DATA     BYTE      P0
      REG=2       REGSYM    ---      ---       fifo
      REG=7       REGSYM    ---      ---       buffer_addr

      00FF5C79H   BLOCK     CODE     ---       LVL=0
L251 LINKER/LOCATER V4.66.93.0                                                        03/17/2024  15:38:36  PAGE 52


      REG=7       REGSYM    ---      ---       fifo
      DR24        REGSYM    ---      DWORD     offset
      00FF5C79H   LINE      CODE     ---       #61
      00FF5C7DH   LINE      CODE     ---       #63
      00FF5C88H   LINE      CODE     ---       #65
      00FF5C8AH   LINE      CODE     ---       #67
      00FF5CA6H   LINE      CODE     ---       #68
      00FF5CBAH   LINE      CODE     ---       #69
      ---         BLOCKEND  ---      ---       LVL=0
      REG=7       REGSYM    ---      ---       fifo
      DR24        REGSYM    ---      DWORD     offset
      REG=2       REGSYM    ---      ---       fifo
      REG=7       REGSYM    ---      ---       fifo

      00FF48C5H   BLOCK     CODE     ---       LVL=0
      REG=3       REGSYM    ---      ---       fifo
      0000030BH   SYMBOL    EDATA    ---       dat
      0000030FH   SYMBOL    EDATA    DWORD     length
      00FF48CDH   BLOCK     CODE     NEAR LAB  LVL=1
      00000313H   SYMBOL    EDATA    DWORD     temp_length
      ---         BLOCKEND  ---      ---       LVL=1
      00FF48C5H   LINE      CODE     ---       #120
      00FF48CDH   LINE      CODE     ---       #121
      00FF48CDH   LINE      CODE     ---       #124
      00FF48E0H   LINE      CODE     ---       #126
      00FF48F6H   LINE      CODE     ---       #128
      00FF48FAH   LINE      CODE     ---       #130
      00FF4912H   LINE      CODE     ---       #131
      00FF491BH   LINE      CODE     ---       #132
      00FF492BH   LINE      CODE     ---       #133
      00FF494BH   LINE      CODE     ---       #134
      00FF4957H   LINE      CODE     ---       #135
      00FF4959H   LINE      CODE     ---       #138
      00FF4975H   LINE      CODE     ---       #139
      00FF497EH   LINE      CODE     ---       #140
      00FF497EH   LINE      CODE     ---       #142
      00FF4998H   LINE      CODE     ---       #143
      00FF499AH   LINE      CODE     ---       #146
      00FF49A0H   LINE      CODE     ---       #147
      00FF49A0H   LINE      CODE     ---       #149
      00FF49A2H   LINE      CODE     ---       #150
      ---         BLOCKEND  ---      ---       LVL=0
      REG=3       REGSYM    ---      ---       fifo

      ---         MODULE    ---      ---       SEEKFREE_18TFT
      000000D0H   SFRSYM    DATA     BYTE      PSW
      000000B7H   SFRSYM    DATA     BYTE      IPH
      000000A0H.5 SFRSYM    DATA     BIT       P25
      00000088H   SFRSYM    DATA     BYTE      TCON
      000000A0H.3 SFRSYM    DATA     BIT       P23
      00000098H   SFRSYM    DATA     BYTE      SCON
      000000A0H.2 SFRSYM    DATA     BIT       P22
      000000A0H.1 SFRSYM    DATA     BIT       P21
      000000A0H.0 SFRSYM    DATA     BIT       P20
      000000BCH   SFRSYM    DATA     BYTE      ADC_CONTR
      000000DEH   SFRSYM    DATA     BYTE      ADCCFG
      000000B8H   SFRSYM    DATA     BYTE      IP
      000000A8H   SFRSYM    DATA     BYTE      IE
      000000F8H   SFRSYM    DATA     BYTE      P7
      000000E8H   SFRSYM    DATA     BYTE      P6
      000000C8H   SFRSYM    DATA     BYTE      P5
      000000C0H   SFRSYM    DATA     BYTE      P4
      000000B0H   SFRSYM    DATA     BYTE      P3
      000000A0H   SFRSYM    DATA     BYTE      P2
      00000090H   SFRSYM    DATA     BYTE      P1
L251 LINKER/LOCATER V4.66.93.0                                                        03/17/2024  15:38:36  PAGE 53


      00000080H   SFRSYM    DATA     BYTE      P0
      R7          REGSYM    ---      BYTE      dat
      R6          REGSYM    ---      BYTE      i
      R7          REGSYM    ---      BYTE      dat
      R6          REGSYM    ---      BYTE      i
      WR4         REGSYM    ---      WORD      dat
      R10         REGSYM    ---      BYTE      i
      WR12        REGSYM    ---      WORD      x_end
      WR14        REGSYM    ---      WORD      y_end
      WR14        REGSYM    ---      INT       color
      R13         REGSYM    ---      BYTE      i
      R12         REGSYM    ---      BYTE      j
      WR2         REGSYM    ---      WORD      x
      WR0         REGSYM    ---      WORD      y
      WR14        REGSYM    ---      WORD      color
      WR12        REGSYM    ---      WORD      x
      WR14        REGSYM    ---      WORD      y
      REG=3       REGSYM    ---      ---       dat
      WR12        REGSYM    ---      WORD      x
      WR14        REGSYM    ---      WORD      y
      WR12        REGSYM    ---      WORD      x
      WR14        REGSYM    ---      WORD      y
      R10         REGSYM    ---      BYTE      dat
      WR12        REGSYM    ---      WORD      x
      WR14        REGSYM    ---      WORD      y
      WR12        REGSYM    ---      WORD      x
      WR14        REGSYM    ---      WORD      y
      WR2         REGSYM    ---      WORD      dat
      WR12        REGSYM    ---      WORD      y
      R15         REGSYM    ---      BYTE      num
      R14         REGSYM    ---      BYTE      length
      DR12        REGSYM    ---      FLOAT     dat
      R7          REGSYM    ---      CHAR      point
      R7          REGSYM    ---      BYTE      dat
      R7          REGSYM    ---      BYTE      dat
      WR4         REGSYM    ---      WORD      dat
      WR12        REGSYM    ---      WORD      x_end
      WR14        REGSYM    ---      WORD      y_end
      WR14        REGSYM    ---      INT       color
      R13         REGSYM    ---      BYTE      i
      R12         REGSYM    ---      BYTE      j
      WR2         REGSYM    ---      WORD      x
      WR0         REGSYM    ---      WORD      y
      WR14        REGSYM    ---      WORD      color
      WR12        REGSYM    ---      WORD      x
      WR14        REGSYM    ---      WORD      y
      REG=3       REGSYM    ---      ---       dat
      WR12        REGSYM    ---      WORD      x
      WR14        REGSYM    ---      WORD      y
      WR12        REGSYM    ---      WORD      x
      WR14        REGSYM    ---      WORD      y
      R10         REGSYM    ---      BYTE      dat
      WR12        REGSYM    ---      WORD      x
      WR14        REGSYM    ---      WORD      y
      WR12        REGSYM    ---      WORD      x
      WR14        REGSYM    ---      WORD      y
      WR2         REGSYM    ---      WORD      dat
      WR12        REGSYM    ---      WORD      y
      R15         REGSYM    ---      BYTE      num
      R14         REGSYM    ---      BYTE      length
      DR12        REGSYM    ---      FLOAT     dat
      R7          REGSYM    ---      CHAR      point
      REG=3       REGSYM    ---      ---       p

      ---         MODULE    ---      ---       SEEKFREE_ABSOLUTE_ENCODER
L251 LINKER/LOCATER V4.66.93.0                                                        03/17/2024  15:38:36  PAGE 54


      000000D0H   SFRSYM    DATA     BYTE      PSW
      000000B7H   SFRSYM    DATA     BYTE      IPH
      000000A0H.7 SFRSYM    DATA     BIT       P27
      000000A0H.6 SFRSYM    DATA     BIT       P26
      000000A0H.5 SFRSYM    DATA     BIT       P25
      000000A0H.4 SFRSYM    DATA     BIT       P24
      00000088H   SFRSYM    DATA     BYTE      TCON
      00000098H   SFRSYM    DATA     BYTE      SCON
      000000A0H.2 SFRSYM    DATA     BIT       P22
      000000BCH   SFRSYM    DATA     BYTE      ADC_CONTR
      000000DEH   SFRSYM    DATA     BYTE      ADCCFG
      000000B8H   SFRSYM    DATA     BYTE      IP
      000000A8H   SFRSYM    DATA     BYTE      IE
      000000F8H   SFRSYM    DATA     BYTE      P7
      000000E8H   SFRSYM    DATA     BYTE      P6
      000000C8H   SFRSYM    DATA     BYTE      P5
      000000C0H   SFRSYM    DATA     BYTE      P4
      000000B0H   SFRSYM    DATA     BYTE      P3
      000000A0H   SFRSYM    DATA     BYTE      P2
      00000090H   SFRSYM    DATA     BYTE      P1
      00000080H   SFRSYM    DATA     BYTE      P0
      WR6         REGSYM    ---      WORD      x
      R6          REGSYM    ---      BYTE      byte
      R7          REGSYM    ---      BYTE      i
      R7          REGSYM    ---      BYTE      cmd
      R15         REGSYM    ---      BYTE      val
      R7          REGSYM    ---      BYTE      cmd
      REG=3       REGSYM    ---      ---       val
      R7          REGSYM    ---      BYTE      cmd
      R15         REGSYM    ---      BYTE      val
      R14         REGSYM    ---      BYTE      dat
      R7          REGSYM    ---      BYTE      cmd
      REG=3       REGSYM    ---      ---       val
      WR14        REGSYM    ---      WORD      zero_position
      WR14        REGSYM    ---      WORD      angle
      R10         REGSYM    ---      BYTE      byte
      R7          REGSYM    ---      BYTE      cmd
      R15         REGSYM    ---      BYTE      val
      R7          REGSYM    ---      BYTE      cmd
      REG=3       REGSYM    ---      ---       val
      R7          REGSYM    ---      BYTE      cmd
      R15         REGSYM    ---      BYTE      val
      R14         REGSYM    ---      BYTE      dat
      R7          REGSYM    ---      BYTE      cmd
      REG=3       REGSYM    ---      ---       val
      WR14        REGSYM    ---      WORD      zero_position
      WR14        REGSYM    ---      WORD      angle

      ---         MODULE    ---      ---       SEEKFREE_FONT
      00FF00A6H   PUBLIC    CODE     ---       oled_8x16
      00FF0696H   PUBLIC    CODE     ---       tft_ascii
      00FF0C86H   PUBLIC    CODE     ---       oled_6x8
      000000D0H   SFRSYM    DATA     BYTE      PSW
      000000B7H   SFRSYM    DATA     BYTE      IPH
      00000088H   SFRSYM    DATA     BYTE      TCON
      00000098H   SFRSYM    DATA     BYTE      SCON
      000000BCH   SFRSYM    DATA     BYTE      ADC_CONTR
      000000DEH   SFRSYM    DATA     BYTE      ADCCFG
      000000B8H   SFRSYM    DATA     BYTE      IP
      000000A8H   SFRSYM    DATA     BYTE      IE
      000000F8H   SFRSYM    DATA     BYTE      P7
      000000E8H   SFRSYM    DATA     BYTE      P6
      000000C8H   SFRSYM    DATA     BYTE      P5
      000000C0H   SFRSYM    DATA     BYTE      P4
      000000B0H   SFRSYM    DATA     BYTE      P3
L251 LINKER/LOCATER V4.66.93.0                                                        03/17/2024  15:38:36  PAGE 55


      000000A0H   SFRSYM    DATA     BYTE      P2
      00000090H   SFRSYM    DATA     BYTE      P1
      00000080H   SFRSYM    DATA     BYTE      P0

      ---         MODULE    ---      ---       SEEKFREE_IIC
      00000656H   PUBLIC    EDATA    BYTE      IIC_ad_main
      00000657H   PUBLIC    EDATA    BYTE      IIC_num
      00000658H   PUBLIC    EDATA    BYTE      IIC_ad_sub
      00000659H   PUBLIC    EDATA    ---       IIC_buf
      000000D0H   SFRSYM    DATA     BYTE      PSW
      000000B7H   SFRSYM    DATA     BYTE      IPH
      00000088H   SFRSYM    DATA     BYTE      TCON
      000000C0H.1 SFRSYM    DATA     BIT       P41
      00000098H   SFRSYM    DATA     BYTE      SCON
      000000C0H.0 SFRSYM    DATA     BIT       P40
      000000BCH   SFRSYM    DATA     BYTE      ADC_CONTR
      000000DEH   SFRSYM    DATA     BYTE      ADCCFG
      000000B8H   SFRSYM    DATA     BYTE      IP
      000000A8H   SFRSYM    DATA     BYTE      IE
      000000F8H   SFRSYM    DATA     BYTE      P7
      000000E8H   SFRSYM    DATA     BYTE      P6
      000000C8H   SFRSYM    DATA     BYTE      P5
      000000C0H   SFRSYM    DATA     BYTE      P4
      000000B0H   SFRSYM    DATA     BYTE      P3
      000000A0H   SFRSYM    DATA     BYTE      P2
      00000090H   SFRSYM    DATA     BYTE      P1
      00000080H   SFRSYM    DATA     BYTE      P0
      WR6         REGSYM    ---      WORD      j
      R15         REGSYM    ---      BYTE      ack_dat
      R15         REGSYM    ---      BYTE      c
      R14         REGSYM    ---      BYTE      i
      R15         REGSYM    ---      BYTE      ack_x
      R13         REGSYM    ---      BYTE      i
      R14         REGSYM    ---      BYTE      c
      R13         REGSYM    ---      BYTE      dev_add
      R14         REGSYM    ---      BYTE      reg
      R15         REGSYM    ---      BYTE      dat
      R15         REGSYM    ---      BYTE      dev_add
      R14         REGSYM    ---      BYTE      reg
      WR12        REGSYM    ---      INT       type
      R15         REGSYM    ---      BYTE      dat
      REG=3       REGSYM    ---      ---       dat_add

      ---         MODULE    ---      ---       SEEKFREE_MPU6050
      00000634H   PUBLIC    EDATA    INT       mpu_acc_x
      00000636H   PUBLIC    EDATA    INT       mpu_acc_y
      00000638H   PUBLIC    EDATA    INT       mpu_acc_z
      0000063AH   PUBLIC    EDATA    INT       mpu_gyro_x
      0000063CH   PUBLIC    EDATA    INT       mpu_gyro_y
      0000063EH   PUBLIC    EDATA    INT       mpu_gyro_z
      000000D0H   SFRSYM    DATA     BYTE      PSW
      000000B7H   SFRSYM    DATA     BYTE      IPH
      00000088H   SFRSYM    DATA     BYTE      TCON
      00000098H   SFRSYM    DATA     BYTE      SCON
      000000BCH   SFRSYM    DATA     BYTE      ADC_CONTR
      000000DEH   SFRSYM    DATA     BYTE      ADCCFG
      000000B8H   SFRSYM    DATA     BYTE      IP
      000000A8H   SFRSYM    DATA     BYTE      IE
      000000F8H   SFRSYM    DATA     BYTE      P7
      000000E8H   SFRSYM    DATA     BYTE      P6
      000000C8H   SFRSYM    DATA     BYTE      P5
      000000C0H   SFRSYM    DATA     BYTE      P4
      000000B0H   SFRSYM    DATA     BYTE      P3
      000000A0H   SFRSYM    DATA     BYTE      P2
      00000090H   SFRSYM    DATA     BYTE      P1
L251 LINKER/LOCATER V4.66.93.0                                                        03/17/2024  15:38:36  PAGE 56


      00000080H   SFRSYM    DATA     BYTE      P0

      ---         MODULE    ---      ---       SEEKFREE_OLED
      00FF6251H   PUBLIC    CODE     ---       oled_set_pos
      00FF4511H   PUBLIC    CODE     ---       oled_printf_float
      00FF6166H   PUBLIC    CODE     ---       oled_wrcmd
      00FF618FH   PUBLIC    CODE     ---       oled_wrdat
      00FF5FBEH   PUBLIC    CODE     ---       oled_fill
      00FF4EF2H   PUBLIC    CODE     ---       oled_init
      00FF46F9H   PUBLIC    CODE     ---       oled_p8x16str
      00000313H   PUBLIC    EDATA    BYTE      ?oled_printf_float?BYTE
      000000D0H   SFRSYM    DATA     BYTE      PSW
      000000B7H   SFRSYM    DATA     BYTE      IPH
      000000A0H.5 SFRSYM    DATA     BIT       P25
      00000088H   SFRSYM    DATA     BYTE      TCON
      000000A0H.3 SFRSYM    DATA     BIT       P23
      00000098H   SFRSYM    DATA     BYTE      SCON
      000000A0H.2 SFRSYM    DATA     BIT       P22
      000000A0H.1 SFRSYM    DATA     BIT       P21
      000000A0H.0 SFRSYM    DATA     BIT       P20
      000000BCH   SFRSYM    DATA     BYTE      ADC_CONTR
      000000DEH   SFRSYM    DATA     BYTE      ADCCFG
      000000B8H   SFRSYM    DATA     BYTE      IP
      000000A8H   SFRSYM    DATA     BYTE      IE
      000000F8H   SFRSYM    DATA     BYTE      P7
      000000E8H   SFRSYM    DATA     BYTE      P6
      000000C8H   SFRSYM    DATA     BYTE      P5
      000000C0H   SFRSYM    DATA     BYTE      P4
      000000B0H   SFRSYM    DATA     BYTE      P3
      000000A0H   SFRSYM    DATA     BYTE      P2
      00000090H   SFRSYM    DATA     BYTE      P1
      00000080H   SFRSYM    DATA     BYTE      P0

      00FF618FH   BLOCK     CODE     ---       LVL=0
      R7          REGSYM    ---      BYTE      dat
      00FF6191H   BLOCK     CODE     NEAR LAB  LVL=1
      R6          REGSYM    ---      BYTE      i
      ---         BLOCKEND  ---      ---       LVL=1
      00FF618FH   LINE      CODE     ---       #47
      00FF6191H   LINE      CODE     ---       #48
      00FF6191H   LINE      CODE     ---       #49
      00FF6194H   LINE      CODE     ---       #51
      00FF6196H   LINE      CODE     ---       #52
      00FF6198H   LINE      CODE     ---       #53
      00FF619AH   LINE      CODE     ---       #54
      00FF619CH   LINE      CODE     ---       #56
      00FF61A5H   LINE      CODE     ---       #57
      00FF61A7H   LINE      CODE     ---       #58
      00FF61A9H   LINE      CODE     ---       #60
      00FF61ABH   LINE      CODE     ---       #61
      00FF61ADH   LINE      CODE     ---       #62
      00FF61B5H   LINE      CODE     ---       #63
      00FF61B7H   LINE      CODE     ---       #64
      ---         BLOCKEND  ---      ---       LVL=0

      00FF6166H   BLOCK     CODE     ---       LVL=0
      R7          REGSYM    ---      BYTE      cmd
      00FF6168H   BLOCK     CODE     NEAR LAB  LVL=1
      R6          REGSYM    ---      BYTE      i
      ---         BLOCKEND  ---      ---       LVL=1
      00FF6166H   LINE      CODE     ---       #98
      00FF6168H   LINE      CODE     ---       #99
      00FF6168H   LINE      CODE     ---       #100
      00FF616BH   LINE      CODE     ---       #102
      00FF616DH   LINE      CODE     ---       #103
L251 LINKER/LOCATER V4.66.93.0                                                        03/17/2024  15:38:36  PAGE 57


      00FF616FH   LINE      CODE     ---       #104
      00FF6171H   LINE      CODE     ---       #106
      00FF6173H   LINE      CODE     ---       #108
      00FF617CH   LINE      CODE     ---       #109
      00FF617EH   LINE      CODE     ---       #110
      00FF6180H   LINE      CODE     ---       #112
      00FF6182H   LINE      CODE     ---       #113
      00FF6184H   LINE      CODE     ---       #114
      00FF618CH   LINE      CODE     ---       #115
      00FF618EH   LINE      CODE     ---       #116
      ---         BLOCKEND  ---      ---       LVL=0
      WR8         REGSYM    ---      WORD      hex
      REG=7       REGSYM    ---      ---       Print
      R5          REGSYM    ---      BYTE      hexcheck
      R10         REGSYM    ---      BYTE      TEMP

      00FF4EF2H   BLOCK     CODE     ---       LVL=0
      00FF4EF2H   LINE      CODE     ---       #148
      00FF4EF2H   LINE      CODE     ---       #151
      00FF4EF4H   LINE      CODE     ---       #152
      00FF4EF6H   LINE      CODE     ---       #154
      00FF4EF8H   LINE      CODE     ---       #155
      00FF4EFFH   LINE      CODE     ---       #156
      00FF4F01H   LINE      CODE     ---       #158
      00FF4F06H   LINE      CODE     ---       #159
      00FF4F0AH   LINE      CODE     ---       #160
      00FF4F0FH   LINE      CODE     ---       #161
      00FF4F14H   LINE      CODE     ---       #162
      00FF4F19H   LINE      CODE     ---       #163
      00FF4F1EH   LINE      CODE     ---       #166
      00FF4F23H   LINE      CODE     ---       #167
      00FF4F28H   LINE      CODE     ---       #173
      00FF4F2DH   LINE      CODE     ---       #174
      00FF4F32H   LINE      CODE     ---       #175
      00FF4F37H   LINE      CODE     ---       #176
      00FF4F3CH   LINE      CODE     ---       #177
      00FF4F40H   LINE      CODE     ---       #178
      00FF4F45H   LINE      CODE     ---       #179
      00FF4F4AH   LINE      CODE     ---       #180
      00FF4F4FH   LINE      CODE     ---       #181
      00FF4F54H   LINE      CODE     ---       #182
      00FF4F59H   LINE      CODE     ---       #183
      00FF4F5EH   LINE      CODE     ---       #184
      00FF4F63H   LINE      CODE     ---       #185
      00FF4F68H   LINE      CODE     ---       #186
      00FF4F6DH   LINE      CODE     ---       #187
      00FF4F72H   LINE      CODE     ---       #188
      00FF4F77H   LINE      CODE     ---       #189
      00FF4F7CH   LINE      CODE     ---       #190
      00FF4F81H   LINE      CODE     ---       #191
      00FF4F86H   LINE      CODE     ---       #192
      00FF4F8BH   LINE      CODE     ---       #193
      00FF4F8FH   LINE      CODE     ---       #194
      ---         BLOCKEND  ---      ---       LVL=0

      00FF6251H   BLOCK     CODE     ---       LVL=0
      R15         REGSYM    ---      BYTE      x
      R10         REGSYM    ---      BYTE      y
      00FF6251H   LINE      CODE     ---       #205
      00FF6255H   LINE      CODE     ---       #207
      00FF625CH   LINE      CODE     ---       #208
      00FF626AH   LINE      CODE     ---       #209
      00FF6271H   LINE      CODE     ---       #210
      ---         BLOCKEND  ---      ---       LVL=0

L251 LINKER/LOCATER V4.66.93.0                                                        03/17/2024  15:38:36  PAGE 58


      00FF5FBEH   BLOCK     CODE     ---       LVL=0
      R15         REGSYM    ---      BYTE      bmp_data
      00FF5FC4H   BLOCK     CODE     NEAR LAB  LVL=1
      R14         REGSYM    ---      BYTE      y
      R13         REGSYM    ---      BYTE      x
      ---         BLOCKEND  ---      ---       LVL=1
      00FF5FBEH   LINE      CODE     ---       #219
      00FF5FC4H   LINE      CODE     ---       #220
      00FF5FC4H   LINE      CODE     ---       #223
      00FF5FC6H   LINE      CODE     ---       #225
      00FF5FCDH   LINE      CODE     ---       #226
      00FF5FD2H   LINE      CODE     ---       #227
      00FF5FD7H   LINE      CODE     ---       #228
      00FF5FE5H   LINE      CODE     ---       #229
      00FF5FECH   LINE      CODE     ---       #230
      ---         BLOCKEND  ---      ---       LVL=0
      R15         REGSYM    ---      BYTE      x
      R14         REGSYM    ---      BYTE      y
      R13         REGSYM    ---      BYTE      data1
      R15         REGSYM    ---      BYTE      x
      R14         REGSYM    ---      BYTE      y
      REG=3       REGSYM    ---      ---       ch

      00FF46F9H   BLOCK     CODE     ---       LVL=0
      00000342H   SYMBOL    EDATA    BYTE      x
      00000343H   SYMBOL    EDATA    BYTE      y
      REG=3       REGSYM    ---      ---       ch
      00FF4705H   BLOCK     CODE     NEAR LAB  LVL=1
      00000344H   SYMBOL    EDATA    BYTE      c
      00000345H   SYMBOL    EDATA    BYTE      i
      00000346H   SYMBOL    EDATA    BYTE      j
      ---         BLOCKEND  ---      ---       LVL=1
      00FF46F9H   LINE      CODE     ---       #302
      00FF4705H   LINE      CODE     ---       #303
      00FF4705H   LINE      CODE     ---       #304
      00FF470EH   LINE      CODE     ---       #306
      00FF4711H   LINE      CODE     ---       #308
      00FF4728H   LINE      CODE     ---       #309
      00FF473FH   LINE      CODE     ---       #311
      00FF474AH   LINE      CODE     ---       #312
      00FF477BH   LINE      CODE     ---       #314
      00FF4788H   LINE      CODE     ---       #315
      00FF47B9H   LINE      CODE     ---       #317
      00FF47C3H   LINE      CODE     ---       #318
      00FF47CCH   LINE      CODE     ---       #319
      00FF47DEH   LINE      CODE     ---       #320
      ---         BLOCKEND  ---      ---       LVL=0
      R14         REGSYM    ---      BYTE      x
      R15         REGSYM    ---      BYTE      y
      WR4         REGSYM    ---      WORD      num
      R15         REGSYM    ---      BYTE      x
      R14         REGSYM    ---      BYTE      y
      WR12        REGSYM    ---      INT       num
      WR12        REGSYM    ---      WORD      y
      R15         REGSYM    ---      BYTE      num
      R14         REGSYM    ---      BYTE      length

      00FF4511H   BLOCK     CODE     ---       LVL=0
      00000317H   SYMBOL    EDATA    WORD      x
      00000319H   SYMBOL    EDATA    WORD      y
      DR12        REGSYM    ---      FLOAT     dat
      0000031BH   SYMBOL    EDATA    BYTE      num
      0000031CH   SYMBOL    EDATA    BYTE      pointnum
      00FF4521H   BLOCK     CODE     NEAR LAB  LVL=1
      0000031DH   SYMBOL    EDATA    BYTE      length
L251 LINKER/LOCATER V4.66.93.0                                                        03/17/2024  15:38:36  PAGE 59


      0000031EH   SYMBOL    EDATA    ---       buff
      00000340H   SYMBOL    EDATA    CHAR      start
      00000341H   SYMBOL    EDATA    CHAR      end
      R7          REGSYM    ---      CHAR      point
      ---         BLOCKEND  ---      ---       LVL=1
      00FF4511H   LINE      CODE     ---       #412
      00FF4521H   LINE      CODE     ---       #413
      00FF4521H   LINE      CODE     ---       #418
      00FF4530H   LINE      CODE     ---       #419
      00FF453FH   LINE      CODE     ---       #421
      00FF4561H   LINE      CODE     ---       #424
      00FF457AH   LINE      CODE     ---       #425
      00FF457FH   LINE      CODE     ---       #426
      00FF457FH   LINE      CODE     ---       #427
      00FF4589H   LINE      CODE     ---       #428
      00FF4599H   LINE      CODE     ---       #429
      00FF45A9H   LINE      CODE     ---       #430
      00FF45AEH   LINE      CODE     ---       #432
      00FF45B8H   LINE      CODE     ---       #433
      00FF45C1H   LINE      CODE     ---       #434
      00FF45CAH   LINE      CODE     ---       #435
      00FF45D3H   LINE      CODE     ---       #437
      00FF45E0H   LINE      CODE     ---       #438
      00FF45ECH   LINE      CODE     ---       #440
      00FF45F7H   LINE      CODE     ---       #442
      00FF4606H   LINE      CODE     ---       #443
      ---         BLOCKEND  ---      ---       LVL=0
      WR4         REGSYM    ---      WORD      high
      REG=3       REGSYM    ---      ---       p
      REG=3       REGSYM    ---      ---       p
      R7          REGSYM    ---      BYTE      dat
      R7          REGSYM    ---      BYTE      cmd
      WR8         REGSYM    ---      WORD      hex
      REG=7       REGSYM    ---      ---       Print
      R5          REGSYM    ---      BYTE      hexcheck
      R10         REGSYM    ---      BYTE      TEMP
      R15         REGSYM    ---      BYTE      x
      R10         REGSYM    ---      BYTE      y
      R15         REGSYM    ---      BYTE      bmp_data
      R14         REGSYM    ---      BYTE      y
      R13         REGSYM    ---      BYTE      x
      R15         REGSYM    ---      BYTE      x
      R14         REGSYM    ---      BYTE      y
      R13         REGSYM    ---      BYTE      data1
      R15         REGSYM    ---      BYTE      x
      R14         REGSYM    ---      BYTE      y
      REG=3       REGSYM    ---      ---       ch
      REG=3       REGSYM    ---      ---       ch
      R14         REGSYM    ---      BYTE      x
      R15         REGSYM    ---      BYTE      y
      WR4         REGSYM    ---      WORD      num
      R15         REGSYM    ---      BYTE      x
      R14         REGSYM    ---      BYTE      y
      WR12        REGSYM    ---      INT       num
      WR12        REGSYM    ---      WORD      y
      R15         REGSYM    ---      BYTE      num
      R14         REGSYM    ---      BYTE      length
      DR12        REGSYM    ---      FLOAT     dat
      R7          REGSYM    ---      CHAR      point
      WR4         REGSYM    ---      WORD      high
      REG=3       REGSYM    ---      ---       p
      REG=3       REGSYM    ---      ---       p

      ---         MODULE    ---      ---       SEEKFREE_AT24C02
      000000D0H   SFRSYM    DATA     BYTE      PSW
L251 LINKER/LOCATER V4.66.93.0                                                        03/17/2024  15:38:36  PAGE 60


      000000B7H   SFRSYM    DATA     BYTE      IPH
      00000088H   SFRSYM    DATA     BYTE      TCON
      00000098H   SFRSYM    DATA     BYTE      SCON
      000000BCH   SFRSYM    DATA     BYTE      ADC_CONTR
      000000DEH   SFRSYM    DATA     BYTE      ADCCFG
      000000B8H   SFRSYM    DATA     BYTE      IP
      000000A8H   SFRSYM    DATA     BYTE      IE
      000000F8H   SFRSYM    DATA     BYTE      P7
      000000E8H   SFRSYM    DATA     BYTE      P6
      000000C8H   SFRSYM    DATA     BYTE      P5
      000000C0H   SFRSYM    DATA     BYTE      P4
      000000B0H   SFRSYM    DATA     BYTE      P3
      000000A0H   SFRSYM    DATA     BYTE      P2
      00000090H   SFRSYM    DATA     BYTE      P1
      00000080H   SFRSYM    DATA     BYTE      P0
      R14         REGSYM    ---      BYTE      byte_reg
      R15         REGSYM    ---      BYTE      dat
      R15         REGSYM    ---      BYTE      byte_reg
      REG=3       REGSYM    ---      ---       dat_add
      REG=3       REGSYM    ---      ---       dat_add

      ---         MODULE    ---      ---       SEEKFREE_BLUETOOTH_CH9141
      00FF634FH   PUBLIC    CODE     ---       bluetooth_ch9141_uart_callback
      000000D0H   SFRSYM    DATA     BYTE      PSW
      000000FEH   SFRSYM    DATA     BYTE      S4BUF
      000000B7H   SFRSYM    DATA     BYTE      IPH
      00000080H.7 SFRSYM    DATA     BIT       P07
      00000088H   SFRSYM    DATA     BYTE      TCON
      00000098H   SFRSYM    DATA     BYTE      SCON
      000000BCH   SFRSYM    DATA     BYTE      ADC_CONTR
      000000DEH   SFRSYM    DATA     BYTE      ADCCFG
      000000B8H   SFRSYM    DATA     BYTE      IP
      000000A8H   SFRSYM    DATA     BYTE      IE
      000000F8H   SFRSYM    DATA     BYTE      P7
      000000E8H   SFRSYM    DATA     BYTE      P6
      000000C8H   SFRSYM    DATA     BYTE      P5
      000000C0H   SFRSYM    DATA     BYTE      P4
      000000B0H   SFRSYM    DATA     BYTE      P3
      000000A0H   SFRSYM    DATA     BYTE      P2
      00000090H   SFRSYM    DATA     BYTE      P1
      00000080H   SFRSYM    DATA     BYTE      P0
      00000487H   SYMBOL    EDATA    ---       bluetooth_ch9141_buffer
      000004C7H   SYMBOL    EDATA    BYTE      bluetooth_ch9141_data
      000004C8H   SYMBOL    EDATA    ---       bluetooth_ch9141_fifo

      00FF634FH   BLOCK     CODE     ---       LVL=0
      00FF634FH   LINE      CODE     ---       #67
      00FF634FH   LINE      CODE     ---       #70
      00FF6355H   LINE      CODE     ---       #71
      ---         BLOCKEND  ---      ---       LVL=0
      DR12        REGSYM    ---      DWORD     len
      REG=7       REGSYM    ---      ---       buff
      DR8         REGSYM    ---      DWORD     len

      ---         MODULE    ---      ---       SEEKFREE_ICM20602
      00000640H   PUBLIC    EDATA    INT       icm_acc_x
      00000642H   PUBLIC    EDATA    INT       icm_acc_y
      00000644H   PUBLIC    EDATA    INT       icm_acc_z
      00000646H   PUBLIC    EDATA    INT       icm_gyro_x
      00000648H   PUBLIC    EDATA    INT       icm_gyro_y
      0000064AH   PUBLIC    EDATA    INT       icm_gyro_z
      000000D0H   SFRSYM    DATA     BYTE      PSW
      000000B7H   SFRSYM    DATA     BYTE      IPH
      000000C0H.3 SFRSYM    DATA     BIT       P43
      000000C0H.2 SFRSYM    DATA     BIT       P42
L251 LINKER/LOCATER V4.66.93.0                                                        03/17/2024  15:38:36  PAGE 61


      00000088H   SFRSYM    DATA     BYTE      TCON
      000000C0H.1 SFRSYM    DATA     BIT       P41
      00000098H   SFRSYM    DATA     BYTE      SCON
      000000C0H.0 SFRSYM    DATA     BIT       P40
      000000BCH   SFRSYM    DATA     BYTE      ADC_CONTR
      000000DEH   SFRSYM    DATA     BYTE      ADCCFG
      000000B8H   SFRSYM    DATA     BYTE      IP
      000000A8H   SFRSYM    DATA     BYTE      IE
      000000F8H   SFRSYM    DATA     BYTE      P7
      000000E8H   SFRSYM    DATA     BYTE      P6
      000000C8H   SFRSYM    DATA     BYTE      P5
      000000C0H   SFRSYM    DATA     BYTE      P4
      000000B0H   SFRSYM    DATA     BYTE      P3
      000000A0H   SFRSYM    DATA     BYTE      P2
      00000090H   SFRSYM    DATA     BYTE      P1
      00000080H   SFRSYM    DATA     BYTE      P0
      R15         REGSYM    ---      BYTE      dat
      R6          REGSYM    ---      BYTE      byte
      R7          REGSYM    ---      BYTE      i
      R7          REGSYM    ---      BYTE      cmd
      R15         REGSYM    ---      BYTE      val
      R7          REGSYM    ---      BYTE      cmd
      REG=3       REGSYM    ---      ---       val
      R7          REGSYM    ---      BYTE      cmd
      REG=3       REGSYM    ---      ---       val

      ---         MODULE    ---      ---       SEEKFREE_IPS114_SPI
      000000D0H   SFRSYM    DATA     BYTE      PSW
      000000B7H   SFRSYM    DATA     BYTE      IPH
      000000A0H.7 SFRSYM    DATA     BIT       P27
      000000A0H.5 SFRSYM    DATA     BIT       P25
      00000088H   SFRSYM    DATA     BYTE      TCON
      000000A0H.3 SFRSYM    DATA     BIT       P23
      00000098H   SFRSYM    DATA     BYTE      SCON
      000000A0H.2 SFRSYM    DATA     BIT       P22
      000000A0H.1 SFRSYM    DATA     BIT       P21
      000000A0H.0 SFRSYM    DATA     BIT       P20
      000000BCH   SFRSYM    DATA     BYTE      ADC_CONTR
      000000DEH   SFRSYM    DATA     BYTE      ADCCFG
      000000B8H   SFRSYM    DATA     BYTE      IP
      000000A8H   SFRSYM    DATA     BYTE      IE
      000000F8H   SFRSYM    DATA     BYTE      P7
      000000E8H   SFRSYM    DATA     BYTE      P6
      000000C8H   SFRSYM    DATA     BYTE      P5
      000000C0H   SFRSYM    DATA     BYTE      P4
      000000B0H   SFRSYM    DATA     BYTE      P3
      000000A0H   SFRSYM    DATA     BYTE      P2
      00000090H   SFRSYM    DATA     BYTE      P1
      00000080H   SFRSYM    DATA     BYTE      P0
      R7          REGSYM    ---      BYTE      dat
      R6          REGSYM    ---      BYTE      i
      R7          REGSYM    ---      BYTE      dat
      R6          REGSYM    ---      BYTE      i
      WR4         REGSYM    ---      WORD      dat
      R10         REGSYM    ---      BYTE      i
      WR12        REGSYM    ---      WORD      x2
      WR14        REGSYM    ---      WORD      y2
      WR14        REGSYM    ---      WORD      color
      R13         REGSYM    ---      BYTE      i
      WR2         REGSYM    ---      WORD      x
      WR0         REGSYM    ---      WORD      y
      WR14        REGSYM    ---      WORD      color
      WR12        REGSYM    ---      WORD      x
      WR14        REGSYM    ---      WORD      y
      REG=3       REGSYM    ---      ---       dat
L251 LINKER/LOCATER V4.66.93.0                                                        03/17/2024  15:38:36  PAGE 62


      WR12        REGSYM    ---      WORD      x
      WR14        REGSYM    ---      WORD      y
      WR12        REGSYM    ---      WORD      x
      WR14        REGSYM    ---      WORD      y
      R10         REGSYM    ---      BYTE      dat
      WR12        REGSYM    ---      WORD      x
      WR14        REGSYM    ---      WORD      y
      WR12        REGSYM    ---      WORD      x
      WR14        REGSYM    ---      WORD      y
      WR2         REGSYM    ---      WORD      dat
      WR12        REGSYM    ---      WORD      y
      R15         REGSYM    ---      BYTE      num
      R14         REGSYM    ---      BYTE      length
      DR12        REGSYM    ---      FLOAT     dat
      R7          REGSYM    ---      CHAR      point
      R7          REGSYM    ---      BYTE      dat
      R7          REGSYM    ---      BYTE      dat
      WR4         REGSYM    ---      WORD      dat
      WR12        REGSYM    ---      WORD      x2
      WR14        REGSYM    ---      WORD      y2
      WR14        REGSYM    ---      WORD      color
      R13         REGSYM    ---      BYTE      i
      WR2         REGSYM    ---      WORD      x
      WR0         REGSYM    ---      WORD      y
      WR14        REGSYM    ---      WORD      color
      WR12        REGSYM    ---      WORD      x
      WR14        REGSYM    ---      WORD      y
      REG=3       REGSYM    ---      ---       dat
      WR12        REGSYM    ---      WORD      x
      WR14        REGSYM    ---      WORD      y
      WR12        REGSYM    ---      WORD      x
      WR14        REGSYM    ---      WORD      y
      R10         REGSYM    ---      BYTE      dat
      WR12        REGSYM    ---      WORD      x
      WR14        REGSYM    ---      WORD      y
      WR12        REGSYM    ---      WORD      x
      WR14        REGSYM    ---      WORD      y
      WR2         REGSYM    ---      WORD      dat
      WR12        REGSYM    ---      WORD      y
      R15         REGSYM    ---      BYTE      num
      R14         REGSYM    ---      BYTE      length
      DR12        REGSYM    ---      FLOAT     dat
      R7          REGSYM    ---      CHAR      point

      ---         MODULE    ---      ---       SEEKFREE_TSL1401
      0000013DH   PUBLIC    EDATA    BYTE      tsl1401_finish_flag
      0000013EH   PUBLIC    EDATA    ---       ccd_data
      000000D0H   SFRSYM    DATA     BYTE      PSW
      000000B7H   SFRSYM    DATA     BYTE      IPH
      000000B0H.3 SFRSYM    DATA     BIT       P33
      00000088H   SFRSYM    DATA     BYTE      TCON
      000000B0H.2 SFRSYM    DATA     BIT       P32
      00000098H   SFRSYM    DATA     BYTE      SCON
      000000BCH   SFRSYM    DATA     BYTE      ADC_CONTR
      000000DEH   SFRSYM    DATA     BYTE      ADCCFG
      000000B8H   SFRSYM    DATA     BYTE      IP
      000000A8H   SFRSYM    DATA     BYTE      IE
      000000F8H   SFRSYM    DATA     BYTE      P7
      000000E8H   SFRSYM    DATA     BYTE      P6
      000000C8H   SFRSYM    DATA     BYTE      P5
      000000C0H   SFRSYM    DATA     BYTE      P4
      000000B0H   SFRSYM    DATA     BYTE      P3
      000000A0H   SFRSYM    DATA     BYTE      P2
      00000090H   SFRSYM    DATA     BYTE      P1
      00000080H   SFRSYM    DATA     BYTE      P0
L251 LINKER/LOCATER V4.66.93.0                                                        03/17/2024  15:38:36  PAGE 63


      REG=3       REGSYM    ---      ---       dat
      R15         REGSYM    ---      BYTE      i

      ---         MODULE    ---      ---       SEEKFREE_VIRSCO
      0000064CH   PUBLIC    EDATA    ---       virtual_scope_data
      000000D0H   SFRSYM    DATA     BYTE      PSW
      000000B7H   SFRSYM    DATA     BYTE      IPH
      00000088H   SFRSYM    DATA     BYTE      TCON
      00000098H   SFRSYM    DATA     BYTE      SCON
      000000BCH   SFRSYM    DATA     BYTE      ADC_CONTR
      000000DEH   SFRSYM    DATA     BYTE      ADCCFG
      000000B8H   SFRSYM    DATA     BYTE      IP
      000000A8H   SFRSYM    DATA     BYTE      IE
      000000F8H   SFRSYM    DATA     BYTE      P7
      000000E8H   SFRSYM    DATA     BYTE      P6
      000000C8H   SFRSYM    DATA     BYTE      P5
      000000C0H   SFRSYM    DATA     BYTE      P4
      000000B0H   SFRSYM    DATA     BYTE      P3
      000000A0H   SFRSYM    DATA     BYTE      P2
      00000090H   SFRSYM    DATA     BYTE      P1
      00000080H   SFRSYM    DATA     BYTE      P0
      REG=7       REGSYM    ---      ---       Buf
      R10         REGSYM    ---      BYTE      CRC_CNT
      WR6         REGSYM    ---      WORD      CRC_Temp
      R5          REGSYM    ---      BYTE      i
      R4          REGSYM    ---      BYTE      j
      WR0         REGSYM    ---      INT       data1
      WR30        REGSYM    ---      INT       data2
      WR8         REGSYM    ---      INT       data3
      WR10        REGSYM    ---      INT       data4
      WR6         REGSYM    ---      WORD      CRC16

      ---         MODULE    ---      ---       SEEKFREE_WIRELESS
      00FF6368H   PUBLIC    CODE     ---       wireless_uart_callback
      000000D0H   SFRSYM    DATA     BYTE      PSW
      000000FEH   SFRSYM    DATA     BYTE      S4BUF
      000000B7H   SFRSYM    DATA     BYTE      IPH
      00000080H.7 SFRSYM    DATA     BIT       P07
      00000088H   SFRSYM    DATA     BYTE      TCON
      00000098H   SFRSYM    DATA     BYTE      SCON
      000000BCH   SFRSYM    DATA     BYTE      ADC_CONTR
      000000DEH   SFRSYM    DATA     BYTE      ADCCFG
      000000B8H   SFRSYM    DATA     BYTE      IP
      000000A8H   SFRSYM    DATA     BYTE      IE
      000000F8H   SFRSYM    DATA     BYTE      P7
      000000E8H   SFRSYM    DATA     BYTE      P6
      000000C8H   SFRSYM    DATA     BYTE      P5
      000000C0H   SFRSYM    DATA     BYTE      P4
      000000B0H   SFRSYM    DATA     BYTE      P3
      000000A0H   SFRSYM    DATA     BYTE      P2
      00000090H   SFRSYM    DATA     BYTE      P1
      00000080H   SFRSYM    DATA     BYTE      P0
      000004DCH   SYMBOL    EDATA    BYTE      wireless_uart_data
      000004DDH   SYMBOL    EDATA    ---       wireless_uart_fifo
      000004F1H   SYMBOL    EDATA    ---       wireless_uart_buffer

      00FF6368H   BLOCK     CODE     ---       LVL=0
      00FF6368H   LINE      CODE     ---       #48
      00FF6368H   LINE      CODE     ---       #51
      00FF636EH   LINE      CODE     ---       #52
      ---         BLOCKEND  ---      ---       LVL=0
      REG=3       REGSYM    ---      ---       buff
      REG=7       REGSYM    ---      ---       buff
      DR8         REGSYM    ---      DWORD     len

L251 LINKER/LOCATER V4.66.93.0                                                        03/17/2024  15:38:36  PAGE 64


      ---         MODULE    ---      ---       SEEKFREE_WIRELESS_CH573
      00FF6381H   PUBLIC    CODE     ---       wireless_ch573_callback
      000000D0H   SFRSYM    DATA     BYTE      PSW
      000000FEH   SFRSYM    DATA     BYTE      S4BUF
      000000B7H   SFRSYM    DATA     BYTE      IPH
      00000080H.7 SFRSYM    DATA     BIT       P07
      00000088H   SFRSYM    DATA     BYTE      TCON
      00000098H   SFRSYM    DATA     BYTE      SCON
      000000BCH   SFRSYM    DATA     BYTE      ADC_CONTR
      000000DEH   SFRSYM    DATA     BYTE      ADCCFG
      000000B8H   SFRSYM    DATA     BYTE      IP
      000000A8H   SFRSYM    DATA     BYTE      IE
      000000F8H   SFRSYM    DATA     BYTE      P7
      000000E8H   SFRSYM    DATA     BYTE      P6
      000000C8H   SFRSYM    DATA     BYTE      P5
      000000C0H   SFRSYM    DATA     BYTE      P4
      000000B0H   SFRSYM    DATA     BYTE      P3
      000000A0H   SFRSYM    DATA     BYTE      P2
      00000090H   SFRSYM    DATA     BYTE      P1
      00000080H   SFRSYM    DATA     BYTE      P0
      00000531H   SYMBOL    EDATA    ---       wireless_ch573_buffer
      00000571H   SYMBOL    EDATA    BYTE      wireless_ch573_data
      00000572H   SYMBOL    EDATA    ---       wireless_ch573_fifo

      00FF6381H   BLOCK     CODE     ---       LVL=0
      00FF6381H   LINE      CODE     ---       #39
      00FF6381H   LINE      CODE     ---       #42
      00FF6387H   LINE      CODE     ---       #43
      ---         BLOCKEND  ---      ---       LVL=0
      REG=3       REGSYM    ---      ---       buff
      REG=7       REGSYM    ---      ---       buff
      DR8         REGSYM    ---      DWORD     len

      ---         MODULE    ---      ---       isr
      00FF5DF5H   PUBLIC    CODE     ---       UART1_Isr
      00FF62F9H   PUBLIC    CODE     ---       UART2_Isr
      00FF6317H   PUBLIC    CODE     ---       UART3_Isr
      00FF5679H   PUBLIC    CODE     ---       UART4_Isr
      00FF653AH   PUBLIC    CODE     ---       INT0_Isr
      00FF0011H   PUBLIC    CODE     ---       INT1_Isr
      00FF6512H   PUBLIC    CODE     ---       INT2_Isr
      00FF651AH   PUBLIC    CODE     ---       INT3_Isr
      00FF6522H   PUBLIC    CODE     ---       INT4_Isr
      00FF0012H   PUBLIC    CODE     ---       TM0_Isr
      00FF0019H   PUBLIC    CODE     ---       TM1_Isr
      00FF652AH   PUBLIC    CODE     ---       TM2_Isr
      00FF6532H   PUBLIC    CODE     ---       TM3_Isr
      00FF52CDH   PUBLIC    CODE     ---       TM4_Isr
      0000066DH   PUBLIC    EDATA    CHAR      count
      000000D0H   SFRSYM    DATA     BYTE      PSW
      000000EFH   SFRSYM    DATA     BYTE      AUXINTIF
      000000FDH   SFRSYM    DATA     BYTE      S4CON
      000000ACH   SFRSYM    DATA     BYTE      S3CON
      0000009AH   SFRSYM    DATA     BYTE      S2CON
      000000B7H   SFRSYM    DATA     BYTE      IPH
      000000C7H   SFRSYM    DATA     BYTE      IAP_CONTR
      000000C8H.2 SFRSYM    DATA     BIT       P52
      00000088H   SFRSYM    DATA     BYTE      TCON
      00000098H   SFRSYM    DATA     BYTE      SCON
      00000099H   SFRSYM    DATA     BYTE      SBUF
      000000BCH   SFRSYM    DATA     BYTE      ADC_CONTR
      000000DEH   SFRSYM    DATA     BYTE      ADCCFG
      000000B8H   SFRSYM    DATA     BYTE      IP
      000000A8H   SFRSYM    DATA     BYTE      IE
      000000F8H   SFRSYM    DATA     BYTE      P7
L251 LINKER/LOCATER V4.66.93.0                                                        03/17/2024  15:38:36  PAGE 65


      000000E8H   SFRSYM    DATA     BYTE      P6
      000000C8H   SFRSYM    DATA     BYTE      P5
      000000C0H   SFRSYM    DATA     BYTE      P4
      000000B0H   SFRSYM    DATA     BYTE      P3
      000000A0H   SFRSYM    DATA     BYTE      P2
      00000090H   SFRSYM    DATA     BYTE      P1
      00000080H   SFRSYM    DATA     BYTE      P0

      00FF5DF5H   BLOCK     CODE     ---       LVL=0
      00FF5DF9H   BLOCK     CODE     NEAR LAB  LVL=1
      R11         REGSYM    ---      BYTE      res
      0000066EH   SYMBOL    EDATA    BYTE      dwon_count
      ---         BLOCKEND  ---      ---       LVL=1
      00FF5DF5H   LINE      CODE     ---       #27
      00FF5DF9H   LINE      CODE     ---       #28
      00FF5DF9H   LINE      CODE     ---       #31
      00FF5DFEH   LINE      CODE     ---       #33
      00FF5E01H   LINE      CODE     ---       #34
      00FF5E06H   LINE      CODE     ---       #35
      00FF5E06H   LINE      CODE     ---       #36
      00FF5E0BH   LINE      CODE     ---       #38
      00FF5E0EH   LINE      CODE     ---       #39
      00FF5E10H   LINE      CODE     ---       #41
      00FF5E13H   LINE      CODE     ---       #43
      00FF5E23H   LINE      CODE     ---       #44
      00FF5E26H   LINE      CODE     ---       #45
      00FF5E28H   LINE      CODE     ---       #48
      00FF5E2DH   LINE      CODE     ---       #49
      00FF5E2DH   LINE      CODE     ---       #50
      ---         BLOCKEND  ---      ---       LVL=0

      00FF62F9H   BLOCK     CODE     ---       LVL=0
      00FF62F9H   LINE      CODE     ---       #54
      00FF62FDH   LINE      CODE     ---       #56
      00FF6302H   LINE      CODE     ---       #58
      00FF6305H   LINE      CODE     ---       #59
      00FF630AH   LINE      CODE     ---       #60
      00FF630AH   LINE      CODE     ---       #61
      00FF630FH   LINE      CODE     ---       #63
      00FF6312H   LINE      CODE     ---       #66
      ---         BLOCKEND  ---      ---       LVL=0

      00FF6317H   BLOCK     CODE     ---       LVL=0
      00FF6317H   LINE      CODE     ---       #71
      00FF631BH   LINE      CODE     ---       #73
      00FF6320H   LINE      CODE     ---       #75
      00FF6323H   LINE      CODE     ---       #76
      00FF6328H   LINE      CODE     ---       #77
      00FF6328H   LINE      CODE     ---       #78
      00FF632DH   LINE      CODE     ---       #80
      00FF6330H   LINE      CODE     ---       #83
      ---         BLOCKEND  ---      ---       LVL=0

      00FF5679H   BLOCK     CODE     ---       LVL=0
      00FF5679H   LINE      CODE     ---       #88
      00FF5691H   LINE      CODE     ---       #90
      00FF5696H   LINE      CODE     ---       #92
      00FF5699H   LINE      CODE     ---       #93
      00FF569EH   LINE      CODE     ---       #94
      00FF569EH   LINE      CODE     ---       #95
      00FF56A3H   LINE      CODE     ---       #97
      00FF56A6H   LINE      CODE     ---       #100
      00FF56B0H   LINE      CODE     ---       #102
      00FF56B3H   LINE      CODE     ---       #103
      00FF56B5H   LINE      CODE     ---       #104
L251 LINKER/LOCATER V4.66.93.0                                                        03/17/2024  15:38:36  PAGE 66


      00FF56BBH   LINE      CODE     ---       #106
      00FF56BEH   LINE      CODE     ---       #107
      00FF56C0H   LINE      CODE     ---       #108
      00FF56C6H   LINE      CODE     ---       #110
      00FF56C9H   LINE      CODE     ---       #111
      00FF56C9H   LINE      CODE     ---       #113
      ---         BLOCKEND  ---      ---       LVL=0

      00FF653AH   BLOCK     CODE     ---       LVL=0
      00FF653AH   LINE      CODE     ---       #116
      00FF653CH   LINE      CODE     ---       #118
      00FF653EH   LINE      CODE     ---       #119
      ---         BLOCKEND  ---      ---       LVL=0

      00FF0011H   BLOCK     CODE     ---       LVL=0
      00FF0011H   LINE      CODE     ---       #120
      00FF0011H   LINE      CODE     ---       #123
      ---         BLOCKEND  ---      ---       LVL=0

      00FF6512H   BLOCK     CODE     ---       LVL=0
      00FF6512H   LINE      CODE     ---       #124
      00FF6514H   LINE      CODE     ---       #126
      00FF6517H   LINE      CODE     ---       #127
      ---         BLOCKEND  ---      ---       LVL=0

      00FF651AH   BLOCK     CODE     ---       LVL=0
      00FF651AH   LINE      CODE     ---       #128
      00FF651CH   LINE      CODE     ---       #130
      00FF651FH   LINE      CODE     ---       #131
      ---         BLOCKEND  ---      ---       LVL=0

      00FF6522H   BLOCK     CODE     ---       LVL=0
      00FF6522H   LINE      CODE     ---       #133
      00FF6524H   LINE      CODE     ---       #135
      00FF6527H   LINE      CODE     ---       #136
      ---         BLOCKEND  ---      ---       LVL=0

      00FF0012H   BLOCK     CODE     ---       LVL=0
      00FF0012H   LINE      CODE     ---       #138
      00FF0012H   LINE      CODE     ---       #141
      ---         BLOCKEND  ---      ---       LVL=0

      00FF0019H   BLOCK     CODE     ---       LVL=0
      00FF0019H   LINE      CODE     ---       #142
      00FF0019H   LINE      CODE     ---       #145
      ---         BLOCKEND  ---      ---       LVL=0

      00FF652AH   BLOCK     CODE     ---       LVL=0
      00FF652AH   LINE      CODE     ---       #146
      00FF652CH   LINE      CODE     ---       #148
      00FF652FH   LINE      CODE     ---       #150
      ---         BLOCKEND  ---      ---       LVL=0

      00FF6532H   BLOCK     CODE     ---       LVL=0
      00FF6532H   LINE      CODE     ---       #151
      00FF6534H   LINE      CODE     ---       #153
      00FF6537H   LINE      CODE     ---       #155
      ---         BLOCKEND  ---      ---       LVL=0

      00FF52CDH   BLOCK     CODE     ---       LVL=0
      00FF52CDH   LINE      CODE     ---       #158
      00FF52E3H   LINE      CODE     ---       #160
      00FF52E6H   LINE      CODE     ---       #161
      00FF52EFH   LINE      CODE     ---       #162
      00FF52F5H   LINE      CODE     ---       #164
L251 LINKER/LOCATER V4.66.93.0                                                        03/17/2024  15:38:36  PAGE 67


      00FF52FFH   LINE      CODE     ---       #166
      00FF530AH   LINE      CODE     ---       #167
      00FF5314H   LINE      CODE     ---       #168
      00FF5316H   LINE      CODE     ---       #170
      00FF531FH   LINE      CODE     ---       #172
      00FF5328H   LINE      CODE     ---       #174
      00FF5331H   LINE      CODE     ---       #175
      00FF5336H   LINE      CODE     ---       #176
      ---         BLOCKEND  ---      ---       LVL=0

      ---         MODULE    ---      ---       main
      00FF560FH   PUBLIC    CODE     ---       Get_Ratio
      00FF31AAH   PUBLIC    CODE     ---       main
      00FF4A80H   PUBLIC    CODE     ---       Init_all
      000005D6H   PUBLIC    EDATA    FLOAT     Ratio
      000005DAH   PUBLIC    EDATA    FLOAT     Exp_Speed
      000005DEH   PUBLIC    EDATA    FLOAT     sum_L
      000005E2H   PUBLIC    EDATA    FLOAT     sum_R
      000005E6H   PUBLIC    EDATA    FLOAT     Round_Flag_R
      000005EAH   PUBLIC    EDATA    FLOAT     Plus_Mid
      000005EEH   PUBLIC    EDATA    FLOAT     Plus
      000005F2H   PUBLIC    EDATA    CHAR      KeyValue
      000005F3H   PUBLIC    EDATA    FLOAT     Exp_Speed_L
      000005F7H   PUBLIC    EDATA    FLOAT     Exp_Speed_R
      000005FBH   PUBLIC    EDATA    FLOAT     sum
      000005FFH   PUBLIC    EDATA    INT       gx
      00000601H   PUBLIC    EDATA    INT       gy
      00000603H   PUBLIC    EDATA    INT       gz
      00000605H   PUBLIC    EDATA    CHAR      Num1
      00000606H   PUBLIC    EDATA    CHAR      Isr_flag_10
      00000607H   PUBLIC    EDATA    FLOAT     Adjust_Val
      0000060BH   PUBLIC    EDATA    FLOAT     Diff_Mid
      0000060FH   PUBLIC    EDATA    FLOAT     Diff
      00000613H   PUBLIC    EDATA    FLOAT     Ratio_Mid
      000000D0H   SFRSYM    DATA     BYTE      PSW
      000000B7H   SFRSYM    DATA     BYTE      IPH
      000000E9H   SFRSYM    DATA     BYTE      WTST
      00000088H   SFRSYM    DATA     BYTE      TCON
      00000098H   SFRSYM    DATA     BYTE      SCON
      000000BCH   SFRSYM    DATA     BYTE      ADC_CONTR
      000000DEH   SFRSYM    DATA     BYTE      ADCCFG
      000000B8H   SFRSYM    DATA     BYTE      IP
      000000A8H   SFRSYM    DATA     BYTE      IE
      000000F8H   SFRSYM    DATA     BYTE      P7
      000000E8H   SFRSYM    DATA     BYTE      P6
      000000C8H   SFRSYM    DATA     BYTE      P5
      000000C0H   SFRSYM    DATA     BYTE      P4
      000000B0H   SFRSYM    DATA     BYTE      P3
      000000A0H   SFRSYM    DATA     BYTE      P2
      00000090H   SFRSYM    DATA     BYTE      P1
      00000080H   SFRSYM    DATA     BYTE      P0

      00FF31AAH   BLOCK     CODE     ---       LVL=0
      00FF31AAH   LINE      CODE     ---       #43
      00FF31AAH   LINE      CODE     ---       #45
      00FF31ADH   LINE      CODE     ---       #46
      00FF31B0H   LINE      CODE     ---       #47
      00FF31BAH   LINE      CODE     ---       #48
      00FF31BAH   LINE      CODE     ---       #50
      00FF31FDH   LINE      CODE     ---       #54
      00FF3200H   LINE      CODE     ---       #55
      00FF3208H   LINE      CODE     ---       #56
      00FF3225H   LINE      CODE     ---       #57
      00FF3248H   LINE      CODE     ---       #58
      00FF325EH   LINE      CODE     ---       #59
L251 LINKER/LOCATER V4.66.93.0                                                        03/17/2024  15:38:36  PAGE 68


      00FF3276H   LINE      CODE     ---       #63
      00FF3282H   LINE      CODE     ---       #65
      00FF3285H   LINE      CODE     ---       #66
      00FF3288H   LINE      CODE     ---       #67
      00FF329BH   LINE      CODE     ---       #68
      00FF329EH   LINE      CODE     ---       #96
      00FF32C0H   LINE      CODE     ---       #98
      00FF32CAH   LINE      CODE     ---       #99
      00FF32D6H   LINE      CODE     ---       #100
      00FF32E4H   LINE      CODE     ---       #101
      00FF32F4H   LINE      CODE     ---       #102
      00FF32FAH   LINE      CODE     ---       #103
      00FF32FCH   LINE      CODE     ---       #106
      00FF3306H   LINE      CODE     ---       #107
      00FF330EH   LINE      CODE     ---       #108
      00FF3316H   LINE      CODE     ---       #109
      00FF3322H   LINE      CODE     ---       #110
      00FF332CH   LINE      CODE     ---       #111
      00FF3338H   LINE      CODE     ---       #112
      00FF3342H   LINE      CODE     ---       #113
      00FF3342H   LINE      CODE     ---       #126
      00FF3345H   LINE      CODE     ---       #147
      00FF3354H   LINE      CODE     ---       #149
      00FF335CH   LINE      CODE     ---       #150
      00FF3375H   LINE      CODE     ---       #153
      00FF337BH   LINE      CODE     ---       #154
      00FF337DH   LINE      CODE     ---       #155
      00FF338EH   LINE      CODE     ---       #158
      00FF3398H   LINE      CODE     ---       #159
      00FF3398H   LINE      CODE     ---       #161
      00FF339EH   LINE      CODE     ---       #163
      00FF33A8H   LINE      CODE     ---       #164
      00FF33AEH   LINE      CODE     ---       #165
      00FF33AEH   LINE      CODE     ---       #166
      00FF33B7H   LINE      CODE     ---       #168
      00FF33BDH   LINE      CODE     ---       #169
      00FF33C2H   LINE      CODE     ---       #170
      00FF33C2H   LINE      CODE     ---       #171
      00FF33E8H   LINE      CODE     ---       #175
      00FF3416H   LINE      CODE     ---       #176
      00FF342DH   LINE      CODE     ---       #179
      00FF3443H   LINE      CODE     ---       #182
      00FF345BH   LINE      CODE     ---       #183
      00FF3465H   LINE      CODE     ---       #184
      00FF3483H   LINE      CODE     ---       #185
      00FF348EH   LINE      CODE     ---       #187
      00FF3491H   LINE      CODE     ---       #189
      00FF34A4H   LINE      CODE     ---       #190
      00FF34B7H   LINE      CODE     ---       #193
      00FF34D9H   LINE      CODE     ---       #195
      00FF34DFH   LINE      CODE     ---       #196
      00FF34E3H   LINE      CODE     ---       #197
      00FF34E3H   LINE      CODE     ---       #199
      00FF34E9H   LINE      CODE     ---       #200
      00FF34F0H   LINE      CODE     ---       #201
      00FF34F6H   LINE      CODE     ---       #202
      00FF34FDH   LINE      CODE     ---       #205
      00FF3502H   LINE      CODE     ---       #206
      ---         BLOCKEND  ---      ---       LVL=0

      00FF560FH   BLOCK     CODE     ---       LVL=0
      00FF560FH   LINE      CODE     ---       #211
      00FF560FH   LINE      CODE     ---       #215
      00FF562FH   LINE      CODE     ---       #216
      00FF5651H   LINE      CODE     ---       #217
L251 LINKER/LOCATER V4.66.93.0                                                        03/17/2024  15:38:36  PAGE 69


      00FF5662H   LINE      CODE     ---       #218
      00FF566FH   LINE      CODE     ---       #219
      00FF5678H   LINE      CODE     ---       #241
      ---         BLOCKEND  ---      ---       LVL=0

      00FF4A80H   BLOCK     CODE     ---       LVL=0
      00FF4A80H   LINE      CODE     ---       #243
      00FF4A80H   LINE      CODE     ---       #245
      00FF4A83H   LINE      CODE     ---       #246
      00FF4A86H   LINE      CODE     ---       #247
      00FF4A92H   LINE      CODE     ---       #250
      00FF4A95H   LINE      CODE     ---       #253
      00FF4A9EH   LINE      CODE     ---       #254
      00FF4AA7H   LINE      CODE     ---       #257
      00FF4AAAH   LINE      CODE     ---       #261
      00FF4AADH   LINE      CODE     ---       #264
      00FF4AB0H   LINE      CODE     ---       #267
      00FF4AB3H   LINE      CODE     ---       #270
      00FF4ABEH   LINE      CODE     ---       #273
      00FF4AC3H   LINE      CODE     ---       #274
      00FF4ACAH   LINE      CODE     ---       #280
      00FF4ACDH   LINE      CODE     ---       #283
      00FF4AD0H   LINE      CODE     ---       #286
      00FF4AD3H   LINE      CODE     ---       #289
      00FF4B04H   LINE      CODE     ---       #290
      00FF4B35H   LINE      CODE     ---       #291
      ---         BLOCKEND  ---      ---       LVL=0

      ---         MODULE    ---      ---       motor
      00FF4D9CH   PUBLIC    CODE     ---       Right_SetSpeed
      00FF5C35H   PUBLIC    CODE     ---       Motor_Init
      00FF4C21H   PUBLIC    CODE     ---       Left_SetSpeed
      00FF60E6H   PUBLIC    CODE     ---       Limit_Out
      00FF56E2H   PUBLIC    CODE     ---       Get_Speed
      000003A2H   PUBLIC    EDATA    ---       Right_Wheel_PID
      000003C6H   PUBLIC    EDATA    FLOAT     Speed_L
      000003CAH   PUBLIC    EDATA    ---       Left_Wheel_PID
      000003EEH   PUBLIC    EDATA    FLOAT     Speed_R
      000003F2H   PUBLIC    EDATA    CHAR      A
      000003F3H   PUBLIC    EDATA    ---       Turn_PID
      00000417H   PUBLIC    EDATA    CHAR      A1
      00000313H   PUBLIC    EDATA    BYTE      ?Limit_Out?BYTE
      000000D0H   SFRSYM    DATA     BYTE      PSW
      000000B7H   SFRSYM    DATA     BYTE      IPH
      000000B0H.5 SFRSYM    DATA     BIT       P35
      000000C8H.3 SFRSYM    DATA     BIT       P53
      00000088H   SFRSYM    DATA     BYTE      TCON
      00000098H   SFRSYM    DATA     BYTE      SCON
      000000BCH   SFRSYM    DATA     BYTE      ADC_CONTR
      000000DEH   SFRSYM    DATA     BYTE      ADCCFG
      000000B8H   SFRSYM    DATA     BYTE      IP
      000000A8H   SFRSYM    DATA     BYTE      IE
      000000F8H   SFRSYM    DATA     BYTE      P7
      000000E8H   SFRSYM    DATA     BYTE      P6
      000000C8H   SFRSYM    DATA     BYTE      P5
      000000C0H   SFRSYM    DATA     BYTE      P4
      000000B0H   SFRSYM    DATA     BYTE      P3
      000000A0H   SFRSYM    DATA     BYTE      P2
      00000090H   SFRSYM    DATA     BYTE      P1
      00000080H   SFRSYM    DATA     BYTE      P0

      00FF60E6H   BLOCK     CODE     ---       LVL=0
      REG=7       REGSYM    ---      ---       Output
      DR24        REGSYM    ---      FLOAT     Limit_Min
      0000031BH   SYMBOL    EDATA    FLOAT     Limit_Max
L251 LINKER/LOCATER V4.66.93.0                                                        03/17/2024  15:38:36  PAGE 70


      00FF60E6H   LINE      CODE     ---       #21
      00FF60EAH   LINE      CODE     ---       #23
      00FF60FCH   LINE      CODE     ---       #24
      00FF6110H   LINE      CODE     ---       #25
      ---         BLOCKEND  ---      ---       LVL=0
      DR28        REGSYM    ---      FLOAT     x

      00FF5C35H   BLOCK     CODE     ---       LVL=0
      00FF5C35H   LINE      CODE     ---       #34
      00FF5C35H   LINE      CODE     ---       #36
      00FF5C46H   LINE      CODE     ---       #37
      00FF5C57H   LINE      CODE     ---       #38
      00FF5C68H   LINE      CODE     ---       #39
      ---         BLOCKEND  ---      ---       LVL=0

      00FF4C21H   BLOCK     CODE     ---       LVL=0
      DR12        REGSYM    ---      FLOAT     speed
      00FF4C25H   BLOCK     CODE     NEAR LAB  LVL=1
      00000418H   SYMBOL    EDATA    INT       Special_NumL
      ---         BLOCKEND  ---      ---       LVL=1
      00FF4C21H   LINE      CODE     ---       #43
      00FF4C25H   LINE      CODE     ---       #44
      00FF4C25H   LINE      CODE     ---       #46
      00FF4C31H   LINE      CODE     ---       #47
      00FF4C39H   LINE      CODE     ---       #49
      00FF4C3FH   LINE      CODE     ---       #50
      00FF4C45H   LINE      CODE     ---       #52
      00FF4C4EH   LINE      CODE     ---       #53
      00FF4C57H   LINE      CODE     ---       #54
      00FF4C5DH   LINE      CODE     ---       #55
      00FF4C60H   LINE      CODE     ---       #58
      00FF4C75H   LINE      CODE     ---       #59
      00FF4C88H   LINE      CODE     ---       #60
      00FF4C91H   LINE      CODE     ---       #62
      00FF4CA4H   LINE      CODE     ---       #63
      00FF4CA4H   LINE      CODE     ---       #64
      00FF4CA6H   LINE      CODE     ---       #65
      00FF4CAFH   LINE      CODE     ---       #67
      00FF4CB8H   LINE      CODE     ---       #68
      00FF4CCDH   LINE      CODE     ---       #69
      00FF4CCFH   LINE      CODE     ---       #72
      00FF4CD8H   LINE      CODE     ---       #73
      00FF4CE1H   LINE      CODE     ---       #74
      00FF4CE1H   LINE      CODE     ---       #75
      00FF4CE1H   LINE      CODE     ---       #77
      ---         BLOCKEND  ---      ---       LVL=0

      00FF4D9CH   BLOCK     CODE     ---       LVL=0
      DR12        REGSYM    ---      FLOAT     speed
      00FF4DA0H   BLOCK     CODE     NEAR LAB  LVL=1
      0000041AH   SYMBOL    EDATA    INT       Special_NumR
      ---         BLOCKEND  ---      ---       LVL=1
      00FF4D9CH   LINE      CODE     ---       #79
      00FF4DA0H   LINE      CODE     ---       #80
      00FF4DA0H   LINE      CODE     ---       #82
      00FF4DB3H   LINE      CODE     ---       #83
      00FF4DC6H   LINE      CODE     ---       #85
      00FF4DD4H   LINE      CODE     ---       #86
      00FF4DDCH   LINE      CODE     ---       #88
      00FF4DE2H   LINE      CODE     ---       #89
      00FF4DE8H   LINE      CODE     ---       #91
      00FF4DEEH   LINE      CODE     ---       #92
      00FF4DEEH   LINE      CODE     ---       #93
      00FF4DEEH   LINE      CODE     ---       #94
      00FF4DF0H   LINE      CODE     ---       #97
L251 LINKER/LOCATER V4.66.93.0                                                        03/17/2024  15:38:36  PAGE 71


      00FF4DF9H   LINE      CODE     ---       #99
      00FF4E0CH   LINE      CODE     ---       #100
      00FF4E0CH   LINE      CODE     ---       #101
      00FF4E0EH   LINE      CODE     ---       #102
      00FF4E17H   LINE      CODE     ---       #104
      00FF4E20H   LINE      CODE     ---       #105
      00FF4E35H   LINE      CODE     ---       #106
      00FF4E37H   LINE      CODE     ---       #109
      00FF4E40H   LINE      CODE     ---       #110
      00FF4E49H   LINE      CODE     ---       #111
      00FF4E49H   LINE      CODE     ---       #113
      00FF4E49H   LINE      CODE     ---       #114
      ---         BLOCKEND  ---      ---       LVL=0

      00FF56E2H   BLOCK     CODE     ---       LVL=0
      00FF56E2H   LINE      CODE     ---       #116
      00FF56E2H   LINE      CODE     ---       #118
      00FF56F7H   LINE      CODE     ---       #119
      00FF570FH   LINE      CODE     ---       #120
      00FF5716H   LINE      CODE     ---       #123
      00FF572AH   LINE      CODE     ---       #124
      00FF5740H   LINE      CODE     ---       #125
      ---         BLOCKEND  ---      ---       LVL=0

      ---         MODULE    ---      ---       ADC
      00FF428BH   PUBLIC    CODE     ---       ADC_GetValue
      00FF6111H   PUBLIC    CODE     ---       ADC_InitAll
      00000586H   PUBLIC    EDATA    ---       ADC_Array_Original
      000005C2H   PUBLIC    EDATA    ---       ADC_proc
      000000D0H   SFRSYM    DATA     BYTE      PSW
      000000B7H   SFRSYM    DATA     BYTE      IPH
      00000088H   SFRSYM    DATA     BYTE      TCON
      00000098H   SFRSYM    DATA     BYTE      SCON
      000000BCH   SFRSYM    DATA     BYTE      ADC_CONTR
      000000DEH   SFRSYM    DATA     BYTE      ADCCFG
      000000B8H   SFRSYM    DATA     BYTE      IP
      000000A8H   SFRSYM    DATA     BYTE      IE
      000000F8H   SFRSYM    DATA     BYTE      P7
      000000E8H   SFRSYM    DATA     BYTE      P6
      000000C8H   SFRSYM    DATA     BYTE      P5
      000000C0H   SFRSYM    DATA     BYTE      P4
      000000B0H   SFRSYM    DATA     BYTE      P3
      000000A0H   SFRSYM    DATA     BYTE      P2
      00000090H   SFRSYM    DATA     BYTE      P1
      00000080H   SFRSYM    DATA     BYTE      P0

      00FF6111H   BLOCK     CODE     ---       LVL=0
      00FF6111H   LINE      CODE     ---       #11
      00FF6111H   LINE      CODE     ---       #13
      00FF6118H   LINE      CODE     ---       #14
      00FF6121H   LINE      CODE     ---       #16
      00FF612AH   LINE      CODE     ---       #18
      00FF6133H   LINE      CODE     ---       #19
      ---         BLOCKEND  ---      ---       LVL=0

      00FF428BH   BLOCK     CODE     ---       LVL=0
      00FF428DH   BLOCK     CODE     NEAR LAB  LVL=1
      DR28        REGSYM    ---      FLOAT     temp
      R15         REGSYM    ---      CHAR      i
      R14         REGSYM    ---      CHAR      j
      R15         REGSYM    ---      CHAR      k
      ---         BLOCKEND  ---      ---       LVL=1
      00FF428BH   LINE      CODE     ---       #22
      00FF428DH   LINE      CODE     ---       #23
      00FF428DH   LINE      CODE     ---       #26
L251 LINKER/LOCATER V4.66.93.0                                                        03/17/2024  15:38:36  PAGE 72


      00FF428FH   LINE      CODE     ---       #36
      00FF42ACH   LINE      CODE     ---       #37
      00FF42CBH   LINE      CODE     ---       #39
      00FF42EAH   LINE      CODE     ---       #41
      00FF4309H   LINE      CODE     ---       #42
      00FF4328H   LINE      CODE     ---       #43
      00FF4332H   LINE      CODE     ---       #44
      00FF4334H   LINE      CODE     ---       #46
      00FF4336H   LINE      CODE     ---       #47
      00FF4338H   LINE      CODE     ---       #49
      00FF4357H   LINE      CODE     ---       #50
      00FF435EH   LINE      CODE     ---       #51
      00FF4377H   LINE      CODE     ---       #52
      00FF4390H   LINE      CODE     ---       #53
      00FF43A7H   LINE      CODE     ---       #55
      00FF43C9H   LINE      CODE     ---       #56
      00FF43D3H   LINE      CODE     ---       #57
      ---         BLOCKEND  ---      ---       LVL=0

      ---         MODULE    ---      ---       PID
      00FF4B5AH   PUBLIC    CODE     ---       PID_Calculate
      00FF59BFH   PUBLIC    CODE     ---       PID_Init
      0000030FH   PUBLIC    EDATA    BYTE      ?PID_Init?BYTE
      0000030FH   PUBLIC    EDATA    BYTE      ?PID_Calculate?BYTE
      000000D0H   SFRSYM    DATA     BYTE      PSW
      000000B7H   SFRSYM    DATA     BYTE      IPH
      00000088H   SFRSYM    DATA     BYTE      TCON
      00000098H   SFRSYM    DATA     BYTE      SCON
      000000BCH   SFRSYM    DATA     BYTE      ADC_CONTR
      000000DEH   SFRSYM    DATA     BYTE      ADCCFG
      000000B8H   SFRSYM    DATA     BYTE      IP
      000000A8H   SFRSYM    DATA     BYTE      IE
      000000F8H   SFRSYM    DATA     BYTE      P7
      000000E8H   SFRSYM    DATA     BYTE      P6
      000000C8H   SFRSYM    DATA     BYTE      P5
      000000C0H   SFRSYM    DATA     BYTE      P4
      000000B0H   SFRSYM    DATA     BYTE      P3
      000000A0H   SFRSYM    DATA     BYTE      P2
      00000090H   SFRSYM    DATA     BYTE      P1
      00000080H   SFRSYM    DATA     BYTE      P0

      00FF59BFH   BLOCK     CODE     ---       LVL=0
      REG=2       REGSYM    ---      ---       PID_Struct
      DR4         REGSYM    ---      FLOAT     Kp
      00000317H   SYMBOL    EDATA    FLOAT     Ki
      0000031BH   SYMBOL    EDATA    FLOAT     Kd
      0000031FH   SYMBOL    EDATA    FLOAT     Out_Limit
      00000323H   SYMBOL    EDATA    FLOAT     Integral_Limit
      00FF59BFH   LINE      CODE     ---       #10
      00FF59C1H   LINE      CODE     ---       #12
      00FF59C9H   LINE      CODE     ---       #13
      00FF59D5H   LINE      CODE     ---       #14
      00FF59E1H   LINE      CODE     ---       #16
      00FF59EAH   LINE      CODE     ---       #17
      00FF59F2H   LINE      CODE     ---       #19
      00FF59FAH   LINE      CODE     ---       #20
      00FF5A06H   LINE      CODE     ---       #21
      00FF5A12H   LINE      CODE     ---       #22
      ---         BLOCKEND  ---      ---       LVL=0

      00FF4B5AH   BLOCK     CODE     ---       LVL=0
      REG=3       REGSYM    ---      ---       PID_Struct
      DR28        REGSYM    ---      FLOAT     Exp_Val
      00000317H   SYMBOL    EDATA    FLOAT     Act_Val
      00FF4B5AH   LINE      CODE     ---       #24
L251 LINKER/LOCATER V4.66.93.0                                                        03/17/2024  15:38:36  PAGE 73


      00FF4B5EH   LINE      CODE     ---       #26
      00FF4B6CH   LINE      CODE     ---       #27
      00FF4B8AH   LINE      CODE     ---       #28
      00FF4BA2H   LINE      CODE     ---       #29
      00FF4BF7H   LINE      CODE     ---       #33
      00FF4C0FH   LINE      CODE     ---       #34
      00FF4C1EH   LINE      CODE     ---       #35
      ---         BLOCKEND  ---      ---       LVL=0

      ---         MODULE    ---      ---       MPU6050
      00FF6402H   PUBLIC    CODE     ---       i2c_nack
      00FF64F6H   PUBLIC    CODE     ---       Delay1ms
      00FF524CH   PUBLIC    CODE     ---       loadfirmware
      00FF63B1H   PUBLIC    CODE     ---       i2c_ack
      00FF6414H   PUBLIC    CODE     ---       i2c_start
      00FF55A4H   PUBLIC    CODE     ---       i2c_read_bits
      00FF5F1EH   PUBLIC    CODE     ---       i2c_read_byte
      00FF50BBH   PUBLIC    CODE     ---       xdmpUpdates
      00FF58BBH   PUBLIC    CODE     ---       MPU_Get_Gyroscope
      00FF5FF1H   PUBLIC    CODE     ---       i2c_read_bit
      00FF53CAH   PUBLIC    CODE     ---       i2c_mem_read
      00FF4E4CH   PUBLIC    CODE     ---       loadcfgupd
      00FF001EH   PUBLIC    CODE     ---       I2C_SDA_H
      00FF534DH   PUBLIC    CODE     ---       i2c_write_bits
      00FF62B9H   PUBLIC    CODE     ---       getDeviceID
      00FF0056H   PUBLIC    CODE     ---       I2C_SDA_L
      00FF6024H   PUBLIC    CODE     ---       i2c_write_byte
      00FF613CH   PUBLIC    CODE     ---       i2c_wait_ack
      00FF6468H   PUBLIC    CODE     ---       i2c_stop
      00FF005EH   PUBLIC    CODE     ---       I2C_SCL_H
      00FF0086H   PUBLIC    CODE     ---       I2C_SCL_L
      00FF585FH   PUBLIC    CODE     ---       i2c_write_bit
      00FF5745H   PUBLIC    CODE     ---       i2c_mem_write
      00FF3A8AH   PUBLIC    CODE     ---       MPU6050_Refresh_DMP
      00FF0046H   PUBLIC    CODE     ---       MPU_Read_Bits
      00FF6500H   PUBLIC    CODE     ---       MPU_Read_Bit
      00FF64CAH   PUBLIC    CODE     ---       MPU_Read_Len
      00FF0006H   PUBLIC    CODE     ---       I2C_SDA_Read
      00FF64A3H   PUBLIC    CODE     ---       MPU_Write_Bits
      00FF63C6H   PUBLIC    CODE     ---       MPU_Write_Byte
      00FF3D24H   PUBLIC    CODE     ---       dmpInitialize
      00FF64D5H   PUBLIC    CODE     ---       i2c_timeout_delay
      00FF6477H   PUBLIC    CODE     ---       readdmp
      00FF64B0H   PUBLIC    CODE     ---       MPU_Write_Bit
      00FF64E0H   PUBLIC    CODE     ---       MPU_Write_Len
      00FF63DBH   PUBLIC    CODE     ---       MPU_Delay_Ms
      00FF64EBH   PUBLIC    CODE     ---       i2c_delay
      00FF0026H   PUBLIC    CODE     ---       getFIFOCount
      00FF6057H   PUBLIC    CODE     ---       initMPU6050
      00FF6274H   PUBLIC    CODE     ---       MPU6050_DMP_Init
      0000041CH   PUBLIC    EDATA    FLOAT     z_add
      00000420H   PUBLIC    EDATA    FLOAT     z_last
      00000424H   PUBLIC    EDATA    FLOAT     Roll
      00000428H   PUBLIC    EDATA    FLOAT     x1
      0000042CH   PUBLIC    EDATA    FLOAT     y1
      00000430H   PUBLIC    EDATA    FLOAT     z1
      00000434H   PUBLIC    EDATA    FLOAT     z_now
      00000438H   PUBLIC    EDATA    FLOAT     Yaw
      0000043CH   PUBLIC    EDATA    ---       Q
      0000044CH   PUBLIC    EDATA    ---       dmpdatas
      00000476H   PUBLIC    EDATA    CHAR      mpu_state
      00000477H   PUBLIC    EDATA    FLOAT     Pitch
      00FF1A26H   PUBLIC    CODE     ---       dmpUpdates
      00FF1A55H   PUBLIC    CODE     ---       dmpcfgupddata
      00FF1B15H   PUBLIC    CODE     ---       dmpmemorydata
L251 LINKER/LOCATER V4.66.93.0                                                        03/17/2024  15:38:36  PAGE 74


      00000313H   PUBLIC    EDATA    BYTE      ?MPU_Get_Gyroscope?BYTE
      000000D0H   SFRSYM    DATA     BYTE      PSW
      000000B7H   SFRSYM    DATA     BYTE      IPH
      000000C8H.1 SFRSYM    DATA     BIT       P51
      00000088H   SFRSYM    DATA     BYTE      TCON
      000000C8H.0 SFRSYM    DATA     BIT       P50
      00000098H   SFRSYM    DATA     BYTE      SCON
      000000BCH   SFRSYM    DATA     BYTE      ADC_CONTR
      000000DEH   SFRSYM    DATA     BYTE      ADCCFG
      000000B8H   SFRSYM    DATA     BYTE      IP
      000000A8H   SFRSYM    DATA     BYTE      IE
      000000F8H   SFRSYM    DATA     BYTE      P7
      000000E8H   SFRSYM    DATA     BYTE      P6
      000000C8H   SFRSYM    DATA     BYTE      P5
      000000C0H   SFRSYM    DATA     BYTE      P4
      000000B0H   SFRSYM    DATA     BYTE      P3
      000000A0H   SFRSYM    DATA     BYTE      P2
      00000090H   SFRSYM    DATA     BYTE      P1
      00000080H   SFRSYM    DATA     BYTE      P0

      00FF64D5H   BLOCK     CODE     ---       LVL=0
      R10         REGSYM    ---      CHAR      i
      00FF64D5H   LINE      CODE     ---       #10
      00FF64D5H   LINE      CODE     ---       #11
      00FF64D5H   LINE      CODE     ---       #13
      00FF64D8H   LINE      CODE     ---       #14
      00FF64DFH   LINE      CODE     ---       #15
      ---         BLOCKEND  ---      ---       LVL=0

      00FF64EBH   BLOCK     CODE     ---       LVL=0
      R10         REGSYM    ---      CHAR      i
      00FF64EBH   LINE      CODE     ---       #17
      00FF64EBH   LINE      CODE     ---       #18
      00FF64EBH   LINE      CODE     ---       #20
      00FF64EEH   LINE      CODE     ---       #21
      00FF64F5H   LINE      CODE     ---       #22
      ---         BLOCKEND  ---      ---       LVL=0

      00FF005EH   BLOCK     CODE     ---       LVL=0
      00FF005EH   LINE      CODE     ---       #25
      00FF005EH   LINE      CODE     ---       #27
      00FF0060H   LINE      CODE     ---       #28
      ---         BLOCKEND  ---      ---       LVL=0

      00FF0086H   BLOCK     CODE     ---       LVL=0
      00FF0086H   LINE      CODE     ---       #31
      00FF0086H   LINE      CODE     ---       #33
      00FF0088H   LINE      CODE     ---       #34
      ---         BLOCKEND  ---      ---       LVL=0

      00FF001EH   BLOCK     CODE     ---       LVL=0
      00FF001EH   LINE      CODE     ---       #37
      00FF001EH   LINE      CODE     ---       #39
      00FF0020H   LINE      CODE     ---       #40
      ---         BLOCKEND  ---      ---       LVL=0

      00FF0056H   BLOCK     CODE     ---       LVL=0
      00FF0056H   LINE      CODE     ---       #43
      00FF0056H   LINE      CODE     ---       #45
      00FF0058H   LINE      CODE     ---       #46
      ---         BLOCKEND  ---      ---       LVL=0

      00FF0006H   BLOCK     CODE     ---       LVL=0
      00FF0006H   LINE      CODE     ---       #49
      00FF0006H   LINE      CODE     ---       #51
L251 LINKER/LOCATER V4.66.93.0                                                        03/17/2024  15:38:36  PAGE 75


      00FF000AH   LINE      CODE     ---       #52
      ---         BLOCKEND  ---      ---       LVL=0

      00FF6414H   BLOCK     CODE     ---       LVL=0
      00FF6414H   LINE      CODE     ---       #60
      00FF6414H   LINE      CODE     ---       #62
      00FF6417H   LINE      CODE     ---       #63
      00FF641AH   LINE      CODE     ---       #64
      00FF641DH   LINE      CODE     ---       #66
      00FF6420H   LINE      CODE     ---       #67
      00FF6423H   LINE      CODE     ---       #68
      ---         BLOCKEND  ---      ---       LVL=0

      00FF6468H   BLOCK     CODE     ---       LVL=0
      00FF6468H   LINE      CODE     ---       #77
      00FF6468H   LINE      CODE     ---       #79
      00FF646BH   LINE      CODE     ---       #80
      00FF646EH   LINE      CODE     ---       #81
      00FF6471H   LINE      CODE     ---       #83
      00FF6474H   LINE      CODE     ---       #84
      ---         BLOCKEND  ---      ---       LVL=0

      00FF63B1H   BLOCK     CODE     ---       LVL=0
      00FF63B1H   LINE      CODE     ---       #93
      00FF63B1H   LINE      CODE     ---       #95
      00FF63B4H   LINE      CODE     ---       #96
      00FF63B7H   LINE      CODE     ---       #97
      00FF63BAH   LINE      CODE     ---       #99
      00FF63BDH   LINE      CODE     ---       #100
      00FF63C0H   LINE      CODE     ---       #101
      00FF63C3H   LINE      CODE     ---       #102
      ---         BLOCKEND  ---      ---       LVL=0

      00FF6402H   BLOCK     CODE     ---       LVL=0
      00FF6402H   LINE      CODE     ---       #111
      00FF6402H   LINE      CODE     ---       #113
      00FF6405H   LINE      CODE     ---       #114
      00FF6408H   LINE      CODE     ---       #115
      00FF640BH   LINE      CODE     ---       #117
      00FF640EH   LINE      CODE     ---       #118
      00FF6411H   LINE      CODE     ---       #119
      ---         BLOCKEND  ---      ---       LVL=0

      00FF613CH   BLOCK     CODE     ---       LVL=0
      00FF613EH   BLOCK     CODE     NEAR LAB  LVL=1
      WR14        REGSYM    ---      WORD      time_temp
      ---         BLOCKEND  ---      ---       LVL=1
      00FF613CH   LINE      CODE     ---       #129
      00FF613EH   LINE      CODE     ---       #130
      00FF613EH   LINE      CODE     ---       #131
      00FF6140H   LINE      CODE     ---       #133
      00FF6143H   LINE      CODE     ---       #134
      00FF6146H   LINE      CODE     ---       #135
      00FF6148H   LINE      CODE     ---       #137
      00FF614AH   LINE      CODE     ---       #138
      00FF614DH   LINE      CODE     ---       #139
      00FF6153H   LINE      CODE     ---       #141
      00FF6156H   LINE      CODE     ---       #142
      00FF615AH   LINE      CODE     ---       #143
      00FF615FH   LINE      CODE     ---       #145
      00FF6162H   LINE      CODE     ---       #146
      00FF6163H   LINE      CODE     ---       #147
      ---         BLOCKEND  ---      ---       LVL=0

      00FF6024H   BLOCK     CODE     ---       LVL=0
L251 LINKER/LOCATER V4.66.93.0                                                        03/17/2024  15:38:36  PAGE 76


      R15         REGSYM    ---      BYTE      dat
      00FF6028H   BLOCK     CODE     NEAR LAB  LVL=1
      R14         REGSYM    ---      BYTE      i
      ---         BLOCKEND  ---      ---       LVL=1
      00FF6024H   LINE      CODE     ---       #155
      00FF6028H   LINE      CODE     ---       #156
      00FF6028H   LINE      CODE     ---       #157
      00FF6028H   LINE      CODE     ---       #159
      00FF602BH   LINE      CODE     ---       #160
      00FF602EH   LINE      CODE     ---       #162
      00FF6037H   LINE      CODE     ---       #163
      00FF603CH   LINE      CODE     ---       #165
      00FF603FH   LINE      CODE     ---       #166
      00FF6041H   LINE      CODE     ---       #167
      00FF6044H   LINE      CODE     ---       #168
      00FF6047H   LINE      CODE     ---       #169
      00FF604AH   LINE      CODE     ---       #170
      00FF604DH   LINE      CODE     ---       #171
      00FF6050H   LINE      CODE     ---       #172
      00FF6054H   LINE      CODE     ---       #173
      ---         BLOCKEND  ---      ---       LVL=0

      00FF5F1EH   BLOCK     CODE     ---       LVL=0
      R15         REGSYM    ---      BYTE      ack
      00FF5F24H   BLOCK     CODE     NEAR LAB  LVL=1
      R13         REGSYM    ---      BYTE      i
      R14         REGSYM    ---      BYTE      receive
      ---         BLOCKEND  ---      ---       LVL=1
      00FF5F1EH   LINE      CODE     ---       #181
      00FF5F24H   LINE      CODE     ---       #182
      00FF5F24H   LINE      CODE     ---       #183
      00FF5F26H   LINE      CODE     ---       #185
      00FF5F29H   LINE      CODE     ---       #187
      00FF5F2CH   LINE      CODE     ---       #188
      00FF5F2FH   LINE      CODE     ---       #189
      00FF5F32H   LINE      CODE     ---       #190
      00FF5F34H   LINE      CODE     ---       #191
      00FF5F39H   LINE      CODE     ---       #192
      00FF5F3BH   LINE      CODE     ---       #193
      00FF5F3EH   LINE      CODE     ---       #194
      00FF5F42H   LINE      CODE     ---       #195
      00FF5F46H   LINE      CODE     ---       #196
      00FF5F4BH   LINE      CODE     ---       #198
      00FF5F4EH   LINE      CODE     ---       #200
      00FF5F50H   LINE      CODE     ---       #201
      ---         BLOCKEND  ---      ---       LVL=0

      00FF5745H   BLOCK     CODE     ---       LVL=0
      00000320H   SYMBOL    EDATA    BYTE      DevAddress
      00000321H   SYMBOL    EDATA    BYTE      MemAddress
      REG=3       REGSYM    ---      ---       pData
      00000322H   SYMBOL    EDATA    WORD      Len
      00FF5745H   LINE      CODE     ---       #209
      00FF5755H   LINE      CODE     ---       #211
      00FF5758H   LINE      CODE     ---       #212
      00FF5761H   LINE      CODE     ---       #213
      00FF5766H   LINE      CODE     ---       #214
      00FF576AH   LINE      CODE     ---       #215
      00FF5771H   LINE      CODE     ---       #216
      00FF5776H   LINE      CODE     ---       #217
      00FF577AH   LINE      CODE     ---       #218
      00FF577CH   LINE      CODE     ---       #220
      00FF5784H   LINE      CODE     ---       #221
      00FF5789H   LINE      CODE     ---       #222
      00FF578DH   LINE      CODE     ---       #223
L251 LINKER/LOCATER V4.66.93.0                                                        03/17/2024  15:38:36  PAGE 77


      00FF579DH   LINE      CODE     ---       #224
      00FF57A0H   LINE      CODE     ---       #225
      00FF57A1H   LINE      CODE     ---       #226
      ---         BLOCKEND  ---      ---       LVL=0

      00FF53CAH   BLOCK     CODE     ---       LVL=0
      00000325H   SYMBOL    EDATA    BYTE      DevAddress
      00000326H   SYMBOL    EDATA    BYTE      MemAddress
      REG=3       REGSYM    ---      ---       pBuffer
      00000327H   SYMBOL    EDATA    WORD      Len
      00FF53CAH   LINE      CODE     ---       #234
      00FF53DAH   LINE      CODE     ---       #236
      00FF53DDH   LINE      CODE     ---       #237
      00FF53E6H   LINE      CODE     ---       #238
      00FF53EBH   LINE      CODE     ---       #239
      00FF53EFH   LINE      CODE     ---       #240
      00FF53F6H   LINE      CODE     ---       #241
      00FF53FBH   LINE      CODE     ---       #242
      00FF53FFH   LINE      CODE     ---       #243
      00FF5402H   LINE      CODE     ---       #244
      00FF540DH   LINE      CODE     ---       #245
      00FF5412H   LINE      CODE     ---       #246
      00FF5416H   LINE      CODE     ---       #247
      00FF5418H   LINE      CODE     ---       #249
      00FF542DH   LINE      CODE     ---       #250
      00FF543DH   LINE      CODE     ---       #251
      00FF5440H   LINE      CODE     ---       #252
      00FF5441H   LINE      CODE     ---       #253
      ---         BLOCKEND  ---      ---       LVL=0

      00FF585FH   BLOCK     CODE     ---       LVL=0
      R13         REGSYM    ---      BYTE      DevAddress
      R14         REGSYM    ---      BYTE      addr
      R15         REGSYM    ---      BYTE      bitNum
      R12         REGSYM    ---      BYTE      Data
      00FF5869H   BLOCK     CODE     NEAR LAB  LVL=1
      0000031DH   SYMBOL    EDATA    BYTE      b
      ---         BLOCKEND  ---      ---       LVL=1
      00FF585FH   LINE      CODE     ---       #262
      00FF5869H   LINE      CODE     ---       #263
      00FF5869H   LINE      CODE     ---       #265
      00FF5876H   LINE      CODE     ---       #267
      00FF58A5H   LINE      CODE     ---       #268
      00FF58B6H   LINE      CODE     ---       #269
      00FF58B6H   LINE      CODE     ---       #271
      00FF58B8H   LINE      CODE     ---       #272
      ---         BLOCKEND  ---      ---       LVL=0

      00FF534DH   BLOCK     CODE     ---       LVL=0
      0000031DH   SYMBOL    EDATA    BYTE      DevAddress
      R12         REGSYM    ---      BYTE      addr
      R13         REGSYM    ---      BYTE      bitStart
      R14         REGSYM    ---      BYTE      length
      R15         REGSYM    ---      BYTE      Data
      00FF535BH   BLOCK     CODE     NEAR LAB  LVL=1
      0000047BH   SYMBOL    EDATA    BYTE      b
      0000047CH   SYMBOL    EDATA    BYTE      mask
      ---         BLOCKEND  ---      ---       LVL=1
      00FF534DH   LINE      CODE     ---       #282
      00FF535BH   LINE      CODE     ---       #283
      00FF535BH   LINE      CODE     ---       #292
      00FF5368H   LINE      CODE     ---       #294
      00FF538EH   LINE      CODE     ---       #295
      00FF5397H   LINE      CODE     ---       #296
      00FF5399H   LINE      CODE     ---       #297
L251 LINKER/LOCATER V4.66.93.0                                                        03/17/2024  15:38:36  PAGE 78


      00FF53A8H   LINE      CODE     ---       #298
      00FF53B2H   LINE      CODE     ---       #300
      00FF53C5H   LINE      CODE     ---       #301
      00FF53C5H   LINE      CODE     ---       #303
      00FF53C7H   LINE      CODE     ---       #304
      ---         BLOCKEND  ---      ---       LVL=0

      00FF5FF1H   BLOCK     CODE     ---       LVL=0
      R11         REGSYM    ---      BYTE      DevAddress
      R10         REGSYM    ---      BYTE      addr
      0000031DH   SYMBOL    EDATA    BYTE      bitNum
      REG=3       REGSYM    ---      ---       Data
      00FF5FF9H   BLOCK     CODE     NEAR LAB  LVL=1
      0000031EH   SYMBOL    EDATA    BYTE      b
      ---         BLOCKEND  ---      ---       LVL=1
      00FF5FF1H   LINE      CODE     ---       #312
      00FF5FF9H   LINE      CODE     ---       #313
      00FF5FF9H   LINE      CODE     ---       #315
      00FF6006H   LINE      CODE     ---       #317
      00FF601CH   LINE      CODE     ---       #318
      00FF601FH   LINE      CODE     ---       #319
      00FF601FH   LINE      CODE     ---       #322
      00FF6021H   LINE      CODE     ---       #323
      00FF6021H   LINE      CODE     ---       #324
      ---         BLOCKEND  ---      ---       LVL=0

      00FF55A4H   BLOCK     CODE     ---       LVL=0
      R11         REGSYM    ---      BYTE      DevAddress
      R10         REGSYM    ---      BYTE      addr
      R14         REGSYM    ---      BYTE      bitStart
      R15         REGSYM    ---      BYTE      length
      0000031DH   SYMBOL    EDATA    ---       Data
      00FF55AEH   BLOCK     CODE     NEAR LAB  LVL=1
      0000047DH   SYMBOL    EDATA    BYTE      b
      0000047EH   SYMBOL    EDATA    BYTE      mask
      ---         BLOCKEND  ---      ---       LVL=1
      00FF55A4H   LINE      CODE     ---       #333
      00FF55AEH   LINE      CODE     ---       #334
      00FF55AEH   LINE      CODE     ---       #341
      00FF55BBH   LINE      CODE     ---       #344
      00FF55DDH   LINE      CODE     ---       #345
      00FF55E5H   LINE      CODE     ---       #346
      00FF55FCH   LINE      CODE     ---       #347
      00FF5607H   LINE      CODE     ---       #348
      00FF560AH   LINE      CODE     ---       #349
      00FF560AH   LINE      CODE     ---       #351
      00FF560CH   LINE      CODE     ---       #352
      ---         BLOCKEND  ---      ---       LVL=0

      00FF64F6H   BLOCK     CODE     ---       LVL=0
      DR4         REGSYM    ---      DWORD     i
      00FF64F6H   LINE      CODE     ---       #356
      00FF64F6H   LINE      CODE     ---       #357
      00FF64F6H   LINE      CODE     ---       #359
      00FF64F7H   LINE      CODE     ---       #360
      00FF64FBH   LINE      CODE     ---       #361
      00FF64FFH   LINE      CODE     ---       #362
      ---         BLOCKEND  ---      ---       LVL=0

      00FF63DBH   BLOCK     CODE     ---       LVL=0
      WR14        REGSYM    ---      WORD      Milliseconds
      00FF63DBH   LINE      CODE     ---       #365
      00FF63DFH   LINE      CODE     ---       #367
      00FF63ECH   LINE      CODE     ---       #369
      ---         BLOCKEND  ---      ---       LVL=0
L251 LINKER/LOCATER V4.66.93.0                                                        03/17/2024  15:38:36  PAGE 79



      00FF64E0H   BLOCK     CODE     ---       LVL=0
      R7          REGSYM    ---      BYTE      reg
      R6          REGSYM    ---      BYTE      len
      REG=0       REGSYM    ---      ---       buf
      00FF64E0H   LINE      CODE     ---       #377
      00FF64E4H   LINE      CODE     ---       #379
      ---         BLOCKEND  ---      ---       LVL=0

      00FF64CAH   BLOCK     CODE     ---       LVL=0
      R7          REGSYM    ---      BYTE      reg
      R6          REGSYM    ---      BYTE      len
      REG=0       REGSYM    ---      ---       buf
      00FF64CAH   LINE      CODE     ---       #388
      00FF64CEH   LINE      CODE     ---       #390
      ---         BLOCKEND  ---      ---       LVL=0

      00FF63C6H   BLOCK     CODE     ---       LVL=0
      R10         REGSYM    ---      BYTE      reg
      0000031FH   SYMBOL    EDATA    BYTE      Data
      00FF63C6H   LINE      CODE     ---       #398
      00FF63CCH   LINE      CODE     ---       #400
      ---         BLOCKEND  ---      ---       LVL=0
      R10         REGSYM    ---      BYTE      reg

      00FF64B0H   BLOCK     CODE     ---       LVL=0
      R7          REGSYM    ---      BYTE      addr
      R6          REGSYM    ---      BYTE      bitNum
      R10         REGSYM    ---      BYTE      Data
      00FF64B0H   LINE      CODE     ---       #414
      00FF64B6H   LINE      CODE     ---       #416
      ---         BLOCKEND  ---      ---       LVL=0

      00FF64A3H   BLOCK     CODE     ---       LVL=0
      R7          REGSYM    ---      BYTE      addr
      R6          REGSYM    ---      BYTE      bitStart
      R5          REGSYM    ---      BYTE      length
      R4          REGSYM    ---      BYTE      Data
      00FF64A3H   LINE      CODE     ---       #420
      00FF64ABH   LINE      CODE     ---       #422
      ---         BLOCKEND  ---      ---       LVL=0

      00FF6500H   BLOCK     CODE     ---       LVL=0
      R7          REGSYM    ---      BYTE      addr
      R6          REGSYM    ---      BYTE      bitNum
      REG=0       REGSYM    ---      ---       Data
      00FF6500H   LINE      CODE     ---       #426
      00FF6504H   LINE      CODE     ---       #428
      ---         BLOCKEND  ---      ---       LVL=0

      00FF0046H   BLOCK     CODE     ---       LVL=0
      R7          REGSYM    ---      BYTE      addr
      R6          REGSYM    ---      BYTE      bitStart
      R10         REGSYM    ---      BYTE      length
      REG=0       REGSYM    ---      ---       Data
      00FF0046H   LINE      CODE     ---       #432
      00FF004CH   LINE      CODE     ---       #434
      ---         BLOCKEND  ---      ---       LVL=0
      R11         REGSYM    ---      BYTE      res
      R10         REGSYM    ---      BYTE      fsr
      R10         REGSYM    ---      BYTE      fsr
      WR6         REGSYM    ---      WORD      lpf
      R10         REGSYM    ---      BYTE      Data
      WR14        REGSYM    ---      WORD      rate
      0000047FH   SYMBOL    EDATA    BYTE      Data
L251 LINKER/LOCATER V4.66.93.0                                                        03/17/2024  15:38:36  PAGE 80


      WR4         REGSYM    ---      INT       raw
      DR4         REGSYM    ---      FLOAT     temp

      00FF58BBH   BLOCK     CODE     ---       LVL=0
      00000317H   SYMBOL    EDATA    ---       gx
      REG=3       REGSYM    ---      ---       gy
      0000031BH   SYMBOL    EDATA    ---       gz
      00FF58C3H   BLOCK     CODE     NEAR LAB  LVL=1
      0000031FH   SYMBOL    EDATA    ---       buf
      R11         REGSYM    ---      BYTE      res
      ---         BLOCKEND  ---      ---       LVL=1
      00FF58BBH   LINE      CODE     ---       #543
      00FF58C3H   LINE      CODE     ---       #544
      00FF58C3H   LINE      CODE     ---       #546
      00FF58CFH   LINE      CODE     ---       #547
      00FF58D1H   LINE      CODE     ---       #549
      00FF58E8H   LINE      CODE     ---       #550
      00FF58FBH   LINE      CODE     ---       #551
      00FF5910H   LINE      CODE     ---       #552
      00FF5910H   LINE      CODE     ---       #553
      00FF5910H   LINE      CODE     ---       #554
      ---         BLOCKEND  ---      ---       LVL=0
      REG=3       REGSYM    ---      ---       ay
      R11         REGSYM    ---      BYTE      res

      00FF524CH   BLOCK     CODE     ---       LVL=0
      00FF524EH   BLOCK     CODE     NEAR LAB  LVL=1
      WR14        REGSYM    ---      WORD      datanum
      0000031DH   SYMBOL    EDATA    BYTE      ye
      0000031EH   SYMBOL    EDATA    BYTE      i
      R12         REGSYM    ---      BYTE      bank
      R13         REGSYM    ---      BYTE      addr
      ---         BLOCKEND  ---      ---       LVL=1
      00FF524CH   LINE      CODE     ---       #790
      00FF524EH   LINE      CODE     ---       #791
      00FF524EH   LINE      CODE     ---       #792
      00FF5250H   LINE      CODE     ---       #794
      00FF5252H   LINE      CODE     ---       #795
      00FF5254H   LINE      CODE     ---       #797
      00FF5254H   LINE      CODE     ---       #799
      00FF5259H   LINE      CODE     ---       #800
      00FF525DH   LINE      CODE     ---       #802
      00FF5263H   LINE      CODE     ---       #803
      00FF5266H   LINE      CODE     ---       #805
      00FF526DH   LINE      CODE     ---       #806
      00FF5274H   LINE      CODE     ---       #807
      00FF5286H   LINE      CODE     ---       #808
      00FF528AH   LINE      CODE     ---       #809
      00FF528DH   LINE      CODE     ---       #810
      00FF52A0H   LINE      CODE     ---       #811
      00FF52A7H   LINE      CODE     ---       #812
      00FF52AFH   LINE      CODE     ---       #813
      00FF52B6H   LINE      CODE     ---       #814
      00FF52C8H   LINE      CODE     ---       #815
      00FF52C8H   LINE      CODE     ---       #816
      00FF52CAH   LINE      CODE     ---       #817
      ---         BLOCKEND  ---      ---       LVL=0

      00FF4E4CH   BLOCK     CODE     ---       LVL=0
      00FF4E4EH   BLOCK     CODE     NEAR LAB  LVL=1
      R14         REGSYM    ---      BYTE      line
      0000031DH   SYMBOL    EDATA    BYTE      bank
      R15         REGSYM    ---      BYTE      datacounts
      R13         REGSYM    ---      BYTE      bytes2write
      0000031EH   SYMBOL    EDATA    BYTE      offset
L251 LINKER/LOCATER V4.66.93.0                                                        03/17/2024  15:38:36  PAGE 81


      00000480H   SYMBOL    EDATA    BYTE      writingcounts
      R12         REGSYM    ---      BYTE      special
      ---         BLOCKEND  ---      ---       LVL=1
      00FF4E4CH   LINE      CODE     ---       #819
      00FF4E4EH   LINE      CODE     ---       #820
      00FF4E4EH   LINE      CODE     ---       #823
      00FF4E50H   LINE      CODE     ---       #829
      00FF4E53H   LINE      CODE     ---       #831
      00FF4E69H   LINE      CODE     ---       #832
      00FF4E7FH   LINE      CODE     ---       #833
      00FF4E93H   LINE      CODE     ---       #834
      00FF4E9CH   LINE      CODE     ---       #835
      00FF4EA5H   LINE      CODE     ---       #836
      00FF4EB6H   LINE      CODE     ---       #837
      00FF4EBAH   LINE      CODE     ---       #838
      00FF4EBCH   LINE      CODE     ---       #839
      00FF4EC0H   LINE      CODE     ---       #841
      00FF4ED4H   LINE      CODE     ---       #842
      00FF4ED9H   LINE      CODE     ---       #847
      00FF4EE1H   LINE      CODE     ---       #848
      00FF4EE3H   LINE      CODE     ---       #850
      00FF4EE6H   LINE      CODE     ---       #851
      00FF4EEDH   LINE      CODE     ---       #853
      00FF4EEFH   LINE      CODE     ---       #854
      ---         BLOCKEND  ---      ---       LVL=0

      00FF50BBH   BLOCK     CODE     ---       LVL=0
      0000031DH   SYMBOL    EDATA    BYTE      datacounts
      00FF50C1H   BLOCK     CODE     NEAR LAB  LVL=1
      00000481H   SYMBOL    EDATA    BYTE      writingcounts
      R7          REGSYM    ---      BYTE      bank
      R14         REGSYM    ---      BYTE      offset
      R15         REGSYM    ---      BYTE      bytes2write
      ---         BLOCKEND  ---      ---       LVL=1
      00FF50BBH   LINE      CODE     ---       #857
      00FF50C1H   LINE      CODE     ---       #858
      00FF50C1H   LINE      CODE     ---       #862
      00FF50DCH   LINE      CODE     ---       #863
      00FF50F7H   LINE      CODE     ---       #864
      00FF5112H   LINE      CODE     ---       #865
      00FF5117H   LINE      CODE     ---       #866
      00FF511EH   LINE      CODE     ---       #867
      00FF5133H   LINE      CODE     ---       #868
      00FF5137H   LINE      CODE     ---       #869
      00FF5141H   LINE      CODE     ---       #870
      00FF5143H   LINE      CODE     ---       #871
      ---         BLOCKEND  ---      ---       LVL=0

      00FF0026H   BLOCK     CODE     ---       LVL=0
      0000031DH   SYMBOL    EDATA    ---       i
      00FF0026H   LINE      CODE     ---       #875
      00FF0026H   LINE      CODE     ---       #876
      00FF0026H   LINE      CODE     ---       #878
      00FF0032H   LINE      CODE     ---       #879
      00FF0042H   LINE      CODE     ---       #880
      ---         BLOCKEND  ---      ---       LVL=0

      00FF6477H   BLOCK     CODE     ---       LVL=0
      REG=7       REGSYM    ---      ---       Data
      00FF6477H   LINE      CODE     ---       #886
      00FF6477H   LINE      CODE     ---       #888
      00FF6485H   LINE      CODE     ---       #889
      ---         BLOCKEND  ---      ---       LVL=0

      00FF3D24H   BLOCK     CODE     ---       LVL=0
L251 LINKER/LOCATER V4.66.93.0                                                        03/17/2024  15:38:36  PAGE 82


      00000317H   SYMBOL    EDATA    BYTE      hwRevision
      00000318H   SYMBOL    EDATA    BYTE      otpValid
      00000319H   SYMBOL    EDATA    BYTE      mpuIntStatus
      0000031AH   SYMBOL    EDATA    BYTE      xgOffsetTC
      0000031BH   SYMBOL    EDATA    BYTE      ygOffsetTC
      0000031CH   SYMBOL    EDATA    BYTE      zgOffsetTC
      00000482H   SYMBOL    EDATA    WORD      fifoCount
      00FF3D24H   LINE      CODE     ---       #892
      00FF3D24H   LINE      CODE     ---       #893
      00FF3D24H   LINE      CODE     ---       #897
      00FF3D2FH   LINE      CODE     ---       #898
      00FF3D36H   LINE      CODE     ---       #899
      00FF3D40H   LINE      CODE     ---       #900
      00FF3D48H   LINE      CODE     ---       #901
      00FF3D50H   LINE      CODE     ---       #902
      00FF3D5CH   LINE      CODE     ---       #903
      00FF3D63H   LINE      CODE     ---       #904
      00FF3D6DH   LINE      CODE     ---       #905
      00FF3D7BH   LINE      CODE     ---       #906
      00FF3D8AH   LINE      CODE     ---       #907
      00FF3D99H   LINE      CODE     ---       #911
      00FF3DA4H   LINE      CODE     ---       #912
      00FF3DABH   LINE      CODE     ---       #913
      00FF3DB0H   LINE      CODE     ---       #914
      00FF3DB2H   LINE      CODE     ---       #915
      00FF3DB7H   LINE      CODE     ---       #916
      00FF3DB9H   LINE      CODE     ---       #917
      00FF3DC7H   LINE      CODE     ---       #918
      00FF3DCFH   LINE      CODE     ---       #919
      00FF3DD7H   LINE      CODE     ---       #920
      00FF3DE5H   LINE      CODE     ---       #921
      00FF3DF3H   LINE      CODE     ---       #922
      00FF3E01H   LINE      CODE     ---       #923
      00FF3E09H   LINE      CODE     ---       #924
      00FF3E10H   LINE      CODE     ---       #925
      00FF3E18H   LINE      CODE     ---       #926
      00FF3E24H   LINE      CODE     ---       #927
      00FF3E31H   LINE      CODE     ---       #928
      00FF3E3EH   LINE      CODE     ---       #929
      00FF3E44H   LINE      CODE     ---       #930
      00FF3E46H   LINE      CODE     ---       #931
      00FF3E4DH   LINE      CODE     ---       #932
      00FF3E4FH   LINE      CODE     ---       #933
      00FF3E5AH   LINE      CODE     ---       #934
      00FF3E61H   LINE      CODE     ---       #936
      00FF3E6CH   LINE      CODE     ---       #938
      00FF3E74H   LINE      CODE     ---       #939
      00FF3E7CH   LINE      CODE     ---       #940
      00FF3E84H   LINE      CODE     ---       #941
      00FF3E8BH   LINE      CODE     ---       #942
      00FF3E96H   LINE      CODE     ---       #943
      00FF3EA1H   LINE      CODE     ---       #944
      00FF3EACH   LINE      CODE     ---       #945
      00FF3EB7H   LINE      CODE     ---       #946
      00FF3EBEH   LINE      CODE     ---       #947
      00FF3EC0H   LINE      CODE     ---       #948
      00FF3EC7H   LINE      CODE     ---       #949
      00FF3EC9H   LINE      CODE     ---       #950
      00FF3ED0H   LINE      CODE     ---       #951
      00FF3ED2H   LINE      CODE     ---       #952
      00FF3EDFH   LINE      CODE     ---       #953
      00FF3EEAH   LINE      CODE     ---       #955
      00FF3EF6H   LINE      CODE     ---       #956
      00FF3EFDH   LINE      CODE     ---       #957
      00FF3EFFH   LINE      CODE     ---       #958
L251 LINKER/LOCATER V4.66.93.0                                                        03/17/2024  15:38:36  PAGE 83


      00FF3F0CH   LINE      CODE     ---       #959
      00FF3F17H   LINE      CODE     ---       #961
      00FF3F23H   LINE      CODE     ---       #962
      00FF3F2AH   LINE      CODE     ---       #963
      00FF3F2CH   LINE      CODE     ---       #964
      00FF3F36H   LINE      CODE     ---       #965
      00FF3F41H   LINE      CODE     ---       #966
      00FF3F4DH   LINE      CODE     ---       #968
      00FF3F4FH   LINE      CODE     ---       #969
      ---         BLOCKEND  ---      ---       LVL=0

      00FF6057H   BLOCK     CODE     ---       LVL=0
      00FF6057H   LINE      CODE     ---       #972
      00FF6057H   LINE      CODE     ---       #974
      00FF6065H   LINE      CODE     ---       #975
      00FF6072H   LINE      CODE     ---       #976
      00FF607FH   LINE      CODE     ---       #977
      ---         BLOCKEND  ---      ---       LVL=0

      00FF62B9H   BLOCK     CODE     ---       LVL=0
      00000317H   SYMBOL    EDATA    BYTE      b
      00FF62B9H   LINE      CODE     ---       #981
      00FF62B9H   LINE      CODE     ---       #982
      00FF62B9H   LINE      CODE     ---       #983
      00FF62BEH   LINE      CODE     ---       #984
      00FF62CDH   LINE      CODE     ---       #985
      00FF62D8H   LINE      CODE     ---       #987
      ---         BLOCKEND  ---      ---       LVL=0

      00FF6274H   BLOCK     CODE     ---       LVL=0
      00FF6274H   LINE      CODE     ---       #989
      00FF6274H   LINE      CODE     ---       #991
      00FF6277H   LINE      CODE     ---       #992
      00FF627CH   LINE      CODE     ---       #993
      00FF6281H   LINE      CODE     ---       #994
      00FF628CH   LINE      CODE     ---       #995
      ---         BLOCKEND  ---      ---       LVL=0

      00FF3A8AH   BLOCK     CODE     ---       LVL=0
      00FF3A8CH   BLOCK     CODE     NEAR LAB  LVL=1
      00000484H   SYMBOL    EDATA    BYTE      zd
      00000485H   SYMBOL    EDATA    WORD      i
      ---         BLOCKEND  ---      ---       LVL=1
      00FF3A8AH   LINE      CODE     ---       #999
      00FF3A8CH   LINE      CODE     ---       #1000
      00FF3A8CH   LINE      CODE     ---       #1004
      00FF3A93H   LINE      CODE     ---       #1005
      00FF3A9FH   LINE      CODE     ---       #1006
      00FF3AB2H   LINE      CODE     ---       #1008
      00FF3ABDH   LINE      CODE     ---       #1009
      00FF3AC0H   LINE      CODE     ---       #1010
      00FF3AC8H   LINE      CODE     ---       #1012
      00FF3ADBH   LINE      CODE     ---       #1014
      00FF3AE4H   LINE      CODE     ---       #1016
      00FF3B02H   LINE      CODE     ---       #1017
      00FF3B1AH   LINE      CODE     ---       #1018
      00FF3B32H   LINE      CODE     ---       #1019
      00FF3B4AH   LINE      CODE     ---       #1020
      00FF3B4AH   LINE      CODE     ---       #1025
      00FF3B92H   LINE      CODE     ---       #1026
      00FF3C09H   LINE      CODE     ---       #1027
      00FF3C8DH   LINE      CODE     ---       #1029
      00FF3CA8H   LINE      CODE     ---       #1030
      00FF3CBEH   LINE      CODE     ---       #1032
      00FF3CCEH   LINE      CODE     ---       #1033
L251 LINKER/LOCATER V4.66.93.0                                                        03/17/2024  15:38:36  PAGE 84


      00FF3CEDH   LINE      CODE     ---       #1034
      00FF3D0CH   LINE      CODE     ---       #1036
      00FF3D14H   LINE      CODE     ---       #1038
      00FF3D21H   LINE      CODE     ---       #1040
      ---         BLOCKEND  ---      ---       LVL=0

      ---         MODULE    ---      ---       TOF
      00FF5802H   PUBLIC    CODE     ---       vl53l0x_get_distance
      00FF229EH   PUBLIC    CODE     ---       vl53l0x_init
      00000665H   PUBLIC    EDATA    WORD      vl53l0x_distance_mm
      00000667H   PUBLIC    EDATA    BYTE      vl53l0x_finsh_flag
      000000D0H   SFRSYM    DATA     BYTE      PSW
      000000B7H   SFRSYM    DATA     BYTE      IPH
      000000C0H.7 SFRSYM    DATA     BIT       P47
      000000B0H.3 SFRSYM    DATA     BIT       P33
      00000088H   SFRSYM    DATA     BYTE      TCON
      000000B0H.2 SFRSYM    DATA     BIT       P32
      00000098H   SFRSYM    DATA     BYTE      SCON
      000000BCH   SFRSYM    DATA     BYTE      ADC_CONTR
      000000DEH   SFRSYM    DATA     BYTE      ADCCFG
      000000B8H   SFRSYM    DATA     BYTE      IP
      000000A8H   SFRSYM    DATA     BYTE      IE
      000000F8H   SFRSYM    DATA     BYTE      P7
      000000E8H   SFRSYM    DATA     BYTE      P6
      000000C8H   SFRSYM    DATA     BYTE      P5
      000000C0H   SFRSYM    DATA     BYTE      P4
      000000B0H   SFRSYM    DATA     BYTE      P3
      000000A0H   SFRSYM    DATA     BYTE      P2
      00000090H   SFRSYM    DATA     BYTE      P1
      00000080H   SFRSYM    DATA     BYTE      P0
      00FF62D9H   SYMBOL    CODE     ---       vl53l0x_simiic_sendack
      00FF5E32H   SYMBOL    CODE     ---       vl53l0x_timeout_microseconds_to_mclks
      00FF5DB7H   SYMBOL    CODE     ---       vl53l0x_timeout_mclks_to_microseconds
      00FF61E1H   SYMBOL    CODE     ---       vl53l0x_set_signal_rate_limit
      00FF5EAAH   SYMBOL    CODE     ---       vl53l0x_read_ch
      00FF6448H   SYMBOL    CODE     ---       vl53l0x_decode_timeout
      00FF60B8H   SYMBOL    CODE     ---       vl53l0x_send_ch
      00FF410FH   SYMBOL    CODE     ---       vl53l0x_get_spad_info
      00FF5F8AH   SYMBOL    CODE     ---       vl53l0x_encode_timeout
      00FF5913H   SYMBOL    CODE     ---       vl53l0x_get_sequence_step_enables
      00FF0066H   SYMBOL    CODE     ---       vl53l0x_sccb_waitack
      00FF64BDH   SYMBOL    CODE     ---       vl53l0x_simiic_delay
      00FF5444H   SYMBOL    CODE     ---       vl53l0x_perform_single_ref_calibration
      00FF49A5H   SYMBOL    CODE     ---       vl53l0x_get_sequence_step_timeouts
      00FF6486H   SYMBOL    CODE     ---       vl53l0x_simiic_start
      00FF5A13H   SYMBOL    CODE     ---       vl53l0x_simiic_read_regs
      00FF5531H   SYMBOL    CODE     ---       vl53l0x_get_measurement_timing_budget
      00FF5F55H   SYMBOL    CODE     ---       vl53l0x_simiic_write_dats
      00FF61B8H   SYMBOL    CODE     ---       vl53l0x_simiic_read_reg
      00FF5A67H   SYMBOL    CODE     ---       vl53l0x_simiic_read_regs_1
      00FF47E1H   SYMBOL    CODE     ---       vl53l0x_set_measurement_timing_budget
      00FF6426H   SYMBOL    CODE     ---       vl53l0x_simiic_stop
      00FF6297H   SYMBOL    CODE     ---       vl53l0x_simiic_write_reg
      00FF5B59H   SYMBOL    CODE     ---       vl53l0x_get_vcsel_pulse_period

      00FF64BDH   BLOCK     CODE     ---       LVL=0
      WR6         REGSYM    ---      WORD      j
      00FF64BDH   LINE      CODE     ---       #77
      00FF64BDH   LINE      CODE     ---       #78
      00FF64BDH   LINE      CODE     ---       #79
      00FF64C1H   LINE      CODE     ---       #80
      00FF64C9H   LINE      CODE     ---       #81
      ---         BLOCKEND  ---      ---       LVL=0

      00FF6486H   BLOCK     CODE     ---       LVL=0
L251 LINKER/LOCATER V4.66.93.0                                                        03/17/2024  15:38:36  PAGE 85


      00FF6486H   LINE      CODE     ---       #84
      00FF6486H   LINE      CODE     ---       #86
      00FF6488H   LINE      CODE     ---       #87
      00FF648AH   LINE      CODE     ---       #88
      00FF648DH   LINE      CODE     ---       #89
      00FF648FH   LINE      CODE     ---       #90
      00FF6492H   LINE      CODE     ---       #91
      00FF6494H   LINE      CODE     ---       #92
      ---         BLOCKEND  ---      ---       LVL=0

      00FF6426H   BLOCK     CODE     ---       LVL=0
      00FF6426H   LINE      CODE     ---       #95
      00FF6426H   LINE      CODE     ---       #97
      00FF6428H   LINE      CODE     ---       #98
      00FF642AH   LINE      CODE     ---       #99
      00FF642DH   LINE      CODE     ---       #100
      00FF642FH   LINE      CODE     ---       #101
      00FF6432H   LINE      CODE     ---       #102
      00FF6434H   LINE      CODE     ---       #103
      ---         BLOCKEND  ---      ---       LVL=0

      00FF62D9H   BLOCK     CODE     ---       LVL=0
      R15         REGSYM    ---      BYTE      ack_dat
      00FF62D9H   LINE      CODE     ---       #108
      00FF62DDH   LINE      CODE     ---       #110
      00FF62DFH   LINE      CODE     ---       #111
      00FF62E2H   LINE      CODE     ---       #112
      00FF62EAH   LINE      CODE     ---       #113
      00FF62ECH   LINE      CODE     ---       #115
      00FF62EEH   LINE      CODE     ---       #116
      00FF62F1H   LINE      CODE     ---       #117
      00FF62F3H   LINE      CODE     ---       #118
      00FF62F6H   LINE      CODE     ---       #119
      ---         BLOCKEND  ---      ---       LVL=0

      00FF0066H   BLOCK     CODE     ---       LVL=0
      00FF0066H   LINE      CODE     ---       #122
      00FF0066H   LINE      CODE     ---       #124
      00FF0068H   LINE      CODE     ---       #126
      00FF006BH   LINE      CODE     ---       #128
      00FF006DH   LINE      CODE     ---       #129
      00FF0070H   LINE      CODE     ---       #131
      00FF0073H   LINE      CODE     ---       #134
      00FF0075H   LINE      CODE     ---       #135
      00FF0078H   LINE      CODE     ---       #136
      00FF0078H   LINE      CODE     ---       #138
      00FF007AH   LINE      CODE     ---       #139
      00FF007DH   LINE      CODE     ---       #140
      00FF0081H   LINE      CODE     ---       #141
      ---         BLOCKEND  ---      ---       LVL=0

      00FF60B8H   BLOCK     CODE     ---       LVL=0
      R15         REGSYM    ---      BYTE      c
      00FF60BCH   BLOCK     CODE     NEAR LAB  LVL=1
      R14         REGSYM    ---      BYTE      i
      ---         BLOCKEND  ---      ---       LVL=1
      00FF60B8H   LINE      CODE     ---       #147
      00FF60BCH   LINE      CODE     ---       #148
      00FF60BCH   LINE      CODE     ---       #149
      00FF60BFH   LINE      CODE     ---       #150
      00FF60C1H   LINE      CODE     ---       #152
      00FF60CAH   LINE      CODE     ---       #153
      00FF60CCH   LINE      CODE     ---       #154
      00FF60CEH   LINE      CODE     ---       #155
      00FF60D1H   LINE      CODE     ---       #156
L251 LINKER/LOCATER V4.66.93.0                                                        03/17/2024  15:38:36  PAGE 86


      00FF60D3H   LINE      CODE     ---       #157
      00FF60D6H   LINE      CODE     ---       #158
      00FF60D8H   LINE      CODE     ---       #159
      00FF60E0H   LINE      CODE     ---       #160
      00FF60E3H   LINE      CODE     ---       #161
      ---         BLOCKEND  ---      ---       LVL=0

      00FF5EAAH   BLOCK     CODE     ---       LVL=0
      R15         REGSYM    ---      BYTE      ack_x
      00FF5EB0H   BLOCK     CODE     NEAR LAB  LVL=1
      R13         REGSYM    ---      BYTE      i
      R14         REGSYM    ---      BYTE      c
      ---         BLOCKEND  ---      ---       LVL=1
      00FF5EAAH   LINE      CODE     ---       #167
      00FF5EB0H   LINE      CODE     ---       #168
      00FF5EB0H   LINE      CODE     ---       #171
      00FF5EB2H   LINE      CODE     ---       #172
      00FF5EB4H   LINE      CODE     ---       #173
      00FF5EB7H   LINE      CODE     ---       #174
      00FF5EB9H   LINE      CODE     ---       #176
      00FF5EBCH   LINE      CODE     ---       #178
      00FF5EBFH   LINE      CODE     ---       #179
      00FF5EC1H   LINE      CODE     ---       #180
      00FF5EC4H   LINE      CODE     ---       #181
      00FF5EC6H   LINE      CODE     ---       #182
      00FF5EC9H   LINE      CODE     ---       #183
      00FF5ECBH   LINE      CODE     ---       #184
      00FF5ECEH   LINE      CODE     ---       #186
      00FF5ED0H   LINE      CODE     ---       #187
      00FF5ED4H   LINE      CODE     ---       #190
      00FF5ED6H   LINE      CODE     ---       #191
      00FF5ED9H   LINE      CODE     ---       #192
      00FF5EDEH   LINE      CODE     ---       #194
      00FF5EE0H   LINE      CODE     ---       #195
      ---         BLOCKEND  ---      ---       LVL=0

      00FF5F55H   BLOCK     CODE     ---       LVL=0
      0000034CH   SYMBOL    EDATA    BYTE      dev_add
      0000034DH   SYMBOL    EDATA    ---       dat
      DR12        REGSYM    ---      DWORD     len
      00FF5F55H   LINE      CODE     ---       #207
      00FF5F61H   LINE      CODE     ---       #209
      00FF5F64H   LINE      CODE     ---       #210
      00FF5F6AH   LINE      CODE     ---       #211
      00FF5F6CH   LINE      CODE     ---       #213
      00FF5F7CH   LINE      CODE     ---       #214
      00FF5F84H   LINE      CODE     ---       #217
      00FF5F87H   LINE      CODE     ---       #218
      ---         BLOCKEND  ---      ---       LVL=0

      00FF6297H   BLOCK     CODE     ---       LVL=0
      R13         REGSYM    ---      BYTE      dev_add
      R14         REGSYM    ---      BYTE      reg
      R15         REGSYM    ---      BYTE      dat
      00FF6297H   LINE      CODE     ---       #230
      00FF629FH   LINE      CODE     ---       #232
      00FF62A2H   LINE      CODE     ---       #233
      00FF62A7H   LINE      CODE     ---       #234
      00FF62ACH   LINE      CODE     ---       #235
      00FF62B1H   LINE      CODE     ---       #236
      00FF62B4H   LINE      CODE     ---       #237
      ---         BLOCKEND  ---      ---       LVL=0

      00FF61B8H   BLOCK     CODE     ---       LVL=0
      R15         REGSYM    ---      BYTE      dev_add
L251 LINKER/LOCATER V4.66.93.0                                                        03/17/2024  15:38:36  PAGE 87


      R14         REGSYM    ---      BYTE      reg
      00FF61BEH   BLOCK     CODE     NEAR LAB  LVL=1
      R15         REGSYM    ---      BYTE      dat
      ---         BLOCKEND  ---      ---       LVL=1
      00FF61B8H   LINE      CODE     ---       #248
      00FF61BEH   LINE      CODE     ---       #249
      00FF61BEH   LINE      CODE     ---       #251
      00FF61C1H   LINE      CODE     ---       #252
      00FF61C6H   LINE      CODE     ---       #253
      00FF61CBH   LINE      CODE     ---       #256
      00FF61CEH   LINE      CODE     ---       #257
      00FF61D7H   LINE      CODE     ---       #258
      00FF61DBH   LINE      CODE     ---       #259
      00FF61DEH   LINE      CODE     ---       #261
      00FF61DEH   LINE      CODE     ---       #262
      ---         BLOCKEND  ---      ---       LVL=0

      00FF5A13H   BLOCK     CODE     ---       LVL=0
      00000353H   SYMBOL    EDATA    BYTE      dev_add
      00000354H   SYMBOL    EDATA    BYTE      reg
      REG=3       REGSYM    ---      ---       dat_add
      00000355H   SYMBOL    EDATA    DWORD     num
      00FF5A13H   LINE      CODE     ---       #275
      00FF5A1FH   LINE      CODE     ---       #277
      00FF5A22H   LINE      CODE     ---       #278
      00FF5A2BH   LINE      CODE     ---       #279
      00FF5A32H   LINE      CODE     ---       #282
      00FF5A35H   LINE      CODE     ---       #283
      00FF5A40H   LINE      CODE     ---       #284
      00FF5A42H   LINE      CODE     ---       #286
      00FF5A4AH   LINE      CODE     ---       #287
      00FF5A4CH   LINE      CODE     ---       #288
      00FF5A5AH   LINE      CODE     ---       #289
      00FF5A61H   LINE      CODE     ---       #290
      00FF5A64H   LINE      CODE     ---       #291
      ---         BLOCKEND  ---      ---       LVL=0

      00FF5A67H   BLOCK     CODE     ---       LVL=0
      0000031AH   SYMBOL    EDATA    BYTE      dev_add
      0000031BH   SYMBOL    EDATA    BYTE      reg
      REG=3       REGSYM    ---      ---       dat_add
      0000031CH   SYMBOL    EDATA    DWORD     num
      00FF5A67H   LINE      CODE     ---       #304
      00FF5A73H   LINE      CODE     ---       #306
      00FF5A76H   LINE      CODE     ---       #307
      00FF5A7FH   LINE      CODE     ---       #308
      00FF5A86H   LINE      CODE     ---       #311
      00FF5A89H   LINE      CODE     ---       #312
      00FF5A94H   LINE      CODE     ---       #313
      00FF5A96H   LINE      CODE     ---       #315
      00FF5A9EH   LINE      CODE     ---       #316
      00FF5AA0H   LINE      CODE     ---       #317
      00FF5AAEH   LINE      CODE     ---       #318
      00FF5AB5H   LINE      CODE     ---       #319
      00FF5AB8H   LINE      CODE     ---       #320
      ---         BLOCKEND  ---      ---       LVL=0

      00FF410FH   BLOCK     CODE     ---       LVL=0
      00000329H   SYMBOL    EDATA    ---       index
      REG=3       REGSYM    ---      ---       type_is_aperture
      00FF4117H   BLOCK     CODE     NEAR LAB  LVL=1
      0000032DH   SYMBOL    EDATA    BYTE      tmp
      0000032EH   SYMBOL    EDATA    BYTE      return_state
      0000032FH   SYMBOL    EDATA    WORD      loop_count
      ---         BLOCKEND  ---      ---       LVL=1
L251 LINKER/LOCATER V4.66.93.0                                                        03/17/2024  15:38:36  PAGE 88


      00FF410FH   LINE      CODE     ---       #352
      00FF4117H   LINE      CODE     ---       #353
      00FF4117H   LINE      CODE     ---       #354
      00FF411CH   LINE      CODE     ---       #355
      00FF4120H   LINE      CODE     ---       #356
      00FF4126H   LINE      CODE     ---       #358
      00FF4126H   LINE      CODE     ---       #360
      00FF4131H   LINE      CODE     ---       #361
      00FF413CH   LINE      CODE     ---       #362
      00FF4145H   LINE      CODE     ---       #364
      00FF4150H   LINE      CODE     ---       #365
      00FF4164H   LINE      CODE     ---       #366
      00FF4173H   LINE      CODE     ---       #367
      00FF417EH   LINE      CODE     ---       #368
      00FF4189H   LINE      CODE     ---       #370
      00FF4194H   LINE      CODE     ---       #372
      00FF419FH   LINE      CODE     ---       #373
      00FF41A9H   LINE      CODE     ---       #375
      00FF41AEH   LINE      CODE     ---       #376
      00FF41B0H   LINE      CODE     ---       #378
      00FF41C4H   LINE      CODE     ---       #379
      00FF41CEH   LINE      CODE     ---       #380
      00FF41D8H   LINE      CODE     ---       #382
      00FF41DEH   LINE      CODE     ---       #383
      00FF41E0H   LINE      CODE     ---       #384
      00FF41E7H   LINE      CODE     ---       #387
      00FF41F0H   LINE      CODE     ---       #389
      00FF41F0H   LINE      CODE     ---       #390
      00FF41F0H   LINE      CODE     ---       #391
      00FF41FBH   LINE      CODE     ---       #392
      00FF420FH   LINE      CODE     ---       #394
      00FF421CH   LINE      CODE     ---       #395
      00FF4226H   LINE      CODE     ---       #397
      00FF4230H   LINE      CODE     ---       #398
      00FF423BH   LINE      CODE     ---       #399
      00FF424FH   LINE      CODE     ---       #400
      00FF425BH   LINE      CODE     ---       #401
      00FF4266H   LINE      CODE     ---       #402
      00FF4270H   LINE      CODE     ---       #404
      00FF427AH   LINE      CODE     ---       #405
      00FF4284H   LINE      CODE     ---       #406
      00FF4284H   LINE      CODE     ---       #408
      00FF4288H   LINE      CODE     ---       #409
      ---         BLOCKEND  ---      ---       LVL=0

      00FF5DB7H   BLOCK     CODE     ---       LVL=0
      WR30        REGSYM    ---      WORD      timeout_period_mclks
      R5          REGSYM    ---      BYTE      vcsel_period_pclks
      00FF5DB9H   BLOCK     CODE     NEAR LAB  LVL=1
      DR24        REGSYM    ---      DWORD     macro_period_ns
      ---         BLOCKEND  ---      ---       LVL=1
      00FF5DB7H   LINE      CODE     ---       #419
      00FF5DB9H   LINE      CODE     ---       #420
      00FF5DB9H   LINE      CODE     ---       #421
      00FF5DDAH   LINE      CODE     ---       #423
      ---         BLOCKEND  ---      ---       LVL=0

      00FF5E32H   BLOCK     CODE     ---       LVL=0
      DR28        REGSYM    ---      DWORD     timeout_period_us
      R3          REGSYM    ---      BYTE      vcsel_period_pclks
      00FF5E34H   BLOCK     CODE     NEAR LAB  LVL=1
      DR8         REGSYM    ---      DWORD     macro_period_ns
      ---         BLOCKEND  ---      ---       LVL=1
      00FF5E32H   LINE      CODE     ---       #434
      00FF5E34H   LINE      CODE     ---       #435
L251 LINKER/LOCATER V4.66.93.0                                                        03/17/2024  15:38:36  PAGE 89


      00FF5E34H   LINE      CODE     ---       #436
      00FF5E55H   LINE      CODE     ---       #438
      ---         BLOCKEND  ---      ---       LVL=0

      00FF6448H   BLOCK     CODE     ---       LVL=0
      WR4         REGSYM    ---      WORD      reg_val
      00FF6448H   LINE      CODE     ---       #448
      00FF644AH   LINE      CODE     ---       #451
      00FF6457H   LINE      CODE     ---       #453
      ---         BLOCKEND  ---      ---       LVL=0

      00FF5F8AH   BLOCK     CODE     ---       LVL=0
      WR2         REGSYM    ---      WORD      timeout_mclks
      00FF5F8CH   BLOCK     CODE     NEAR LAB  LVL=1
      DR8         REGSYM    ---      DWORD     ls_byte
      WR4         REGSYM    ---      WORD      ms_byte
      WR6         REGSYM    ---      WORD      return_data
      ---         BLOCKEND  ---      ---       LVL=1
      00FF5F8AH   LINE      CODE     ---       #462
      00FF5F8CH   LINE      CODE     ---       #463
      00FF5F8CH   LINE      CODE     ---       #464
      00FF5F8CH   LINE      CODE     ---       #465
      00FF5F90H   LINE      CODE     ---       #466
      00FF5F90H   LINE      CODE     ---       #468
      00FF5F96H   LINE      CODE     ---       #471
      00FF5F9CH   LINE      CODE     ---       #472
      00FF5F9EH   LINE      CODE     ---       #474
      00FF5FA7H   LINE      CODE     ---       #475
      00FF5FA9H   LINE      CODE     ---       #476
      00FF5FB3H   LINE      CODE     ---       #477
      00FF5FBDH   LINE      CODE     ---       #478
      00FF5FBDH   LINE      CODE     ---       #479
      00FF5FBDH   LINE      CODE     ---       #480
      ---         BLOCKEND  ---      ---       LVL=0

      00FF5913H   BLOCK     CODE     ---       LVL=0
      REG=3       REGSYM    ---      ---       enables
      00FF5917H   BLOCK     CODE     NEAR LAB  LVL=1
      0000034CH   SYMBOL    EDATA    BYTE      sequence_config
      ---         BLOCKEND  ---      ---       LVL=1
      00FF5913H   LINE      CODE     ---       #489
      00FF5917H   LINE      CODE     ---       #490
      00FF5917H   LINE      CODE     ---       #491
      00FF591CH   LINE      CODE     ---       #492
      00FF592DH   LINE      CODE     ---       #494
      00FF5937H   LINE      CODE     ---       #495
      00FF5943H   LINE      CODE     ---       #496
      00FF5951H   LINE      CODE     ---       #497
      00FF595DH   LINE      CODE     ---       #498
      00FF5968H   LINE      CODE     ---       #499
      ---         BLOCKEND  ---      ---       LVL=0

      00FF5B59H   BLOCK     CODE     ---       LVL=0
      WR6         REGSYM    ---      INT       type
      00000352H   SYMBOL    EDATA    BYTE      data_buffer
      00FF5B59H   LINE      CODE     ---       #508
      00FF5B59H   LINE      CODE     ---       #509
      00FF5B59H   LINE      CODE     ---       #510
      00FF5B5EH   LINE      CODE     ---       #511
      00FF5B62H   LINE      CODE     ---       #513
      00FF5B6FH   LINE      CODE     ---       #514
      00FF5B6FH   LINE      CODE     ---       #515
      00FF5B71H   LINE      CODE     ---       #516
      00FF5B77H   LINE      CODE     ---       #518
      00FF5B8BH   LINE      CODE     ---       #519
L251 LINKER/LOCATER V4.66.93.0                                                        03/17/2024  15:38:36  PAGE 90


      00FF5B99H   LINE      CODE     ---       #520
      00FF5B9BH   LINE      CODE     ---       #523
      00FF5BA1H   LINE      CODE     ---       #524
      00FF5BA1H   LINE      CODE     ---       #525
      00FF5BA5H   LINE      CODE     ---       #526
      ---         BLOCKEND  ---      ---       LVL=0

      00FF49A5H   BLOCK     CODE     ---       LVL=0
      0000034CH   SYMBOL    EDATA    ---       enables
      REG=3       REGSYM    ---      ---       timeouts
      00FF49ADH   BLOCK     CODE     NEAR LAB  LVL=1
      00000350H   SYMBOL    EDATA    ---       reg_buffer
      WR6         REGSYM    ---      WORD      reg16_buffer
      ---         BLOCKEND  ---      ---       LVL=1
      00FF49A5H   LINE      CODE     ---       #536
      00FF49ADH   LINE      CODE     ---       #537
      00FF49ADH   LINE      CODE     ---       #539
      00FF49ADH   LINE      CODE     ---       #541
      00FF49B7H   LINE      CODE     ---       #543
      00FF49CBH   LINE      CODE     ---       #544
      00FF49D7H   LINE      CODE     ---       #545
      00FF49E5H   LINE      CODE     ---       #547
      00FF49F9H   LINE      CODE     ---       #548
      00FF4A05H   LINE      CODE     ---       #549
      00FF4A0CH   LINE      CODE     ---       #550
      00FF4A1AH   LINE      CODE     ---       #552
      00FF4A27H   LINE      CODE     ---       #554
      00FF4A3BH   LINE      CODE     ---       #555
      00FF4A47H   LINE      CODE     ---       #556
      00FF4A4EH   LINE      CODE     ---       #558
      00FF4A58H   LINE      CODE     ---       #560
      00FF4A6AH   LINE      CODE     ---       #561
      00FF4A6AH   LINE      CODE     ---       #563
      00FF4A7DH   LINE      CODE     ---       #564
      ---         BLOCKEND  ---      ---       LVL=0

      00FF5444H   BLOCK     CODE     ---       LVL=0
      R10         REGSYM    ---      BYTE      vhv_init_byte
      00FF5448H   BLOCK     CODE     NEAR LAB  LVL=1
      R15         REGSYM    ---      BYTE      return_state
      00000329H   SYMBOL    EDATA    BYTE      data_buffer
      0000032AH   SYMBOL    EDATA    WORD      loop_count
      ---         BLOCKEND  ---      ---       LVL=1
      00FF5444H   LINE      CODE     ---       #573
      00FF5448H   LINE      CODE     ---       #574
      00FF5448H   LINE      CODE     ---       #575
      00FF544AH   LINE      CODE     ---       #576
      00FF544FH   LINE      CODE     ---       #577
      00FF5455H   LINE      CODE     ---       #578
      00FF5455H   LINE      CODE     ---       #580
      00FF545FH   LINE      CODE     ---       #581
      00FF545FH   LINE      CODE     ---       #582
      00FF5461H   LINE      CODE     ---       #584
      00FF546BH   LINE      CODE     ---       #586
      00FF546EH   LINE      CODE     ---       #587
      00FF5470H   LINE      CODE     ---       #588
      00FF5470H   LINE      CODE     ---       #589
      00FF5482H   LINE      CODE     ---       #591
      00FF5496H   LINE      CODE     ---       #592
      00FF549EH   LINE      CODE     ---       #594
      00FF54A2H   LINE      CODE     ---       #596
      00FF54A2H   LINE      CODE     ---       #597
      00FF54A2H   LINE      CODE     ---       #598
      00FF54ADH   LINE      CODE     ---       #599
      00FF54B6H   LINE      CODE     ---       #600
L251 LINKER/LOCATER V4.66.93.0                                                        03/17/2024  15:38:36  PAGE 91


      00FF54B6H   LINE      CODE     ---       #602
      00FF54B8H   LINE      CODE     ---       #603
      ---         BLOCKEND  ---      ---       LVL=0

      00FF47E1H   BLOCK     CODE     ---       LVL=0
      DR12        REGSYM    ---      DWORD     budget_us
      00FF47E5H   BLOCK     CODE     NEAR LAB  LVL=1
      00000329H   SYMBOL    EDATA    BYTE      return_state
      0000032AH   SYMBOL    EDATA    ---       data_buffer
      WR6         REGSYM    ---      WORD      dat
      0000032DH   SYMBOL    EDATA    DWORD     used_budget_us
      DR4         REGSYM    ---      DWORD     final_range_timeout_us
      WR6         REGSYM    ---      WORD      final_range_timeout_mclks
      00000331H   SYMBOL    EDATA    ---       enables
      00000336H   SYMBOL    EDATA    ---       timeouts
      ---         BLOCKEND  ---      ---       LVL=1
      00FF47E1H   LINE      CODE     ---       #616
      00FF47E5H   LINE      CODE     ---       #617
      00FF47E5H   LINE      CODE     ---       #618
      00FF47EAH   LINE      CODE     ---       #620
      00FF47EAH   LINE      CODE     ---       #628
      00FF47EAH   LINE      CODE     ---       #630
      00FF47F0H   LINE      CODE     ---       #632
      00FF47F0H   LINE      CODE     ---       #633
      00FF47F3H   LINE      CODE     ---       #634
      00FF47F3H   LINE      CODE     ---       #636
      00FF47FBH   LINE      CODE     ---       #637
      00FF4802H   LINE      CODE     ---       #638
      00FF480DH   LINE      CODE     ---       #640
      00FF4813H   LINE      CODE     ---       #642
      00FF4823H   LINE      CODE     ---       #643
      00FF4823H   LINE      CODE     ---       #645
      00FF4829H   LINE      CODE     ---       #647
      00FF4835H   LINE      CODE     ---       #648
      00FF4837H   LINE      CODE     ---       #649
      00FF483DH   LINE      CODE     ---       #651
      00FF484FH   LINE      CODE     ---       #652
      00FF484FH   LINE      CODE     ---       #654
      00FF4855H   LINE      CODE     ---       #656
      00FF4867H   LINE      CODE     ---       #657
      00FF4867H   LINE      CODE     ---       #659
      00FF486DH   LINE      CODE     ---       #664
      00FF4879H   LINE      CODE     ---       #665
      00FF4881H   LINE      CODE     ---       #668
      00FF4887H   LINE      CODE     ---       #669
      00FF4889H   LINE      CODE     ---       #670
      00FF4889H   LINE      CODE     ---       #675
      00FF488DH   LINE      CODE     ---       #676
      00FF4894H   LINE      CODE     ---       #680
      00FF489AH   LINE      CODE     ---       #682
      00FF48A0H   LINE      CODE     ---       #683
      00FF48A0H   LINE      CODE     ---       #685
      00FF48A3H   LINE      CODE     ---       #686
      00FF48A9H   LINE      CODE     ---       #687
      00FF48ADH   LINE      CODE     ---       #688
      00FF48B1H   LINE      CODE     ---       #689
      00FF48BEH   LINE      CODE     ---       #690
      00FF48BEH   LINE      CODE     ---       #692
      00FF48C2H   LINE      CODE     ---       #693
      ---         BLOCKEND  ---      ---       LVL=0

      00FF5531H   BLOCK     CODE     ---       LVL=0
      00FF5533H   BLOCK     CODE     NEAR LAB  LVL=1
      00000329H   SYMBOL    EDATA    ---       enables
      0000032EH   SYMBOL    EDATA    ---       timeouts
L251 LINKER/LOCATER V4.66.93.0                                                        03/17/2024  15:38:36  PAGE 92


      DR12        REGSYM    ---      DWORD     budget_us
      ---         BLOCKEND  ---      ---       LVL=1
      00FF5531H   LINE      CODE     ---       #702
      00FF5533H   LINE      CODE     ---       #703
      00FF5533H   LINE      CODE     ---       #708
      00FF5537H   LINE      CODE     ---       #710
      00FF553EH   LINE      CODE     ---       #711
      00FF5549H   LINE      CODE     ---       #713
      00FF554FH   LINE      CODE     ---       #715
      00FF555BH   LINE      CODE     ---       #716
      00FF555BH   LINE      CODE     ---       #718
      00FF5561H   LINE      CODE     ---       #720
      00FF556DH   LINE      CODE     ---       #721
      00FF556FH   LINE      CODE     ---       #722
      00FF5575H   LINE      CODE     ---       #724
      00FF557FH   LINE      CODE     ---       #725
      00FF557FH   LINE      CODE     ---       #727
      00FF5585H   LINE      CODE     ---       #729
      00FF558FH   LINE      CODE     ---       #730
      00FF558FH   LINE      CODE     ---       #732
      00FF5595H   LINE      CODE     ---       #734
      00FF559FH   LINE      CODE     ---       #735
      00FF559FH   LINE      CODE     ---       #737
      00FF55A1H   LINE      CODE     ---       #738
      ---         BLOCKEND  ---      ---       LVL=0

      00FF61E1H   BLOCK     CODE     ---       LVL=0
      DR4         REGSYM    ---      FLOAT     limit_mcps
      00000329H   SYMBOL    EDATA    ---       data_buffer
      WR6         REGSYM    ---      WORD      limit_mcps_16bit
      00FF61E1H   LINE      CODE     ---       #751
      00FF61E1H   LINE      CODE     ---       #752
      00FF61E1H   LINE      CODE     ---       #754
      00FF61EDH   LINE      CODE     ---       #758
      00FF61F3H   LINE      CODE     ---       #759
      00FF61F7H   LINE      CODE     ---       #760
      00FF61FBH   LINE      CODE     ---       #762
      ---         BLOCKEND  ---      ---       LVL=0

      00FF5802H   BLOCK     CODE     ---       LVL=0
      00000317H   SYMBOL    EDATA    ---       reg_databuffer
      00FF5802H   LINE      CODE     ---       #772
      00FF5802H   LINE      CODE     ---       #773
      00FF5802H   LINE      CODE     ---       #776
      00FF5816H   LINE      CODE     ---       #777
      00FF581EH   LINE      CODE     ---       #779
      00FF581FH   LINE      CODE     ---       #780
      00FF5821H   LINE      CODE     ---       #784
      00FF5835H   LINE      CODE     ---       #785
      00FF583FH   LINE      CODE     ---       #786
      00FF584DH   LINE      CODE     ---       #788
      00FF5858H   LINE      CODE     ---       #789
      00FF585EH   LINE      CODE     ---       #790
      00FF585EH   LINE      CODE     ---       #791
      ---         BLOCKEND  ---      ---       LVL=0

      00FF229EH   BLOCK     CODE     ---       LVL=0
      00FF22A2H   BLOCK     CODE     NEAR LAB  LVL=1
      00000317H   SYMBOL    EDATA    DWORD     measurement_timing_budget_us
      0000031BH   SYMBOL    EDATA    BYTE      stop_variable
      R15         REGSYM    ---      BYTE      return_state
      R14         REGSYM    ---      BYTE      reg_data_buffer
      0000031CH   SYMBOL    EDATA    ---       ref_spad_map
      00000322H   SYMBOL    EDATA    ---       data_buffer
      R13         REGSYM    ---      BYTE      i
L251 LINKER/LOCATER V4.66.93.0                                                        03/17/2024  15:38:36  PAGE 93


      ---         BLOCKEND  ---      ---       LVL=1
      00FF229EH   LINE      CODE     ---       #800
      00FF22A2H   LINE      CODE     ---       #801
      00FF22A2H   LINE      CODE     ---       #802
      00FF22A2H   LINE      CODE     ---       #803
      00FF22A7H   LINE      CODE     ---       #804
      00FF22A9H   LINE      CODE     ---       #805
      00FF22A9H   LINE      CODE     ---       #808
      00FF22A9H   LINE      CODE     ---       #810
      00FF22B4H   LINE      CODE     ---       #811
      00FF22C0H   LINE      CODE     ---       #815
      00FF22C0H   LINE      CODE     ---       #817
      00FF22C7H   LINE      CODE     ---       #818
      00FF22C9H   LINE      CODE     ---       #819
      00FF22D0H   LINE      CODE     ---       #820
      00FF22D2H   LINE      CODE     ---       #821
      00FF22D9H   LINE      CODE     ---       #824
      00FF22E3H   LINE      CODE     ---       #825
      00FF22F0H   LINE      CODE     ---       #827
      00FF22FAH   LINE      CODE     ---       #829
      00FF2305H   LINE      CODE     ---       #830
      00FF2310H   LINE      CODE     ---       #831
      00FF2319H   LINE      CODE     ---       #833
      00FF232DH   LINE      CODE     ---       #835
      00FF2337H   LINE      CODE     ---       #836
      00FF2341H   LINE      CODE     ---       #837
      00FF234BH   LINE      CODE     ---       #840
      00FF2355H   LINE      CODE     ---       #841
      00FF2362H   LINE      CODE     ---       #843
      00FF236BH   LINE      CODE     ---       #844
      00FF2376H   LINE      CODE     ---       #848
      00FF2383H   LINE      CODE     ---       #850
      00FF2386H   LINE      CODE     ---       #855
      00FF2391H   LINE      CODE     ---       #856
      00FF2394H   LINE      CODE     ---       #857
      00FF2394H   LINE      CODE     ---       #860
      00FF23A8H   LINE      CODE     ---       #862
      00FF23B3H   LINE      CODE     ---       #863
      00FF23BDH   LINE      CODE     ---       #864
      00FF23C8H   LINE      CODE     ---       #865
      00FF23D2H   LINE      CODE     ---       #866
      00FF23DDH   LINE      CODE     ---       #868
      00FF23EEH   LINE      CODE     ---       #869
      00FF23F0H   LINE      CODE     ---       #871
      00FF2402H   LINE      CODE     ---       #876
      00FF2430H   LINE      CODE     ---       #877
      00FF2432H   LINE      CODE     ---       #878
      00FF2455H   LINE      CODE     ---       #880
      00FF245EH   LINE      CODE     ---       #881
      00FF2465H   LINE      CODE     ---       #884
      00FF246BH   LINE      CODE     ---       #885
      00FF246EH   LINE      CODE     ---       #887
      00FF2478H   LINE      CODE     ---       #888
      00FF247FH   LINE      CODE     ---       #889
      00FF248CH   LINE      CODE     ---       #892
      00FF2497H   LINE      CODE     ---       #893
      00FF24A0H   LINE      CODE     ---       #894
      00FF24AAH   LINE      CODE     ---       #895
      00FF24B4H   LINE      CODE     ---       #896
      00FF24BEH   LINE      CODE     ---       #897
      00FF24C8H   LINE      CODE     ---       #898
      00FF24D3H   LINE      CODE     ---       #899
      00FF24DEH   LINE      CODE     ---       #900
      00FF24E8H   LINE      CODE     ---       #901
      00FF24F3H   LINE      CODE     ---       #902
L251 LINKER/LOCATER V4.66.93.0                                                        03/17/2024  15:38:36  PAGE 94


      00FF24FEH   LINE      CODE     ---       #903
      00FF2508H   LINE      CODE     ---       #904
      00FF2513H   LINE      CODE     ---       #905
      00FF251DH   LINE      CODE     ---       #906
      00FF2528H   LINE      CODE     ---       #907
      00FF2532H   LINE      CODE     ---       #908
      00FF253DH   LINE      CODE     ---       #909
      00FF2548H   LINE      CODE     ---       #910
      00FF2553H   LINE      CODE     ---       #911
      00FF255EH   LINE      CODE     ---       #912
      00FF2568H   LINE      CODE     ---       #913
      00FF2572H   LINE      CODE     ---       #914
      00FF257DH   LINE      CODE     ---       #915
      00FF2587H   LINE      CODE     ---       #916
      00FF2592H   LINE      CODE     ---       #917
      00FF259DH   LINE      CODE     ---       #918
      00FF25A8H   LINE      CODE     ---       #919
      00FF25B2H   LINE      CODE     ---       #920
      00FF25BCH   LINE      CODE     ---       #921
      00FF25C6H   LINE      CODE     ---       #922
      00FF25D0H   LINE      CODE     ---       #923
      00FF25DBH   LINE      CODE     ---       #924
      00FF25E6H   LINE      CODE     ---       #925
      00FF25F1H   LINE      CODE     ---       #926
      00FF25FCH   LINE      CODE     ---       #927
      00FF2607H   LINE      CODE     ---       #928
      00FF2611H   LINE      CODE     ---       #929
      00FF261BH   LINE      CODE     ---       #930
      00FF2626H   LINE      CODE     ---       #931
      00FF2630H   LINE      CODE     ---       #932
      00FF263BH   LINE      CODE     ---       #933
      00FF2646H   LINE      CODE     ---       #934
      00FF2651H   LINE      CODE     ---       #935
      00FF265BH   LINE      CODE     ---       #936
      00FF2666H   LINE      CODE     ---       #937
      00FF2671H   LINE      CODE     ---       #938
      00FF267CH   LINE      CODE     ---       #939
      00FF2687H   LINE      CODE     ---       #940
      00FF2692H   LINE      CODE     ---       #941
      00FF269DH   LINE      CODE     ---       #942
      00FF26A8H   LINE      CODE     ---       #943
      00FF26B2H   LINE      CODE     ---       #944
      00FF26BDH   LINE      CODE     ---       #945
      00FF26C8H   LINE      CODE     ---       #946
      00FF26D3H   LINE      CODE     ---       #947
      00FF26DEH   LINE      CODE     ---       #948
      00FF26E9H   LINE      CODE     ---       #949
      00FF26F4H   LINE      CODE     ---       #950
      00FF26FFH   LINE      CODE     ---       #951
      00FF2709H   LINE      CODE     ---       #952
      00FF2713H   LINE      CODE     ---       #953
      00FF271EH   LINE      CODE     ---       #954
      00FF2729H   LINE      CODE     ---       #955
      00FF2734H   LINE      CODE     ---       #956
      00FF273EH   LINE      CODE     ---       #957
      00FF2749H   LINE      CODE     ---       #958
      00FF2754H   LINE      CODE     ---       #959
      00FF275FH   LINE      CODE     ---       #960
      00FF2769H   LINE      CODE     ---       #961
      00FF2773H   LINE      CODE     ---       #962
      00FF277EH   LINE      CODE     ---       #963
      00FF2789H   LINE      CODE     ---       #964
      00FF2793H   LINE      CODE     ---       #965
      00FF279EH   LINE      CODE     ---       #966
      00FF27A9H   LINE      CODE     ---       #967
L251 LINKER/LOCATER V4.66.93.0                                                        03/17/2024  15:38:36  PAGE 95


      00FF27B4H   LINE      CODE     ---       #968
      00FF27BFH   LINE      CODE     ---       #969
      00FF27C9H   LINE      CODE     ---       #970
      00FF27D3H   LINE      CODE     ---       #971
      00FF27DDH   LINE      CODE     ---       #974
      00FF27E8H   LINE      CODE     ---       #975
      00FF27F2H   LINE      CODE     ---       #976
      00FF27FFH   LINE      CODE     ---       #977
      00FF280AH   LINE      CODE     ---       #979
      00FF2811H   LINE      CODE     ---       #984
      00FF281CH   LINE      CODE     ---       #985
      00FF2823H   LINE      CODE     ---       #988
      00FF282EH   LINE      CODE     ---       #989
      00FF2835H   LINE      CODE     ---       #991
      00FF2835H   LINE      CODE     ---       #992
      00FF2837H   LINE      CODE     ---       #993
      00FF2837H   LINE      CODE     ---       #994
      00FF2842H   LINE      CODE     ---       #995
      00FF2848H   LINE      CODE     ---       #997
      00FF284BH   LINE      CODE     ---       #998
      00FF284DH   LINE      CODE     ---       #999
      00FF284DH   LINE      CODE     ---       #1000
      00FF2858H   LINE      CODE     ---       #1002
      00FF285FH   LINE      CODE     ---       #1004
      00FF286AH   LINE      CODE     ---       #1005
      00FF2875H   LINE      CODE     ---       #1006
      00FF287EH   LINE      CODE     ---       #1007
      00FF288AH   LINE      CODE     ---       #1008
      00FF2894H   LINE      CODE     ---       #1009
      00FF289EH   LINE      CODE     ---       #1010
      00FF28A8H   LINE      CODE     ---       #1012
      00FF28B2H   LINE      CODE     ---       #1013
      00FF28B2H   LINE      CODE     ---       #1015
      00FF28B4H   LINE      CODE     ---       #1016
      ---         BLOCKEND  ---      ---       LVL=0

      ---         MODULE    ---      ---       Element
      00FF5E6EH   PUBLIC    CODE     ---       Elem_Up_Down
      00FF43D6H   PUBLIC    CODE     ---       Elem_Circle
      00000617H   PUBLIC    EDATA    FLOAT     Sum_Angle
      0000061BH   PUBLIC    EDATA    CHAR      Up_Down_Flag
      0000061CH   PUBLIC    EDATA    FLOAT     Circle_Flag
      00000620H   PUBLIC    EDATA    CHAR      delay_10ms
      00000621H   PUBLIC    EDATA    FLOAT     Sum_Angle_C1
      00000625H   PUBLIC    EDATA    CHAR      Barrier_Flag1
      00000626H   PUBLIC    EDATA    CHAR      Barrier_Flag2
      00000627H   PUBLIC    EDATA    CHAR      Barrier_Flag3
      00000628H   PUBLIC    EDATA    CHAR      Barrier_Flag4
      00000629H   PUBLIC    EDATA    CHAR      Barrier_Executed
      0000062AH   PUBLIC    EDATA    FLOAT     Sum_Dis1
      0000062EH   PUBLIC    EDATA    FLOAT     Sum_Dis2
      00000632H   PUBLIC    EDATA    CHAR      Avoid_ON
      000000D0H   SFRSYM    DATA     BYTE      PSW
      000000B7H   SFRSYM    DATA     BYTE      IPH
      00000088H   SFRSYM    DATA     BYTE      TCON
      00000098H   SFRSYM    DATA     BYTE      SCON
      000000BCH   SFRSYM    DATA     BYTE      ADC_CONTR
      000000DEH   SFRSYM    DATA     BYTE      ADCCFG
      000000B8H   SFRSYM    DATA     BYTE      IP
      000000A8H   SFRSYM    DATA     BYTE      IE
      000000F8H   SFRSYM    DATA     BYTE      P7
      000000E8H   SFRSYM    DATA     BYTE      P6
      000000C8H   SFRSYM    DATA     BYTE      P5
      000000C0H   SFRSYM    DATA     BYTE      P4
      000000B0H   SFRSYM    DATA     BYTE      P3
L251 LINKER/LOCATER V4.66.93.0                                                        03/17/2024  15:38:36  PAGE 96


      000000A0H   SFRSYM    DATA     BYTE      P2
      00000090H   SFRSYM    DATA     BYTE      P1
      00000080H   SFRSYM    DATA     BYTE      P0

      00FF5E6EH   BLOCK     CODE     ---       LVL=0
      DR28        REGSYM    ---      FLOAT     Angle
      DR24        REGSYM    ---      FLOAT     Gyro
      00FF5E6EH   LINE      CODE     ---       #33
      00FF5E72H   LINE      CODE     ---       #36
      00FF5E8AH   LINE      CODE     ---       #37
      00FF5E92H   LINE      CODE     ---       #38
      00FF5E9FH   LINE      CODE     ---       #39
      00FF5EA9H   LINE      CODE     ---       #40
      ---         BLOCKEND  ---      ---       LVL=0
      DR28        REGSYM    ---      FLOAT     Gyro_Z

      00FF43D6H   BLOCK     CODE     ---       LVL=0
      DR24        REGSYM    ---      FLOAT     Speed
      DR28        REGSYM    ---      FLOAT     Gyro_Z
      00FF43DCH   BLOCK     CODE     NEAR LAB  LVL=1
      00000633H   SYMBOL    EDATA    CHAR      Delay_10Ms
      ---         BLOCKEND  ---      ---       LVL=1
      00FF43D6H   LINE      CODE     ---       #126
      00FF43DCH   LINE      CODE     ---       #127
      00FF43DCH   LINE      CODE     ---       #132
      00FF43E5H   LINE      CODE     ---       #134
      00FF43EBH   LINE      CODE     ---       #135
      00FF43FEH   LINE      CODE     ---       #136
      00FF4401H   LINE      CODE     ---       #137
      00FF4404H   LINE      CODE     ---       #138
      00FF4404H   LINE      CODE     ---       #139
      00FF4411H   LINE      CODE     ---       #141
      00FF4427H   LINE      CODE     ---       #142
      00FF443AH   LINE      CODE     ---       #144
      00FF4452H   LINE      CODE     ---       #145
      00FF4470H   LINE      CODE     ---       #146
      00FF447AH   LINE      CODE     ---       #147
      00FF4494H   LINE      CODE     ---       #148
      00FF449EH   LINE      CODE     ---       #149
      00FF44A0H   LINE      CODE     ---       #151
      00FF44ABH   LINE      CODE     ---       #152
      00FF44C9H   LINE      CODE     ---       #154
      00FF44D8H   LINE      CODE     ---       #156
      00FF44E5H   LINE      CODE     ---       #157
      00FF44F6H   LINE      CODE     ---       #159
      00FF44FCH   LINE      CODE     ---       #160
      00FF4500H   LINE      CODE     ---       #161
      00FF4504H   LINE      CODE     ---       #162
      00FF4508H   LINE      CODE     ---       #163
      00FF4508H   LINE      CODE     ---       #164
      00FF450EH   LINE      CODE     ---       #165
      00FF450EH   LINE      CODE     ---       #167
      00FF450EH   LINE      CODE     ---       #168
      ---         BLOCKEND  ---      ---       LVL=0

      ---         MODULE    ---      ---       Buzzer
      00FF6437H   PUBLIC    CODE     ---       Buzzer_Init
      0000066FH   PUBLIC    EDATA    WORD      x10_ms
      000000D0H   SFRSYM    DATA     BYTE      PSW
      000000B7H   SFRSYM    DATA     BYTE      IPH
      00000088H   SFRSYM    DATA     BYTE      TCON
      00000098H   SFRSYM    DATA     BYTE      SCON
      000000BCH   SFRSYM    DATA     BYTE      ADC_CONTR
      000000DEH   SFRSYM    DATA     BYTE      ADCCFG
      000000B8H   SFRSYM    DATA     BYTE      IP
L251 LINKER/LOCATER V4.66.93.0                                                        03/17/2024  15:38:36  PAGE 97


      000000A8H   SFRSYM    DATA     BYTE      IE
      000000F8H   SFRSYM    DATA     BYTE      P7
      000000E8H   SFRSYM    DATA     BYTE      P6
      000000C8H   SFRSYM    DATA     BYTE      P5
      000000C0H   SFRSYM    DATA     BYTE      P4
      000000B0H   SFRSYM    DATA     BYTE      P3
      000000A0H   SFRSYM    DATA     BYTE      P2
      00000090H   SFRSYM    DATA     BYTE      P1
      00000080H   SFRSYM    DATA     BYTE      P0

      00FF6437H   BLOCK     CODE     ---       LVL=0
      00FF6437H   LINE      CODE     ---       #12
      00FF6437H   LINE      CODE     ---       #14
      ---         BLOCKEND  ---      ---       LVL=0

      ---         MODULE    ---      ---       Key
      00FF622DH   PUBLIC    CODE     ---       Key_Init
      00FF54BBH   PUBLIC    CODE     ---       GetKey_Value
      00000668H   PUBLIC    EDATA    CHAR      Mode
      00000669H   PUBLIC    EDATA    CHAR      clear_Num
      000000D0H   SFRSYM    DATA     BYTE      PSW
      000000B7H   SFRSYM    DATA     BYTE      IPH
      000000F8H.3 SFRSYM    DATA     BIT       P73
      000000F8H.2 SFRSYM    DATA     BIT       P72
      000000F8H.1 SFRSYM    DATA     BIT       P71
      000000F8H.0 SFRSYM    DATA     BIT       P70
      00000088H   SFRSYM    DATA     BYTE      TCON
      00000098H   SFRSYM    DATA     BYTE      SCON
      000000BCH   SFRSYM    DATA     BYTE      ADC_CONTR
      000000DEH   SFRSYM    DATA     BYTE      ADCCFG
      000000B8H   SFRSYM    DATA     BYTE      IP
      000000A8H   SFRSYM    DATA     BYTE      IE
      000000F8H   SFRSYM    DATA     BYTE      P7
      000000E8H   SFRSYM    DATA     BYTE      P6
      000000C8H   SFRSYM    DATA     BYTE      P5
      000000C0H   SFRSYM    DATA     BYTE      P4
      000000B0H   SFRSYM    DATA     BYTE      P3
      000000A0H   SFRSYM    DATA     BYTE      P2
      00000090H   SFRSYM    DATA     BYTE      P1
      00000080H   SFRSYM    DATA     BYTE      P0

      00FF622DH   BLOCK     CODE     ---       LVL=0
      00FF622DH   LINE      CODE     ---       #12
      00FF622DH   LINE      CODE     ---       #15
      00FF6236H   LINE      CODE     ---       #16
      00FF623FH   LINE      CODE     ---       #17
      00FF6248H   LINE      CODE     ---       #18
      ---         BLOCKEND  ---      ---       LVL=0

      00FF54BBH   BLOCK     CODE     ---       LVL=0
      R7          REGSYM    ---      BYTE      mode
      00FF54BDH   BLOCK     CODE     NEAR LAB  LVL=1
      0000066AH   SYMBOL    EDATA    BYTE      key_up
      ---         BLOCKEND  ---      ---       LVL=1
      00FF54BBH   LINE      CODE     ---       #30
      00FF54BDH   LINE      CODE     ---       #31
      00FF54BDH   LINE      CODE     ---       #33
      00FF54C1H   LINE      CODE     ---       #34
      00FF54C7H   LINE      CODE     ---       #35
      00FF54E5H   LINE      CODE     ---       #38
      00FF54EAH   LINE      CODE     ---       #39
      00FF54F2H   LINE      CODE     ---       #40
      00FF54FBH   LINE      CODE     ---       #41
      00FF5504H   LINE      CODE     ---       #42
      00FF550DH   LINE      CODE     ---       #43
L251 LINKER/LOCATER V4.66.93.0                                                        03/17/2024  15:38:36  PAGE 98


      00FF550DH   LINE      CODE     ---       #44
      00FF5529H   LINE      CODE     ---       #45
      00FF552FH   LINE      CODE     ---       #46
      00FF5530H   LINE      CODE     ---       #47
      ---         BLOCKEND  ---      ---       LVL=0

      ---         MODULE    ---      ---       UI
      00FF6541H   PUBLIC    CODE     ---       ui_show
      00FF5CFBH   PUBLIC    CODE     ---       oled_all_static_state
      00FF4609H   PUBLIC    CODE     ---       value_name_init
      00FF5CBBH   PUBLIC    CODE     ---       oled_show
      00FF5146H   PUBLIC    CODE     ---       refresh_value
      00FF6509H   PUBLIC    CODE     ---       ui_init
      00000008H   PUBLIC    EDATA    BYTE      page
      00000009H   PUBLIC    EDATA    ---       value
      00000079H   PUBLIC    EDATA    ---       value_name
      000000D0H   SFRSYM    DATA     BYTE      PSW
      000000B7H   SFRSYM    DATA     BYTE      IPH
      00000088H   SFRSYM    DATA     BYTE      TCON
      00000098H   SFRSYM    DATA     BYTE      SCON
      000000BCH   SFRSYM    DATA     BYTE      ADC_CONTR
      000000DEH   SFRSYM    DATA     BYTE      ADCCFG
      000000B8H   SFRSYM    DATA     BYTE      IP
      000000A8H   SFRSYM    DATA     BYTE      IE
      000000F8H   SFRSYM    DATA     BYTE      P7
      000000E8H   SFRSYM    DATA     BYTE      P6
      000000C8H   SFRSYM    DATA     BYTE      P5
      000000C0H   SFRSYM    DATA     BYTE      P4
      000000B0H   SFRSYM    DATA     BYTE      P3
      000000A0H   SFRSYM    DATA     BYTE      P2
      00000090H   SFRSYM    DATA     BYTE      P1
      00000080H   SFRSYM    DATA     BYTE      P0

      00FF4609H   BLOCK     CODE     ---       LVL=0
      00FF4609H   LINE      CODE     ---       #25
      00FF4609H   LINE      CODE     ---       #28
      00FF4618H   LINE      CODE     ---       #29
      00FF4627H   LINE      CODE     ---       #30
      00FF4636H   LINE      CODE     ---       #31
      00FF4645H   LINE      CODE     ---       #35
      00FF4654H   LINE      CODE     ---       #36
      00FF4663H   LINE      CODE     ---       #37
      00FF4672H   LINE      CODE     ---       #38
      00FF4681H   LINE      CODE     ---       #42
      00FF4690H   LINE      CODE     ---       #43
      00FF469FH   LINE      CODE     ---       #44
      00FF46AEH   LINE      CODE     ---       #45
      00FF46BDH   LINE      CODE     ---       #48
      00FF46CCH   LINE      CODE     ---       #49
      00FF46DBH   LINE      CODE     ---       #50
      00FF46EAH   LINE      CODE     ---       #51
      ---         BLOCKEND  ---      ---       LVL=0

      00FF5146H   BLOCK     CODE     ---       LVL=0
      00FF5146H   LINE      CODE     ---       #55
      00FF5146H   LINE      CODE     ---       #58
      00FF514EH   LINE      CODE     ---       #59
      00FF5156H   LINE      CODE     ---       #60
      00FF515EH   LINE      CODE     ---       #61
      00FF5166H   LINE      CODE     ---       #64
      00FF516EH   LINE      CODE     ---       #65
      00FF5176H   LINE      CODE     ---       #66
      00FF517EH   LINE      CODE     ---       #67
      00FF5186H   LINE      CODE     ---       #70
      00FF518EH   LINE      CODE     ---       #71
L251 LINKER/LOCATER V4.66.93.0                                                        03/17/2024  15:38:36  PAGE 99


      00FF5196H   LINE      CODE     ---       #72
      00FF519EH   LINE      CODE     ---       #73
      00FF51AAH   LINE      CODE     ---       #76
      00FF51B2H   LINE      CODE     ---       #77
      00FF51BAH   LINE      CODE     ---       #78
      00FF51C2H   LINE      CODE     ---       #79
      00FF51CAH   LINE      CODE     ---       #81
      ---         BLOCKEND  ---      ---       LVL=0
      WR30        REGSYM    ---      INT       pages
      WR8         REGSYM    ---      INT       y
      DR24        REGSYM    ---      FLOAT     value_new

      00FF5CFBH   BLOCK     CODE     ---       LVL=0
      00FF5CFDH   BLOCK     CODE     NEAR LAB  LVL=1
      R14         REGSYM    ---      BYTE      i
      R15         REGSYM    ---      BYTE      j
      ---         BLOCKEND  ---      ---       LVL=1
      00FF5CFBH   LINE      CODE     ---       #91
      00FF5CFDH   LINE      CODE     ---       #92
      00FF5CFDH   LINE      CODE     ---       #100
      00FF5CFFH   LINE      CODE     ---       #102
      00FF5D05H   LINE      CODE     ---       #103
      00FF5D21H   LINE      CODE     ---       #104
      00FF5D30H   LINE      CODE     ---       #105
      00FF5D37H   LINE      CODE     ---       #106
      ---         BLOCKEND  ---      ---       LVL=0

      00FF5CBBH   BLOCK     CODE     ---       LVL=0
      00FF5CBDH   BLOCK     CODE     NEAR LAB  LVL=1
      R14         REGSYM    ---      BYTE      i
      R15         REGSYM    ---      BYTE      j
      ---         BLOCKEND  ---      ---       LVL=1
      00FF5CBBH   LINE      CODE     ---       #109
      00FF5CBDH   LINE      CODE     ---       #110
      00FF5CBDH   LINE      CODE     ---       #112
      00FF5CC0H   LINE      CODE     ---       #113
      00FF5CC2H   LINE      CODE     ---       #115
      00FF5CC8H   LINE      CODE     ---       #116
      00FF5CF1H   LINE      CODE     ---       #117
      00FF5CF8H   LINE      CODE     ---       #118
      ---         BLOCKEND  ---      ---       LVL=0

      00FF6509H   BLOCK     CODE     ---       LVL=0
      00FF6509H   LINE      CODE     ---       #121
      00FF6509H   LINE      CODE     ---       #123
      00FF650CH   LINE      CODE     ---       #124
      00FF650FH   LINE      CODE     ---       #125
      ---         BLOCKEND  ---      ---       LVL=0

      00FF6541H   BLOCK     CODE     ---       LVL=0
      00FF6541H   LINE      CODE     ---       #128
      00FF6541H   LINE      CODE     ---       #130
      00FF6544H   LINE      CODE     ---       #131
      ---         BLOCKEND  ---      ---       LVL=0

      ---         MODULE    ---      ---       ?C?FPADD
      00FF0EB4H   PUBLIC    CODE     ---       ?C?FPADD
      00FF0EB1H   PUBLIC    CODE     ---       ?C?FPSUB

      ---         MODULE    ---      ---       ?C?FPMUL
      00FF0F6CH   PUBLIC    CODE     ---       ?C?FPMUL

      ---         MODULE    ---      ---       ?C?FPDIV
      00FF100CH   PUBLIC    CODE     ---       ?C?FPDIV

L251 LINKER/LOCATER V4.66.93.0                                                        03/17/2024  15:38:36  PAGE 100


      ---         MODULE    ---      ---       ?C?FPCMP
      00FF108FH   PUBLIC    CODE     ---       ?C?FPCMP
      00FF108DH   PUBLIC    CODE     ---       ?C?FPCMP3

      ---         MODULE    ---      ---       ?C?FPNEG
      00FF10D3H   PUBLIC    CODE     ---       ?C?FPNEG

      ---         MODULE    ---      ---       ?C?FCAST
      00FF10EBH   PUBLIC    CODE     NEAR LAB  ?C?FCASTC
      00FF10E6H   PUBLIC    CODE     NEAR LAB  ?C?FCASTI
      00FF10E1H   PUBLIC    CODE     NEAR LAB  ?C?FCASTL

      ---         MODULE    ---      ---       ?C?CASTF
      00FF111EH   PUBLIC    CODE     NEAR LAB  ?C?CASTF

      ---         MODULE    ---      ---       PRINTF
      00000351H   PUBLIC    EDATA    ---       ?PRINTF?BYTE
      00FF115BH   PUBLIC    CODE     NEAR LAB  PRINTF

      ---         MODULE    ---      ---       SQRT?_
      00FF1187H   PUBLIC    CODE     ---       SQRT?_

      ---         MODULE    ---      ---       ASIN?_
      00FF1217H   PUBLIC    CODE     ---       ASIN?_

      ---         MODULE    ---      ---       atan2
      00FF5BF0H   PUBLIC    CODE     ---       atan2?_

      ---         MODULE    ---      ---       ?C?FPGETOPN
      00FF1237H   PUBLIC    CODE     ---       ?C?FPGETOPN2
      00FF1274H   PUBLIC    CODE     ---       ?C?FPNANRESULT
      00FF127CH   PUBLIC    CODE     ---       ?C?FPOVERFLOW
      00FF1250H   PUBLIC    CODE     ---       ?C?FPRESULT
      00FF1266H   PUBLIC    CODE     ---       ?C?FPRESULT2
      00FF1279H   PUBLIC    CODE     ---       ?C?FPUNDERFLOW

      ---         MODULE    ---      ---       ?C?PRNFMT
      00FF12B5H   PUBLIC    CODE     ---       ?C?PRNFMT

      ---         MODULE    ---      ---       ATAN?_
      00FF16E4H   PUBLIC    CODE     ---       ATAN?_

      ---         MODULE    ---      ---       ?C?FPCONVERT
      00FF17C4H   PUBLIC    CODE     ---       ?C?FPCONVERT
      00FF187CH   PUBLIC    CODE     ---       ?C?FPROUND

      ---         MODULE    ---      ---       ?C?FPSERIES
      00FF18BFH   PUBLIC    CODE     ---       ?C?FP2SERIES
      00FF18C8H   PUBLIC    CODE     ---       ?C?FPSERIES

      ---         MODULE    ---      ---       ?C?FTNPWR
      00FF191CH   PUBLIC    CODE     ---       ?C?FTNPWR

      ---         MODULE    ---      ---       ?C_START
      00FF0000H   PUBLIC    CODE     ---       ?C?STARTUP
      00FF0000H   PUBLIC    CODE     ---       ?C_STARTUP

      ---         MODULE    ---      ---       ?C?INITEDATA
      00FF5D4DH   PUBLIC    CODE     ---       ?C?INITEDATA

      ---         MODULE    ---      ---       ?C?SIDIV
      00FF1953H   PUBLIC    CODE     ---       ?C?SIDIV

      ---         MODULE    ---      ---       ?C?LMUL
      00FF1985H   PUBLIC    CODE     ---       ?C?LMUL
L251 LINKER/LOCATER V4.66.93.0                                                        03/17/2024  15:38:36  PAGE 101



      ---         MODULE    ---      ---       ?C?LIMUL
      00FF1996H   PUBLIC    CODE     ---       ?C?LIMUL

      ---         MODULE    ---      ---       ?C?ULDIV
      00FF19A1H   PUBLIC    CODE     NEAR LAB  ?C?ULDIV
      00FF199FH   PUBLIC    CODE     NEAR LAB  ?C?ULIDIV

      ---         MODULE    ---      ---       ?C?SLDIV
      00FF19F2H   PUBLIC    CODE     NEAR LAB  ?C?SLDIV

      ---         MODULE    ---      ---       ABS
      00FF6458H   PUBLIC    CODE     ---       abs?_

      ---         MODULE    ---      ---       STRCPY?_
      00FF63EFH   PUBLIC    CODE     NEAR LAB  STRCPY?_

      ---         MODULE    ---      ---       memcpy
      00FF6208H   PUBLIC    CODE     ---       memcpy?_

      ---         MODULE    ---      ---       memset
      00FF6335H   PUBLIC    CODE     ---       memset?_

      ---         MODULE    ---      ---       ?C?INITEDATA_END
      00FF6689H   PUBLIC    HCONST   WORD      ?C?INITEDATA_END

Program Size: data=8.0 edata+hdata=1897 xdata=0 const=611 code=25902
L251 RUN COMPLETE.  0 WARNING(S),  0 ERROR(S)
